   1              		.syntax unified
   2              		.cpu cortex-m3
   3              		.fpu softvfp
   4              		.eabi_attribute 20, 1
   5              		.eabi_attribute 21, 1
   6              		.eabi_attribute 23, 3
   7              		.eabi_attribute 24, 1
   8              		.eabi_attribute 25, 1
   9              		.eabi_attribute 26, 1
  10              		.eabi_attribute 30, 4
  11              		.eabi_attribute 18, 4
  12              		.thumb
  13              		.file	"usb_core.c"
  23              	.Ltext0:
 16594              		.align	1
 16595              		.global	Standard_GetConfiguration
 16596              		.thumb
 16597              		.thumb_func
 16599              	Standard_GetConfiguration:
 16600              	.LFB29:
   1:../../../SDK_embedded/libs/stm32/STM32_USB_FS_Device_Driver/usb_core.c **** /******************** (C) COPYRIGHT 2010 STMicroelectronics ********************
   2:../../../SDK_embedded/libs/stm32/STM32_USB_FS_Device_Driver/usb_core.c **** * File Name          : usb_core.c
   3:../../../SDK_embedded/libs/stm32/STM32_USB_FS_Device_Driver/usb_core.c **** * Author             : MCD Application Team
   4:../../../SDK_embedded/libs/stm32/STM32_USB_FS_Device_Driver/usb_core.c **** * Version            : V3.2.1
   5:../../../SDK_embedded/libs/stm32/STM32_USB_FS_Device_Driver/usb_core.c **** * Date               : 07/05/2010
   6:../../../SDK_embedded/libs/stm32/STM32_USB_FS_Device_Driver/usb_core.c **** * Description        : Standard protocol processing (USB v2.0)
   7:../../../SDK_embedded/libs/stm32/STM32_USB_FS_Device_Driver/usb_core.c **** ********************************************************************************
   8:../../../SDK_embedded/libs/stm32/STM32_USB_FS_Device_Driver/usb_core.c **** * THE PRESENT FIRMWARE WHICH IS FOR GUIDANCE ONLY AIMS AT PROVIDING CUSTOMERS
   9:../../../SDK_embedded/libs/stm32/STM32_USB_FS_Device_Driver/usb_core.c **** * WITH CODING INFORMATION REGARDING THEIR PRODUCTS IN ORDER FOR THEM TO SAVE TIME.
  10:../../../SDK_embedded/libs/stm32/STM32_USB_FS_Device_Driver/usb_core.c **** * AS A RESULT, STMICROELECTRONICS SHALL NOT BE HELD LIABLE FOR ANY DIRECT,
  11:../../../SDK_embedded/libs/stm32/STM32_USB_FS_Device_Driver/usb_core.c **** * INDIRECT OR CONSEQUENTIAL DAMAGES WITH RESPECT TO ANY CLAIMS ARISING FROM THE
  12:../../../SDK_embedded/libs/stm32/STM32_USB_FS_Device_Driver/usb_core.c **** * CONTENT OF SUCH FIRMWARE AND/OR THE USE MADE BY CUSTOMERS OF THE CODING
  13:../../../SDK_embedded/libs/stm32/STM32_USB_FS_Device_Driver/usb_core.c **** * INFORMATION CONTAINED HEREIN IN CONNECTION WITH THEIR PRODUCTS.
  14:../../../SDK_embedded/libs/stm32/STM32_USB_FS_Device_Driver/usb_core.c **** *******************************************************************************/
  15:../../../SDK_embedded/libs/stm32/STM32_USB_FS_Device_Driver/usb_core.c **** 
  16:../../../SDK_embedded/libs/stm32/STM32_USB_FS_Device_Driver/usb_core.c **** /* Includes ------------------------------------------------------------------*/
  17:../../../SDK_embedded/libs/stm32/STM32_USB_FS_Device_Driver/usb_core.c **** #include "usb_lib.h"
  18:../../../SDK_embedded/libs/stm32/STM32_USB_FS_Device_Driver/usb_core.c **** /* Private typedef -----------------------------------------------------------*/
  19:../../../SDK_embedded/libs/stm32/STM32_USB_FS_Device_Driver/usb_core.c **** /* Private define ------------------------------------------------------------*/
  20:../../../SDK_embedded/libs/stm32/STM32_USB_FS_Device_Driver/usb_core.c **** #define ValBit(VAR,Place)    (VAR & (1 << Place))
  21:../../../SDK_embedded/libs/stm32/STM32_USB_FS_Device_Driver/usb_core.c **** #define SetBit(VAR,Place)    (VAR |= (1 << Place))
  22:../../../SDK_embedded/libs/stm32/STM32_USB_FS_Device_Driver/usb_core.c **** #define ClrBit(VAR,Place)    (VAR &= ((1 << Place) ^ 255))
  23:../../../SDK_embedded/libs/stm32/STM32_USB_FS_Device_Driver/usb_core.c **** 
  24:../../../SDK_embedded/libs/stm32/STM32_USB_FS_Device_Driver/usb_core.c **** #ifdef STM32F10X_CL
  25:../../../SDK_embedded/libs/stm32/STM32_USB_FS_Device_Driver/usb_core.c ****  #define Send0LengthData()  {PCD_EP_Write (0, 0, 0) ; vSetEPTxStatus(EP_TX_VALID);}
  26:../../../SDK_embedded/libs/stm32/STM32_USB_FS_Device_Driver/usb_core.c **** #else
  27:../../../SDK_embedded/libs/stm32/STM32_USB_FS_Device_Driver/usb_core.c **** #define Send0LengthData() { _SetEPTxCount(ENDP0, 0); \
  28:../../../SDK_embedded/libs/stm32/STM32_USB_FS_Device_Driver/usb_core.c ****     vSetEPTxStatus(EP_TX_VALID); \
  29:../../../SDK_embedded/libs/stm32/STM32_USB_FS_Device_Driver/usb_core.c ****   }
  30:../../../SDK_embedded/libs/stm32/STM32_USB_FS_Device_Driver/usb_core.c **** #endif /* STM32F10X_CL */
  31:../../../SDK_embedded/libs/stm32/STM32_USB_FS_Device_Driver/usb_core.c **** 
  32:../../../SDK_embedded/libs/stm32/STM32_USB_FS_Device_Driver/usb_core.c **** #define vSetEPRxStatus(st) (SaveRState = st)
  33:../../../SDK_embedded/libs/stm32/STM32_USB_FS_Device_Driver/usb_core.c **** #define vSetEPTxStatus(st) (SaveTState = st)
  34:../../../SDK_embedded/libs/stm32/STM32_USB_FS_Device_Driver/usb_core.c **** 
  35:../../../SDK_embedded/libs/stm32/STM32_USB_FS_Device_Driver/usb_core.c **** #define USB_StatusIn() Send0LengthData()
  36:../../../SDK_embedded/libs/stm32/STM32_USB_FS_Device_Driver/usb_core.c **** #define USB_StatusOut() vSetEPRxStatus(EP_RX_VALID)
  37:../../../SDK_embedded/libs/stm32/STM32_USB_FS_Device_Driver/usb_core.c **** 
  38:../../../SDK_embedded/libs/stm32/STM32_USB_FS_Device_Driver/usb_core.c **** #define StatusInfo0 StatusInfo.bw.bb1 /* Reverse bb0 & bb1 */
  39:../../../SDK_embedded/libs/stm32/STM32_USB_FS_Device_Driver/usb_core.c **** #define StatusInfo1 StatusInfo.bw.bb0
  40:../../../SDK_embedded/libs/stm32/STM32_USB_FS_Device_Driver/usb_core.c **** 
  41:../../../SDK_embedded/libs/stm32/STM32_USB_FS_Device_Driver/usb_core.c **** /* Private macro -------------------------------------------------------------*/
  42:../../../SDK_embedded/libs/stm32/STM32_USB_FS_Device_Driver/usb_core.c **** /* Private variables ---------------------------------------------------------*/
  43:../../../SDK_embedded/libs/stm32/STM32_USB_FS_Device_Driver/usb_core.c **** uint16_t_uint8_t StatusInfo;
  44:../../../SDK_embedded/libs/stm32/STM32_USB_FS_Device_Driver/usb_core.c **** 
  45:../../../SDK_embedded/libs/stm32/STM32_USB_FS_Device_Driver/usb_core.c **** bool Data_Mul_MaxPacketSize = FALSE;
  46:../../../SDK_embedded/libs/stm32/STM32_USB_FS_Device_Driver/usb_core.c **** /* Private function prototypes -----------------------------------------------*/
  47:../../../SDK_embedded/libs/stm32/STM32_USB_FS_Device_Driver/usb_core.c **** static void DataStageOut(void);
  48:../../../SDK_embedded/libs/stm32/STM32_USB_FS_Device_Driver/usb_core.c **** static void DataStageIn(void);
  49:../../../SDK_embedded/libs/stm32/STM32_USB_FS_Device_Driver/usb_core.c **** static void NoData_Setup0(void);
  50:../../../SDK_embedded/libs/stm32/STM32_USB_FS_Device_Driver/usb_core.c **** static void Data_Setup0(void);
  51:../../../SDK_embedded/libs/stm32/STM32_USB_FS_Device_Driver/usb_core.c **** /* Private functions ---------------------------------------------------------*/
  52:../../../SDK_embedded/libs/stm32/STM32_USB_FS_Device_Driver/usb_core.c **** 
  53:../../../SDK_embedded/libs/stm32/STM32_USB_FS_Device_Driver/usb_core.c **** /*******************************************************************************
  54:../../../SDK_embedded/libs/stm32/STM32_USB_FS_Device_Driver/usb_core.c **** * Function Name  : Standard_GetConfiguration.
  55:../../../SDK_embedded/libs/stm32/STM32_USB_FS_Device_Driver/usb_core.c **** * Description    : Return the current configuration variable address.
  56:../../../SDK_embedded/libs/stm32/STM32_USB_FS_Device_Driver/usb_core.c **** * Input          : Length - How many bytes are needed.
  57:../../../SDK_embedded/libs/stm32/STM32_USB_FS_Device_Driver/usb_core.c **** * Output         : None.
  58:../../../SDK_embedded/libs/stm32/STM32_USB_FS_Device_Driver/usb_core.c **** * Return         : Return 1 , if the request is invalid when "Length" is 0.
  59:../../../SDK_embedded/libs/stm32/STM32_USB_FS_Device_Driver/usb_core.c **** *                  Return "Buffer" if the "Length" is not 0.
  60:../../../SDK_embedded/libs/stm32/STM32_USB_FS_Device_Driver/usb_core.c **** *******************************************************************************/
  61:../../../SDK_embedded/libs/stm32/STM32_USB_FS_Device_Driver/usb_core.c **** uint8_t *Standard_GetConfiguration(uint16_t Length)
  62:../../../SDK_embedded/libs/stm32/STM32_USB_FS_Device_Driver/usb_core.c **** {
 16601              		.loc 1 62 0
 16602              		.cfi_startproc
 16603              		@ args = 0, pretend = 0, frame = 0
 16604              		@ frame_needed = 0, uses_anonymous_args = 0
 16605              	.LVL0:
 16606 0000 10B5     		push	{r4, lr}
 16607              	.LCFI0:
 16608              		.cfi_def_cfa_offset 8
 16609              		.cfi_offset 14, -4
 16610              		.cfi_offset 4, -8
 16611 0002 064C     		ldr	r4, .L4
  63:../../../SDK_embedded/libs/stm32/STM32_USB_FS_Device_Driver/usb_core.c ****   if (Length == 0)
 16612              		.loc 1 63 0
 16613 0004 18B9     		cbnz	r0, .L2
  64:../../../SDK_embedded/libs/stm32/STM32_USB_FS_Device_Driver/usb_core.c ****   {
  65:../../../SDK_embedded/libs/stm32/STM32_USB_FS_Device_Driver/usb_core.c ****     pInformation->Ctrl_Info.Usb_wLength =
 16614              		.loc 1 65 0
 16615 0006 2368     		ldr	r3, [r4, #0]
 16616 0008 0122     		movs	r2, #1
 16617 000a 1A82     		strh	r2, [r3, #16]	@ movhi
  66:../../../SDK_embedded/libs/stm32/STM32_USB_FS_Device_Driver/usb_core.c ****       sizeof(pInformation->Current_Configuration);
  67:../../../SDK_embedded/libs/stm32/STM32_USB_FS_Device_Driver/usb_core.c ****     return 0;
 16618              		.loc 1 67 0
 16619 000c 10BD     		pop	{r4, pc}
 16620              	.L2:
  68:../../../SDK_embedded/libs/stm32/STM32_USB_FS_Device_Driver/usb_core.c ****   }
  69:../../../SDK_embedded/libs/stm32/STM32_USB_FS_Device_Driver/usb_core.c ****   pUser_Standard_Requests->User_GetConfiguration();
 16621              		.loc 1 69 0
 16622 000e 044A     		ldr	r2, .L4+4
 16623 0010 1168     		ldr	r1, [r2, #0]
 16624 0012 0868     		ldr	r0, [r1, #0]
 16625              	.LVL1:
 16626 0014 8047     		blx	r0
  70:../../../SDK_embedded/libs/stm32/STM32_USB_FS_Device_Driver/usb_core.c ****   return (uint8_t *)&pInformation->Current_Configuration;
 16627              		.loc 1 70 0
 16628 0016 2068     		ldr	r0, [r4, #0]
 16629 0018 0A30     		adds	r0, r0, #10
  71:../../../SDK_embedded/libs/stm32/STM32_USB_FS_Device_Driver/usb_core.c **** }
 16630              		.loc 1 71 0
 16631 001a 10BD     		pop	{r4, pc}
 16632              	.L5:
 16633              		.align	2
 16634              	.L4:
 16635 001c 00000000 		.word	pInformation
 16636 0020 00000000 		.word	pUser_Standard_Requests
 16637              		.cfi_endproc
 16638              	.LFE29:
 16640              		.section	.text.Standard_GetInterface,"ax",%progbits
 16641              		.align	1
 16642              		.global	Standard_GetInterface
 16643              		.thumb
 16644              		.thumb_func
 16646              	Standard_GetInterface:
 16647              	.LFB31:
  72:../../../SDK_embedded/libs/stm32/STM32_USB_FS_Device_Driver/usb_core.c **** 
  73:../../../SDK_embedded/libs/stm32/STM32_USB_FS_Device_Driver/usb_core.c **** /*******************************************************************************
  74:../../../SDK_embedded/libs/stm32/STM32_USB_FS_Device_Driver/usb_core.c **** * Function Name  : Standard_SetConfiguration.
  75:../../../SDK_embedded/libs/stm32/STM32_USB_FS_Device_Driver/usb_core.c **** * Description    : This routine is called to set the configuration value
  76:../../../SDK_embedded/libs/stm32/STM32_USB_FS_Device_Driver/usb_core.c **** *                  Then each class should configure device themself.
  77:../../../SDK_embedded/libs/stm32/STM32_USB_FS_Device_Driver/usb_core.c **** * Input          : None.
  78:../../../SDK_embedded/libs/stm32/STM32_USB_FS_Device_Driver/usb_core.c **** * Output         : None.
  79:../../../SDK_embedded/libs/stm32/STM32_USB_FS_Device_Driver/usb_core.c **** * Return         : Return USB_SUCCESS, if the request is performed.
  80:../../../SDK_embedded/libs/stm32/STM32_USB_FS_Device_Driver/usb_core.c **** *                  Return USB_UNSUPPORT, if the request is invalid.
  81:../../../SDK_embedded/libs/stm32/STM32_USB_FS_Device_Driver/usb_core.c **** *******************************************************************************/
  82:../../../SDK_embedded/libs/stm32/STM32_USB_FS_Device_Driver/usb_core.c **** RESULT Standard_SetConfiguration(void)
  83:../../../SDK_embedded/libs/stm32/STM32_USB_FS_Device_Driver/usb_core.c **** {
  84:../../../SDK_embedded/libs/stm32/STM32_USB_FS_Device_Driver/usb_core.c **** 
  85:../../../SDK_embedded/libs/stm32/STM32_USB_FS_Device_Driver/usb_core.c ****   if ((pInformation->USBwValue0 <=
  86:../../../SDK_embedded/libs/stm32/STM32_USB_FS_Device_Driver/usb_core.c ****       Device_Table.Total_Configuration) && (pInformation->USBwValue1 == 0)
  87:../../../SDK_embedded/libs/stm32/STM32_USB_FS_Device_Driver/usb_core.c ****       && (pInformation->USBwIndex == 0)) /*call Back usb spec 2.0*/
  88:../../../SDK_embedded/libs/stm32/STM32_USB_FS_Device_Driver/usb_core.c ****   {
  89:../../../SDK_embedded/libs/stm32/STM32_USB_FS_Device_Driver/usb_core.c ****     pInformation->Current_Configuration = pInformation->USBwValue0;
  90:../../../SDK_embedded/libs/stm32/STM32_USB_FS_Device_Driver/usb_core.c ****     pUser_Standard_Requests->User_SetConfiguration();
  91:../../../SDK_embedded/libs/stm32/STM32_USB_FS_Device_Driver/usb_core.c ****     return USB_SUCCESS;
  92:../../../SDK_embedded/libs/stm32/STM32_USB_FS_Device_Driver/usb_core.c ****   }
  93:../../../SDK_embedded/libs/stm32/STM32_USB_FS_Device_Driver/usb_core.c ****   else
  94:../../../SDK_embedded/libs/stm32/STM32_USB_FS_Device_Driver/usb_core.c ****   {
  95:../../../SDK_embedded/libs/stm32/STM32_USB_FS_Device_Driver/usb_core.c ****     return USB_UNSUPPORT;
  96:../../../SDK_embedded/libs/stm32/STM32_USB_FS_Device_Driver/usb_core.c ****   }
  97:../../../SDK_embedded/libs/stm32/STM32_USB_FS_Device_Driver/usb_core.c **** }
  98:../../../SDK_embedded/libs/stm32/STM32_USB_FS_Device_Driver/usb_core.c **** 
  99:../../../SDK_embedded/libs/stm32/STM32_USB_FS_Device_Driver/usb_core.c **** /*******************************************************************************
 100:../../../SDK_embedded/libs/stm32/STM32_USB_FS_Device_Driver/usb_core.c **** * Function Name  : Standard_GetInterface.
 101:../../../SDK_embedded/libs/stm32/STM32_USB_FS_Device_Driver/usb_core.c **** * Description    : Return the Alternate Setting of the current interface.
 102:../../../SDK_embedded/libs/stm32/STM32_USB_FS_Device_Driver/usb_core.c **** * Input          : Length - How many bytes are needed.
 103:../../../SDK_embedded/libs/stm32/STM32_USB_FS_Device_Driver/usb_core.c **** * Output         : None.
 104:../../../SDK_embedded/libs/stm32/STM32_USB_FS_Device_Driver/usb_core.c **** * Return         : Return 0, if the request is invalid when "Length" is 0.
 105:../../../SDK_embedded/libs/stm32/STM32_USB_FS_Device_Driver/usb_core.c **** *                  Return "Buffer" if the "Length" is not 0.
 106:../../../SDK_embedded/libs/stm32/STM32_USB_FS_Device_Driver/usb_core.c **** *******************************************************************************/
 107:../../../SDK_embedded/libs/stm32/STM32_USB_FS_Device_Driver/usb_core.c **** uint8_t *Standard_GetInterface(uint16_t Length)
 108:../../../SDK_embedded/libs/stm32/STM32_USB_FS_Device_Driver/usb_core.c **** {
 16648              		.loc 1 108 0
 16649              		.cfi_startproc
 16650              		@ args = 0, pretend = 0, frame = 0
 16651              		@ frame_needed = 0, uses_anonymous_args = 0
 16652              	.LVL2:
 16653 0000 10B5     		push	{r4, lr}
 16654              	.LCFI1:
 16655              		.cfi_def_cfa_offset 8
 16656              		.cfi_offset 14, -4
 16657              		.cfi_offset 4, -8
 16658 0002 064C     		ldr	r4, .L9
 109:../../../SDK_embedded/libs/stm32/STM32_USB_FS_Device_Driver/usb_core.c ****   if (Length == 0)
 16659              		.loc 1 109 0
 16660 0004 18B9     		cbnz	r0, .L7
 110:../../../SDK_embedded/libs/stm32/STM32_USB_FS_Device_Driver/usb_core.c ****   {
 111:../../../SDK_embedded/libs/stm32/STM32_USB_FS_Device_Driver/usb_core.c ****     pInformation->Ctrl_Info.Usb_wLength =
 16661              		.loc 1 111 0
 16662 0006 2368     		ldr	r3, [r4, #0]
 16663 0008 0122     		movs	r2, #1
 16664 000a 1A82     		strh	r2, [r3, #16]	@ movhi
 112:../../../SDK_embedded/libs/stm32/STM32_USB_FS_Device_Driver/usb_core.c ****       sizeof(pInformation->Current_AlternateSetting);
 113:../../../SDK_embedded/libs/stm32/STM32_USB_FS_Device_Driver/usb_core.c ****     return 0;
 16665              		.loc 1 113 0
 16666 000c 10BD     		pop	{r4, pc}
 16667              	.L7:
 114:../../../SDK_embedded/libs/stm32/STM32_USB_FS_Device_Driver/usb_core.c ****   }
 115:../../../SDK_embedded/libs/stm32/STM32_USB_FS_Device_Driver/usb_core.c ****   pUser_Standard_Requests->User_GetInterface();
 16668              		.loc 1 115 0
 16669 000e 044A     		ldr	r2, .L9+4
 16670 0010 1168     		ldr	r1, [r2, #0]
 16671 0012 8868     		ldr	r0, [r1, #8]
 16672              	.LVL3:
 16673 0014 8047     		blx	r0
 116:../../../SDK_embedded/libs/stm32/STM32_USB_FS_Device_Driver/usb_core.c ****   return (uint8_t *)&pInformation->Current_AlternateSetting;
 16674              		.loc 1 116 0
 16675 0016 2068     		ldr	r0, [r4, #0]
 16676 0018 0C30     		adds	r0, r0, #12
 117:../../../SDK_embedded/libs/stm32/STM32_USB_FS_Device_Driver/usb_core.c **** }
 16677              		.loc 1 117 0
 16678 001a 10BD     		pop	{r4, pc}
 16679              	.L10:
 16680              		.align	2
 16681              	.L9:
 16682 001c 00000000 		.word	pInformation
 16683 0020 00000000 		.word	pUser_Standard_Requests
 16684              		.cfi_endproc
 16685              	.LFE31:
 16687              		.section	.text.Standard_GetStatus,"ax",%progbits
 16688              		.align	1
 16689              		.global	Standard_GetStatus
 16690              		.thumb
 16691              		.thumb_func
 16693              	Standard_GetStatus:
 16694              	.LFB33:
 118:../../../SDK_embedded/libs/stm32/STM32_USB_FS_Device_Driver/usb_core.c **** 
 119:../../../SDK_embedded/libs/stm32/STM32_USB_FS_Device_Driver/usb_core.c **** /*******************************************************************************
 120:../../../SDK_embedded/libs/stm32/STM32_USB_FS_Device_Driver/usb_core.c **** * Function Name  : Standard_SetInterface.
 121:../../../SDK_embedded/libs/stm32/STM32_USB_FS_Device_Driver/usb_core.c **** * Description    : This routine is called to set the interface.
 122:../../../SDK_embedded/libs/stm32/STM32_USB_FS_Device_Driver/usb_core.c **** *                  Then each class should configure the interface them self.
 123:../../../SDK_embedded/libs/stm32/STM32_USB_FS_Device_Driver/usb_core.c **** * Input          : None.
 124:../../../SDK_embedded/libs/stm32/STM32_USB_FS_Device_Driver/usb_core.c **** * Output         : None.
 125:../../../SDK_embedded/libs/stm32/STM32_USB_FS_Device_Driver/usb_core.c **** * Return         : - Return USB_SUCCESS, if the request is performed.
 126:../../../SDK_embedded/libs/stm32/STM32_USB_FS_Device_Driver/usb_core.c **** *                  - Return USB_UNSUPPORT, if the request is invalid.
 127:../../../SDK_embedded/libs/stm32/STM32_USB_FS_Device_Driver/usb_core.c **** *******************************************************************************/
 128:../../../SDK_embedded/libs/stm32/STM32_USB_FS_Device_Driver/usb_core.c **** RESULT Standard_SetInterface(void)
 129:../../../SDK_embedded/libs/stm32/STM32_USB_FS_Device_Driver/usb_core.c **** {
 130:../../../SDK_embedded/libs/stm32/STM32_USB_FS_Device_Driver/usb_core.c ****   RESULT Re;
 131:../../../SDK_embedded/libs/stm32/STM32_USB_FS_Device_Driver/usb_core.c ****   /*Test if the specified Interface and Alternate Setting are supported by
 132:../../../SDK_embedded/libs/stm32/STM32_USB_FS_Device_Driver/usb_core.c ****     the application Firmware*/
 133:../../../SDK_embedded/libs/stm32/STM32_USB_FS_Device_Driver/usb_core.c ****   Re = (*pProperty->Class_Get_Interface_Setting)(pInformation->USBwIndex0, pInformation->USBwValue0
 134:../../../SDK_embedded/libs/stm32/STM32_USB_FS_Device_Driver/usb_core.c **** 
 135:../../../SDK_embedded/libs/stm32/STM32_USB_FS_Device_Driver/usb_core.c ****   if (pInformation->Current_Configuration != 0)
 136:../../../SDK_embedded/libs/stm32/STM32_USB_FS_Device_Driver/usb_core.c ****   {
 137:../../../SDK_embedded/libs/stm32/STM32_USB_FS_Device_Driver/usb_core.c ****     if ((Re != USB_SUCCESS) || (pInformation->USBwIndex1 != 0)
 138:../../../SDK_embedded/libs/stm32/STM32_USB_FS_Device_Driver/usb_core.c ****         || (pInformation->USBwValue1 != 0))
 139:../../../SDK_embedded/libs/stm32/STM32_USB_FS_Device_Driver/usb_core.c ****     {
 140:../../../SDK_embedded/libs/stm32/STM32_USB_FS_Device_Driver/usb_core.c ****       return  USB_UNSUPPORT;
 141:../../../SDK_embedded/libs/stm32/STM32_USB_FS_Device_Driver/usb_core.c ****     }
 142:../../../SDK_embedded/libs/stm32/STM32_USB_FS_Device_Driver/usb_core.c ****     else if (Re == USB_SUCCESS)
 143:../../../SDK_embedded/libs/stm32/STM32_USB_FS_Device_Driver/usb_core.c ****     {
 144:../../../SDK_embedded/libs/stm32/STM32_USB_FS_Device_Driver/usb_core.c ****       pUser_Standard_Requests->User_SetInterface();
 145:../../../SDK_embedded/libs/stm32/STM32_USB_FS_Device_Driver/usb_core.c ****       pInformation->Current_Interface = pInformation->USBwIndex0;
 146:../../../SDK_embedded/libs/stm32/STM32_USB_FS_Device_Driver/usb_core.c ****       pInformation->Current_AlternateSetting = pInformation->USBwValue0;
 147:../../../SDK_embedded/libs/stm32/STM32_USB_FS_Device_Driver/usb_core.c ****       return USB_SUCCESS;
 148:../../../SDK_embedded/libs/stm32/STM32_USB_FS_Device_Driver/usb_core.c ****     }
 149:../../../SDK_embedded/libs/stm32/STM32_USB_FS_Device_Driver/usb_core.c **** 
 150:../../../SDK_embedded/libs/stm32/STM32_USB_FS_Device_Driver/usb_core.c ****   }
 151:../../../SDK_embedded/libs/stm32/STM32_USB_FS_Device_Driver/usb_core.c **** 
 152:../../../SDK_embedded/libs/stm32/STM32_USB_FS_Device_Driver/usb_core.c ****   return USB_UNSUPPORT;
 153:../../../SDK_embedded/libs/stm32/STM32_USB_FS_Device_Driver/usb_core.c **** }
 154:../../../SDK_embedded/libs/stm32/STM32_USB_FS_Device_Driver/usb_core.c **** 
 155:../../../SDK_embedded/libs/stm32/STM32_USB_FS_Device_Driver/usb_core.c **** /*******************************************************************************
 156:../../../SDK_embedded/libs/stm32/STM32_USB_FS_Device_Driver/usb_core.c **** * Function Name  : Standard_GetStatus.
 157:../../../SDK_embedded/libs/stm32/STM32_USB_FS_Device_Driver/usb_core.c **** * Description    : Copy the device request data to "StatusInfo buffer".
 158:../../../SDK_embedded/libs/stm32/STM32_USB_FS_Device_Driver/usb_core.c **** * Input          : - Length - How many bytes are needed.
 159:../../../SDK_embedded/libs/stm32/STM32_USB_FS_Device_Driver/usb_core.c **** * Output         : None.
 160:../../../SDK_embedded/libs/stm32/STM32_USB_FS_Device_Driver/usb_core.c **** * Return         : Return 0, if the request is at end of data block,
 161:../../../SDK_embedded/libs/stm32/STM32_USB_FS_Device_Driver/usb_core.c **** *                  or is invalid when "Length" is 0.
 162:../../../SDK_embedded/libs/stm32/STM32_USB_FS_Device_Driver/usb_core.c **** *******************************************************************************/
 163:../../../SDK_embedded/libs/stm32/STM32_USB_FS_Device_Driver/usb_core.c **** uint8_t *Standard_GetStatus(uint16_t Length)
 164:../../../SDK_embedded/libs/stm32/STM32_USB_FS_Device_Driver/usb_core.c **** {
 16695              		.loc 1 164 0
 16696              		.cfi_startproc
 16697              		@ args = 0, pretend = 0, frame = 0
 16698              		@ frame_needed = 0, uses_anonymous_args = 0
 16699              	.LVL4:
 16700 0000 08B5     		push	{r3, lr}
 16701              	.LCFI2:
 16702              		.cfi_def_cfa_offset 8
 16703              		.cfi_offset 14, -4
 16704              		.cfi_offset 3, -8
 16705 0002 294B     		ldr	r3, .L27
 165:../../../SDK_embedded/libs/stm32/STM32_USB_FS_Device_Driver/usb_core.c ****   if (Length == 0)
 16706              		.loc 1 165 0
 16707 0004 18B9     		cbnz	r0, .L12
 166:../../../SDK_embedded/libs/stm32/STM32_USB_FS_Device_Driver/usb_core.c ****   {
 167:../../../SDK_embedded/libs/stm32/STM32_USB_FS_Device_Driver/usb_core.c ****     pInformation->Ctrl_Info.Usb_wLength = 2;
 16708              		.loc 1 167 0
 16709 0006 1B68     		ldr	r3, [r3, #0]
 16710 0008 0222     		movs	r2, #2
 16711 000a 1A82     		strh	r2, [r3, #16]	@ movhi
 168:../../../SDK_embedded/libs/stm32/STM32_USB_FS_Device_Driver/usb_core.c ****     return 0;
 16712              		.loc 1 168 0
 16713 000c 08BD     		pop	{r3, pc}
 16714              	.L12:
 169:../../../SDK_embedded/libs/stm32/STM32_USB_FS_Device_Driver/usb_core.c ****   }
 170:../../../SDK_embedded/libs/stm32/STM32_USB_FS_Device_Driver/usb_core.c **** 
 171:../../../SDK_embedded/libs/stm32/STM32_USB_FS_Device_Driver/usb_core.c ****   /* Reset Status Information */
 172:../../../SDK_embedded/libs/stm32/STM32_USB_FS_Device_Driver/usb_core.c ****   StatusInfo.w = 0;
 16715              		.loc 1 172 0
 16716 000e 2748     		ldr	r0, .L27+4
 16717              	.LVL5:
 16718 0010 0022     		movs	r2, #0
 173:../../../SDK_embedded/libs/stm32/STM32_USB_FS_Device_Driver/usb_core.c **** 
 174:../../../SDK_embedded/libs/stm32/STM32_USB_FS_Device_Driver/usb_core.c ****   if (Type_Recipient == (STANDARD_REQUEST | DEVICE_RECIPIENT))
 16719              		.loc 1 174 0
 16720 0012 1B68     		ldr	r3, [r3, #0]
 172:../../../SDK_embedded/libs/stm32/STM32_USB_FS_Device_Driver/usb_core.c ****   StatusInfo.w = 0;
 16721              		.loc 1 172 0
 16722 0014 0280     		strh	r2, [r0, #0]	@ movhi
 16723              		.loc 1 174 0
 16724 0016 1978     		ldrb	r1, [r3, #0]	@ zero_extendqisi2
 16725 0018 11F07F02 		ands	r2, r1, #127
 16726 001c 17D1     		bne	.L14
 16727              	.LVL6:
 16728              	.LBB5:
 175:../../../SDK_embedded/libs/stm32/STM32_USB_FS_Device_Driver/usb_core.c ****   {
 176:../../../SDK_embedded/libs/stm32/STM32_USB_FS_Device_Driver/usb_core.c ****     /*Get Device Status */
 177:../../../SDK_embedded/libs/stm32/STM32_USB_FS_Device_Driver/usb_core.c ****     uint8_t Feature = pInformation->Current_Feature;
 178:../../../SDK_embedded/libs/stm32/STM32_USB_FS_Device_Driver/usb_core.c **** 
 179:../../../SDK_embedded/libs/stm32/STM32_USB_FS_Device_Driver/usb_core.c ****     /* Remote Wakeup enabled */
 180:../../../SDK_embedded/libs/stm32/STM32_USB_FS_Device_Driver/usb_core.c ****     if (ValBit(Feature, 5))
 16729              		.loc 1 180 0
 16730 001e 93F809C0 		ldrb	ip, [r3, #9]	@ zero_extendqisi2
 16731 0022 90F800E0 		ldrb	lr, [r0, #0]	@ zero_extendqisi2
 16732 0026 1CF0200F 		tst	ip, #32
 181:../../../SDK_embedded/libs/stm32/STM32_USB_FS_Device_Driver/usb_core.c ****     {
 182:../../../SDK_embedded/libs/stm32/STM32_USB_FS_Device_Driver/usb_core.c ****       SetBit(StatusInfo0, 1);
 16733              		.loc 1 182 0
 16734 002a 14BF     		ite	ne
 16735 002c 4EF0020E 		orrne	lr, lr, #2
 183:../../../SDK_embedded/libs/stm32/STM32_USB_FS_Device_Driver/usb_core.c ****     }
 184:../../../SDK_embedded/libs/stm32/STM32_USB_FS_Device_Driver/usb_core.c ****     else
 185:../../../SDK_embedded/libs/stm32/STM32_USB_FS_Device_Driver/usb_core.c ****     {
 186:../../../SDK_embedded/libs/stm32/STM32_USB_FS_Device_Driver/usb_core.c ****       ClrBit(StatusInfo0, 1);
 16736              		.loc 1 186 0
 16737 0030 2EF0020E 		biceq	lr, lr, #2
 16738 0034 1D4B     		ldr	r3, .L27+4
 16739              	.LVL7:
 16740 0036 80F800E0 		strb	lr, [r0, #0]
 187:../../../SDK_embedded/libs/stm32/STM32_USB_FS_Device_Driver/usb_core.c ****     }      
 188:../../../SDK_embedded/libs/stm32/STM32_USB_FS_Device_Driver/usb_core.c **** 
 189:../../../SDK_embedded/libs/stm32/STM32_USB_FS_Device_Driver/usb_core.c ****     /* Bus-powered */
 190:../../../SDK_embedded/libs/stm32/STM32_USB_FS_Device_Driver/usb_core.c ****     if (ValBit(Feature, 6))
 191:../../../SDK_embedded/libs/stm32/STM32_USB_FS_Device_Driver/usb_core.c ****     {
 192:../../../SDK_embedded/libs/stm32/STM32_USB_FS_Device_Driver/usb_core.c ****       SetBit(StatusInfo0, 0);
 16741              		.loc 1 192 0
 16742 003a 1878     		ldrb	r0, [r3, #0]	@ zero_extendqisi2
 190:../../../SDK_embedded/libs/stm32/STM32_USB_FS_Device_Driver/usb_core.c ****     if (ValBit(Feature, 6))
 16743              		.loc 1 190 0
 16744 003c 1CF0400F 		tst	ip, #64
 16745              		.loc 1 192 0
 16746 0040 14BF     		ite	ne
 16747 0042 40F00100 		orrne	r0, r0, #1
 193:../../../SDK_embedded/libs/stm32/STM32_USB_FS_Device_Driver/usb_core.c ****     }
 194:../../../SDK_embedded/libs/stm32/STM32_USB_FS_Device_Driver/usb_core.c ****     else /* Self-powered */
 195:../../../SDK_embedded/libs/stm32/STM32_USB_FS_Device_Driver/usb_core.c ****     {
 196:../../../SDK_embedded/libs/stm32/STM32_USB_FS_Device_Driver/usb_core.c ****       ClrBit(StatusInfo0, 0);
 16748              		.loc 1 196 0
 16749 0046 20F00100 		biceq	r0, r0, #1
 16750 004a 1870     		strb	r0, [r3, #0]
 16751 004c 23E0     		b	.L18
 16752              	.LVL8:
 16753              	.L14:
 16754              	.LBE5:
 197:../../../SDK_embedded/libs/stm32/STM32_USB_FS_Device_Driver/usb_core.c ****     }
 198:../../../SDK_embedded/libs/stm32/STM32_USB_FS_Device_Driver/usb_core.c ****   }
 199:../../../SDK_embedded/libs/stm32/STM32_USB_FS_Device_Driver/usb_core.c ****   /*Interface Status*/
 200:../../../SDK_embedded/libs/stm32/STM32_USB_FS_Device_Driver/usb_core.c ****   else if (Type_Recipient == (STANDARD_REQUEST | INTERFACE_RECIPIENT))
 16755              		.loc 1 200 0
 16756 004e 012A     		cmp	r2, #1
 16757 0050 28D0     		beq	.L13
 201:../../../SDK_embedded/libs/stm32/STM32_USB_FS_Device_Driver/usb_core.c ****   {
 202:../../../SDK_embedded/libs/stm32/STM32_USB_FS_Device_Driver/usb_core.c ****     return (uint8_t *)&StatusInfo;
 203:../../../SDK_embedded/libs/stm32/STM32_USB_FS_Device_Driver/usb_core.c ****   }
 204:../../../SDK_embedded/libs/stm32/STM32_USB_FS_Device_Driver/usb_core.c ****   /*Get EndPoint Status*/
 205:../../../SDK_embedded/libs/stm32/STM32_USB_FS_Device_Driver/usb_core.c ****   else if (Type_Recipient == (STANDARD_REQUEST | ENDPOINT_RECIPIENT))
 16758              		.loc 1 205 0
 16759 0052 022A     		cmp	r2, #2
 16760 0054 25D1     		bne	.L21
 16761              	.LBB6:
 206:../../../SDK_embedded/libs/stm32/STM32_USB_FS_Device_Driver/usb_core.c ****   {
 207:../../../SDK_embedded/libs/stm32/STM32_USB_FS_Device_Driver/usb_core.c ****     uint8_t Related_Endpoint;
 208:../../../SDK_embedded/libs/stm32/STM32_USB_FS_Device_Driver/usb_core.c ****     uint8_t wIndex0 = pInformation->USBwIndex0;
 16762              		.loc 1 208 0
 16763 0056 5A79     		ldrb	r2, [r3, #5]	@ zero_extendqisi2
 16764              	.LVL9:
 209:../../../SDK_embedded/libs/stm32/STM32_USB_FS_Device_Driver/usb_core.c **** 
 210:../../../SDK_embedded/libs/stm32/STM32_USB_FS_Device_Driver/usb_core.c ****     Related_Endpoint = (wIndex0 & 0x0f);
 16765              		.loc 1 210 0
 16766 0058 02F00F01 		and	r1, r2, #15
 16767              	.LVL10:
 211:../../../SDK_embedded/libs/stm32/STM32_USB_FS_Device_Driver/usb_core.c ****     if (ValBit(wIndex0, 7))
 16768              		.loc 1 211 0
 16769 005c 12F0800F 		tst	r2, #128
 16770 0060 4FEA8103 		lsl	r3, r1, #2
 16771 0064 09D0     		beq	.L19
 212:../../../SDK_embedded/libs/stm32/STM32_USB_FS_Device_Driver/usb_core.c ****     {
 213:../../../SDK_embedded/libs/stm32/STM32_USB_FS_Device_Driver/usb_core.c ****       /* IN endpoint */
 214:../../../SDK_embedded/libs/stm32/STM32_USB_FS_Device_Driver/usb_core.c ****       if (_GetTxStallStatus(Related_Endpoint))
 16772              		.loc 1 214 0
 16773 0066 03F1804E 		add	lr, r3, #1073741824
 16774 006a 0EF5B84C 		add	ip, lr, #23552
 16775 006e DCF80030 		ldr	r3, [ip, #0]
 16776 0072 03F03003 		and	r3, r3, #48
 16777 0076 102B     		cmp	r3, #16
 16778 0078 08E0     		b	.L26
 16779              	.L19:
 215:../../../SDK_embedded/libs/stm32/STM32_USB_FS_Device_Driver/usb_core.c ****       {
 216:../../../SDK_embedded/libs/stm32/STM32_USB_FS_Device_Driver/usb_core.c ****         SetBit(StatusInfo0, 0); /* IN Endpoint stalled */
 217:../../../SDK_embedded/libs/stm32/STM32_USB_FS_Device_Driver/usb_core.c ****       }
 218:../../../SDK_embedded/libs/stm32/STM32_USB_FS_Device_Driver/usb_core.c ****     }
 219:../../../SDK_embedded/libs/stm32/STM32_USB_FS_Device_Driver/usb_core.c ****     else
 220:../../../SDK_embedded/libs/stm32/STM32_USB_FS_Device_Driver/usb_core.c ****     {
 221:../../../SDK_embedded/libs/stm32/STM32_USB_FS_Device_Driver/usb_core.c ****       /* OUT endpoint */
 222:../../../SDK_embedded/libs/stm32/STM32_USB_FS_Device_Driver/usb_core.c ****       if (_GetRxStallStatus(Related_Endpoint))
 16780              		.loc 1 222 0
 16781 007a 03F18043 		add	r3, r3, #1073741824
 16782 007e 03F5B842 		add	r2, r3, #23552
 16783              	.LVL11:
 16784 0082 1168     		ldr	r1, [r2, #0]
 16785              	.LVL12:
 16786 0084 01F44053 		and	r3, r1, #12288
 16787 0088 B3F5805F 		cmp	r3, #4096
 16788              	.L26:
 223:../../../SDK_embedded/libs/stm32/STM32_USB_FS_Device_Driver/usb_core.c ****       {
 224:../../../SDK_embedded/libs/stm32/STM32_USB_FS_Device_Driver/usb_core.c ****         SetBit(StatusInfo0, 0); /* OUT Endpoint stalled */
 16789              		.loc 1 224 0
 16790 008c 02BF     		ittt	eq
 16791 008e 0378     		ldrbeq	r3, [r0, #0]	@ zero_extendqisi2
 16792 0090 43F00103 		orreq	r3, r3, #1
 16793 0094 0370     		strbeq	r3, [r0, #0]
 16794              	.L18:
 16795              	.LBE6:
 225:../../../SDK_embedded/libs/stm32/STM32_USB_FS_Device_Driver/usb_core.c ****       }
 226:../../../SDK_embedded/libs/stm32/STM32_USB_FS_Device_Driver/usb_core.c ****     }
 227:../../../SDK_embedded/libs/stm32/STM32_USB_FS_Device_Driver/usb_core.c **** 
 228:../../../SDK_embedded/libs/stm32/STM32_USB_FS_Device_Driver/usb_core.c ****   }
 229:../../../SDK_embedded/libs/stm32/STM32_USB_FS_Device_Driver/usb_core.c ****   else
 230:../../../SDK_embedded/libs/stm32/STM32_USB_FS_Device_Driver/usb_core.c ****   {
 231:../../../SDK_embedded/libs/stm32/STM32_USB_FS_Device_Driver/usb_core.c ****     return NULL;
 232:../../../SDK_embedded/libs/stm32/STM32_USB_FS_Device_Driver/usb_core.c ****   }
 233:../../../SDK_embedded/libs/stm32/STM32_USB_FS_Device_Driver/usb_core.c ****   pUser_Standard_Requests->User_GetStatus();
 16796              		.loc 1 233 0
 16797 0096 064A     		ldr	r2, .L27+8
 16798 0098 1168     		ldr	r1, [r2, #0]
 16799 009a 0869     		ldr	r0, [r1, #16]
 16800 009c 8047     		blx	r0
 234:../../../SDK_embedded/libs/stm32/STM32_USB_FS_Device_Driver/usb_core.c ****   return (uint8_t *)&StatusInfo;
 16801              		.loc 1 234 0
 16802 009e 0348     		ldr	r0, .L27+4
 16803 00a0 08BD     		pop	{r3, pc}
 16804              	.L21:
 231:../../../SDK_embedded/libs/stm32/STM32_USB_FS_Device_Driver/usb_core.c ****     return NULL;
 16805              		.loc 1 231 0
 16806 00a2 0020     		movs	r0, #0
 16807              	.L13:
 235:../../../SDK_embedded/libs/stm32/STM32_USB_FS_Device_Driver/usb_core.c **** }
 16808              		.loc 1 235 0
 16809 00a4 08BD     		pop	{r3, pc}
 16810              	.L28:
 16811 00a6 00BF     		.align	2
 16812              	.L27:
 16813 00a8 00000000 		.word	pInformation
 16814 00ac 00000000 		.word	StatusInfo
 16815 00b0 00000000 		.word	pUser_Standard_Requests
 16816              		.cfi_endproc
 16817              	.LFE33:
 16819              		.section	.text.DataStageIn,"ax",%progbits
 16820              		.align	1
 16821              		.thumb
 16822              		.thumb_func
 16824              	DataStageIn:
 16825              	.LFB39:
 236:../../../SDK_embedded/libs/stm32/STM32_USB_FS_Device_Driver/usb_core.c **** 
 237:../../../SDK_embedded/libs/stm32/STM32_USB_FS_Device_Driver/usb_core.c **** /*******************************************************************************
 238:../../../SDK_embedded/libs/stm32/STM32_USB_FS_Device_Driver/usb_core.c **** * Function Name  : Standard_ClearFeature.
 239:../../../SDK_embedded/libs/stm32/STM32_USB_FS_Device_Driver/usb_core.c **** * Description    : Clear or disable a specific feature.
 240:../../../SDK_embedded/libs/stm32/STM32_USB_FS_Device_Driver/usb_core.c **** * Input          : None.
 241:../../../SDK_embedded/libs/stm32/STM32_USB_FS_Device_Driver/usb_core.c **** * Output         : None.
 242:../../../SDK_embedded/libs/stm32/STM32_USB_FS_Device_Driver/usb_core.c **** * Return         : - Return USB_SUCCESS, if the request is performed.
 243:../../../SDK_embedded/libs/stm32/STM32_USB_FS_Device_Driver/usb_core.c **** *                  - Return USB_UNSUPPORT, if the request is invalid.
 244:../../../SDK_embedded/libs/stm32/STM32_USB_FS_Device_Driver/usb_core.c **** *******************************************************************************/
 245:../../../SDK_embedded/libs/stm32/STM32_USB_FS_Device_Driver/usb_core.c **** RESULT Standard_ClearFeature(void)
 246:../../../SDK_embedded/libs/stm32/STM32_USB_FS_Device_Driver/usb_core.c **** {
 247:../../../SDK_embedded/libs/stm32/STM32_USB_FS_Device_Driver/usb_core.c ****   uint32_t     Type_Rec = Type_Recipient;
 248:../../../SDK_embedded/libs/stm32/STM32_USB_FS_Device_Driver/usb_core.c ****   uint32_t     Status;
 249:../../../SDK_embedded/libs/stm32/STM32_USB_FS_Device_Driver/usb_core.c **** 
 250:../../../SDK_embedded/libs/stm32/STM32_USB_FS_Device_Driver/usb_core.c **** 
 251:../../../SDK_embedded/libs/stm32/STM32_USB_FS_Device_Driver/usb_core.c ****   if (Type_Rec == (STANDARD_REQUEST | DEVICE_RECIPIENT))
 252:../../../SDK_embedded/libs/stm32/STM32_USB_FS_Device_Driver/usb_core.c ****   {/*Device Clear Feature*/
 253:../../../SDK_embedded/libs/stm32/STM32_USB_FS_Device_Driver/usb_core.c ****     ClrBit(pInformation->Current_Feature, 5);
 254:../../../SDK_embedded/libs/stm32/STM32_USB_FS_Device_Driver/usb_core.c ****     return USB_SUCCESS;
 255:../../../SDK_embedded/libs/stm32/STM32_USB_FS_Device_Driver/usb_core.c ****   }
 256:../../../SDK_embedded/libs/stm32/STM32_USB_FS_Device_Driver/usb_core.c ****   else if (Type_Rec == (STANDARD_REQUEST | ENDPOINT_RECIPIENT))
 257:../../../SDK_embedded/libs/stm32/STM32_USB_FS_Device_Driver/usb_core.c ****   {/*EndPoint Clear Feature*/
 258:../../../SDK_embedded/libs/stm32/STM32_USB_FS_Device_Driver/usb_core.c ****     DEVICE* pDev;
 259:../../../SDK_embedded/libs/stm32/STM32_USB_FS_Device_Driver/usb_core.c ****     uint32_t Related_Endpoint;
 260:../../../SDK_embedded/libs/stm32/STM32_USB_FS_Device_Driver/usb_core.c ****     uint32_t wIndex0;
 261:../../../SDK_embedded/libs/stm32/STM32_USB_FS_Device_Driver/usb_core.c ****     uint32_t rEP;
 262:../../../SDK_embedded/libs/stm32/STM32_USB_FS_Device_Driver/usb_core.c **** 
 263:../../../SDK_embedded/libs/stm32/STM32_USB_FS_Device_Driver/usb_core.c ****     if ((pInformation->USBwValue != ENDPOINT_STALL)
 264:../../../SDK_embedded/libs/stm32/STM32_USB_FS_Device_Driver/usb_core.c ****         || (pInformation->USBwIndex1 != 0))
 265:../../../SDK_embedded/libs/stm32/STM32_USB_FS_Device_Driver/usb_core.c ****     {
 266:../../../SDK_embedded/libs/stm32/STM32_USB_FS_Device_Driver/usb_core.c ****       return USB_UNSUPPORT;
 267:../../../SDK_embedded/libs/stm32/STM32_USB_FS_Device_Driver/usb_core.c ****     }
 268:../../../SDK_embedded/libs/stm32/STM32_USB_FS_Device_Driver/usb_core.c **** 
 269:../../../SDK_embedded/libs/stm32/STM32_USB_FS_Device_Driver/usb_core.c ****     pDev = &Device_Table;
 270:../../../SDK_embedded/libs/stm32/STM32_USB_FS_Device_Driver/usb_core.c ****     wIndex0 = pInformation->USBwIndex0;
 271:../../../SDK_embedded/libs/stm32/STM32_USB_FS_Device_Driver/usb_core.c ****     rEP = wIndex0 & ~0x80;
 272:../../../SDK_embedded/libs/stm32/STM32_USB_FS_Device_Driver/usb_core.c ****     Related_Endpoint = ENDP0 + rEP;
 273:../../../SDK_embedded/libs/stm32/STM32_USB_FS_Device_Driver/usb_core.c **** 
 274:../../../SDK_embedded/libs/stm32/STM32_USB_FS_Device_Driver/usb_core.c ****     if (ValBit(pInformation->USBwIndex0, 7))
 275:../../../SDK_embedded/libs/stm32/STM32_USB_FS_Device_Driver/usb_core.c ****     {
 276:../../../SDK_embedded/libs/stm32/STM32_USB_FS_Device_Driver/usb_core.c ****       /*Get Status of endpoint & stall the request if the related_ENdpoint
 277:../../../SDK_embedded/libs/stm32/STM32_USB_FS_Device_Driver/usb_core.c ****       is Disabled*/
 278:../../../SDK_embedded/libs/stm32/STM32_USB_FS_Device_Driver/usb_core.c ****       Status = _GetEPTxStatus(Related_Endpoint);
 279:../../../SDK_embedded/libs/stm32/STM32_USB_FS_Device_Driver/usb_core.c ****     }
 280:../../../SDK_embedded/libs/stm32/STM32_USB_FS_Device_Driver/usb_core.c ****     else
 281:../../../SDK_embedded/libs/stm32/STM32_USB_FS_Device_Driver/usb_core.c ****     {
 282:../../../SDK_embedded/libs/stm32/STM32_USB_FS_Device_Driver/usb_core.c ****       Status = _GetEPRxStatus(Related_Endpoint);
 283:../../../SDK_embedded/libs/stm32/STM32_USB_FS_Device_Driver/usb_core.c ****     }
 284:../../../SDK_embedded/libs/stm32/STM32_USB_FS_Device_Driver/usb_core.c **** 
 285:../../../SDK_embedded/libs/stm32/STM32_USB_FS_Device_Driver/usb_core.c ****     if ((rEP >= pDev->Total_Endpoint) || (Status == 0)
 286:../../../SDK_embedded/libs/stm32/STM32_USB_FS_Device_Driver/usb_core.c ****         || (pInformation->Current_Configuration == 0))
 287:../../../SDK_embedded/libs/stm32/STM32_USB_FS_Device_Driver/usb_core.c ****     {
 288:../../../SDK_embedded/libs/stm32/STM32_USB_FS_Device_Driver/usb_core.c ****       return USB_UNSUPPORT;
 289:../../../SDK_embedded/libs/stm32/STM32_USB_FS_Device_Driver/usb_core.c ****     }
 290:../../../SDK_embedded/libs/stm32/STM32_USB_FS_Device_Driver/usb_core.c **** 
 291:../../../SDK_embedded/libs/stm32/STM32_USB_FS_Device_Driver/usb_core.c **** 
 292:../../../SDK_embedded/libs/stm32/STM32_USB_FS_Device_Driver/usb_core.c ****     if (wIndex0 & 0x80)
 293:../../../SDK_embedded/libs/stm32/STM32_USB_FS_Device_Driver/usb_core.c ****     {
 294:../../../SDK_embedded/libs/stm32/STM32_USB_FS_Device_Driver/usb_core.c ****       /* IN endpoint */
 295:../../../SDK_embedded/libs/stm32/STM32_USB_FS_Device_Driver/usb_core.c ****       if (_GetTxStallStatus(Related_Endpoint ))
 296:../../../SDK_embedded/libs/stm32/STM32_USB_FS_Device_Driver/usb_core.c ****       {
 297:../../../SDK_embedded/libs/stm32/STM32_USB_FS_Device_Driver/usb_core.c ****       #ifndef STM32F10X_CL
 298:../../../SDK_embedded/libs/stm32/STM32_USB_FS_Device_Driver/usb_core.c ****         ClearDTOG_TX(Related_Endpoint);
 299:../../../SDK_embedded/libs/stm32/STM32_USB_FS_Device_Driver/usb_core.c ****       #endif /* STM32F10X_CL */
 300:../../../SDK_embedded/libs/stm32/STM32_USB_FS_Device_Driver/usb_core.c ****         SetEPTxStatus(Related_Endpoint, EP_TX_VALID);
 301:../../../SDK_embedded/libs/stm32/STM32_USB_FS_Device_Driver/usb_core.c ****       }
 302:../../../SDK_embedded/libs/stm32/STM32_USB_FS_Device_Driver/usb_core.c ****     }
 303:../../../SDK_embedded/libs/stm32/STM32_USB_FS_Device_Driver/usb_core.c ****     else
 304:../../../SDK_embedded/libs/stm32/STM32_USB_FS_Device_Driver/usb_core.c ****     {
 305:../../../SDK_embedded/libs/stm32/STM32_USB_FS_Device_Driver/usb_core.c ****       /* OUT endpoint */
 306:../../../SDK_embedded/libs/stm32/STM32_USB_FS_Device_Driver/usb_core.c ****       if (_GetRxStallStatus(Related_Endpoint))
 307:../../../SDK_embedded/libs/stm32/STM32_USB_FS_Device_Driver/usb_core.c ****       {
 308:../../../SDK_embedded/libs/stm32/STM32_USB_FS_Device_Driver/usb_core.c ****         if (Related_Endpoint == ENDP0)
 309:../../../SDK_embedded/libs/stm32/STM32_USB_FS_Device_Driver/usb_core.c ****         {
 310:../../../SDK_embedded/libs/stm32/STM32_USB_FS_Device_Driver/usb_core.c ****           /* After clear the STALL, enable the default endpoint receiver */
 311:../../../SDK_embedded/libs/stm32/STM32_USB_FS_Device_Driver/usb_core.c ****           SetEPRxCount(Related_Endpoint, Device_Property.MaxPacketSize);
 312:../../../SDK_embedded/libs/stm32/STM32_USB_FS_Device_Driver/usb_core.c ****           _SetEPRxStatus(Related_Endpoint, EP_RX_VALID);
 313:../../../SDK_embedded/libs/stm32/STM32_USB_FS_Device_Driver/usb_core.c ****         }
 314:../../../SDK_embedded/libs/stm32/STM32_USB_FS_Device_Driver/usb_core.c ****         else
 315:../../../SDK_embedded/libs/stm32/STM32_USB_FS_Device_Driver/usb_core.c ****         {
 316:../../../SDK_embedded/libs/stm32/STM32_USB_FS_Device_Driver/usb_core.c ****         #ifndef STM32F10X_CL
 317:../../../SDK_embedded/libs/stm32/STM32_USB_FS_Device_Driver/usb_core.c ****           ClearDTOG_RX(Related_Endpoint);
 318:../../../SDK_embedded/libs/stm32/STM32_USB_FS_Device_Driver/usb_core.c ****         #endif /* STM32F10X_CL */
 319:../../../SDK_embedded/libs/stm32/STM32_USB_FS_Device_Driver/usb_core.c ****           _SetEPRxStatus(Related_Endpoint, EP_RX_VALID);
 320:../../../SDK_embedded/libs/stm32/STM32_USB_FS_Device_Driver/usb_core.c ****         }
 321:../../../SDK_embedded/libs/stm32/STM32_USB_FS_Device_Driver/usb_core.c ****       }
 322:../../../SDK_embedded/libs/stm32/STM32_USB_FS_Device_Driver/usb_core.c ****     }
 323:../../../SDK_embedded/libs/stm32/STM32_USB_FS_Device_Driver/usb_core.c ****     pUser_Standard_Requests->User_ClearFeature();
 324:../../../SDK_embedded/libs/stm32/STM32_USB_FS_Device_Driver/usb_core.c ****     return USB_SUCCESS;
 325:../../../SDK_embedded/libs/stm32/STM32_USB_FS_Device_Driver/usb_core.c ****   }
 326:../../../SDK_embedded/libs/stm32/STM32_USB_FS_Device_Driver/usb_core.c **** 
 327:../../../SDK_embedded/libs/stm32/STM32_USB_FS_Device_Driver/usb_core.c ****   return USB_UNSUPPORT;
 328:../../../SDK_embedded/libs/stm32/STM32_USB_FS_Device_Driver/usb_core.c **** }
 329:../../../SDK_embedded/libs/stm32/STM32_USB_FS_Device_Driver/usb_core.c **** 
 330:../../../SDK_embedded/libs/stm32/STM32_USB_FS_Device_Driver/usb_core.c **** /*******************************************************************************
 331:../../../SDK_embedded/libs/stm32/STM32_USB_FS_Device_Driver/usb_core.c **** * Function Name  : Standard_SetEndPointFeature
 332:../../../SDK_embedded/libs/stm32/STM32_USB_FS_Device_Driver/usb_core.c **** * Description    : Set or enable a specific feature of EndPoint
 333:../../../SDK_embedded/libs/stm32/STM32_USB_FS_Device_Driver/usb_core.c **** * Input          : None.
 334:../../../SDK_embedded/libs/stm32/STM32_USB_FS_Device_Driver/usb_core.c **** * Output         : None.
 335:../../../SDK_embedded/libs/stm32/STM32_USB_FS_Device_Driver/usb_core.c **** * Return         : - Return USB_SUCCESS, if the request is performed.
 336:../../../SDK_embedded/libs/stm32/STM32_USB_FS_Device_Driver/usb_core.c **** *                  - Return USB_UNSUPPORT, if the request is invalid.
 337:../../../SDK_embedded/libs/stm32/STM32_USB_FS_Device_Driver/usb_core.c **** *******************************************************************************/
 338:../../../SDK_embedded/libs/stm32/STM32_USB_FS_Device_Driver/usb_core.c **** RESULT Standard_SetEndPointFeature(void)
 339:../../../SDK_embedded/libs/stm32/STM32_USB_FS_Device_Driver/usb_core.c **** {
 340:../../../SDK_embedded/libs/stm32/STM32_USB_FS_Device_Driver/usb_core.c ****   uint32_t    wIndex0;
 341:../../../SDK_embedded/libs/stm32/STM32_USB_FS_Device_Driver/usb_core.c ****   uint32_t    Related_Endpoint;
 342:../../../SDK_embedded/libs/stm32/STM32_USB_FS_Device_Driver/usb_core.c ****   uint32_t    rEP;
 343:../../../SDK_embedded/libs/stm32/STM32_USB_FS_Device_Driver/usb_core.c ****   uint32_t    Status;
 344:../../../SDK_embedded/libs/stm32/STM32_USB_FS_Device_Driver/usb_core.c **** 
 345:../../../SDK_embedded/libs/stm32/STM32_USB_FS_Device_Driver/usb_core.c ****   wIndex0 = pInformation->USBwIndex0;
 346:../../../SDK_embedded/libs/stm32/STM32_USB_FS_Device_Driver/usb_core.c ****   rEP = wIndex0 & ~0x80;
 347:../../../SDK_embedded/libs/stm32/STM32_USB_FS_Device_Driver/usb_core.c ****   Related_Endpoint = ENDP0 + rEP;
 348:../../../SDK_embedded/libs/stm32/STM32_USB_FS_Device_Driver/usb_core.c **** 
 349:../../../SDK_embedded/libs/stm32/STM32_USB_FS_Device_Driver/usb_core.c ****   if (ValBit(pInformation->USBwIndex0, 7))
 350:../../../SDK_embedded/libs/stm32/STM32_USB_FS_Device_Driver/usb_core.c ****   {
 351:../../../SDK_embedded/libs/stm32/STM32_USB_FS_Device_Driver/usb_core.c ****     /* get Status of endpoint & stall the request if the related_ENdpoint
 352:../../../SDK_embedded/libs/stm32/STM32_USB_FS_Device_Driver/usb_core.c ****     is Disabled*/
 353:../../../SDK_embedded/libs/stm32/STM32_USB_FS_Device_Driver/usb_core.c ****     Status = _GetEPTxStatus(Related_Endpoint);
 354:../../../SDK_embedded/libs/stm32/STM32_USB_FS_Device_Driver/usb_core.c ****   }
 355:../../../SDK_embedded/libs/stm32/STM32_USB_FS_Device_Driver/usb_core.c ****   else
 356:../../../SDK_embedded/libs/stm32/STM32_USB_FS_Device_Driver/usb_core.c ****   {
 357:../../../SDK_embedded/libs/stm32/STM32_USB_FS_Device_Driver/usb_core.c ****     Status = _GetEPRxStatus(Related_Endpoint);
 358:../../../SDK_embedded/libs/stm32/STM32_USB_FS_Device_Driver/usb_core.c ****   }
 359:../../../SDK_embedded/libs/stm32/STM32_USB_FS_Device_Driver/usb_core.c **** 
 360:../../../SDK_embedded/libs/stm32/STM32_USB_FS_Device_Driver/usb_core.c ****   if (Related_Endpoint >= Device_Table.Total_Endpoint
 361:../../../SDK_embedded/libs/stm32/STM32_USB_FS_Device_Driver/usb_core.c ****       || pInformation->USBwValue != 0 || Status == 0
 362:../../../SDK_embedded/libs/stm32/STM32_USB_FS_Device_Driver/usb_core.c ****       || pInformation->Current_Configuration == 0)
 363:../../../SDK_embedded/libs/stm32/STM32_USB_FS_Device_Driver/usb_core.c ****   {
 364:../../../SDK_embedded/libs/stm32/STM32_USB_FS_Device_Driver/usb_core.c ****     return USB_UNSUPPORT;
 365:../../../SDK_embedded/libs/stm32/STM32_USB_FS_Device_Driver/usb_core.c ****   }
 366:../../../SDK_embedded/libs/stm32/STM32_USB_FS_Device_Driver/usb_core.c ****   else
 367:../../../SDK_embedded/libs/stm32/STM32_USB_FS_Device_Driver/usb_core.c ****   {
 368:../../../SDK_embedded/libs/stm32/STM32_USB_FS_Device_Driver/usb_core.c ****     if (wIndex0 & 0x80)
 369:../../../SDK_embedded/libs/stm32/STM32_USB_FS_Device_Driver/usb_core.c ****     {
 370:../../../SDK_embedded/libs/stm32/STM32_USB_FS_Device_Driver/usb_core.c ****       /* IN endpoint */
 371:../../../SDK_embedded/libs/stm32/STM32_USB_FS_Device_Driver/usb_core.c ****       _SetEPTxStatus(Related_Endpoint, EP_TX_STALL);
 372:../../../SDK_embedded/libs/stm32/STM32_USB_FS_Device_Driver/usb_core.c ****     }
 373:../../../SDK_embedded/libs/stm32/STM32_USB_FS_Device_Driver/usb_core.c **** 
 374:../../../SDK_embedded/libs/stm32/STM32_USB_FS_Device_Driver/usb_core.c ****     else
 375:../../../SDK_embedded/libs/stm32/STM32_USB_FS_Device_Driver/usb_core.c ****     {
 376:../../../SDK_embedded/libs/stm32/STM32_USB_FS_Device_Driver/usb_core.c ****       /* OUT endpoint */
 377:../../../SDK_embedded/libs/stm32/STM32_USB_FS_Device_Driver/usb_core.c ****       _SetEPRxStatus(Related_Endpoint, EP_RX_STALL);
 378:../../../SDK_embedded/libs/stm32/STM32_USB_FS_Device_Driver/usb_core.c ****     }
 379:../../../SDK_embedded/libs/stm32/STM32_USB_FS_Device_Driver/usb_core.c ****   }
 380:../../../SDK_embedded/libs/stm32/STM32_USB_FS_Device_Driver/usb_core.c ****   pUser_Standard_Requests->User_SetEndPointFeature();
 381:../../../SDK_embedded/libs/stm32/STM32_USB_FS_Device_Driver/usb_core.c ****   return USB_SUCCESS;
 382:../../../SDK_embedded/libs/stm32/STM32_USB_FS_Device_Driver/usb_core.c **** }
 383:../../../SDK_embedded/libs/stm32/STM32_USB_FS_Device_Driver/usb_core.c **** 
 384:../../../SDK_embedded/libs/stm32/STM32_USB_FS_Device_Driver/usb_core.c **** /*******************************************************************************
 385:../../../SDK_embedded/libs/stm32/STM32_USB_FS_Device_Driver/usb_core.c **** * Function Name  : Standard_SetDeviceFeature.
 386:../../../SDK_embedded/libs/stm32/STM32_USB_FS_Device_Driver/usb_core.c **** * Description    : Set or enable a specific feature of Device.
 387:../../../SDK_embedded/libs/stm32/STM32_USB_FS_Device_Driver/usb_core.c **** * Input          : None.
 388:../../../SDK_embedded/libs/stm32/STM32_USB_FS_Device_Driver/usb_core.c **** * Output         : None.
 389:../../../SDK_embedded/libs/stm32/STM32_USB_FS_Device_Driver/usb_core.c **** * Return         : - Return USB_SUCCESS, if the request is performed.
 390:../../../SDK_embedded/libs/stm32/STM32_USB_FS_Device_Driver/usb_core.c **** *                  - Return USB_UNSUPPORT, if the request is invalid.
 391:../../../SDK_embedded/libs/stm32/STM32_USB_FS_Device_Driver/usb_core.c **** *******************************************************************************/
 392:../../../SDK_embedded/libs/stm32/STM32_USB_FS_Device_Driver/usb_core.c **** RESULT Standard_SetDeviceFeature(void)
 393:../../../SDK_embedded/libs/stm32/STM32_USB_FS_Device_Driver/usb_core.c **** {
 394:../../../SDK_embedded/libs/stm32/STM32_USB_FS_Device_Driver/usb_core.c ****   SetBit(pInformation->Current_Feature, 5);
 395:../../../SDK_embedded/libs/stm32/STM32_USB_FS_Device_Driver/usb_core.c ****   pUser_Standard_Requests->User_SetDeviceFeature();
 396:../../../SDK_embedded/libs/stm32/STM32_USB_FS_Device_Driver/usb_core.c ****   return USB_SUCCESS;
 397:../../../SDK_embedded/libs/stm32/STM32_USB_FS_Device_Driver/usb_core.c **** }
 398:../../../SDK_embedded/libs/stm32/STM32_USB_FS_Device_Driver/usb_core.c **** 
 399:../../../SDK_embedded/libs/stm32/STM32_USB_FS_Device_Driver/usb_core.c **** /*******************************************************************************
 400:../../../SDK_embedded/libs/stm32/STM32_USB_FS_Device_Driver/usb_core.c **** * Function Name  : Standard_GetDescriptorData.
 401:../../../SDK_embedded/libs/stm32/STM32_USB_FS_Device_Driver/usb_core.c **** * Description    : Standard_GetDescriptorData is used for descriptors transfer.
 402:../../../SDK_embedded/libs/stm32/STM32_USB_FS_Device_Driver/usb_core.c **** *                : This routine is used for the descriptors resident in Flash
 403:../../../SDK_embedded/libs/stm32/STM32_USB_FS_Device_Driver/usb_core.c **** *                  or RAM
 404:../../../SDK_embedded/libs/stm32/STM32_USB_FS_Device_Driver/usb_core.c **** *                  pDesc can be in either Flash or RAM
 405:../../../SDK_embedded/libs/stm32/STM32_USB_FS_Device_Driver/usb_core.c **** *                  The purpose of this routine is to have a versatile way to
 406:../../../SDK_embedded/libs/stm32/STM32_USB_FS_Device_Driver/usb_core.c **** *                  response descriptors request. It allows user to generate
 407:../../../SDK_embedded/libs/stm32/STM32_USB_FS_Device_Driver/usb_core.c **** *                  certain descriptors with software or read descriptors from
 408:../../../SDK_embedded/libs/stm32/STM32_USB_FS_Device_Driver/usb_core.c **** *                  external storage part by part.
 409:../../../SDK_embedded/libs/stm32/STM32_USB_FS_Device_Driver/usb_core.c **** * Input          : - Length - Length of the data in this transfer.
 410:../../../SDK_embedded/libs/stm32/STM32_USB_FS_Device_Driver/usb_core.c **** *                  - pDesc - A pointer points to descriptor struct.
 411:../../../SDK_embedded/libs/stm32/STM32_USB_FS_Device_Driver/usb_core.c **** *                  The structure gives the initial address of the descriptor and
 412:../../../SDK_embedded/libs/stm32/STM32_USB_FS_Device_Driver/usb_core.c **** *                  its original size.
 413:../../../SDK_embedded/libs/stm32/STM32_USB_FS_Device_Driver/usb_core.c **** * Output         : None.
 414:../../../SDK_embedded/libs/stm32/STM32_USB_FS_Device_Driver/usb_core.c **** * Return         : Address of a part of the descriptor pointed by the Usb_
 415:../../../SDK_embedded/libs/stm32/STM32_USB_FS_Device_Driver/usb_core.c **** *                  wOffset The buffer pointed by this address contains at least
 416:../../../SDK_embedded/libs/stm32/STM32_USB_FS_Device_Driver/usb_core.c **** *                  Length bytes.
 417:../../../SDK_embedded/libs/stm32/STM32_USB_FS_Device_Driver/usb_core.c **** *******************************************************************************/
 418:../../../SDK_embedded/libs/stm32/STM32_USB_FS_Device_Driver/usb_core.c **** uint8_t *Standard_GetDescriptorData(uint16_t Length, ONE_DESCRIPTOR *pDesc)
 419:../../../SDK_embedded/libs/stm32/STM32_USB_FS_Device_Driver/usb_core.c **** {
 420:../../../SDK_embedded/libs/stm32/STM32_USB_FS_Device_Driver/usb_core.c ****   uint32_t  wOffset;
 421:../../../SDK_embedded/libs/stm32/STM32_USB_FS_Device_Driver/usb_core.c **** 
 422:../../../SDK_embedded/libs/stm32/STM32_USB_FS_Device_Driver/usb_core.c ****   wOffset = pInformation->Ctrl_Info.Usb_wOffset;
 423:../../../SDK_embedded/libs/stm32/STM32_USB_FS_Device_Driver/usb_core.c ****   if (Length == 0)
 424:../../../SDK_embedded/libs/stm32/STM32_USB_FS_Device_Driver/usb_core.c ****   {
 425:../../../SDK_embedded/libs/stm32/STM32_USB_FS_Device_Driver/usb_core.c ****     pInformation->Ctrl_Info.Usb_wLength = pDesc->Descriptor_Size - wOffset;
 426:../../../SDK_embedded/libs/stm32/STM32_USB_FS_Device_Driver/usb_core.c ****     return 0;
 427:../../../SDK_embedded/libs/stm32/STM32_USB_FS_Device_Driver/usb_core.c ****   }
 428:../../../SDK_embedded/libs/stm32/STM32_USB_FS_Device_Driver/usb_core.c **** 
 429:../../../SDK_embedded/libs/stm32/STM32_USB_FS_Device_Driver/usb_core.c ****   return pDesc->Descriptor + wOffset;
 430:../../../SDK_embedded/libs/stm32/STM32_USB_FS_Device_Driver/usb_core.c **** }
 431:../../../SDK_embedded/libs/stm32/STM32_USB_FS_Device_Driver/usb_core.c **** 
 432:../../../SDK_embedded/libs/stm32/STM32_USB_FS_Device_Driver/usb_core.c **** /*******************************************************************************
 433:../../../SDK_embedded/libs/stm32/STM32_USB_FS_Device_Driver/usb_core.c **** * Function Name  : DataStageOut.
 434:../../../SDK_embedded/libs/stm32/STM32_USB_FS_Device_Driver/usb_core.c **** * Description    : Data stage of a Control Write Transfer.
 435:../../../SDK_embedded/libs/stm32/STM32_USB_FS_Device_Driver/usb_core.c **** * Input          : None.
 436:../../../SDK_embedded/libs/stm32/STM32_USB_FS_Device_Driver/usb_core.c **** * Output         : None.
 437:../../../SDK_embedded/libs/stm32/STM32_USB_FS_Device_Driver/usb_core.c **** * Return         : None.
 438:../../../SDK_embedded/libs/stm32/STM32_USB_FS_Device_Driver/usb_core.c **** *******************************************************************************/
 439:../../../SDK_embedded/libs/stm32/STM32_USB_FS_Device_Driver/usb_core.c **** void DataStageOut(void)
 440:../../../SDK_embedded/libs/stm32/STM32_USB_FS_Device_Driver/usb_core.c **** {
 441:../../../SDK_embedded/libs/stm32/STM32_USB_FS_Device_Driver/usb_core.c ****   ENDPOINT_INFO *pEPinfo = &pInformation->Ctrl_Info;
 442:../../../SDK_embedded/libs/stm32/STM32_USB_FS_Device_Driver/usb_core.c ****   uint32_t save_rLength;
 443:../../../SDK_embedded/libs/stm32/STM32_USB_FS_Device_Driver/usb_core.c **** 
 444:../../../SDK_embedded/libs/stm32/STM32_USB_FS_Device_Driver/usb_core.c ****   save_rLength = pEPinfo->Usb_rLength;
 445:../../../SDK_embedded/libs/stm32/STM32_USB_FS_Device_Driver/usb_core.c **** 
 446:../../../SDK_embedded/libs/stm32/STM32_USB_FS_Device_Driver/usb_core.c ****   if (pEPinfo->CopyData && save_rLength)
 447:../../../SDK_embedded/libs/stm32/STM32_USB_FS_Device_Driver/usb_core.c ****   {
 448:../../../SDK_embedded/libs/stm32/STM32_USB_FS_Device_Driver/usb_core.c ****     uint8_t *Buffer;
 449:../../../SDK_embedded/libs/stm32/STM32_USB_FS_Device_Driver/usb_core.c ****     uint32_t Length;
 450:../../../SDK_embedded/libs/stm32/STM32_USB_FS_Device_Driver/usb_core.c **** 
 451:../../../SDK_embedded/libs/stm32/STM32_USB_FS_Device_Driver/usb_core.c ****     Length = pEPinfo->PacketSize;
 452:../../../SDK_embedded/libs/stm32/STM32_USB_FS_Device_Driver/usb_core.c ****     if (Length > save_rLength)
 453:../../../SDK_embedded/libs/stm32/STM32_USB_FS_Device_Driver/usb_core.c ****     {
 454:../../../SDK_embedded/libs/stm32/STM32_USB_FS_Device_Driver/usb_core.c ****       Length = save_rLength;
 455:../../../SDK_embedded/libs/stm32/STM32_USB_FS_Device_Driver/usb_core.c ****     }
 456:../../../SDK_embedded/libs/stm32/STM32_USB_FS_Device_Driver/usb_core.c **** 
 457:../../../SDK_embedded/libs/stm32/STM32_USB_FS_Device_Driver/usb_core.c ****     Buffer = (*pEPinfo->CopyData)(Length);
 458:../../../SDK_embedded/libs/stm32/STM32_USB_FS_Device_Driver/usb_core.c ****     pEPinfo->Usb_rLength -= Length;
 459:../../../SDK_embedded/libs/stm32/STM32_USB_FS_Device_Driver/usb_core.c ****     pEPinfo->Usb_rOffset += Length;
 460:../../../SDK_embedded/libs/stm32/STM32_USB_FS_Device_Driver/usb_core.c **** 
 461:../../../SDK_embedded/libs/stm32/STM32_USB_FS_Device_Driver/usb_core.c ****   #ifdef STM32F10X_CL  
 462:../../../SDK_embedded/libs/stm32/STM32_USB_FS_Device_Driver/usb_core.c ****     PCD_EP_Read(ENDP0, Buffer, Length); 
 463:../../../SDK_embedded/libs/stm32/STM32_USB_FS_Device_Driver/usb_core.c ****   #else  
 464:../../../SDK_embedded/libs/stm32/STM32_USB_FS_Device_Driver/usb_core.c ****     PMAToUserBufferCopy(Buffer, GetEPRxAddr(ENDP0), Length);
 465:../../../SDK_embedded/libs/stm32/STM32_USB_FS_Device_Driver/usb_core.c ****   #endif  /* STM32F10X_CL */
 466:../../../SDK_embedded/libs/stm32/STM32_USB_FS_Device_Driver/usb_core.c ****   }
 467:../../../SDK_embedded/libs/stm32/STM32_USB_FS_Device_Driver/usb_core.c **** 
 468:../../../SDK_embedded/libs/stm32/STM32_USB_FS_Device_Driver/usb_core.c ****   if (pEPinfo->Usb_rLength != 0)
 469:../../../SDK_embedded/libs/stm32/STM32_USB_FS_Device_Driver/usb_core.c ****   {
 470:../../../SDK_embedded/libs/stm32/STM32_USB_FS_Device_Driver/usb_core.c ****     vSetEPRxStatus(EP_RX_VALID);/* re-enable for next data reception */
 471:../../../SDK_embedded/libs/stm32/STM32_USB_FS_Device_Driver/usb_core.c ****     SetEPTxCount(ENDP0, 0);
 472:../../../SDK_embedded/libs/stm32/STM32_USB_FS_Device_Driver/usb_core.c ****     vSetEPTxStatus(EP_TX_VALID);/* Expect the host to abort the data OUT stage */
 473:../../../SDK_embedded/libs/stm32/STM32_USB_FS_Device_Driver/usb_core.c ****   }
 474:../../../SDK_embedded/libs/stm32/STM32_USB_FS_Device_Driver/usb_core.c ****   /* Set the next State*/
 475:../../../SDK_embedded/libs/stm32/STM32_USB_FS_Device_Driver/usb_core.c ****   if (pEPinfo->Usb_rLength >= pEPinfo->PacketSize)
 476:../../../SDK_embedded/libs/stm32/STM32_USB_FS_Device_Driver/usb_core.c ****   {
 477:../../../SDK_embedded/libs/stm32/STM32_USB_FS_Device_Driver/usb_core.c ****     pInformation->ControlState = OUT_DATA;
 478:../../../SDK_embedded/libs/stm32/STM32_USB_FS_Device_Driver/usb_core.c ****   }
 479:../../../SDK_embedded/libs/stm32/STM32_USB_FS_Device_Driver/usb_core.c ****   else
 480:../../../SDK_embedded/libs/stm32/STM32_USB_FS_Device_Driver/usb_core.c ****   {
 481:../../../SDK_embedded/libs/stm32/STM32_USB_FS_Device_Driver/usb_core.c ****     if (pEPinfo->Usb_rLength > 0)
 482:../../../SDK_embedded/libs/stm32/STM32_USB_FS_Device_Driver/usb_core.c ****     {
 483:../../../SDK_embedded/libs/stm32/STM32_USB_FS_Device_Driver/usb_core.c ****       pInformation->ControlState = LAST_OUT_DATA;
 484:../../../SDK_embedded/libs/stm32/STM32_USB_FS_Device_Driver/usb_core.c ****     }
 485:../../../SDK_embedded/libs/stm32/STM32_USB_FS_Device_Driver/usb_core.c ****     else if (pEPinfo->Usb_rLength == 0)
 486:../../../SDK_embedded/libs/stm32/STM32_USB_FS_Device_Driver/usb_core.c ****     {
 487:../../../SDK_embedded/libs/stm32/STM32_USB_FS_Device_Driver/usb_core.c ****       pInformation->ControlState = WAIT_STATUS_IN;
 488:../../../SDK_embedded/libs/stm32/STM32_USB_FS_Device_Driver/usb_core.c ****       USB_StatusIn();
 489:../../../SDK_embedded/libs/stm32/STM32_USB_FS_Device_Driver/usb_core.c ****     }
 490:../../../SDK_embedded/libs/stm32/STM32_USB_FS_Device_Driver/usb_core.c ****   }
 491:../../../SDK_embedded/libs/stm32/STM32_USB_FS_Device_Driver/usb_core.c **** }
 492:../../../SDK_embedded/libs/stm32/STM32_USB_FS_Device_Driver/usb_core.c **** 
 493:../../../SDK_embedded/libs/stm32/STM32_USB_FS_Device_Driver/usb_core.c **** /*******************************************************************************
 494:../../../SDK_embedded/libs/stm32/STM32_USB_FS_Device_Driver/usb_core.c **** * Function Name  : DataStageIn.
 495:../../../SDK_embedded/libs/stm32/STM32_USB_FS_Device_Driver/usb_core.c **** * Description    : Data stage of a Control Read Transfer.
 496:../../../SDK_embedded/libs/stm32/STM32_USB_FS_Device_Driver/usb_core.c **** * Input          : None.
 497:../../../SDK_embedded/libs/stm32/STM32_USB_FS_Device_Driver/usb_core.c **** * Output         : None.
 498:../../../SDK_embedded/libs/stm32/STM32_USB_FS_Device_Driver/usb_core.c **** * Return         : None.
 499:../../../SDK_embedded/libs/stm32/STM32_USB_FS_Device_Driver/usb_core.c **** *******************************************************************************/
 500:../../../SDK_embedded/libs/stm32/STM32_USB_FS_Device_Driver/usb_core.c **** void DataStageIn(void)
 501:../../../SDK_embedded/libs/stm32/STM32_USB_FS_Device_Driver/usb_core.c **** {
 16826              		.loc 1 501 0
 16827              		.cfi_startproc
 16828              		@ args = 0, pretend = 0, frame = 0
 16829              		@ frame_needed = 0, uses_anonymous_args = 0
 502:../../../SDK_embedded/libs/stm32/STM32_USB_FS_Device_Driver/usb_core.c ****   ENDPOINT_INFO *pEPinfo = &pInformation->Ctrl_Info;
 16830              		.loc 1 502 0
 16831 0000 294B     		ldr	r3, .L35
 501:../../../SDK_embedded/libs/stm32/STM32_USB_FS_Device_Driver/usb_core.c **** {
 16832              		.loc 1 501 0
 16833 0002 2DE9F041 		push	{r4, r5, r6, r7, r8, lr}
 16834              	.LCFI3:
 16835              		.cfi_def_cfa_offset 24
 16836              		.cfi_offset 14, -4
 16837              		.cfi_offset 8, -8
 16838              		.cfi_offset 7, -12
 16839              		.cfi_offset 6, -16
 16840              		.cfi_offset 5, -20
 16841              		.cfi_offset 4, -24
 16842              		.loc 1 502 0
 16843 0006 1C68     		ldr	r4, [r3, #0]
 16844              	.LVL13:
 503:../../../SDK_embedded/libs/stm32/STM32_USB_FS_Device_Driver/usb_core.c ****   uint32_t save_wLength = pEPinfo->Usb_wLength;
 16845              		.loc 1 503 0
 16846 0008 238A     		ldrh	r3, [r4, #16]
 16847              	.LVL14:
 504:../../../SDK_embedded/libs/stm32/STM32_USB_FS_Device_Driver/usb_core.c ****   uint32_t ControlState = pInformation->ControlState;
 16848              		.loc 1 504 0
 16849 000a 277A     		ldrb	r7, [r4, #8]	@ zero_extendqisi2
 505:../../../SDK_embedded/libs/stm32/STM32_USB_FS_Device_Driver/usb_core.c **** 
 506:../../../SDK_embedded/libs/stm32/STM32_USB_FS_Device_Driver/usb_core.c ****   uint8_t *DataBuffer;
 507:../../../SDK_embedded/libs/stm32/STM32_USB_FS_Device_Driver/usb_core.c ****   uint32_t Length;
 508:../../../SDK_embedded/libs/stm32/STM32_USB_FS_Device_Driver/usb_core.c **** 
 509:../../../SDK_embedded/libs/stm32/STM32_USB_FS_Device_Driver/usb_core.c ****   if ((save_wLength == 0) && (ControlState == LAST_IN_DATA))
 16850              		.loc 1 509 0
 16851 000c D3F10102 		rsbs	r2, r3, #1
 16852 0010 38BF     		it	cc
 16853 0012 0022     		movcc	r2, #0
 16854 0014 042F     		cmp	r7, #4
 16855 0016 14BF     		ite	ne
 16856 0018 0027     		movne	r7, #0
 16857 001a 02F00107 		andeq	r7, r2, #1
 16858 001e BFB1     		cbz	r7, .L30
 510:../../../SDK_embedded/libs/stm32/STM32_USB_FS_Device_Driver/usb_core.c ****   {
 511:../../../SDK_embedded/libs/stm32/STM32_USB_FS_Device_Driver/usb_core.c ****     if(Data_Mul_MaxPacketSize == TRUE)
 16859              		.loc 1 511 0
 16860 0020 2249     		ldr	r1, .L35+4
 16861 0022 234A     		ldr	r2, .L35+8
 16862 0024 0878     		ldrb	r0, [r1, #0]	@ zero_extendqisi2
 16863 0026 0128     		cmp	r0, #1
 16864 0028 0ED1     		bne	.L31
 512:../../../SDK_embedded/libs/stm32/STM32_USB_FS_Device_Driver/usb_core.c ****     {
 513:../../../SDK_embedded/libs/stm32/STM32_USB_FS_Device_Driver/usb_core.c ****       /* No more data to send and empty packet */
 514:../../../SDK_embedded/libs/stm32/STM32_USB_FS_Device_Driver/usb_core.c ****       Send0LengthData();
 16865              		.loc 1 514 0
 16866 002a 224E     		ldr	r6, .L35+12
 16867 002c 224B     		ldr	r3, .L35+16
 16868              	.LVL15:
 16869 002e 3068     		ldr	r0, [r6, #0]
 16870 0030 1FFA80FC 		uxth	ip, r0
 16871 0034 0CEB0306 		add	r6, ip, r3
 16872 0038 7000     		lsls	r0, r6, #1
 16873 003a 3023     		movs	r3, #48
 16874 003c 0026     		movs	r6, #0
 16875 003e 0660     		str	r6, [r0, #0]
 515:../../../SDK_embedded/libs/stm32/STM32_USB_FS_Device_Driver/usb_core.c ****       ControlState = LAST_IN_DATA;
 516:../../../SDK_embedded/libs/stm32/STM32_USB_FS_Device_Driver/usb_core.c ****       Data_Mul_MaxPacketSize = FALSE;
 16876              		.loc 1 516 0
 16877 0040 0E70     		strb	r6, [r1, #0]
 514:../../../SDK_embedded/libs/stm32/STM32_USB_FS_Device_Driver/usb_core.c ****       Send0LengthData();
 16878              		.loc 1 514 0
 16879 0042 1380     		strh	r3, [r2, #0]	@ movhi
 16880              	.LVL16:
 515:../../../SDK_embedded/libs/stm32/STM32_USB_FS_Device_Driver/usb_core.c ****       ControlState = LAST_IN_DATA;
 16881              		.loc 1 515 0
 16882 0044 0426     		movs	r6, #4
 16883 0046 29E0     		b	.L32
 16884              	.LVL17:
 16885              	.L31:
 517:../../../SDK_embedded/libs/stm32/STM32_USB_FS_Device_Driver/usb_core.c ****     }
 518:../../../SDK_embedded/libs/stm32/STM32_USB_FS_Device_Driver/usb_core.c ****     else 
 519:../../../SDK_embedded/libs/stm32/STM32_USB_FS_Device_Driver/usb_core.c ****     {
 520:../../../SDK_embedded/libs/stm32/STM32_USB_FS_Device_Driver/usb_core.c ****       /* No more data to send so STALL the TX Status*/
 521:../../../SDK_embedded/libs/stm32/STM32_USB_FS_Device_Driver/usb_core.c ****       ControlState = WAIT_STATUS_OUT;
 522:../../../SDK_embedded/libs/stm32/STM32_USB_FS_Device_Driver/usb_core.c **** 
 523:../../../SDK_embedded/libs/stm32/STM32_USB_FS_Device_Driver/usb_core.c ****     #ifdef STM32F10X_CL      
 524:../../../SDK_embedded/libs/stm32/STM32_USB_FS_Device_Driver/usb_core.c ****       PCD_EP_Read (ENDP0, 0, 0);
 525:../../../SDK_embedded/libs/stm32/STM32_USB_FS_Device_Driver/usb_core.c ****     #endif  /* STM32F10X_CL */ 
 526:../../../SDK_embedded/libs/stm32/STM32_USB_FS_Device_Driver/usb_core.c ****     
 527:../../../SDK_embedded/libs/stm32/STM32_USB_FS_Device_Driver/usb_core.c ****     #ifndef STM32F10X_CL 
 528:../../../SDK_embedded/libs/stm32/STM32_USB_FS_Device_Driver/usb_core.c ****       vSetEPTxStatus(EP_TX_STALL);
 16886              		.loc 1 528 0
 16887 0048 1021     		movs	r1, #16
 16888 004a 1180     		strh	r1, [r2, #0]	@ movhi
 521:../../../SDK_embedded/libs/stm32/STM32_USB_FS_Device_Driver/usb_core.c ****       ControlState = WAIT_STATUS_OUT;
 16889              		.loc 1 521 0
 16890 004c 0726     		movs	r6, #7
 16891 004e 25E0     		b	.L32
 16892              	.LVL18:
 16893              	.L30:
 529:../../../SDK_embedded/libs/stm32/STM32_USB_FS_Device_Driver/usb_core.c ****     #endif  /* STM32F10X_CL */ 
 530:../../../SDK_embedded/libs/stm32/STM32_USB_FS_Device_Driver/usb_core.c ****     }
 531:../../../SDK_embedded/libs/stm32/STM32_USB_FS_Device_Driver/usb_core.c ****     
 532:../../../SDK_embedded/libs/stm32/STM32_USB_FS_Device_Driver/usb_core.c ****     goto Expect_Status_Out;
 533:../../../SDK_embedded/libs/stm32/STM32_USB_FS_Device_Driver/usb_core.c ****   }
 534:../../../SDK_embedded/libs/stm32/STM32_USB_FS_Device_Driver/usb_core.c **** 
 535:../../../SDK_embedded/libs/stm32/STM32_USB_FS_Device_Driver/usb_core.c ****   Length = pEPinfo->PacketSize;
 16894              		.loc 1 535 0
 16895 0050 A58A     		ldrh	r5, [r4, #20]
 16896              	.LVL19:
 536:../../../SDK_embedded/libs/stm32/STM32_USB_FS_Device_Driver/usb_core.c ****   ControlState = (save_wLength <= Length) ? LAST_IN_DATA : IN_DATA;
 537:../../../SDK_embedded/libs/stm32/STM32_USB_FS_Device_Driver/usb_core.c **** 
 538:../../../SDK_embedded/libs/stm32/STM32_USB_FS_Device_Driver/usb_core.c ****   if (Length > save_wLength)
 539:../../../SDK_embedded/libs/stm32/STM32_USB_FS_Device_Driver/usb_core.c ****   {
 540:../../../SDK_embedded/libs/stm32/STM32_USB_FS_Device_Driver/usb_core.c ****     Length = save_wLength;
 541:../../../SDK_embedded/libs/stm32/STM32_USB_FS_Device_Driver/usb_core.c ****   }
 542:../../../SDK_embedded/libs/stm32/STM32_USB_FS_Device_Driver/usb_core.c **** 
 543:../../../SDK_embedded/libs/stm32/STM32_USB_FS_Device_Driver/usb_core.c ****   DataBuffer = (*pEPinfo->CopyData)(Length);
 16897              		.loc 1 543 0
 16898 0052 A269     		ldr	r2, [r4, #24]
 536:../../../SDK_embedded/libs/stm32/STM32_USB_FS_Device_Driver/usb_core.c ****   ControlState = (save_wLength <= Length) ? LAST_IN_DATA : IN_DATA;
 16899              		.loc 1 536 0
 16900 0054 AB42     		cmp	r3, r5
 16901 0056 8CBF     		ite	hi
 16902 0058 0226     		movhi	r6, #2
 16903 005a 0426     		movls	r6, #4
 16904              	.LVL20:
 16905              		.loc 1 543 0
 16906 005c 9D42     		cmp	r5, r3
 16907 005e 28BF     		it	cs
 16908 0060 1D46     		movcs	r5, r3
 16909              	.LVL21:
 16910 0062 2846     		mov	r0, r5
 16911 0064 9047     		blx	r2
 16912              	.LVL22:
 544:../../../SDK_embedded/libs/stm32/STM32_USB_FS_Device_Driver/usb_core.c **** 
 545:../../../SDK_embedded/libs/stm32/STM32_USB_FS_Device_Driver/usb_core.c **** #ifdef STM32F10X_CL
 546:../../../SDK_embedded/libs/stm32/STM32_USB_FS_Device_Driver/usb_core.c ****   PCD_EP_Write (ENDP0, DataBuffer, Length);
 547:../../../SDK_embedded/libs/stm32/STM32_USB_FS_Device_Driver/usb_core.c **** #else   
 548:../../../SDK_embedded/libs/stm32/STM32_USB_FS_Device_Driver/usb_core.c ****   UserToPMABufferCopy(DataBuffer, GetEPTxAddr(ENDP0), Length);
 16913              		.loc 1 548 0
 16914 0066 1549     		ldr	r1, .L35+20
 543:../../../SDK_embedded/libs/stm32/STM32_USB_FS_Device_Driver/usb_core.c ****   DataBuffer = (*pEPinfo->CopyData)(Length);
 16915              		.loc 1 543 0
 16916 0068 8046     		mov	r8, r0
 16917              	.LVL23:
 16918              		.loc 1 548 0
 16919 006a 3846     		mov	r0, r7
 16920              	.LVL24:
 16921 006c 8847     		blx	r1
 16922 006e 2A46     		mov	r2, r5
 16923 0070 0146     		mov	r1, r0
 16924 0072 134B     		ldr	r3, .L35+24
 16925 0074 4046     		mov	r0, r8
 16926 0076 9847     		blx	r3
 549:../../../SDK_embedded/libs/stm32/STM32_USB_FS_Device_Driver/usb_core.c **** #endif /* STM32F10X_CL */ 
 550:../../../SDK_embedded/libs/stm32/STM32_USB_FS_Device_Driver/usb_core.c **** 
 551:../../../SDK_embedded/libs/stm32/STM32_USB_FS_Device_Driver/usb_core.c ****   SetEPTxCount(ENDP0, Length);
 16927              		.loc 1 551 0
 16928 0078 2946     		mov	r1, r5
 16929 007a 3846     		mov	r0, r7
 16930 007c 114A     		ldr	r2, .L35+28
 16931 007e 9047     		blx	r2
 552:../../../SDK_embedded/libs/stm32/STM32_USB_FS_Device_Driver/usb_core.c **** 
 553:../../../SDK_embedded/libs/stm32/STM32_USB_FS_Device_Driver/usb_core.c ****   pEPinfo->Usb_wLength -= Length;
 16932              		.loc 1 553 0
 16933 0080 238A     		ldrh	r3, [r4, #16]
 554:../../../SDK_embedded/libs/stm32/STM32_USB_FS_Device_Driver/usb_core.c ****   pEPinfo->Usb_wOffset += Length;
 16934              		.loc 1 554 0
 16935 0082 B4F812C0 		ldrh	ip, [r4, #18]
 553:../../../SDK_embedded/libs/stm32/STM32_USB_FS_Device_Driver/usb_core.c ****   pEPinfo->Usb_wLength -= Length;
 16936              		.loc 1 553 0
 16937 0086 5A1B     		subs	r2, r3, r5
 555:../../../SDK_embedded/libs/stm32/STM32_USB_FS_Device_Driver/usb_core.c ****   vSetEPTxStatus(EP_TX_VALID);
 16938              		.loc 1 555 0
 16939 0088 0949     		ldr	r1, .L35+8
 556:../../../SDK_embedded/libs/stm32/STM32_USB_FS_Device_Driver/usb_core.c **** 
 557:../../../SDK_embedded/libs/stm32/STM32_USB_FS_Device_Driver/usb_core.c ****   USB_StatusOut();/* Expect the host to abort the data IN stage */
 16940              		.loc 1 557 0
 16941 008a 0F4B     		ldr	r3, .L35+32
 553:../../../SDK_embedded/libs/stm32/STM32_USB_FS_Device_Driver/usb_core.c ****   pEPinfo->Usb_wLength -= Length;
 16942              		.loc 1 553 0
 16943 008c 2282     		strh	r2, [r4, #16]	@ movhi
 554:../../../SDK_embedded/libs/stm32/STM32_USB_FS_Device_Driver/usb_core.c ****   pEPinfo->Usb_wOffset += Length;
 16944              		.loc 1 554 0
 16945 008e 6544     		add	r5, r5, ip
 16946              	.LVL25:
 555:../../../SDK_embedded/libs/stm32/STM32_USB_FS_Device_Driver/usb_core.c ****   vSetEPTxStatus(EP_TX_VALID);
 16947              		.loc 1 555 0
 16948 0090 3020     		movs	r0, #48
 16949              		.loc 1 557 0
 16950 0092 4FF44052 		mov	r2, #12288	@ movhi
 555:../../../SDK_embedded/libs/stm32/STM32_USB_FS_Device_Driver/usb_core.c ****   vSetEPTxStatus(EP_TX_VALID);
 16951              		.loc 1 555 0
 16952 0096 0880     		strh	r0, [r1, #0]	@ movhi
 554:../../../SDK_embedded/libs/stm32/STM32_USB_FS_Device_Driver/usb_core.c ****   pEPinfo->Usb_wOffset += Length;
 16953              		.loc 1 554 0
 16954 0098 6582     		strh	r5, [r4, #18]	@ movhi
 16955              		.loc 1 557 0
 16956 009a 1A80     		strh	r2, [r3, #0]	@ movhi
 16957              	.LVL26:
 16958              	.L32:
 558:../../../SDK_embedded/libs/stm32/STM32_USB_FS_Device_Driver/usb_core.c **** 
 559:../../../SDK_embedded/libs/stm32/STM32_USB_FS_Device_Driver/usb_core.c **** Expect_Status_Out:
 560:../../../SDK_embedded/libs/stm32/STM32_USB_FS_Device_Driver/usb_core.c ****   pInformation->ControlState = ControlState;
 16959              		.loc 1 560 0
 16960 009c 024B     		ldr	r3, .L35
 16961 009e 1868     		ldr	r0, [r3, #0]
 16962 00a0 0672     		strb	r6, [r0, #8]
 561:../../../SDK_embedded/libs/stm32/STM32_USB_FS_Device_Driver/usb_core.c **** }
 16963              		.loc 1 561 0
 16964 00a2 BDE8F081 		pop	{r4, r5, r6, r7, r8, pc}
 16965              	.L36:
 16966 00a6 00BF     		.align	2
 16967              	.L35:
 16968 00a8 00000000 		.word	pInformation
 16969 00ac 00000000 		.word	.LANCHOR0
 16970 00b0 00000000 		.word	SaveTState
 16971 00b4 505C0040 		.word	1073765456
 16972 00b8 02300020 		.word	536883202
 16973 00bc 00000000 		.word	GetEPTxAddr
 16974 00c0 00000000 		.word	UserToPMABufferCopy
 16975 00c4 00000000 		.word	SetEPTxCount
 16976 00c8 00000000 		.word	SaveRState
 16977              		.cfi_endproc
 16978              	.LFE39:
 16980              		.section	.text.Standard_SetConfiguration,"ax",%progbits
 16981              		.align	1
 16982              		.global	Standard_SetConfiguration
 16983              		.thumb
 16984              		.thumb_func
 16986              	Standard_SetConfiguration:
 16987              	.LFB30:
  83:../../../SDK_embedded/libs/stm32/STM32_USB_FS_Device_Driver/usb_core.c **** {
 16988              		.loc 1 83 0
 16989              		.cfi_startproc
 16990              		@ args = 0, pretend = 0, frame = 0
 16991              		@ frame_needed = 0, uses_anonymous_args = 0
 16992 0000 10B5     		push	{r4, lr}
 16993              	.LCFI4:
 16994              		.cfi_def_cfa_offset 8
 16995              		.cfi_offset 14, -4
 16996              		.cfi_offset 4, -8
  85:../../../SDK_embedded/libs/stm32/STM32_USB_FS_Device_Driver/usb_core.c ****   if ((pInformation->USBwValue0 <=
 16997              		.loc 1 85 0
 16998 0002 0B4B     		ldr	r3, .L42
  86:../../../SDK_embedded/libs/stm32/STM32_USB_FS_Device_Driver/usb_core.c ****       Device_Table.Total_Configuration) && (pInformation->USBwValue1 == 0)
 16999              		.loc 1 86 0
 17000 0004 0B48     		ldr	r0, .L42+4
  85:../../../SDK_embedded/libs/stm32/STM32_USB_FS_Device_Driver/usb_core.c ****   if ((pInformation->USBwValue0 <=
 17001              		.loc 1 85 0
 17002 0006 1B68     		ldr	r3, [r3, #0]
 17003 0008 4178     		ldrb	r1, [r0, #1]	@ zero_extendqisi2
 17004 000a DA78     		ldrb	r2, [r3, #3]	@ zero_extendqisi2
 17005 000c 9142     		cmp	r1, r2
 17006 000e 0AD3     		bcc	.L40
  86:../../../SDK_embedded/libs/stm32/STM32_USB_FS_Device_Driver/usb_core.c ****       Device_Table.Total_Configuration) && (pInformation->USBwValue1 == 0)
 17007              		.loc 1 86 0
 17008 0010 9978     		ldrb	r1, [r3, #2]	@ zero_extendqisi2
 17009 0012 41B9     		cbnz	r1, .L40
  87:../../../SDK_embedded/libs/stm32/STM32_USB_FS_Device_Driver/usb_core.c ****       && (pInformation->USBwIndex == 0)) /*call Back usb spec 2.0*/
 17010              		.loc 1 87 0
 17011 0014 9C88     		ldrh	r4, [r3, #4]
 17012 0016 44B9     		cbnz	r4, .L41
  89:../../../SDK_embedded/libs/stm32/STM32_USB_FS_Device_Driver/usb_core.c ****     pInformation->Current_Configuration = pInformation->USBwValue0;
 17013              		.loc 1 89 0
 17014 0018 9A72     		strb	r2, [r3, #10]
  90:../../../SDK_embedded/libs/stm32/STM32_USB_FS_Device_Driver/usb_core.c ****     pUser_Standard_Requests->User_SetConfiguration();
 17015              		.loc 1 90 0
 17016 001a 074B     		ldr	r3, .L42+8
 17017 001c 1868     		ldr	r0, [r3, #0]
 17018 001e 4268     		ldr	r2, [r0, #4]
 17019 0020 9047     		blx	r2
  91:../../../SDK_embedded/libs/stm32/STM32_USB_FS_Device_Driver/usb_core.c ****     return USB_SUCCESS;
 17020              		.loc 1 91 0
 17021 0022 2046     		mov	r0, r4
 17022 0024 10BD     		pop	{r4, pc}
 17023              	.L40:
  95:../../../SDK_embedded/libs/stm32/STM32_USB_FS_Device_Driver/usb_core.c ****     return USB_UNSUPPORT;
 17024              		.loc 1 95 0
 17025 0026 0220     		movs	r0, #2
 17026 0028 10BD     		pop	{r4, pc}
 17027              	.L41:
 17028 002a 0220     		movs	r0, #2
  97:../../../SDK_embedded/libs/stm32/STM32_USB_FS_Device_Driver/usb_core.c **** }
 17029              		.loc 1 97 0
 17030 002c 10BD     		pop	{r4, pc}
 17031              	.L43:
 17032 002e 00BF     		.align	2
 17033              	.L42:
 17034 0030 00000000 		.word	pInformation
 17035 0034 00000000 		.word	Device_Table
 17036 0038 00000000 		.word	pUser_Standard_Requests
 17037              		.cfi_endproc
 17038              	.LFE30:
 17040              		.section	.text.Standard_SetInterface,"ax",%progbits
 17041              		.align	1
 17042              		.global	Standard_SetInterface
 17043              		.thumb
 17044              		.thumb_func
 17046              	Standard_SetInterface:
 17047              	.LFB32:
 129:../../../SDK_embedded/libs/stm32/STM32_USB_FS_Device_Driver/usb_core.c **** {
 17048              		.loc 1 129 0
 17049              		.cfi_startproc
 17050              		@ args = 0, pretend = 0, frame = 0
 17051              		@ frame_needed = 0, uses_anonymous_args = 0
 17052 0000 38B5     		push	{r3, r4, r5, lr}
 17053              	.LCFI5:
 17054              		.cfi_def_cfa_offset 16
 17055              		.cfi_offset 14, -4
 17056              		.cfi_offset 5, -8
 17057              		.cfi_offset 4, -12
 17058              		.cfi_offset 3, -16
 133:../../../SDK_embedded/libs/stm32/STM32_USB_FS_Device_Driver/usb_core.c ****   Re = (*pProperty->Class_Get_Interface_Setting)(pInformation->USBwIndex0, pInformation->USBwValue0
 17059              		.loc 1 133 0
 17060 0002 1048     		ldr	r0, .L50
 17061 0004 104C     		ldr	r4, .L50+4
 17062 0006 0268     		ldr	r2, [r0, #0]
 17063 0008 2168     		ldr	r1, [r4, #0]
 17064 000a 9369     		ldr	r3, [r2, #24]
 17065 000c 4879     		ldrb	r0, [r1, #5]	@ zero_extendqisi2
 17066 000e C978     		ldrb	r1, [r1, #3]	@ zero_extendqisi2
 17067 0010 9847     		blx	r3
 17068              	.LVL27:
 135:../../../SDK_embedded/libs/stm32/STM32_USB_FS_Device_Driver/usb_core.c ****   if (pInformation->Current_Configuration != 0)
 17069              		.loc 1 135 0
 17070 0012 2368     		ldr	r3, [r4, #0]
 17071 0014 9A7A     		ldrb	r2, [r3, #10]	@ zero_extendqisi2
 17072 0016 8AB1     		cbz	r2, .L48
 137:../../../SDK_embedded/libs/stm32/STM32_USB_FS_Device_Driver/usb_core.c ****     if ((Re != USB_SUCCESS) || (pInformation->USBwIndex1 != 0)
 17073              		.loc 1 137 0
 17074 0018 80B9     		cbnz	r0, .L48
 137:../../../SDK_embedded/libs/stm32/STM32_USB_FS_Device_Driver/usb_core.c ****     if ((Re != USB_SUCCESS) || (pInformation->USBwIndex1 != 0)
 17075              		.loc 1 137 0 is_stmt 0 discriminator 1
 17076 001a 1A79     		ldrb	r2, [r3, #4]	@ zero_extendqisi2
 17077 001c 72B9     		cbnz	r2, .L48
 138:../../../SDK_embedded/libs/stm32/STM32_USB_FS_Device_Driver/usb_core.c ****         || (pInformation->USBwValue1 != 0))
 17078              		.loc 1 138 0 is_stmt 1
 17079 001e 9D78     		ldrb	r5, [r3, #2]	@ zero_extendqisi2
 17080 0020 75B9     		cbnz	r5, .L49
 144:../../../SDK_embedded/libs/stm32/STM32_USB_FS_Device_Driver/usb_core.c ****       pUser_Standard_Requests->User_SetInterface();
 17081              		.loc 1 144 0
 17082 0022 0A4B     		ldr	r3, .L50+8
 17083 0024 1A68     		ldr	r2, [r3, #0]
 17084 0026 D068     		ldr	r0, [r2, #12]
 17085              	.LVL28:
 17086 0028 8047     		blx	r0
 145:../../../SDK_embedded/libs/stm32/STM32_USB_FS_Device_Driver/usb_core.c ****       pInformation->Current_Interface = pInformation->USBwIndex0;
 17087              		.loc 1 145 0
 17088 002a 2368     		ldr	r3, [r4, #0]
 147:../../../SDK_embedded/libs/stm32/STM32_USB_FS_Device_Driver/usb_core.c ****       return USB_SUCCESS;
 17089              		.loc 1 147 0
 17090 002c 2846     		mov	r0, r5
 145:../../../SDK_embedded/libs/stm32/STM32_USB_FS_Device_Driver/usb_core.c ****       pInformation->Current_Interface = pInformation->USBwIndex0;
 17091              		.loc 1 145 0
 17092 002e 5979     		ldrb	r1, [r3, #5]	@ zero_extendqisi2
 146:../../../SDK_embedded/libs/stm32/STM32_USB_FS_Device_Driver/usb_core.c ****       pInformation->Current_AlternateSetting = pInformation->USBwValue0;
 17093              		.loc 1 146 0
 17094 0030 93F803C0 		ldrb	ip, [r3, #3]	@ zero_extendqisi2
 145:../../../SDK_embedded/libs/stm32/STM32_USB_FS_Device_Driver/usb_core.c ****       pInformation->Current_Interface = pInformation->USBwIndex0;
 17095              		.loc 1 145 0
 17096 0034 D972     		strb	r1, [r3, #11]
 146:../../../SDK_embedded/libs/stm32/STM32_USB_FS_Device_Driver/usb_core.c ****       pInformation->Current_AlternateSetting = pInformation->USBwValue0;
 17097              		.loc 1 146 0
 17098 0036 83F80CC0 		strb	ip, [r3, #12]
 147:../../../SDK_embedded/libs/stm32/STM32_USB_FS_Device_Driver/usb_core.c ****       return USB_SUCCESS;
 17099              		.loc 1 147 0
 17100 003a 38BD     		pop	{r3, r4, r5, pc}
 17101              	.LVL29:
 17102              	.L48:
 140:../../../SDK_embedded/libs/stm32/STM32_USB_FS_Device_Driver/usb_core.c ****       return  USB_UNSUPPORT;
 17103              		.loc 1 140 0
 17104 003c 0220     		movs	r0, #2
 17105              	.LVL30:
 17106 003e 38BD     		pop	{r3, r4, r5, pc}
 17107              	.LVL31:
 17108              	.L49:
 17109 0040 0220     		movs	r0, #2
 17110              	.LVL32:
 153:../../../SDK_embedded/libs/stm32/STM32_USB_FS_Device_Driver/usb_core.c **** }
 17111              		.loc 1 153 0
 17112 0042 38BD     		pop	{r3, r4, r5, pc}
 17113              	.L51:
 17114              		.align	2
 17115              	.L50:
 17116 0044 00000000 		.word	pProperty
 17117 0048 00000000 		.word	pInformation
 17118 004c 00000000 		.word	pUser_Standard_Requests
 17119              		.cfi_endproc
 17120              	.LFE32:
 17122              		.section	.text.Standard_ClearFeature,"ax",%progbits
 17123              		.align	1
 17124              		.global	Standard_ClearFeature
 17125              		.thumb
 17126              		.thumb_func
 17128              	Standard_ClearFeature:
 17129              	.LFB34:
 246:../../../SDK_embedded/libs/stm32/STM32_USB_FS_Device_Driver/usb_core.c **** {
 17130              		.loc 1 246 0
 17131              		.cfi_startproc
 17132              		@ args = 0, pretend = 0, frame = 0
 17133              		@ frame_needed = 0, uses_anonymous_args = 0
 17134 0000 10B5     		push	{r4, lr}
 17135              	.LCFI6:
 17136              		.cfi_def_cfa_offset 8
 17137              		.cfi_offset 14, -4
 17138              		.cfi_offset 4, -8
 247:../../../SDK_embedded/libs/stm32/STM32_USB_FS_Device_Driver/usb_core.c ****   uint32_t     Type_Rec = Type_Recipient;
 17139              		.loc 1 247 0
 17140 0002 3B4B     		ldr	r3, .L67
 17141 0004 1B68     		ldr	r3, [r3, #0]
 17142 0006 1878     		ldrb	r0, [r3, #0]	@ zero_extendqisi2
 17143              	.LVL33:
 251:../../../SDK_embedded/libs/stm32/STM32_USB_FS_Device_Driver/usb_core.c ****   if (Type_Rec == (STANDARD_REQUEST | DEVICE_RECIPIENT))
 17144              		.loc 1 251 0
 17145 0008 10F07F00 		ands	r0, r0, #127
 17146              	.LVL34:
 17147 000c 04D1     		bne	.L53
 253:../../../SDK_embedded/libs/stm32/STM32_USB_FS_Device_Driver/usb_core.c ****     ClrBit(pInformation->Current_Feature, 5);
 17148              		.loc 1 253 0
 17149 000e 597A     		ldrb	r1, [r3, #9]	@ zero_extendqisi2
 17150 0010 21F02002 		bic	r2, r1, #32
 17151 0014 5A72     		strb	r2, [r3, #9]
 254:../../../SDK_embedded/libs/stm32/STM32_USB_FS_Device_Driver/usb_core.c ****     return USB_SUCCESS;
 17152              		.loc 1 254 0
 17153 0016 10BD     		pop	{r4, pc}
 17154              	.L53:
 256:../../../SDK_embedded/libs/stm32/STM32_USB_FS_Device_Driver/usb_core.c ****   else if (Type_Rec == (STANDARD_REQUEST | ENDPOINT_RECIPIENT))
 17155              		.loc 1 256 0
 17156 0018 0228     		cmp	r0, #2
 17157 001a 67D1     		bne	.L61
 17158              	.LBB13:
 263:../../../SDK_embedded/libs/stm32/STM32_USB_FS_Device_Driver/usb_core.c ****     if ((pInformation->USBwValue != ENDPOINT_STALL)
 17159              		.loc 1 263 0
 17160 001c 5A88     		ldrh	r2, [r3, #2]
 17161 001e 002A     		cmp	r2, #0
 17162 0020 65D1     		bne	.L54
 264:../../../SDK_embedded/libs/stm32/STM32_USB_FS_Device_Driver/usb_core.c ****         || (pInformation->USBwIndex1 != 0))
 17163              		.loc 1 264 0
 17164 0022 1979     		ldrb	r1, [r3, #4]	@ zero_extendqisi2
 17165 0024 0029     		cmp	r1, #0
 17166 0026 62D1     		bne	.L54
 17167              	.LVL35:
 17168              	.LBE13:
 17169              	.LBB14:
 17170              	.LBB15:
 17171              	.LBB16:
 270:../../../SDK_embedded/libs/stm32/STM32_USB_FS_Device_Driver/usb_core.c ****     wIndex0 = pInformation->USBwIndex0;
 17172              		.loc 1 270 0
 17173 0028 5A79     		ldrb	r2, [r3, #5]	@ zero_extendqisi2
 17174              	.LVL36:
 271:../../../SDK_embedded/libs/stm32/STM32_USB_FS_Device_Driver/usb_core.c ****     rEP = wIndex0 & ~0x80;
 17175              		.loc 1 271 0
 17176 002a 22F08000 		bic	r0, r2, #128
 17177              	.LVL37:
 17178 002e 4FEA8004 		lsl	r4, r0, #2
 278:../../../SDK_embedded/libs/stm32/STM32_USB_FS_Device_Driver/usb_core.c ****       Status = _GetEPTxStatus(Related_Endpoint);
 17179              		.loc 1 278 0
 17180 0032 04F18041 		add	r1, r4, #1073741824
 285:../../../SDK_embedded/libs/stm32/STM32_USB_FS_Device_Driver/usb_core.c ****     if ((rEP >= pDev->Total_Endpoint) || (Status == 0)
 17181              		.loc 1 285 0
 17182 0036 2F4C     		ldr	r4, .L67+4
 278:../../../SDK_embedded/libs/stm32/STM32_USB_FS_Device_Driver/usb_core.c ****       Status = _GetEPTxStatus(Related_Endpoint);
 17183              		.loc 1 278 0
 17184 0038 01F5B84C 		add	ip, r1, #23552
 285:../../../SDK_embedded/libs/stm32/STM32_USB_FS_Device_Driver/usb_core.c ****     if ((rEP >= pDev->Total_Endpoint) || (Status == 0)
 17185              		.loc 1 285 0
 17186 003c 2478     		ldrb	r4, [r4, #0]	@ zero_extendqisi2
 278:../../../SDK_embedded/libs/stm32/STM32_USB_FS_Device_Driver/usb_core.c ****       Status = _GetEPTxStatus(Related_Endpoint);
 17187              		.loc 1 278 0
 17188 003e DCF80010 		ldr	r1, [ip, #0]
 274:../../../SDK_embedded/libs/stm32/STM32_USB_FS_Device_Driver/usb_core.c ****     if (ValBit(pInformation->USBwIndex0, 7))
 17189              		.loc 1 274 0
 17190 0042 12F0800F 		tst	r2, #128
 278:../../../SDK_embedded/libs/stm32/STM32_USB_FS_Device_Driver/usb_core.c ****       Status = _GetEPTxStatus(Related_Endpoint);
 17191              		.loc 1 278 0
 17192 0046 14BF     		ite	ne
 17193 0048 01F03001 		andne	r1, r1, #48
 17194              	.LVL38:
 282:../../../SDK_embedded/libs/stm32/STM32_USB_FS_Device_Driver/usb_core.c ****       Status = _GetEPRxStatus(Related_Endpoint);
 17195              		.loc 1 282 0
 17196 004c 01F44051 		andeq	r1, r1, #12288
 17197              	.LVL39:
 285:../../../SDK_embedded/libs/stm32/STM32_USB_FS_Device_Driver/usb_core.c ****     if ((rEP >= pDev->Total_Endpoint) || (Status == 0)
 17198              		.loc 1 285 0
 17199 0050 A042     		cmp	r0, r4
 17200 0052 34BF     		ite	cc
 17201 0054 0024     		movcc	r4, #0
 17202 0056 0124     		movcs	r4, #1
 17203 0058 0029     		cmp	r1, #0
 17204 005a 14BF     		ite	ne
 17205 005c 2146     		movne	r1, r4
 17206 005e 44F00101 		orreq	r1, r4, #1
 17207              	.LVL40:
 17208 0062 0029     		cmp	r1, #0
 17209 0064 40D1     		bne	.L65
 286:../../../SDK_embedded/libs/stm32/STM32_USB_FS_Device_Driver/usb_core.c ****         || (pInformation->Current_Configuration == 0))
 17210              		.loc 1 286 0
 17211 0066 9B7A     		ldrb	r3, [r3, #10]	@ zero_extendqisi2
 17212 0068 002B     		cmp	r3, #0
 17213 006a 3DD0     		beq	.L65
 292:../../../SDK_embedded/libs/stm32/STM32_USB_FS_Device_Driver/usb_core.c ****     if (wIndex0 & 0x80)
 17214              		.loc 1 292 0
 17215 006c 12F0800F 		tst	r2, #128
 17216 0070 4FEA8004 		lsl	r4, r0, #2
 17217 0074 12D0     		beq	.L58
 295:../../../SDK_embedded/libs/stm32/STM32_USB_FS_Device_Driver/usb_core.c ****       if (_GetTxStallStatus(Related_Endpoint ))
 17218              		.loc 1 295 0
 17219 0076 04F1804C 		add	ip, r4, #1073741824
 17220 007a 0CF5B844 		add	r4, ip, #23552
 17221 007e 2268     		ldr	r2, [r4, #0]
 17222              	.LVL41:
 17223 0080 02F0300E 		and	lr, r2, #48
 17224 0084 BEF1100F 		cmp	lr, #16
 17225 0088 28D1     		bne	.L59
 298:../../../SDK_embedded/libs/stm32/STM32_USB_FS_Device_Driver/usb_core.c ****         ClearDTOG_TX(Related_Endpoint);
 17226              		.loc 1 298 0
 17227 008a C4B2     		uxtb	r4, r0
 17228 008c 2046     		mov	r0, r4
 17229              	.LVL42:
 17230 008e 1A49     		ldr	r1, .L67+8
 17231 0090 8847     		blx	r1
 300:../../../SDK_embedded/libs/stm32/STM32_USB_FS_Device_Driver/usb_core.c ****         SetEPTxStatus(Related_Endpoint, EP_TX_VALID);
 17232              		.loc 1 300 0
 17233 0092 2046     		mov	r0, r4
 17234 0094 3021     		movs	r1, #48
 17235 0096 194B     		ldr	r3, .L67+12
 17236 0098 9847     		blx	r3
 17237 009a 1FE0     		b	.L59
 17238              	.LVL43:
 17239              	.L58:
 306:../../../SDK_embedded/libs/stm32/STM32_USB_FS_Device_Driver/usb_core.c ****       if (_GetRxStallStatus(Related_Endpoint))
 17240              		.loc 1 306 0
 17241 009c 04F18044 		add	r4, r4, #1073741824
 17242 00a0 04F5B844 		add	r4, r4, #23552
 17243 00a4 2268     		ldr	r2, [r4, #0]
 17244              	.LVL44:
 17245 00a6 02F4405E 		and	lr, r2, #12288
 17246 00aa BEF5805F 		cmp	lr, #4096
 17247 00ae 15D1     		bne	.L59
 308:../../../SDK_embedded/libs/stm32/STM32_USB_FS_Device_Driver/usb_core.c ****         if (Related_Endpoint == ENDP0)
 17248              		.loc 1 308 0
 17249 00b0 28B9     		cbnz	r0, .L60
 311:../../../SDK_embedded/libs/stm32/STM32_USB_FS_Device_Driver/usb_core.c ****           SetEPRxCount(Related_Endpoint, Device_Property.MaxPacketSize);
 17250              		.loc 1 311 0
 17251 00b2 1349     		ldr	r1, .L67+16
 17252 00b4 134B     		ldr	r3, .L67+20
 17253 00b6 91F82C10 		ldrb	r1, [r1, #44]	@ zero_extendqisi2
 17254 00ba 9847     		blx	r3
 17255              	.LVL45:
 17256 00bc 02E0     		b	.L66
 17257              	.LVL46:
 17258              	.L60:
 317:../../../SDK_embedded/libs/stm32/STM32_USB_FS_Device_Driver/usb_core.c ****           ClearDTOG_RX(Related_Endpoint);
 17259              		.loc 1 317 0
 17260 00be C0B2     		uxtb	r0, r0
 17261              	.LVL47:
 17262 00c0 114A     		ldr	r2, .L67+24
 17263 00c2 9047     		blx	r2
 17264              	.L66:
 17265              	.LBB17:
 319:../../../SDK_embedded/libs/stm32/STM32_USB_FS_Device_Driver/usb_core.c ****           _SetEPRxStatus(Related_Endpoint, EP_RX_VALID);
 17266              		.loc 1 319 0
 17267 00c4 2268     		ldr	r2, [r4, #0]
 17268 00c6 4BF68F71 		movw	r1, #49039
 17269 00ca 02EA0103 		and	r3, r2, r1
 17270              	.LVL48:
 17271 00ce 83F4405E 		eor	lr, r3, #12288
 17272 00d2 4EF4004C 		orr	ip, lr, #32768
 17273 00d6 4CF08000 		orr	r0, ip, #128
 17274 00da 2060     		str	r0, [r4, #0]
 17275              	.LVL49:
 17276              	.L59:
 17277              	.LBE17:
 323:../../../SDK_embedded/libs/stm32/STM32_USB_FS_Device_Driver/usb_core.c ****     pUser_Standard_Requests->User_ClearFeature();
 17278              		.loc 1 323 0
 17279 00dc 0B49     		ldr	r1, .L67+28
 17280 00de 0B68     		ldr	r3, [r1, #0]
 17281 00e0 5869     		ldr	r0, [r3, #20]
 17282 00e2 8047     		blx	r0
 324:../../../SDK_embedded/libs/stm32/STM32_USB_FS_Device_Driver/usb_core.c ****     return USB_SUCCESS;
 17283              		.loc 1 324 0
 17284 00e4 0020     		movs	r0, #0
 17285 00e6 10BD     		pop	{r4, pc}
 17286              	.LVL50:
 17287              	.L65:
 288:../../../SDK_embedded/libs/stm32/STM32_USB_FS_Device_Driver/usb_core.c ****       return USB_UNSUPPORT;
 17288              		.loc 1 288 0
 17289 00e8 0220     		movs	r0, #2
 17290              	.LVL51:
 17291 00ea 10BD     		pop	{r4, pc}
 17292              	.LVL52:
 17293              	.L61:
 17294              	.LBE16:
 17295              	.LBE15:
 17296              	.LBE14:
 327:../../../SDK_embedded/libs/stm32/STM32_USB_FS_Device_Driver/usb_core.c ****   return USB_UNSUPPORT;
 17297              		.loc 1 327 0
 17298 00ec 0220     		movs	r0, #2
 17299              	.LVL53:
 17300              	.L54:
 328:../../../SDK_embedded/libs/stm32/STM32_USB_FS_Device_Driver/usb_core.c **** }
 17301              		.loc 1 328 0
 17302 00ee 10BD     		pop	{r4, pc}
 17303              	.L68:
 17304              		.align	2
 17305              	.L67:
 17306 00f0 00000000 		.word	pInformation
 17307 00f4 00000000 		.word	Device_Table
 17308 00f8 00000000 		.word	ClearDTOG_TX
 17309 00fc 00000000 		.word	SetEPTxStatus
 17310 0100 00000000 		.word	Device_Property
 17311 0104 00000000 		.word	SetEPRxCount
 17312 0108 00000000 		.word	ClearDTOG_RX
 17313 010c 00000000 		.word	pUser_Standard_Requests
 17314              		.cfi_endproc
 17315              	.LFE34:
 17317              		.section	.text.Standard_SetEndPointFeature,"ax",%progbits
 17318              		.align	1
 17319              		.global	Standard_SetEndPointFeature
 17320              		.thumb
 17321              		.thumb_func
 17323              	Standard_SetEndPointFeature:
 17324              	.LFB35:
 339:../../../SDK_embedded/libs/stm32/STM32_USB_FS_Device_Driver/usb_core.c **** {
 17325              		.loc 1 339 0
 17326              		.cfi_startproc
 17327              		@ args = 0, pretend = 0, frame = 0
 17328              		@ frame_needed = 0, uses_anonymous_args = 0
 17329 0000 10B5     		push	{r4, lr}
 17330              	.LCFI7:
 17331              		.cfi_def_cfa_offset 8
 17332              		.cfi_offset 14, -4
 17333              		.cfi_offset 4, -8
 345:../../../SDK_embedded/libs/stm32/STM32_USB_FS_Device_Driver/usb_core.c ****   wIndex0 = pInformation->USBwIndex0;
 17334              		.loc 1 345 0
 17335 0002 254B     		ldr	r3, .L79
 17336 0004 1968     		ldr	r1, [r3, #0]
 17337 0006 4A79     		ldrb	r2, [r1, #5]	@ zero_extendqisi2
 17338              	.LVL54:
 346:../../../SDK_embedded/libs/stm32/STM32_USB_FS_Device_Driver/usb_core.c ****   rEP = wIndex0 & ~0x80;
 17339              		.loc 1 346 0
 17340 0008 22F08003 		bic	r3, r2, #128
 17341              	.LVL55:
 17342 000c 4FEA8304 		lsl	r4, r3, #2
 353:../../../SDK_embedded/libs/stm32/STM32_USB_FS_Device_Driver/usb_core.c ****     Status = _GetEPTxStatus(Related_Endpoint);
 17343              		.loc 1 353 0
 17344 0010 04F1804C 		add	ip, r4, #1073741824
 360:../../../SDK_embedded/libs/stm32/STM32_USB_FS_Device_Driver/usb_core.c ****   if (Related_Endpoint >= Device_Table.Total_Endpoint
 17345              		.loc 1 360 0
 17346 0014 214C     		ldr	r4, .L79+4
 353:../../../SDK_embedded/libs/stm32/STM32_USB_FS_Device_Driver/usb_core.c ****     Status = _GetEPTxStatus(Related_Endpoint);
 17347              		.loc 1 353 0
 17348 0016 0CF5B840 		add	r0, ip, #23552
 17349 001a 0068     		ldr	r0, [r0, #0]
 360:../../../SDK_embedded/libs/stm32/STM32_USB_FS_Device_Driver/usb_core.c ****   if (Related_Endpoint >= Device_Table.Total_Endpoint
 17350              		.loc 1 360 0
 17351 001c 2478     		ldrb	r4, [r4, #0]	@ zero_extendqisi2
 349:../../../SDK_embedded/libs/stm32/STM32_USB_FS_Device_Driver/usb_core.c ****   if (ValBit(pInformation->USBwIndex0, 7))
 17352              		.loc 1 349 0
 17353 001e 12F0800F 		tst	r2, #128
 353:../../../SDK_embedded/libs/stm32/STM32_USB_FS_Device_Driver/usb_core.c ****     Status = _GetEPTxStatus(Related_Endpoint);
 17354              		.loc 1 353 0
 17355 0022 14BF     		ite	ne
 17356 0024 00F03000 		andne	r0, r0, #48
 17357              	.LVL56:
 357:../../../SDK_embedded/libs/stm32/STM32_USB_FS_Device_Driver/usb_core.c ****     Status = _GetEPRxStatus(Related_Endpoint);
 17358              		.loc 1 357 0
 17359 0028 00F44050 		andeq	r0, r0, #12288
 17360              	.LVL57:
 360:../../../SDK_embedded/libs/stm32/STM32_USB_FS_Device_Driver/usb_core.c ****   if (Related_Endpoint >= Device_Table.Total_Endpoint
 17361              		.loc 1 360 0
 17362 002c A342     		cmp	r3, r4
 17363 002e 2FD2     		bcs	.L76
 361:../../../SDK_embedded/libs/stm32/STM32_USB_FS_Device_Driver/usb_core.c ****       || pInformation->USBwValue != 0 || Status == 0
 17364              		.loc 1 361 0
 17365 0030 B1F802C0 		ldrh	ip, [r1, #2]
 17366 0034 1CF10004 		adds	r4, ip, #0
 17367 0038 18BF     		it	ne
 17368 003a 0124     		movne	r4, #1
 17369 003c 0028     		cmp	r0, #0
 17370 003e 14BF     		ite	ne
 17371 0040 2046     		movne	r0, r4
 17372 0042 44F00100 		orreq	r0, r4, #1
 17373              	.LVL58:
 17374 0046 18BB     		cbnz	r0, .L76
 362:../../../SDK_embedded/libs/stm32/STM32_USB_FS_Device_Driver/usb_core.c ****       || pInformation->Current_Configuration == 0)
 17375              		.loc 1 362 0
 17376 0048 897A     		ldrb	r1, [r1, #10]	@ zero_extendqisi2
 17377 004a 19B3     		cbz	r1, .L77
 17378 004c 4FEA8301 		lsl	r1, r3, #2
 17379              	.LBB18:
 371:../../../SDK_embedded/libs/stm32/STM32_USB_FS_Device_Driver/usb_core.c ****       _SetEPTxStatus(Related_Endpoint, EP_TX_STALL);
 17380              		.loc 1 371 0
 17381 0050 01F18040 		add	r0, r1, #1073741824
 17382 0054 00F5B84E 		add	lr, r0, #23552
 17383              	.LBE18:
 368:../../../SDK_embedded/libs/stm32/STM32_USB_FS_Device_Driver/usb_core.c ****     if (wIndex0 & 0x80)
 17384              		.loc 1 368 0
 17385 0058 12F0800F 		tst	r2, #128
 17386              	.LBB19:
 371:../../../SDK_embedded/libs/stm32/STM32_USB_FS_Device_Driver/usb_core.c ****       _SetEPTxStatus(Related_Endpoint, EP_TX_STALL);
 17387              		.loc 1 371 0
 17388 005c DEF80030 		ldr	r3, [lr, #0]
 17389              	.LVL59:
 17390 0060 15BF     		itete	ne
 17391 0062 48F6BF72 		movwne	r2, #36799
 17392              	.LVL60:
 17393              	.LBE19:
 17394              	.LBB20:
 377:../../../SDK_embedded/libs/stm32/STM32_USB_FS_Device_Driver/usb_core.c ****       _SetEPRxStatus(Related_Endpoint, EP_RX_STALL);
 17395              		.loc 1 377 0
 17396 0066 4BF68F72 		movweq	r2, #49039
 17397              	.LBE20:
 17398              	.LBB21:
 371:../../../SDK_embedded/libs/stm32/STM32_USB_FS_Device_Driver/usb_core.c ****       _SetEPTxStatus(Related_Endpoint, EP_TX_STALL);
 17399              		.loc 1 371 0
 17400 006a 1A40     		andne	r2, r3, r2
 17401              	.LBE21:
 17402              	.LBB22:
 377:../../../SDK_embedded/libs/stm32/STM32_USB_FS_Device_Driver/usb_core.c ****       _SetEPRxStatus(Related_Endpoint, EP_RX_STALL);
 17403              		.loc 1 377 0
 17404 006c 1A40     		andeq	r2, r3, r2
 17405              	.LBE22:
 380:../../../SDK_embedded/libs/stm32/STM32_USB_FS_Device_Driver/usb_core.c ****   pUser_Standard_Requests->User_SetEndPointFeature();
 17406              		.loc 1 380 0
 17407 006e 0C48     		ldr	r0, .L79+8
 17408              	.LBB23:
 371:../../../SDK_embedded/libs/stm32/STM32_USB_FS_Device_Driver/usb_core.c ****       _SetEPTxStatus(Related_Endpoint, EP_TX_STALL);
 17409              		.loc 1 371 0
 17410 0070 14BF     		ite	ne
 17411 0072 82F01002 		eorne	r2, r2, #16
 17412              	.LVL61:
 17413              	.LBE23:
 17414              	.LBB24:
 377:../../../SDK_embedded/libs/stm32/STM32_USB_FS_Device_Driver/usb_core.c ****       _SetEPRxStatus(Related_Endpoint, EP_RX_STALL);
 17415              		.loc 1 377 0
 17416 0076 82F48052 		eoreq	r2, r2, #4096
 17417              	.LVL62:
 17418 007a 42F4004C 		orr	ip, r2, #32768
 17419              	.LBE24:
 380:../../../SDK_embedded/libs/stm32/STM32_USB_FS_Device_Driver/usb_core.c ****   pUser_Standard_Requests->User_SetEndPointFeature();
 17420              		.loc 1 380 0
 17421 007e 0368     		ldr	r3, [r0, #0]
 17422              	.LBB25:
 377:../../../SDK_embedded/libs/stm32/STM32_USB_FS_Device_Driver/usb_core.c ****       _SetEPRxStatus(Related_Endpoint, EP_RX_STALL);
 17423              		.loc 1 377 0
 17424 0080 4CF08001 		orr	r1, ip, #128
 17425 0084 CEF80010 		str	r1, [lr, #0]
 17426              	.LBE25:
 380:../../../SDK_embedded/libs/stm32/STM32_USB_FS_Device_Driver/usb_core.c ****   pUser_Standard_Requests->User_SetEndPointFeature();
 17427              		.loc 1 380 0
 17428 0088 9A69     		ldr	r2, [r3, #24]
 17429 008a 9047     		blx	r2
 381:../../../SDK_embedded/libs/stm32/STM32_USB_FS_Device_Driver/usb_core.c ****   return USB_SUCCESS;
 17430              		.loc 1 381 0
 17431 008c 0020     		movs	r0, #0
 17432 008e 10BD     		pop	{r4, pc}
 17433              	.LVL63:
 17434              	.L76:
 364:../../../SDK_embedded/libs/stm32/STM32_USB_FS_Device_Driver/usb_core.c ****     return USB_UNSUPPORT;
 17435              		.loc 1 364 0
 17436 0090 0220     		movs	r0, #2
 17437 0092 10BD     		pop	{r4, pc}
 17438              	.L77:
 17439 0094 0220     		movs	r0, #2
 382:../../../SDK_embedded/libs/stm32/STM32_USB_FS_Device_Driver/usb_core.c **** }
 17440              		.loc 1 382 0
 17441 0096 10BD     		pop	{r4, pc}
 17442              	.L80:
 17443              		.align	2
 17444              	.L79:
 17445 0098 00000000 		.word	pInformation
 17446 009c 00000000 		.word	Device_Table
 17447 00a0 00000000 		.word	pUser_Standard_Requests
 17448              		.cfi_endproc
 17449              	.LFE35:
 17451              		.section	.text.Standard_SetDeviceFeature,"ax",%progbits
 17452              		.align	1
 17453              		.global	Standard_SetDeviceFeature
 17454              		.thumb
 17455              		.thumb_func
 17457              	Standard_SetDeviceFeature:
 17458              	.LFB36:
 393:../../../SDK_embedded/libs/stm32/STM32_USB_FS_Device_Driver/usb_core.c **** {
 17459              		.loc 1 393 0
 17460              		.cfi_startproc
 17461              		@ args = 0, pretend = 0, frame = 0
 17462              		@ frame_needed = 0, uses_anonymous_args = 0
 17463 0000 08B5     		push	{r3, lr}
 17464              	.LCFI8:
 17465              		.cfi_def_cfa_offset 8
 17466              		.cfi_offset 14, -4
 17467              		.cfi_offset 3, -8
 394:../../../SDK_embedded/libs/stm32/STM32_USB_FS_Device_Driver/usb_core.c ****   SetBit(pInformation->Current_Feature, 5);
 17468              		.loc 1 394 0
 17469 0002 0648     		ldr	r0, .L82
 395:../../../SDK_embedded/libs/stm32/STM32_USB_FS_Device_Driver/usb_core.c ****   pUser_Standard_Requests->User_SetDeviceFeature();
 17470              		.loc 1 395 0
 17471 0004 0649     		ldr	r1, .L82+4
 394:../../../SDK_embedded/libs/stm32/STM32_USB_FS_Device_Driver/usb_core.c ****   SetBit(pInformation->Current_Feature, 5);
 17472              		.loc 1 394 0
 17473 0006 0368     		ldr	r3, [r0, #0]
 395:../../../SDK_embedded/libs/stm32/STM32_USB_FS_Device_Driver/usb_core.c ****   pUser_Standard_Requests->User_SetDeviceFeature();
 17474              		.loc 1 395 0
 17475 0008 0868     		ldr	r0, [r1, #0]
 394:../../../SDK_embedded/libs/stm32/STM32_USB_FS_Device_Driver/usb_core.c ****   SetBit(pInformation->Current_Feature, 5);
 17476              		.loc 1 394 0
 17477 000a 93F809C0 		ldrb	ip, [r3, #9]	@ zero_extendqisi2
 17478 000e 4CF02002 		orr	r2, ip, #32
 17479 0012 5A72     		strb	r2, [r3, #9]
 395:../../../SDK_embedded/libs/stm32/STM32_USB_FS_Device_Driver/usb_core.c ****   pUser_Standard_Requests->User_SetDeviceFeature();
 17480              		.loc 1 395 0
 17481 0014 C369     		ldr	r3, [r0, #28]
 17482 0016 9847     		blx	r3
 397:../../../SDK_embedded/libs/stm32/STM32_USB_FS_Device_Driver/usb_core.c **** }
 17483              		.loc 1 397 0
 17484 0018 0020     		movs	r0, #0
 17485 001a 08BD     		pop	{r3, pc}
 17486              	.L83:
 17487              		.align	2
 17488              	.L82:
 17489 001c 00000000 		.word	pInformation
 17490 0020 00000000 		.word	pUser_Standard_Requests
 17491              		.cfi_endproc
 17492              	.LFE36:
 17494              		.section	.text.Standard_GetDescriptorData,"ax",%progbits
 17495              		.align	1
 17496              		.global	Standard_GetDescriptorData
 17497              		.thumb
 17498              		.thumb_func
 17500              	Standard_GetDescriptorData:
 17501              	.LFB37:
 419:../../../SDK_embedded/libs/stm32/STM32_USB_FS_Device_Driver/usb_core.c **** {
 17502              		.loc 1 419 0
 17503              		.cfi_startproc
 17504              		@ args = 0, pretend = 0, frame = 0
 17505              		@ frame_needed = 0, uses_anonymous_args = 0
 17506              		@ link register save eliminated.
 17507              	.LVL64:
 422:../../../SDK_embedded/libs/stm32/STM32_USB_FS_Device_Driver/usb_core.c ****   wOffset = pInformation->Ctrl_Info.Usb_wOffset;
 17508              		.loc 1 422 0
 17509 0000 064B     		ldr	r3, .L87
 17510 0002 1A68     		ldr	r2, [r3, #0]
 17511 0004 538A     		ldrh	r3, [r2, #18]
 17512              	.LVL65:
 423:../../../SDK_embedded/libs/stm32/STM32_USB_FS_Device_Driver/usb_core.c ****   if (Length == 0)
 17513              		.loc 1 423 0
 17514 0006 28B9     		cbnz	r0, .L85
 425:../../../SDK_embedded/libs/stm32/STM32_USB_FS_Device_Driver/usb_core.c ****     pInformation->Ctrl_Info.Usb_wLength = pDesc->Descriptor_Size - wOffset;
 17515              		.loc 1 425 0
 17516 0008 B1F804C0 		ldrh	ip, [r1, #4]
 17517 000c C3EB0C01 		rsb	r1, r3, ip
 17518              	.LVL66:
 17519 0010 1182     		strh	r1, [r2, #16]	@ movhi
 426:../../../SDK_embedded/libs/stm32/STM32_USB_FS_Device_Driver/usb_core.c ****     return 0;
 17520              		.loc 1 426 0
 17521 0012 7047     		bx	lr
 17522              	.LVL67:
 17523              	.L85:
 429:../../../SDK_embedded/libs/stm32/STM32_USB_FS_Device_Driver/usb_core.c ****   return pDesc->Descriptor + wOffset;
 17524              		.loc 1 429 0
 17525 0014 0868     		ldr	r0, [r1, #0]
 17526              	.LVL68:
 17527 0016 C018     		adds	r0, r0, r3
 430:../../../SDK_embedded/libs/stm32/STM32_USB_FS_Device_Driver/usb_core.c **** }
 17528              		.loc 1 430 0
 17529 0018 7047     		bx	lr
 17530              	.L88:
 17531 001a 00BF     		.align	2
 17532              	.L87:
 17533 001c 00000000 		.word	pInformation
 17534              		.cfi_endproc
 17535              	.LFE37:
 17537              		.section	.text.Post0_Process,"ax",%progbits
 17538              		.align	1
 17539              		.global	Post0_Process
 17540              		.thumb
 17541              		.thumb_func
 17543              	Post0_Process:
 17544              	.LFB45:
 562:../../../SDK_embedded/libs/stm32/STM32_USB_FS_Device_Driver/usb_core.c **** 
 563:../../../SDK_embedded/libs/stm32/STM32_USB_FS_Device_Driver/usb_core.c **** /*******************************************************************************
 564:../../../SDK_embedded/libs/stm32/STM32_USB_FS_Device_Driver/usb_core.c **** * Function Name  : NoData_Setup0.
 565:../../../SDK_embedded/libs/stm32/STM32_USB_FS_Device_Driver/usb_core.c **** * Description    : Proceed the processing of setup request without data stage.
 566:../../../SDK_embedded/libs/stm32/STM32_USB_FS_Device_Driver/usb_core.c **** * Input          : None.
 567:../../../SDK_embedded/libs/stm32/STM32_USB_FS_Device_Driver/usb_core.c **** * Output         : None.
 568:../../../SDK_embedded/libs/stm32/STM32_USB_FS_Device_Driver/usb_core.c **** * Return         : None.
 569:../../../SDK_embedded/libs/stm32/STM32_USB_FS_Device_Driver/usb_core.c **** *******************************************************************************/
 570:../../../SDK_embedded/libs/stm32/STM32_USB_FS_Device_Driver/usb_core.c **** void NoData_Setup0(void)
 571:../../../SDK_embedded/libs/stm32/STM32_USB_FS_Device_Driver/usb_core.c **** {
 572:../../../SDK_embedded/libs/stm32/STM32_USB_FS_Device_Driver/usb_core.c ****   RESULT Result = USB_UNSUPPORT;
 573:../../../SDK_embedded/libs/stm32/STM32_USB_FS_Device_Driver/usb_core.c ****   uint32_t RequestNo = pInformation->USBbRequest;
 574:../../../SDK_embedded/libs/stm32/STM32_USB_FS_Device_Driver/usb_core.c ****   uint32_t ControlState;
 575:../../../SDK_embedded/libs/stm32/STM32_USB_FS_Device_Driver/usb_core.c **** 
 576:../../../SDK_embedded/libs/stm32/STM32_USB_FS_Device_Driver/usb_core.c ****   if (Type_Recipient == (STANDARD_REQUEST | DEVICE_RECIPIENT))
 577:../../../SDK_embedded/libs/stm32/STM32_USB_FS_Device_Driver/usb_core.c ****   {
 578:../../../SDK_embedded/libs/stm32/STM32_USB_FS_Device_Driver/usb_core.c ****     /* Device Request*/
 579:../../../SDK_embedded/libs/stm32/STM32_USB_FS_Device_Driver/usb_core.c ****     /* SET_CONFIGURATION*/
 580:../../../SDK_embedded/libs/stm32/STM32_USB_FS_Device_Driver/usb_core.c ****     if (RequestNo == SET_CONFIGURATION)
 581:../../../SDK_embedded/libs/stm32/STM32_USB_FS_Device_Driver/usb_core.c ****     {
 582:../../../SDK_embedded/libs/stm32/STM32_USB_FS_Device_Driver/usb_core.c ****       Result = Standard_SetConfiguration();
 583:../../../SDK_embedded/libs/stm32/STM32_USB_FS_Device_Driver/usb_core.c ****     }
 584:../../../SDK_embedded/libs/stm32/STM32_USB_FS_Device_Driver/usb_core.c **** 
 585:../../../SDK_embedded/libs/stm32/STM32_USB_FS_Device_Driver/usb_core.c ****     /*SET ADDRESS*/
 586:../../../SDK_embedded/libs/stm32/STM32_USB_FS_Device_Driver/usb_core.c ****     else if (RequestNo == SET_ADDRESS)
 587:../../../SDK_embedded/libs/stm32/STM32_USB_FS_Device_Driver/usb_core.c ****     {
 588:../../../SDK_embedded/libs/stm32/STM32_USB_FS_Device_Driver/usb_core.c ****       if ((pInformation->USBwValue0 > 127) || (pInformation->USBwValue1 != 0)
 589:../../../SDK_embedded/libs/stm32/STM32_USB_FS_Device_Driver/usb_core.c ****           || (pInformation->USBwIndex != 0)
 590:../../../SDK_embedded/libs/stm32/STM32_USB_FS_Device_Driver/usb_core.c ****           || (pInformation->Current_Configuration != 0))
 591:../../../SDK_embedded/libs/stm32/STM32_USB_FS_Device_Driver/usb_core.c ****         /* Device Address should be 127 or less*/
 592:../../../SDK_embedded/libs/stm32/STM32_USB_FS_Device_Driver/usb_core.c ****       {
 593:../../../SDK_embedded/libs/stm32/STM32_USB_FS_Device_Driver/usb_core.c ****         ControlState = STALLED;
 594:../../../SDK_embedded/libs/stm32/STM32_USB_FS_Device_Driver/usb_core.c ****         goto exit_NoData_Setup0;
 595:../../../SDK_embedded/libs/stm32/STM32_USB_FS_Device_Driver/usb_core.c ****       }
 596:../../../SDK_embedded/libs/stm32/STM32_USB_FS_Device_Driver/usb_core.c ****       else
 597:../../../SDK_embedded/libs/stm32/STM32_USB_FS_Device_Driver/usb_core.c ****       {
 598:../../../SDK_embedded/libs/stm32/STM32_USB_FS_Device_Driver/usb_core.c ****         Result = USB_SUCCESS;
 599:../../../SDK_embedded/libs/stm32/STM32_USB_FS_Device_Driver/usb_core.c **** 
 600:../../../SDK_embedded/libs/stm32/STM32_USB_FS_Device_Driver/usb_core.c ****       #ifdef STM32F10X_CL
 601:../../../SDK_embedded/libs/stm32/STM32_USB_FS_Device_Driver/usb_core.c ****          SetDeviceAddress(pInformation->USBwValue0);
 602:../../../SDK_embedded/libs/stm32/STM32_USB_FS_Device_Driver/usb_core.c ****       #endif  /* STM32F10X_CL */
 603:../../../SDK_embedded/libs/stm32/STM32_USB_FS_Device_Driver/usb_core.c ****       }
 604:../../../SDK_embedded/libs/stm32/STM32_USB_FS_Device_Driver/usb_core.c ****     }
 605:../../../SDK_embedded/libs/stm32/STM32_USB_FS_Device_Driver/usb_core.c ****     /*SET FEATURE for Device*/
 606:../../../SDK_embedded/libs/stm32/STM32_USB_FS_Device_Driver/usb_core.c ****     else if (RequestNo == SET_FEATURE)
 607:../../../SDK_embedded/libs/stm32/STM32_USB_FS_Device_Driver/usb_core.c ****     {
 608:../../../SDK_embedded/libs/stm32/STM32_USB_FS_Device_Driver/usb_core.c ****       if ((pInformation->USBwValue0 == DEVICE_REMOTE_WAKEUP)
 609:../../../SDK_embedded/libs/stm32/STM32_USB_FS_Device_Driver/usb_core.c ****           && (pInformation->USBwIndex == 0)
 610:../../../SDK_embedded/libs/stm32/STM32_USB_FS_Device_Driver/usb_core.c ****           && (ValBit(pInformation->Current_Feature, 5)))
 611:../../../SDK_embedded/libs/stm32/STM32_USB_FS_Device_Driver/usb_core.c ****       {
 612:../../../SDK_embedded/libs/stm32/STM32_USB_FS_Device_Driver/usb_core.c ****         Result = Standard_SetDeviceFeature();
 613:../../../SDK_embedded/libs/stm32/STM32_USB_FS_Device_Driver/usb_core.c ****       }
 614:../../../SDK_embedded/libs/stm32/STM32_USB_FS_Device_Driver/usb_core.c ****       else
 615:../../../SDK_embedded/libs/stm32/STM32_USB_FS_Device_Driver/usb_core.c ****       {
 616:../../../SDK_embedded/libs/stm32/STM32_USB_FS_Device_Driver/usb_core.c ****         Result = USB_UNSUPPORT;
 617:../../../SDK_embedded/libs/stm32/STM32_USB_FS_Device_Driver/usb_core.c ****       }
 618:../../../SDK_embedded/libs/stm32/STM32_USB_FS_Device_Driver/usb_core.c ****     }
 619:../../../SDK_embedded/libs/stm32/STM32_USB_FS_Device_Driver/usb_core.c ****     /*Clear FEATURE for Device */
 620:../../../SDK_embedded/libs/stm32/STM32_USB_FS_Device_Driver/usb_core.c ****     else if (RequestNo == CLEAR_FEATURE)
 621:../../../SDK_embedded/libs/stm32/STM32_USB_FS_Device_Driver/usb_core.c ****     {
 622:../../../SDK_embedded/libs/stm32/STM32_USB_FS_Device_Driver/usb_core.c ****       if (pInformation->USBwValue0 == DEVICE_REMOTE_WAKEUP
 623:../../../SDK_embedded/libs/stm32/STM32_USB_FS_Device_Driver/usb_core.c ****           && pInformation->USBwIndex == 0
 624:../../../SDK_embedded/libs/stm32/STM32_USB_FS_Device_Driver/usb_core.c ****           && ValBit(pInformation->Current_Feature, 5))
 625:../../../SDK_embedded/libs/stm32/STM32_USB_FS_Device_Driver/usb_core.c ****       {
 626:../../../SDK_embedded/libs/stm32/STM32_USB_FS_Device_Driver/usb_core.c ****         Result = Standard_ClearFeature();
 627:../../../SDK_embedded/libs/stm32/STM32_USB_FS_Device_Driver/usb_core.c ****       }
 628:../../../SDK_embedded/libs/stm32/STM32_USB_FS_Device_Driver/usb_core.c ****       else
 629:../../../SDK_embedded/libs/stm32/STM32_USB_FS_Device_Driver/usb_core.c ****       {
 630:../../../SDK_embedded/libs/stm32/STM32_USB_FS_Device_Driver/usb_core.c ****         Result = USB_UNSUPPORT;
 631:../../../SDK_embedded/libs/stm32/STM32_USB_FS_Device_Driver/usb_core.c ****       }
 632:../../../SDK_embedded/libs/stm32/STM32_USB_FS_Device_Driver/usb_core.c ****     }
 633:../../../SDK_embedded/libs/stm32/STM32_USB_FS_Device_Driver/usb_core.c **** 
 634:../../../SDK_embedded/libs/stm32/STM32_USB_FS_Device_Driver/usb_core.c ****   }
 635:../../../SDK_embedded/libs/stm32/STM32_USB_FS_Device_Driver/usb_core.c **** 
 636:../../../SDK_embedded/libs/stm32/STM32_USB_FS_Device_Driver/usb_core.c ****   /* Interface Request*/
 637:../../../SDK_embedded/libs/stm32/STM32_USB_FS_Device_Driver/usb_core.c ****   else if (Type_Recipient == (STANDARD_REQUEST | INTERFACE_RECIPIENT))
 638:../../../SDK_embedded/libs/stm32/STM32_USB_FS_Device_Driver/usb_core.c ****   {
 639:../../../SDK_embedded/libs/stm32/STM32_USB_FS_Device_Driver/usb_core.c ****     /*SET INTERFACE*/
 640:../../../SDK_embedded/libs/stm32/STM32_USB_FS_Device_Driver/usb_core.c ****     if (RequestNo == SET_INTERFACE)
 641:../../../SDK_embedded/libs/stm32/STM32_USB_FS_Device_Driver/usb_core.c ****     {
 642:../../../SDK_embedded/libs/stm32/STM32_USB_FS_Device_Driver/usb_core.c ****       Result = Standard_SetInterface();
 643:../../../SDK_embedded/libs/stm32/STM32_USB_FS_Device_Driver/usb_core.c ****     }
 644:../../../SDK_embedded/libs/stm32/STM32_USB_FS_Device_Driver/usb_core.c ****   }
 645:../../../SDK_embedded/libs/stm32/STM32_USB_FS_Device_Driver/usb_core.c **** 
 646:../../../SDK_embedded/libs/stm32/STM32_USB_FS_Device_Driver/usb_core.c ****   /* EndPoint Request*/
 647:../../../SDK_embedded/libs/stm32/STM32_USB_FS_Device_Driver/usb_core.c ****   else if (Type_Recipient == (STANDARD_REQUEST | ENDPOINT_RECIPIENT))
 648:../../../SDK_embedded/libs/stm32/STM32_USB_FS_Device_Driver/usb_core.c ****   {
 649:../../../SDK_embedded/libs/stm32/STM32_USB_FS_Device_Driver/usb_core.c ****     /*CLEAR FEATURE for EndPoint*/
 650:../../../SDK_embedded/libs/stm32/STM32_USB_FS_Device_Driver/usb_core.c ****     if (RequestNo == CLEAR_FEATURE)
 651:../../../SDK_embedded/libs/stm32/STM32_USB_FS_Device_Driver/usb_core.c ****     {
 652:../../../SDK_embedded/libs/stm32/STM32_USB_FS_Device_Driver/usb_core.c ****       Result = Standard_ClearFeature();
 653:../../../SDK_embedded/libs/stm32/STM32_USB_FS_Device_Driver/usb_core.c ****     }
 654:../../../SDK_embedded/libs/stm32/STM32_USB_FS_Device_Driver/usb_core.c ****     /* SET FEATURE for EndPoint*/
 655:../../../SDK_embedded/libs/stm32/STM32_USB_FS_Device_Driver/usb_core.c ****     else if (RequestNo == SET_FEATURE)
 656:../../../SDK_embedded/libs/stm32/STM32_USB_FS_Device_Driver/usb_core.c ****     {
 657:../../../SDK_embedded/libs/stm32/STM32_USB_FS_Device_Driver/usb_core.c ****       Result = Standard_SetEndPointFeature();
 658:../../../SDK_embedded/libs/stm32/STM32_USB_FS_Device_Driver/usb_core.c ****     }
 659:../../../SDK_embedded/libs/stm32/STM32_USB_FS_Device_Driver/usb_core.c ****   }
 660:../../../SDK_embedded/libs/stm32/STM32_USB_FS_Device_Driver/usb_core.c ****   else
 661:../../../SDK_embedded/libs/stm32/STM32_USB_FS_Device_Driver/usb_core.c ****   {
 662:../../../SDK_embedded/libs/stm32/STM32_USB_FS_Device_Driver/usb_core.c ****     Result = USB_UNSUPPORT;
 663:../../../SDK_embedded/libs/stm32/STM32_USB_FS_Device_Driver/usb_core.c ****   }
 664:../../../SDK_embedded/libs/stm32/STM32_USB_FS_Device_Driver/usb_core.c **** 
 665:../../../SDK_embedded/libs/stm32/STM32_USB_FS_Device_Driver/usb_core.c **** 
 666:../../../SDK_embedded/libs/stm32/STM32_USB_FS_Device_Driver/usb_core.c ****   if (Result != USB_SUCCESS)
 667:../../../SDK_embedded/libs/stm32/STM32_USB_FS_Device_Driver/usb_core.c ****   {
 668:../../../SDK_embedded/libs/stm32/STM32_USB_FS_Device_Driver/usb_core.c ****     Result = (*pProperty->Class_NoData_Setup)(RequestNo);
 669:../../../SDK_embedded/libs/stm32/STM32_USB_FS_Device_Driver/usb_core.c ****     if (Result == USB_NOT_READY)
 670:../../../SDK_embedded/libs/stm32/STM32_USB_FS_Device_Driver/usb_core.c ****     {
 671:../../../SDK_embedded/libs/stm32/STM32_USB_FS_Device_Driver/usb_core.c ****       ControlState = PAUSE;
 672:../../../SDK_embedded/libs/stm32/STM32_USB_FS_Device_Driver/usb_core.c ****       goto exit_NoData_Setup0;
 673:../../../SDK_embedded/libs/stm32/STM32_USB_FS_Device_Driver/usb_core.c ****     }
 674:../../../SDK_embedded/libs/stm32/STM32_USB_FS_Device_Driver/usb_core.c ****   }
 675:../../../SDK_embedded/libs/stm32/STM32_USB_FS_Device_Driver/usb_core.c **** 
 676:../../../SDK_embedded/libs/stm32/STM32_USB_FS_Device_Driver/usb_core.c ****   if (Result != USB_SUCCESS)
 677:../../../SDK_embedded/libs/stm32/STM32_USB_FS_Device_Driver/usb_core.c ****   {
 678:../../../SDK_embedded/libs/stm32/STM32_USB_FS_Device_Driver/usb_core.c ****     ControlState = STALLED;
 679:../../../SDK_embedded/libs/stm32/STM32_USB_FS_Device_Driver/usb_core.c ****     goto exit_NoData_Setup0;
 680:../../../SDK_embedded/libs/stm32/STM32_USB_FS_Device_Driver/usb_core.c ****   }
 681:../../../SDK_embedded/libs/stm32/STM32_USB_FS_Device_Driver/usb_core.c **** 
 682:../../../SDK_embedded/libs/stm32/STM32_USB_FS_Device_Driver/usb_core.c ****   ControlState = WAIT_STATUS_IN;/* After no data stage SETUP */
 683:../../../SDK_embedded/libs/stm32/STM32_USB_FS_Device_Driver/usb_core.c **** 
 684:../../../SDK_embedded/libs/stm32/STM32_USB_FS_Device_Driver/usb_core.c ****   USB_StatusIn();
 685:../../../SDK_embedded/libs/stm32/STM32_USB_FS_Device_Driver/usb_core.c **** 
 686:../../../SDK_embedded/libs/stm32/STM32_USB_FS_Device_Driver/usb_core.c **** exit_NoData_Setup0:
 687:../../../SDK_embedded/libs/stm32/STM32_USB_FS_Device_Driver/usb_core.c ****   pInformation->ControlState = ControlState;
 688:../../../SDK_embedded/libs/stm32/STM32_USB_FS_Device_Driver/usb_core.c ****   return;
 689:../../../SDK_embedded/libs/stm32/STM32_USB_FS_Device_Driver/usb_core.c **** }
 690:../../../SDK_embedded/libs/stm32/STM32_USB_FS_Device_Driver/usb_core.c **** 
 691:../../../SDK_embedded/libs/stm32/STM32_USB_FS_Device_Driver/usb_core.c **** /*******************************************************************************
 692:../../../SDK_embedded/libs/stm32/STM32_USB_FS_Device_Driver/usb_core.c **** * Function Name  : Data_Setup0.
 693:../../../SDK_embedded/libs/stm32/STM32_USB_FS_Device_Driver/usb_core.c **** * Description    : Proceed the processing of setup request with data stage.
 694:../../../SDK_embedded/libs/stm32/STM32_USB_FS_Device_Driver/usb_core.c **** * Input          : None.
 695:../../../SDK_embedded/libs/stm32/STM32_USB_FS_Device_Driver/usb_core.c **** * Output         : None.
 696:../../../SDK_embedded/libs/stm32/STM32_USB_FS_Device_Driver/usb_core.c **** * Return         : None.
 697:../../../SDK_embedded/libs/stm32/STM32_USB_FS_Device_Driver/usb_core.c **** *******************************************************************************/
 698:../../../SDK_embedded/libs/stm32/STM32_USB_FS_Device_Driver/usb_core.c **** void Data_Setup0(void)
 699:../../../SDK_embedded/libs/stm32/STM32_USB_FS_Device_Driver/usb_core.c **** {
 700:../../../SDK_embedded/libs/stm32/STM32_USB_FS_Device_Driver/usb_core.c ****   uint8_t *(*CopyRoutine)(uint16_t);
 701:../../../SDK_embedded/libs/stm32/STM32_USB_FS_Device_Driver/usb_core.c ****   RESULT Result;
 702:../../../SDK_embedded/libs/stm32/STM32_USB_FS_Device_Driver/usb_core.c ****   uint32_t Request_No = pInformation->USBbRequest;
 703:../../../SDK_embedded/libs/stm32/STM32_USB_FS_Device_Driver/usb_core.c **** 
 704:../../../SDK_embedded/libs/stm32/STM32_USB_FS_Device_Driver/usb_core.c ****   uint32_t Related_Endpoint, Reserved;
 705:../../../SDK_embedded/libs/stm32/STM32_USB_FS_Device_Driver/usb_core.c ****   uint32_t wOffset, Status;
 706:../../../SDK_embedded/libs/stm32/STM32_USB_FS_Device_Driver/usb_core.c **** 
 707:../../../SDK_embedded/libs/stm32/STM32_USB_FS_Device_Driver/usb_core.c **** 
 708:../../../SDK_embedded/libs/stm32/STM32_USB_FS_Device_Driver/usb_core.c **** 
 709:../../../SDK_embedded/libs/stm32/STM32_USB_FS_Device_Driver/usb_core.c ****   CopyRoutine = NULL;
 710:../../../SDK_embedded/libs/stm32/STM32_USB_FS_Device_Driver/usb_core.c ****   wOffset = 0;
 711:../../../SDK_embedded/libs/stm32/STM32_USB_FS_Device_Driver/usb_core.c **** 
 712:../../../SDK_embedded/libs/stm32/STM32_USB_FS_Device_Driver/usb_core.c ****   /*GET DESCRIPTOR*/
 713:../../../SDK_embedded/libs/stm32/STM32_USB_FS_Device_Driver/usb_core.c ****   if (Request_No == GET_DESCRIPTOR)
 714:../../../SDK_embedded/libs/stm32/STM32_USB_FS_Device_Driver/usb_core.c ****   {
 715:../../../SDK_embedded/libs/stm32/STM32_USB_FS_Device_Driver/usb_core.c ****     if (Type_Recipient == (STANDARD_REQUEST | DEVICE_RECIPIENT))
 716:../../../SDK_embedded/libs/stm32/STM32_USB_FS_Device_Driver/usb_core.c ****     {
 717:../../../SDK_embedded/libs/stm32/STM32_USB_FS_Device_Driver/usb_core.c ****       uint8_t wValue1 = pInformation->USBwValue1;
 718:../../../SDK_embedded/libs/stm32/STM32_USB_FS_Device_Driver/usb_core.c ****       if (wValue1 == DEVICE_DESCRIPTOR)
 719:../../../SDK_embedded/libs/stm32/STM32_USB_FS_Device_Driver/usb_core.c ****       {
 720:../../../SDK_embedded/libs/stm32/STM32_USB_FS_Device_Driver/usb_core.c ****         CopyRoutine = pProperty->GetDeviceDescriptor;
 721:../../../SDK_embedded/libs/stm32/STM32_USB_FS_Device_Driver/usb_core.c ****       }
 722:../../../SDK_embedded/libs/stm32/STM32_USB_FS_Device_Driver/usb_core.c ****       else if (wValue1 == CONFIG_DESCRIPTOR)
 723:../../../SDK_embedded/libs/stm32/STM32_USB_FS_Device_Driver/usb_core.c ****       {
 724:../../../SDK_embedded/libs/stm32/STM32_USB_FS_Device_Driver/usb_core.c ****         CopyRoutine = pProperty->GetConfigDescriptor;
 725:../../../SDK_embedded/libs/stm32/STM32_USB_FS_Device_Driver/usb_core.c ****       }
 726:../../../SDK_embedded/libs/stm32/STM32_USB_FS_Device_Driver/usb_core.c ****       else if (wValue1 == STRING_DESCRIPTOR)
 727:../../../SDK_embedded/libs/stm32/STM32_USB_FS_Device_Driver/usb_core.c ****       {
 728:../../../SDK_embedded/libs/stm32/STM32_USB_FS_Device_Driver/usb_core.c ****         CopyRoutine = pProperty->GetStringDescriptor;
 729:../../../SDK_embedded/libs/stm32/STM32_USB_FS_Device_Driver/usb_core.c ****       }  /* End of GET_DESCRIPTOR */
 730:../../../SDK_embedded/libs/stm32/STM32_USB_FS_Device_Driver/usb_core.c ****     }
 731:../../../SDK_embedded/libs/stm32/STM32_USB_FS_Device_Driver/usb_core.c ****   }
 732:../../../SDK_embedded/libs/stm32/STM32_USB_FS_Device_Driver/usb_core.c **** 
 733:../../../SDK_embedded/libs/stm32/STM32_USB_FS_Device_Driver/usb_core.c ****   /*GET STATUS*/
 734:../../../SDK_embedded/libs/stm32/STM32_USB_FS_Device_Driver/usb_core.c ****   else if ((Request_No == GET_STATUS) && (pInformation->USBwValue == 0)
 735:../../../SDK_embedded/libs/stm32/STM32_USB_FS_Device_Driver/usb_core.c ****            && (pInformation->USBwLength == 0x0002)
 736:../../../SDK_embedded/libs/stm32/STM32_USB_FS_Device_Driver/usb_core.c ****            && (pInformation->USBwIndex1 == 0))
 737:../../../SDK_embedded/libs/stm32/STM32_USB_FS_Device_Driver/usb_core.c ****   {
 738:../../../SDK_embedded/libs/stm32/STM32_USB_FS_Device_Driver/usb_core.c ****     /* GET STATUS for Device*/
 739:../../../SDK_embedded/libs/stm32/STM32_USB_FS_Device_Driver/usb_core.c ****     if ((Type_Recipient == (STANDARD_REQUEST | DEVICE_RECIPIENT))
 740:../../../SDK_embedded/libs/stm32/STM32_USB_FS_Device_Driver/usb_core.c ****         && (pInformation->USBwIndex == 0))
 741:../../../SDK_embedded/libs/stm32/STM32_USB_FS_Device_Driver/usb_core.c ****     {
 742:../../../SDK_embedded/libs/stm32/STM32_USB_FS_Device_Driver/usb_core.c ****       CopyRoutine = Standard_GetStatus;
 743:../../../SDK_embedded/libs/stm32/STM32_USB_FS_Device_Driver/usb_core.c ****     }
 744:../../../SDK_embedded/libs/stm32/STM32_USB_FS_Device_Driver/usb_core.c **** 
 745:../../../SDK_embedded/libs/stm32/STM32_USB_FS_Device_Driver/usb_core.c ****     /* GET STATUS for Interface*/
 746:../../../SDK_embedded/libs/stm32/STM32_USB_FS_Device_Driver/usb_core.c ****     else if (Type_Recipient == (STANDARD_REQUEST | INTERFACE_RECIPIENT))
 747:../../../SDK_embedded/libs/stm32/STM32_USB_FS_Device_Driver/usb_core.c ****     {
 748:../../../SDK_embedded/libs/stm32/STM32_USB_FS_Device_Driver/usb_core.c ****       if (((*pProperty->Class_Get_Interface_Setting)(pInformation->USBwIndex0, 0) == USB_SUCCESS)
 749:../../../SDK_embedded/libs/stm32/STM32_USB_FS_Device_Driver/usb_core.c ****           && (pInformation->Current_Configuration != 0))
 750:../../../SDK_embedded/libs/stm32/STM32_USB_FS_Device_Driver/usb_core.c ****       {
 751:../../../SDK_embedded/libs/stm32/STM32_USB_FS_Device_Driver/usb_core.c ****         CopyRoutine = Standard_GetStatus;
 752:../../../SDK_embedded/libs/stm32/STM32_USB_FS_Device_Driver/usb_core.c ****       }
 753:../../../SDK_embedded/libs/stm32/STM32_USB_FS_Device_Driver/usb_core.c ****     }
 754:../../../SDK_embedded/libs/stm32/STM32_USB_FS_Device_Driver/usb_core.c **** 
 755:../../../SDK_embedded/libs/stm32/STM32_USB_FS_Device_Driver/usb_core.c ****     /* GET STATUS for EndPoint*/
 756:../../../SDK_embedded/libs/stm32/STM32_USB_FS_Device_Driver/usb_core.c ****     else if (Type_Recipient == (STANDARD_REQUEST | ENDPOINT_RECIPIENT))
 757:../../../SDK_embedded/libs/stm32/STM32_USB_FS_Device_Driver/usb_core.c ****     {
 758:../../../SDK_embedded/libs/stm32/STM32_USB_FS_Device_Driver/usb_core.c ****       Related_Endpoint = (pInformation->USBwIndex0 & 0x0f);
 759:../../../SDK_embedded/libs/stm32/STM32_USB_FS_Device_Driver/usb_core.c ****       Reserved = pInformation->USBwIndex0 & 0x70;
 760:../../../SDK_embedded/libs/stm32/STM32_USB_FS_Device_Driver/usb_core.c **** 
 761:../../../SDK_embedded/libs/stm32/STM32_USB_FS_Device_Driver/usb_core.c ****       if (ValBit(pInformation->USBwIndex0, 7))
 762:../../../SDK_embedded/libs/stm32/STM32_USB_FS_Device_Driver/usb_core.c ****       {
 763:../../../SDK_embedded/libs/stm32/STM32_USB_FS_Device_Driver/usb_core.c ****         /*Get Status of endpoint & stall the request if the related_ENdpoint
 764:../../../SDK_embedded/libs/stm32/STM32_USB_FS_Device_Driver/usb_core.c ****         is Disabled*/
 765:../../../SDK_embedded/libs/stm32/STM32_USB_FS_Device_Driver/usb_core.c ****         Status = _GetEPTxStatus(Related_Endpoint);
 766:../../../SDK_embedded/libs/stm32/STM32_USB_FS_Device_Driver/usb_core.c ****       }
 767:../../../SDK_embedded/libs/stm32/STM32_USB_FS_Device_Driver/usb_core.c ****       else
 768:../../../SDK_embedded/libs/stm32/STM32_USB_FS_Device_Driver/usb_core.c ****       {
 769:../../../SDK_embedded/libs/stm32/STM32_USB_FS_Device_Driver/usb_core.c ****         Status = _GetEPRxStatus(Related_Endpoint);
 770:../../../SDK_embedded/libs/stm32/STM32_USB_FS_Device_Driver/usb_core.c ****       }
 771:../../../SDK_embedded/libs/stm32/STM32_USB_FS_Device_Driver/usb_core.c **** 
 772:../../../SDK_embedded/libs/stm32/STM32_USB_FS_Device_Driver/usb_core.c ****       if ((Related_Endpoint < Device_Table.Total_Endpoint) && (Reserved == 0)
 773:../../../SDK_embedded/libs/stm32/STM32_USB_FS_Device_Driver/usb_core.c ****           && (Status != 0))
 774:../../../SDK_embedded/libs/stm32/STM32_USB_FS_Device_Driver/usb_core.c ****       {
 775:../../../SDK_embedded/libs/stm32/STM32_USB_FS_Device_Driver/usb_core.c ****         CopyRoutine = Standard_GetStatus;
 776:../../../SDK_embedded/libs/stm32/STM32_USB_FS_Device_Driver/usb_core.c ****       }
 777:../../../SDK_embedded/libs/stm32/STM32_USB_FS_Device_Driver/usb_core.c ****     }
 778:../../../SDK_embedded/libs/stm32/STM32_USB_FS_Device_Driver/usb_core.c **** 
 779:../../../SDK_embedded/libs/stm32/STM32_USB_FS_Device_Driver/usb_core.c ****   }
 780:../../../SDK_embedded/libs/stm32/STM32_USB_FS_Device_Driver/usb_core.c **** 
 781:../../../SDK_embedded/libs/stm32/STM32_USB_FS_Device_Driver/usb_core.c ****   /*GET CONFIGURATION*/
 782:../../../SDK_embedded/libs/stm32/STM32_USB_FS_Device_Driver/usb_core.c ****   else if (Request_No == GET_CONFIGURATION)
 783:../../../SDK_embedded/libs/stm32/STM32_USB_FS_Device_Driver/usb_core.c ****   {
 784:../../../SDK_embedded/libs/stm32/STM32_USB_FS_Device_Driver/usb_core.c ****     if (Type_Recipient == (STANDARD_REQUEST | DEVICE_RECIPIENT))
 785:../../../SDK_embedded/libs/stm32/STM32_USB_FS_Device_Driver/usb_core.c ****     {
 786:../../../SDK_embedded/libs/stm32/STM32_USB_FS_Device_Driver/usb_core.c ****       CopyRoutine = Standard_GetConfiguration;
 787:../../../SDK_embedded/libs/stm32/STM32_USB_FS_Device_Driver/usb_core.c ****     }
 788:../../../SDK_embedded/libs/stm32/STM32_USB_FS_Device_Driver/usb_core.c ****   }
 789:../../../SDK_embedded/libs/stm32/STM32_USB_FS_Device_Driver/usb_core.c ****   /*GET INTERFACE*/
 790:../../../SDK_embedded/libs/stm32/STM32_USB_FS_Device_Driver/usb_core.c ****   else if (Request_No == GET_INTERFACE)
 791:../../../SDK_embedded/libs/stm32/STM32_USB_FS_Device_Driver/usb_core.c ****   {
 792:../../../SDK_embedded/libs/stm32/STM32_USB_FS_Device_Driver/usb_core.c ****     if ((Type_Recipient == (STANDARD_REQUEST | INTERFACE_RECIPIENT))
 793:../../../SDK_embedded/libs/stm32/STM32_USB_FS_Device_Driver/usb_core.c ****         && (pInformation->Current_Configuration != 0) && (pInformation->USBwValue == 0)
 794:../../../SDK_embedded/libs/stm32/STM32_USB_FS_Device_Driver/usb_core.c ****         && (pInformation->USBwIndex1 == 0) && (pInformation->USBwLength == 0x0001)
 795:../../../SDK_embedded/libs/stm32/STM32_USB_FS_Device_Driver/usb_core.c ****         && ((*pProperty->Class_Get_Interface_Setting)(pInformation->USBwIndex0, 0) == USB_SUCCESS))
 796:../../../SDK_embedded/libs/stm32/STM32_USB_FS_Device_Driver/usb_core.c ****     {
 797:../../../SDK_embedded/libs/stm32/STM32_USB_FS_Device_Driver/usb_core.c ****       CopyRoutine = Standard_GetInterface;
 798:../../../SDK_embedded/libs/stm32/STM32_USB_FS_Device_Driver/usb_core.c ****     }
 799:../../../SDK_embedded/libs/stm32/STM32_USB_FS_Device_Driver/usb_core.c **** 
 800:../../../SDK_embedded/libs/stm32/STM32_USB_FS_Device_Driver/usb_core.c ****   }
 801:../../../SDK_embedded/libs/stm32/STM32_USB_FS_Device_Driver/usb_core.c ****   
 802:../../../SDK_embedded/libs/stm32/STM32_USB_FS_Device_Driver/usb_core.c ****   if (CopyRoutine)
 803:../../../SDK_embedded/libs/stm32/STM32_USB_FS_Device_Driver/usb_core.c ****   {
 804:../../../SDK_embedded/libs/stm32/STM32_USB_FS_Device_Driver/usb_core.c ****     pInformation->Ctrl_Info.Usb_wOffset = wOffset;
 805:../../../SDK_embedded/libs/stm32/STM32_USB_FS_Device_Driver/usb_core.c ****     pInformation->Ctrl_Info.CopyData = CopyRoutine;
 806:../../../SDK_embedded/libs/stm32/STM32_USB_FS_Device_Driver/usb_core.c ****     /* sb in the original the cast to word was directly */
 807:../../../SDK_embedded/libs/stm32/STM32_USB_FS_Device_Driver/usb_core.c ****     /* now the cast is made step by step */
 808:../../../SDK_embedded/libs/stm32/STM32_USB_FS_Device_Driver/usb_core.c ****     (*CopyRoutine)(0);
 809:../../../SDK_embedded/libs/stm32/STM32_USB_FS_Device_Driver/usb_core.c ****     Result = USB_SUCCESS;
 810:../../../SDK_embedded/libs/stm32/STM32_USB_FS_Device_Driver/usb_core.c ****   }
 811:../../../SDK_embedded/libs/stm32/STM32_USB_FS_Device_Driver/usb_core.c ****   else
 812:../../../SDK_embedded/libs/stm32/STM32_USB_FS_Device_Driver/usb_core.c ****   {
 813:../../../SDK_embedded/libs/stm32/STM32_USB_FS_Device_Driver/usb_core.c ****     Result = (*pProperty->Class_Data_Setup)(pInformation->USBbRequest);
 814:../../../SDK_embedded/libs/stm32/STM32_USB_FS_Device_Driver/usb_core.c ****     if (Result == USB_NOT_READY)
 815:../../../SDK_embedded/libs/stm32/STM32_USB_FS_Device_Driver/usb_core.c ****     {
 816:../../../SDK_embedded/libs/stm32/STM32_USB_FS_Device_Driver/usb_core.c ****       pInformation->ControlState = PAUSE;
 817:../../../SDK_embedded/libs/stm32/STM32_USB_FS_Device_Driver/usb_core.c ****       return;
 818:../../../SDK_embedded/libs/stm32/STM32_USB_FS_Device_Driver/usb_core.c ****     }
 819:../../../SDK_embedded/libs/stm32/STM32_USB_FS_Device_Driver/usb_core.c ****   }
 820:../../../SDK_embedded/libs/stm32/STM32_USB_FS_Device_Driver/usb_core.c **** 
 821:../../../SDK_embedded/libs/stm32/STM32_USB_FS_Device_Driver/usb_core.c ****   if (pInformation->Ctrl_Info.Usb_wLength == 0xFFFF)
 822:../../../SDK_embedded/libs/stm32/STM32_USB_FS_Device_Driver/usb_core.c ****   {
 823:../../../SDK_embedded/libs/stm32/STM32_USB_FS_Device_Driver/usb_core.c ****     /* Data is not ready, wait it */
 824:../../../SDK_embedded/libs/stm32/STM32_USB_FS_Device_Driver/usb_core.c ****     pInformation->ControlState = PAUSE;
 825:../../../SDK_embedded/libs/stm32/STM32_USB_FS_Device_Driver/usb_core.c ****     return;
 826:../../../SDK_embedded/libs/stm32/STM32_USB_FS_Device_Driver/usb_core.c ****   }
 827:../../../SDK_embedded/libs/stm32/STM32_USB_FS_Device_Driver/usb_core.c ****   if ((Result == USB_UNSUPPORT) || (pInformation->Ctrl_Info.Usb_wLength == 0))
 828:../../../SDK_embedded/libs/stm32/STM32_USB_FS_Device_Driver/usb_core.c ****   {
 829:../../../SDK_embedded/libs/stm32/STM32_USB_FS_Device_Driver/usb_core.c ****     /* Unsupported request */
 830:../../../SDK_embedded/libs/stm32/STM32_USB_FS_Device_Driver/usb_core.c ****     pInformation->ControlState = STALLED;
 831:../../../SDK_embedded/libs/stm32/STM32_USB_FS_Device_Driver/usb_core.c ****     return;
 832:../../../SDK_embedded/libs/stm32/STM32_USB_FS_Device_Driver/usb_core.c ****   }
 833:../../../SDK_embedded/libs/stm32/STM32_USB_FS_Device_Driver/usb_core.c **** 
 834:../../../SDK_embedded/libs/stm32/STM32_USB_FS_Device_Driver/usb_core.c **** 
 835:../../../SDK_embedded/libs/stm32/STM32_USB_FS_Device_Driver/usb_core.c ****   if (ValBit(pInformation->USBbmRequestType, 7))
 836:../../../SDK_embedded/libs/stm32/STM32_USB_FS_Device_Driver/usb_core.c ****   {
 837:../../../SDK_embedded/libs/stm32/STM32_USB_FS_Device_Driver/usb_core.c ****     /* Device ==> Host */
 838:../../../SDK_embedded/libs/stm32/STM32_USB_FS_Device_Driver/usb_core.c ****     __IO uint32_t wLength = pInformation->USBwLength;
 839:../../../SDK_embedded/libs/stm32/STM32_USB_FS_Device_Driver/usb_core.c ****      
 840:../../../SDK_embedded/libs/stm32/STM32_USB_FS_Device_Driver/usb_core.c ****     /* Restrict the data length to be the one host asks for */
 841:../../../SDK_embedded/libs/stm32/STM32_USB_FS_Device_Driver/usb_core.c ****     if (pInformation->Ctrl_Info.Usb_wLength > wLength)
 842:../../../SDK_embedded/libs/stm32/STM32_USB_FS_Device_Driver/usb_core.c ****     {
 843:../../../SDK_embedded/libs/stm32/STM32_USB_FS_Device_Driver/usb_core.c ****       pInformation->Ctrl_Info.Usb_wLength = wLength;
 844:../../../SDK_embedded/libs/stm32/STM32_USB_FS_Device_Driver/usb_core.c ****     }
 845:../../../SDK_embedded/libs/stm32/STM32_USB_FS_Device_Driver/usb_core.c ****     
 846:../../../SDK_embedded/libs/stm32/STM32_USB_FS_Device_Driver/usb_core.c ****     else if (pInformation->Ctrl_Info.Usb_wLength < pInformation->USBwLength)
 847:../../../SDK_embedded/libs/stm32/STM32_USB_FS_Device_Driver/usb_core.c ****     {
 848:../../../SDK_embedded/libs/stm32/STM32_USB_FS_Device_Driver/usb_core.c ****       if (pInformation->Ctrl_Info.Usb_wLength < pProperty->MaxPacketSize)
 849:../../../SDK_embedded/libs/stm32/STM32_USB_FS_Device_Driver/usb_core.c ****       {
 850:../../../SDK_embedded/libs/stm32/STM32_USB_FS_Device_Driver/usb_core.c ****         Data_Mul_MaxPacketSize = FALSE;
 851:../../../SDK_embedded/libs/stm32/STM32_USB_FS_Device_Driver/usb_core.c ****       }
 852:../../../SDK_embedded/libs/stm32/STM32_USB_FS_Device_Driver/usb_core.c ****       else if ((pInformation->Ctrl_Info.Usb_wLength % pProperty->MaxPacketSize) == 0)
 853:../../../SDK_embedded/libs/stm32/STM32_USB_FS_Device_Driver/usb_core.c ****       {
 854:../../../SDK_embedded/libs/stm32/STM32_USB_FS_Device_Driver/usb_core.c ****         Data_Mul_MaxPacketSize = TRUE;
 855:../../../SDK_embedded/libs/stm32/STM32_USB_FS_Device_Driver/usb_core.c ****       }
 856:../../../SDK_embedded/libs/stm32/STM32_USB_FS_Device_Driver/usb_core.c ****     }   
 857:../../../SDK_embedded/libs/stm32/STM32_USB_FS_Device_Driver/usb_core.c **** 
 858:../../../SDK_embedded/libs/stm32/STM32_USB_FS_Device_Driver/usb_core.c ****     pInformation->Ctrl_Info.PacketSize = pProperty->MaxPacketSize;
 859:../../../SDK_embedded/libs/stm32/STM32_USB_FS_Device_Driver/usb_core.c ****     DataStageIn();
 860:../../../SDK_embedded/libs/stm32/STM32_USB_FS_Device_Driver/usb_core.c ****   }
 861:../../../SDK_embedded/libs/stm32/STM32_USB_FS_Device_Driver/usb_core.c ****   else
 862:../../../SDK_embedded/libs/stm32/STM32_USB_FS_Device_Driver/usb_core.c ****   {
 863:../../../SDK_embedded/libs/stm32/STM32_USB_FS_Device_Driver/usb_core.c ****     pInformation->ControlState = OUT_DATA;
 864:../../../SDK_embedded/libs/stm32/STM32_USB_FS_Device_Driver/usb_core.c ****     vSetEPRxStatus(EP_RX_VALID); /* enable for next data reception */
 865:../../../SDK_embedded/libs/stm32/STM32_USB_FS_Device_Driver/usb_core.c ****   }
 866:../../../SDK_embedded/libs/stm32/STM32_USB_FS_Device_Driver/usb_core.c **** 
 867:../../../SDK_embedded/libs/stm32/STM32_USB_FS_Device_Driver/usb_core.c ****   return;
 868:../../../SDK_embedded/libs/stm32/STM32_USB_FS_Device_Driver/usb_core.c **** }
 869:../../../SDK_embedded/libs/stm32/STM32_USB_FS_Device_Driver/usb_core.c **** 
 870:../../../SDK_embedded/libs/stm32/STM32_USB_FS_Device_Driver/usb_core.c **** /*******************************************************************************
 871:../../../SDK_embedded/libs/stm32/STM32_USB_FS_Device_Driver/usb_core.c **** * Function Name  : Setup0_Process
 872:../../../SDK_embedded/libs/stm32/STM32_USB_FS_Device_Driver/usb_core.c **** * Description    : Get the device request data and dispatch to individual process.
 873:../../../SDK_embedded/libs/stm32/STM32_USB_FS_Device_Driver/usb_core.c **** * Input          : None.
 874:../../../SDK_embedded/libs/stm32/STM32_USB_FS_Device_Driver/usb_core.c **** * Output         : None.
 875:../../../SDK_embedded/libs/stm32/STM32_USB_FS_Device_Driver/usb_core.c **** * Return         : Post0_Process.
 876:../../../SDK_embedded/libs/stm32/STM32_USB_FS_Device_Driver/usb_core.c **** *******************************************************************************/
 877:../../../SDK_embedded/libs/stm32/STM32_USB_FS_Device_Driver/usb_core.c **** uint8_t Setup0_Process(void)
 878:../../../SDK_embedded/libs/stm32/STM32_USB_FS_Device_Driver/usb_core.c **** {
 879:../../../SDK_embedded/libs/stm32/STM32_USB_FS_Device_Driver/usb_core.c **** 
 880:../../../SDK_embedded/libs/stm32/STM32_USB_FS_Device_Driver/usb_core.c ****   union
 881:../../../SDK_embedded/libs/stm32/STM32_USB_FS_Device_Driver/usb_core.c ****   {
 882:../../../SDK_embedded/libs/stm32/STM32_USB_FS_Device_Driver/usb_core.c ****     uint8_t* b;
 883:../../../SDK_embedded/libs/stm32/STM32_USB_FS_Device_Driver/usb_core.c ****     uint16_t* w;
 884:../../../SDK_embedded/libs/stm32/STM32_USB_FS_Device_Driver/usb_core.c ****   } pBuf;
 885:../../../SDK_embedded/libs/stm32/STM32_USB_FS_Device_Driver/usb_core.c **** 
 886:../../../SDK_embedded/libs/stm32/STM32_USB_FS_Device_Driver/usb_core.c **** #ifdef STM32F10X_CL
 887:../../../SDK_embedded/libs/stm32/STM32_USB_FS_Device_Driver/usb_core.c ****   USB_OTG_EP *ep;
 888:../../../SDK_embedded/libs/stm32/STM32_USB_FS_Device_Driver/usb_core.c ****   uint16_t offset = 0;
 889:../../../SDK_embedded/libs/stm32/STM32_USB_FS_Device_Driver/usb_core.c ****  
 890:../../../SDK_embedded/libs/stm32/STM32_USB_FS_Device_Driver/usb_core.c ****   ep = PCD_GetOutEP(ENDP0);
 891:../../../SDK_embedded/libs/stm32/STM32_USB_FS_Device_Driver/usb_core.c ****   pBuf.b = ep->xfer_buff;
 892:../../../SDK_embedded/libs/stm32/STM32_USB_FS_Device_Driver/usb_core.c **** #else  
 893:../../../SDK_embedded/libs/stm32/STM32_USB_FS_Device_Driver/usb_core.c ****   uint16_t offset = 1;
 894:../../../SDK_embedded/libs/stm32/STM32_USB_FS_Device_Driver/usb_core.c ****   
 895:../../../SDK_embedded/libs/stm32/STM32_USB_FS_Device_Driver/usb_core.c ****   pBuf.b = PMAAddr + (uint8_t *)(_GetEPRxAddr(ENDP0) * 2); /* *2 for 32 bits addr */
 896:../../../SDK_embedded/libs/stm32/STM32_USB_FS_Device_Driver/usb_core.c **** #endif /* STM32F10X_CL */
 897:../../../SDK_embedded/libs/stm32/STM32_USB_FS_Device_Driver/usb_core.c **** 
 898:../../../SDK_embedded/libs/stm32/STM32_USB_FS_Device_Driver/usb_core.c ****   if (pInformation->ControlState != PAUSE)
 899:../../../SDK_embedded/libs/stm32/STM32_USB_FS_Device_Driver/usb_core.c ****   {
 900:../../../SDK_embedded/libs/stm32/STM32_USB_FS_Device_Driver/usb_core.c ****     pInformation->USBbmRequestType = *pBuf.b++; /* bmRequestType */
 901:../../../SDK_embedded/libs/stm32/STM32_USB_FS_Device_Driver/usb_core.c ****     pInformation->USBbRequest = *pBuf.b++; /* bRequest */
 902:../../../SDK_embedded/libs/stm32/STM32_USB_FS_Device_Driver/usb_core.c ****     pBuf.w += offset;  /* word not accessed because of 32 bits addressing */
 903:../../../SDK_embedded/libs/stm32/STM32_USB_FS_Device_Driver/usb_core.c ****     pInformation->USBwValue = ByteSwap(*pBuf.w++); /* wValue */
 904:../../../SDK_embedded/libs/stm32/STM32_USB_FS_Device_Driver/usb_core.c ****     pBuf.w += offset;  /* word not accessed because of 32 bits addressing */
 905:../../../SDK_embedded/libs/stm32/STM32_USB_FS_Device_Driver/usb_core.c ****     pInformation->USBwIndex  = ByteSwap(*pBuf.w++); /* wIndex */
 906:../../../SDK_embedded/libs/stm32/STM32_USB_FS_Device_Driver/usb_core.c ****     pBuf.w += offset;  /* word not accessed because of 32 bits addressing */
 907:../../../SDK_embedded/libs/stm32/STM32_USB_FS_Device_Driver/usb_core.c ****     pInformation->USBwLength = *pBuf.w; /* wLength */
 908:../../../SDK_embedded/libs/stm32/STM32_USB_FS_Device_Driver/usb_core.c ****   }
 909:../../../SDK_embedded/libs/stm32/STM32_USB_FS_Device_Driver/usb_core.c **** 
 910:../../../SDK_embedded/libs/stm32/STM32_USB_FS_Device_Driver/usb_core.c ****   pInformation->ControlState = SETTING_UP;
 911:../../../SDK_embedded/libs/stm32/STM32_USB_FS_Device_Driver/usb_core.c ****   if (pInformation->USBwLength == 0)
 912:../../../SDK_embedded/libs/stm32/STM32_USB_FS_Device_Driver/usb_core.c ****   {
 913:../../../SDK_embedded/libs/stm32/STM32_USB_FS_Device_Driver/usb_core.c ****     /* Setup with no data stage */
 914:../../../SDK_embedded/libs/stm32/STM32_USB_FS_Device_Driver/usb_core.c ****     NoData_Setup0();
 915:../../../SDK_embedded/libs/stm32/STM32_USB_FS_Device_Driver/usb_core.c ****   }
 916:../../../SDK_embedded/libs/stm32/STM32_USB_FS_Device_Driver/usb_core.c ****   else
 917:../../../SDK_embedded/libs/stm32/STM32_USB_FS_Device_Driver/usb_core.c ****   {
 918:../../../SDK_embedded/libs/stm32/STM32_USB_FS_Device_Driver/usb_core.c ****     /* Setup with data stage */
 919:../../../SDK_embedded/libs/stm32/STM32_USB_FS_Device_Driver/usb_core.c ****     Data_Setup0();
 920:../../../SDK_embedded/libs/stm32/STM32_USB_FS_Device_Driver/usb_core.c ****   }
 921:../../../SDK_embedded/libs/stm32/STM32_USB_FS_Device_Driver/usb_core.c ****   return Post0_Process();
 922:../../../SDK_embedded/libs/stm32/STM32_USB_FS_Device_Driver/usb_core.c **** }
 923:../../../SDK_embedded/libs/stm32/STM32_USB_FS_Device_Driver/usb_core.c **** 
 924:../../../SDK_embedded/libs/stm32/STM32_USB_FS_Device_Driver/usb_core.c **** /*******************************************************************************
 925:../../../SDK_embedded/libs/stm32/STM32_USB_FS_Device_Driver/usb_core.c **** * Function Name  : In0_Process
 926:../../../SDK_embedded/libs/stm32/STM32_USB_FS_Device_Driver/usb_core.c **** * Description    : Process the IN token on all default endpoint.
 927:../../../SDK_embedded/libs/stm32/STM32_USB_FS_Device_Driver/usb_core.c **** * Input          : None.
 928:../../../SDK_embedded/libs/stm32/STM32_USB_FS_Device_Driver/usb_core.c **** * Output         : None.
 929:../../../SDK_embedded/libs/stm32/STM32_USB_FS_Device_Driver/usb_core.c **** * Return         : Post0_Process.
 930:../../../SDK_embedded/libs/stm32/STM32_USB_FS_Device_Driver/usb_core.c **** *******************************************************************************/
 931:../../../SDK_embedded/libs/stm32/STM32_USB_FS_Device_Driver/usb_core.c **** uint8_t In0_Process(void)
 932:../../../SDK_embedded/libs/stm32/STM32_USB_FS_Device_Driver/usb_core.c **** {
 933:../../../SDK_embedded/libs/stm32/STM32_USB_FS_Device_Driver/usb_core.c ****   uint32_t ControlState = pInformation->ControlState;
 934:../../../SDK_embedded/libs/stm32/STM32_USB_FS_Device_Driver/usb_core.c **** 
 935:../../../SDK_embedded/libs/stm32/STM32_USB_FS_Device_Driver/usb_core.c ****   if ((ControlState == IN_DATA) || (ControlState == LAST_IN_DATA))
 936:../../../SDK_embedded/libs/stm32/STM32_USB_FS_Device_Driver/usb_core.c ****   {
 937:../../../SDK_embedded/libs/stm32/STM32_USB_FS_Device_Driver/usb_core.c ****     DataStageIn();
 938:../../../SDK_embedded/libs/stm32/STM32_USB_FS_Device_Driver/usb_core.c ****     /* ControlState may be changed outside the function */
 939:../../../SDK_embedded/libs/stm32/STM32_USB_FS_Device_Driver/usb_core.c ****     ControlState = pInformation->ControlState;
 940:../../../SDK_embedded/libs/stm32/STM32_USB_FS_Device_Driver/usb_core.c ****   }
 941:../../../SDK_embedded/libs/stm32/STM32_USB_FS_Device_Driver/usb_core.c **** 
 942:../../../SDK_embedded/libs/stm32/STM32_USB_FS_Device_Driver/usb_core.c ****   else if (ControlState == WAIT_STATUS_IN)
 943:../../../SDK_embedded/libs/stm32/STM32_USB_FS_Device_Driver/usb_core.c ****   {
 944:../../../SDK_embedded/libs/stm32/STM32_USB_FS_Device_Driver/usb_core.c ****     if ((pInformation->USBbRequest == SET_ADDRESS) &&
 945:../../../SDK_embedded/libs/stm32/STM32_USB_FS_Device_Driver/usb_core.c ****         (Type_Recipient == (STANDARD_REQUEST | DEVICE_RECIPIENT)))
 946:../../../SDK_embedded/libs/stm32/STM32_USB_FS_Device_Driver/usb_core.c ****     {
 947:../../../SDK_embedded/libs/stm32/STM32_USB_FS_Device_Driver/usb_core.c ****       SetDeviceAddress(pInformation->USBwValue0);
 948:../../../SDK_embedded/libs/stm32/STM32_USB_FS_Device_Driver/usb_core.c ****       pUser_Standard_Requests->User_SetDeviceAddress();
 949:../../../SDK_embedded/libs/stm32/STM32_USB_FS_Device_Driver/usb_core.c ****     }
 950:../../../SDK_embedded/libs/stm32/STM32_USB_FS_Device_Driver/usb_core.c ****     (*pProperty->Process_Status_IN)();
 951:../../../SDK_embedded/libs/stm32/STM32_USB_FS_Device_Driver/usb_core.c ****     ControlState = STALLED;
 952:../../../SDK_embedded/libs/stm32/STM32_USB_FS_Device_Driver/usb_core.c ****   }
 953:../../../SDK_embedded/libs/stm32/STM32_USB_FS_Device_Driver/usb_core.c **** 
 954:../../../SDK_embedded/libs/stm32/STM32_USB_FS_Device_Driver/usb_core.c ****   else
 955:../../../SDK_embedded/libs/stm32/STM32_USB_FS_Device_Driver/usb_core.c ****   {
 956:../../../SDK_embedded/libs/stm32/STM32_USB_FS_Device_Driver/usb_core.c ****     ControlState = STALLED;
 957:../../../SDK_embedded/libs/stm32/STM32_USB_FS_Device_Driver/usb_core.c ****   }
 958:../../../SDK_embedded/libs/stm32/STM32_USB_FS_Device_Driver/usb_core.c **** 
 959:../../../SDK_embedded/libs/stm32/STM32_USB_FS_Device_Driver/usb_core.c ****   pInformation->ControlState = ControlState;
 960:../../../SDK_embedded/libs/stm32/STM32_USB_FS_Device_Driver/usb_core.c **** 
 961:../../../SDK_embedded/libs/stm32/STM32_USB_FS_Device_Driver/usb_core.c ****   return Post0_Process();
 962:../../../SDK_embedded/libs/stm32/STM32_USB_FS_Device_Driver/usb_core.c **** }
 963:../../../SDK_embedded/libs/stm32/STM32_USB_FS_Device_Driver/usb_core.c **** 
 964:../../../SDK_embedded/libs/stm32/STM32_USB_FS_Device_Driver/usb_core.c **** /*******************************************************************************
 965:../../../SDK_embedded/libs/stm32/STM32_USB_FS_Device_Driver/usb_core.c **** * Function Name  : Out0_Process
 966:../../../SDK_embedded/libs/stm32/STM32_USB_FS_Device_Driver/usb_core.c **** * Description    : Process the OUT token on all default endpoint.
 967:../../../SDK_embedded/libs/stm32/STM32_USB_FS_Device_Driver/usb_core.c **** * Input          : None.
 968:../../../SDK_embedded/libs/stm32/STM32_USB_FS_Device_Driver/usb_core.c **** * Output         : None.
 969:../../../SDK_embedded/libs/stm32/STM32_USB_FS_Device_Driver/usb_core.c **** * Return         : Post0_Process.
 970:../../../SDK_embedded/libs/stm32/STM32_USB_FS_Device_Driver/usb_core.c **** *******************************************************************************/
 971:../../../SDK_embedded/libs/stm32/STM32_USB_FS_Device_Driver/usb_core.c **** uint8_t Out0_Process(void)
 972:../../../SDK_embedded/libs/stm32/STM32_USB_FS_Device_Driver/usb_core.c **** {
 973:../../../SDK_embedded/libs/stm32/STM32_USB_FS_Device_Driver/usb_core.c ****   uint32_t ControlState = pInformation->ControlState;
 974:../../../SDK_embedded/libs/stm32/STM32_USB_FS_Device_Driver/usb_core.c **** 
 975:../../../SDK_embedded/libs/stm32/STM32_USB_FS_Device_Driver/usb_core.c ****   if ((ControlState == IN_DATA) || (ControlState == LAST_IN_DATA))
 976:../../../SDK_embedded/libs/stm32/STM32_USB_FS_Device_Driver/usb_core.c ****   {
 977:../../../SDK_embedded/libs/stm32/STM32_USB_FS_Device_Driver/usb_core.c ****     /* host aborts the transfer before finish */
 978:../../../SDK_embedded/libs/stm32/STM32_USB_FS_Device_Driver/usb_core.c ****     ControlState = STALLED;
 979:../../../SDK_embedded/libs/stm32/STM32_USB_FS_Device_Driver/usb_core.c ****   }
 980:../../../SDK_embedded/libs/stm32/STM32_USB_FS_Device_Driver/usb_core.c ****   else if ((ControlState == OUT_DATA) || (ControlState == LAST_OUT_DATA))
 981:../../../SDK_embedded/libs/stm32/STM32_USB_FS_Device_Driver/usb_core.c ****   {
 982:../../../SDK_embedded/libs/stm32/STM32_USB_FS_Device_Driver/usb_core.c ****     DataStageOut();
 983:../../../SDK_embedded/libs/stm32/STM32_USB_FS_Device_Driver/usb_core.c ****     ControlState = pInformation->ControlState; /* may be changed outside the function */
 984:../../../SDK_embedded/libs/stm32/STM32_USB_FS_Device_Driver/usb_core.c ****   }
 985:../../../SDK_embedded/libs/stm32/STM32_USB_FS_Device_Driver/usb_core.c **** 
 986:../../../SDK_embedded/libs/stm32/STM32_USB_FS_Device_Driver/usb_core.c ****   else if (ControlState == WAIT_STATUS_OUT)
 987:../../../SDK_embedded/libs/stm32/STM32_USB_FS_Device_Driver/usb_core.c ****   {
 988:../../../SDK_embedded/libs/stm32/STM32_USB_FS_Device_Driver/usb_core.c ****     (*pProperty->Process_Status_OUT)();
 989:../../../SDK_embedded/libs/stm32/STM32_USB_FS_Device_Driver/usb_core.c ****   #ifndef STM32F10X_CL
 990:../../../SDK_embedded/libs/stm32/STM32_USB_FS_Device_Driver/usb_core.c ****     ControlState = STALLED;
 991:../../../SDK_embedded/libs/stm32/STM32_USB_FS_Device_Driver/usb_core.c ****   #endif /* STM32F10X_CL */
 992:../../../SDK_embedded/libs/stm32/STM32_USB_FS_Device_Driver/usb_core.c ****   }
 993:../../../SDK_embedded/libs/stm32/STM32_USB_FS_Device_Driver/usb_core.c **** 
 994:../../../SDK_embedded/libs/stm32/STM32_USB_FS_Device_Driver/usb_core.c **** 
 995:../../../SDK_embedded/libs/stm32/STM32_USB_FS_Device_Driver/usb_core.c ****   /* Unexpect state, STALL the endpoint */
 996:../../../SDK_embedded/libs/stm32/STM32_USB_FS_Device_Driver/usb_core.c ****   else
 997:../../../SDK_embedded/libs/stm32/STM32_USB_FS_Device_Driver/usb_core.c ****   {
 998:../../../SDK_embedded/libs/stm32/STM32_USB_FS_Device_Driver/usb_core.c ****     ControlState = STALLED;
 999:../../../SDK_embedded/libs/stm32/STM32_USB_FS_Device_Driver/usb_core.c ****   }
1000:../../../SDK_embedded/libs/stm32/STM32_USB_FS_Device_Driver/usb_core.c **** 
1001:../../../SDK_embedded/libs/stm32/STM32_USB_FS_Device_Driver/usb_core.c ****   pInformation->ControlState = ControlState;
1002:../../../SDK_embedded/libs/stm32/STM32_USB_FS_Device_Driver/usb_core.c **** 
1003:../../../SDK_embedded/libs/stm32/STM32_USB_FS_Device_Driver/usb_core.c ****   return Post0_Process();
1004:../../../SDK_embedded/libs/stm32/STM32_USB_FS_Device_Driver/usb_core.c **** }
1005:../../../SDK_embedded/libs/stm32/STM32_USB_FS_Device_Driver/usb_core.c **** 
1006:../../../SDK_embedded/libs/stm32/STM32_USB_FS_Device_Driver/usb_core.c **** /*******************************************************************************
1007:../../../SDK_embedded/libs/stm32/STM32_USB_FS_Device_Driver/usb_core.c **** * Function Name  : Post0_Process
1008:../../../SDK_embedded/libs/stm32/STM32_USB_FS_Device_Driver/usb_core.c **** * Description    : Stall the Endpoint 0 in case of error.
1009:../../../SDK_embedded/libs/stm32/STM32_USB_FS_Device_Driver/usb_core.c **** * Input          : None.
1010:../../../SDK_embedded/libs/stm32/STM32_USB_FS_Device_Driver/usb_core.c **** * Output         : None.
1011:../../../SDK_embedded/libs/stm32/STM32_USB_FS_Device_Driver/usb_core.c **** * Return         : - 0 if the control State is in PAUSE
1012:../../../SDK_embedded/libs/stm32/STM32_USB_FS_Device_Driver/usb_core.c **** *                  - 1 if not.
1013:../../../SDK_embedded/libs/stm32/STM32_USB_FS_Device_Driver/usb_core.c **** *******************************************************************************/
1014:../../../SDK_embedded/libs/stm32/STM32_USB_FS_Device_Driver/usb_core.c **** uint8_t Post0_Process(void)
1015:../../../SDK_embedded/libs/stm32/STM32_USB_FS_Device_Driver/usb_core.c **** {
 17545              		.loc 1 1015 0
 17546              		.cfi_startproc
 17547              		@ args = 0, pretend = 0, frame = 0
 17548              		@ frame_needed = 0, uses_anonymous_args = 0
 17549 0000 08B5     		push	{r3, lr}
 17550              	.LCFI9:
 17551              		.cfi_def_cfa_offset 8
 17552              		.cfi_offset 14, -4
 17553              		.cfi_offset 3, -8
1016:../../../SDK_embedded/libs/stm32/STM32_USB_FS_Device_Driver/usb_core.c **** #ifdef STM32F10X_CL  
1017:../../../SDK_embedded/libs/stm32/STM32_USB_FS_Device_Driver/usb_core.c ****   USB_OTG_EP *ep;
1018:../../../SDK_embedded/libs/stm32/STM32_USB_FS_Device_Driver/usb_core.c **** #endif /* STM32F10X_CL */
1019:../../../SDK_embedded/libs/stm32/STM32_USB_FS_Device_Driver/usb_core.c ****       
1020:../../../SDK_embedded/libs/stm32/STM32_USB_FS_Device_Driver/usb_core.c ****   SetEPRxCount(ENDP0, Device_Property.MaxPacketSize);
 17554              		.loc 1 1020 0
 17555 0002 0D49     		ldr	r1, .L91
 17556 0004 0020     		movs	r0, #0
 17557 0006 91F82C10 		ldrb	r1, [r1, #44]	@ zero_extendqisi2
 17558 000a 0C4A     		ldr	r2, .L91+4
 17559 000c 9047     		blx	r2
1021:../../../SDK_embedded/libs/stm32/STM32_USB_FS_Device_Driver/usb_core.c **** 
1022:../../../SDK_embedded/libs/stm32/STM32_USB_FS_Device_Driver/usb_core.c ****   if (pInformation->ControlState == STALLED)
 17560              		.loc 1 1022 0
 17561 000e 0C48     		ldr	r0, .L91+8
 17562 0010 0368     		ldr	r3, [r0, #0]
 17563 0012 187A     		ldrb	r0, [r3, #8]	@ zero_extendqisi2
 17564 0014 0828     		cmp	r0, #8
 17565 0016 07D1     		bne	.L90
1023:../../../SDK_embedded/libs/stm32/STM32_USB_FS_Device_Driver/usb_core.c ****   {
1024:../../../SDK_embedded/libs/stm32/STM32_USB_FS_Device_Driver/usb_core.c ****     vSetEPRxStatus(EP_RX_STALL);
 17566              		.loc 1 1024 0
 17567 0018 0A49     		ldr	r1, .L91+12
1025:../../../SDK_embedded/libs/stm32/STM32_USB_FS_Device_Driver/usb_core.c ****     vSetEPTxStatus(EP_TX_STALL);
 17568              		.loc 1 1025 0
 17569 001a 0B4B     		ldr	r3, .L91+16
1024:../../../SDK_embedded/libs/stm32/STM32_USB_FS_Device_Driver/usb_core.c ****     vSetEPRxStatus(EP_RX_STALL);
 17570              		.loc 1 1024 0
 17571 001c 4FF4805C 		mov	ip, #4096	@ movhi
 17572              		.loc 1 1025 0
 17573 0020 1022     		movs	r2, #16
1024:../../../SDK_embedded/libs/stm32/STM32_USB_FS_Device_Driver/usb_core.c ****     vSetEPRxStatus(EP_RX_STALL);
 17574              		.loc 1 1024 0
 17575 0022 A1F800C0 		strh	ip, [r1, #0]	@ movhi
 17576              		.loc 1 1025 0
 17577 0026 1A80     		strh	r2, [r3, #0]	@ movhi
 17578              	.L90:
 17579 0028 A0F10900 		sub	r0, r0, #9
 17580 002c D0F1000E 		rsbs	lr, r0, #0
 17581 0030 4EEB0000 		adc	r0, lr, r0
1026:../../../SDK_embedded/libs/stm32/STM32_USB_FS_Device_Driver/usb_core.c ****   }
1027:../../../SDK_embedded/libs/stm32/STM32_USB_FS_Device_Driver/usb_core.c **** 
1028:../../../SDK_embedded/libs/stm32/STM32_USB_FS_Device_Driver/usb_core.c **** #ifdef STM32F10X_CL
1029:../../../SDK_embedded/libs/stm32/STM32_USB_FS_Device_Driver/usb_core.c ****   else if ((pInformation->ControlState == OUT_DATA) ||
1030:../../../SDK_embedded/libs/stm32/STM32_USB_FS_Device_Driver/usb_core.c ****       (pInformation->ControlState == WAIT_STATUS_OUT))
1031:../../../SDK_embedded/libs/stm32/STM32_USB_FS_Device_Driver/usb_core.c ****   {
1032:../../../SDK_embedded/libs/stm32/STM32_USB_FS_Device_Driver/usb_core.c ****     ep = PCD_GetInEP(0);
1033:../../../SDK_embedded/libs/stm32/STM32_USB_FS_Device_Driver/usb_core.c ****     ep->is_in = 0;
1034:../../../SDK_embedded/libs/stm32/STM32_USB_FS_Device_Driver/usb_core.c ****     OTGD_FS_EP0StartXfer(ep);
1035:../../../SDK_embedded/libs/stm32/STM32_USB_FS_Device_Driver/usb_core.c ****     
1036:../../../SDK_embedded/libs/stm32/STM32_USB_FS_Device_Driver/usb_core.c ****     vSetEPTxStatus(EP_TX_VALID);
1037:../../../SDK_embedded/libs/stm32/STM32_USB_FS_Device_Driver/usb_core.c ****   }
1038:../../../SDK_embedded/libs/stm32/STM32_USB_FS_Device_Driver/usb_core.c ****   
1039:../../../SDK_embedded/libs/stm32/STM32_USB_FS_Device_Driver/usb_core.c ****   else if ((pInformation->ControlState == IN_DATA) || 
1040:../../../SDK_embedded/libs/stm32/STM32_USB_FS_Device_Driver/usb_core.c ****       (pInformation->ControlState == WAIT_STATUS_IN))
1041:../../../SDK_embedded/libs/stm32/STM32_USB_FS_Device_Driver/usb_core.c ****   {
1042:../../../SDK_embedded/libs/stm32/STM32_USB_FS_Device_Driver/usb_core.c ****     ep = PCD_GetInEP(0);
1043:../../../SDK_embedded/libs/stm32/STM32_USB_FS_Device_Driver/usb_core.c ****     ep->is_in = 1;
1044:../../../SDK_embedded/libs/stm32/STM32_USB_FS_Device_Driver/usb_core.c ****     OTGD_FS_EP0StartXfer(ep);    
1045:../../../SDK_embedded/libs/stm32/STM32_USB_FS_Device_Driver/usb_core.c ****   }  
1046:../../../SDK_embedded/libs/stm32/STM32_USB_FS_Device_Driver/usb_core.c **** #endif /* STM32F10X_CL */
1047:../../../SDK_embedded/libs/stm32/STM32_USB_FS_Device_Driver/usb_core.c **** 
1048:../../../SDK_embedded/libs/stm32/STM32_USB_FS_Device_Driver/usb_core.c ****   return (pInformation->ControlState == PAUSE);
1049:../../../SDK_embedded/libs/stm32/STM32_USB_FS_Device_Driver/usb_core.c **** }
 17582              		.loc 1 1049 0
 17583 0034 08BD     		pop	{r3, pc}
 17584              	.L92:
 17585 0036 00BF     		.align	2
 17586              	.L91:
 17587 0038 00000000 		.word	Device_Property
 17588 003c 00000000 		.word	SetEPRxCount
 17589 0040 00000000 		.word	pInformation
 17590 0044 00000000 		.word	SaveRState
 17591 0048 00000000 		.word	SaveTState
 17592              		.cfi_endproc
 17593              	.LFE45:
 17595              		.section	.text.Out0_Process,"ax",%progbits
 17596              		.align	1
 17597              		.global	Out0_Process
 17598              		.thumb
 17599              		.thumb_func
 17601              	Out0_Process:
 17602              	.LFB44:
 972:../../../SDK_embedded/libs/stm32/STM32_USB_FS_Device_Driver/usb_core.c **** {
 17603              		.loc 1 972 0
 17604              		.cfi_startproc
 17605              		@ args = 0, pretend = 0, frame = 0
 17606              		@ frame_needed = 0, uses_anonymous_args = 0
 17607 0000 F8B5     		push	{r3, r4, r5, r6, r7, lr}
 17608              	.LCFI10:
 17609              		.cfi_def_cfa_offset 24
 17610              		.cfi_offset 14, -4
 17611              		.cfi_offset 7, -8
 17612              		.cfi_offset 6, -12
 17613              		.cfi_offset 5, -16
 17614              		.cfi_offset 4, -20
 17615              		.cfi_offset 3, -24
 973:../../../SDK_embedded/libs/stm32/STM32_USB_FS_Device_Driver/usb_core.c ****   uint32_t ControlState = pInformation->ControlState;
 17616              		.loc 1 973 0
 17617 0002 3C4B     		ldr	r3, .L104
 17618 0004 1C68     		ldr	r4, [r3, #0]
 17619 0006 237A     		ldrb	r3, [r4, #8]	@ zero_extendqisi2
 17620              	.LVL69:
 975:../../../SDK_embedded/libs/stm32/STM32_USB_FS_Device_Driver/usb_core.c ****   if ((ControlState == IN_DATA) || (ControlState == LAST_IN_DATA))
 17621              		.loc 1 975 0
 17622 0008 A3F10200 		sub	r0, r3, #2
 17623 000c 4642     		rsbs	r6, r0, #0
 17624 000e 46EB0006 		adc	r6, r6, r0
 17625 0012 042B     		cmp	r3, #4
 17626 0014 08BF     		it	eq
 17627 0016 46F00106 		orreq	r6, r6, #1
 17628 001a 002E     		cmp	r6, #0
 17629 001c 62D1     		bne	.L102
 980:../../../SDK_embedded/libs/stm32/STM32_USB_FS_Device_Driver/usb_core.c ****   else if ((ControlState == OUT_DATA) || (ControlState == LAST_OUT_DATA))
 17630              		.loc 1 980 0
 17631 001e A3F10301 		sub	r1, r3, #3
 17632 0022 D1F1000C 		rsbs	ip, r1, #0
 17633 0026 4CEB0102 		adc	r2, ip, r1
 17634 002a 052B     		cmp	r3, #5
 17635 002c 08BF     		it	eq
 17636 002e 42F00102 		orreq	r2, r2, #1
 17637 0032 002A     		cmp	r2, #0
 17638 0034 50D0     		beq	.L95
 17639              	.LVL70:
 17640              	.LBB29:
 17641              	.LBB30:
 446:../../../SDK_embedded/libs/stm32/STM32_USB_FS_Device_Driver/usb_core.c ****   if (pEPinfo->CopyData && save_rLength)
 17642              		.loc 1 446 0
 17643 0036 A369     		ldr	r3, [r4, #24]
 17644              	.LVL71:
 444:../../../SDK_embedded/libs/stm32/STM32_USB_FS_Device_Driver/usb_core.c ****   save_rLength = pEPinfo->Usb_rLength;
 17645              		.loc 1 444 0
 17646 0038 228A     		ldrh	r2, [r4, #16]
 17647              	.LVL72:
 446:../../../SDK_embedded/libs/stm32/STM32_USB_FS_Device_Driver/usb_core.c ****   if (pEPinfo->CopyData && save_rLength)
 17648              		.loc 1 446 0
 17649 003a 181C     		adds	r0, r3, #0
 17650              	.LVL73:
 17651 003c 18BF     		it	ne
 17652 003e 0120     		movne	r0, #1
 17653 0040 002A     		cmp	r2, #0
 17654 0042 0CBF     		ite	eq
 17655 0044 0020     		moveq	r0, #0
 17656 0046 00F00100 		andne	r0, r0, #1
 17657 004a B0B1     		cbz	r0, .L96
 17658              	.LBB31:
 451:../../../SDK_embedded/libs/stm32/STM32_USB_FS_Device_Driver/usb_core.c ****     Length = pEPinfo->PacketSize;
 17659              		.loc 1 451 0
 17660 004c A58A     		ldrh	r5, [r4, #20]
 17661              	.LVL74:
 457:../../../SDK_embedded/libs/stm32/STM32_USB_FS_Device_Driver/usb_core.c ****     Buffer = (*pEPinfo->CopyData)(Length);
 17662              		.loc 1 457 0
 17663 004e 9542     		cmp	r5, r2
 17664 0050 28BF     		it	cs
 17665 0052 1546     		movcs	r5, r2
 17666              	.LVL75:
 17667 0054 2846     		mov	r0, r5
 17668 0056 9847     		blx	r3
 17669              	.LVL76:
 458:../../../SDK_embedded/libs/stm32/STM32_USB_FS_Device_Driver/usb_core.c ****     pEPinfo->Usb_rLength -= Length;
 17670              		.loc 1 458 0
 17671 0058 238A     		ldrh	r3, [r4, #16]
 459:../../../SDK_embedded/libs/stm32/STM32_USB_FS_Device_Driver/usb_core.c ****     pEPinfo->Usb_rOffset += Length;
 17672              		.loc 1 459 0
 17673 005a 618A     		ldrh	r1, [r4, #18]
 457:../../../SDK_embedded/libs/stm32/STM32_USB_FS_Device_Driver/usb_core.c ****     Buffer = (*pEPinfo->CopyData)(Length);
 17674              		.loc 1 457 0
 17675 005c 0746     		mov	r7, r0
 17676              	.LVL77:
 459:../../../SDK_embedded/libs/stm32/STM32_USB_FS_Device_Driver/usb_core.c ****     pEPinfo->Usb_rOffset += Length;
 17677              		.loc 1 459 0
 17678 005e 05EB010C 		add	ip, r5, r1
 458:../../../SDK_embedded/libs/stm32/STM32_USB_FS_Device_Driver/usb_core.c ****     pEPinfo->Usb_rLength -= Length;
 17679              		.loc 1 458 0
 17680 0062 581B     		subs	r0, r3, r5
 17681              	.LVL78:
 17682 0064 2082     		strh	r0, [r4, #16]	@ movhi
 464:../../../SDK_embedded/libs/stm32/STM32_USB_FS_Device_Driver/usb_core.c ****     PMAToUserBufferCopy(Buffer, GetEPRxAddr(ENDP0), Length);
 17683              		.loc 1 464 0
 17684 0066 244A     		ldr	r2, .L104+4
 459:../../../SDK_embedded/libs/stm32/STM32_USB_FS_Device_Driver/usb_core.c ****     pEPinfo->Usb_rOffset += Length;
 17685              		.loc 1 459 0
 17686 0068 A4F812C0 		strh	ip, [r4, #18]	@ movhi
 464:../../../SDK_embedded/libs/stm32/STM32_USB_FS_Device_Driver/usb_core.c ****     PMAToUserBufferCopy(Buffer, GetEPRxAddr(ENDP0), Length);
 17687              		.loc 1 464 0
 17688 006c 3046     		mov	r0, r6
 17689 006e 9047     		blx	r2
 17690 0070 2A46     		mov	r2, r5
 17691 0072 0146     		mov	r1, r0
 17692 0074 214B     		ldr	r3, .L104+8
 17693 0076 3846     		mov	r0, r7
 17694 0078 9847     		blx	r3
 17695              	.LVL79:
 17696              	.L96:
 17697              	.LBE31:
 468:../../../SDK_embedded/libs/stm32/STM32_USB_FS_Device_Driver/usb_core.c ****   if (pEPinfo->Usb_rLength != 0)
 17698              		.loc 1 468 0
 17699 007a 228A     		ldrh	r2, [r4, #16]
 17700 007c 5AB1     		cbz	r2, .L97
 470:../../../SDK_embedded/libs/stm32/STM32_USB_FS_Device_Driver/usb_core.c ****     vSetEPRxStatus(EP_RX_VALID);/* re-enable for next data reception */
 17701              		.loc 1 470 0
 17702 007e 204A     		ldr	r2, .L104+12
 471:../../../SDK_embedded/libs/stm32/STM32_USB_FS_Device_Driver/usb_core.c ****     SetEPTxCount(ENDP0, 0);
 17703              		.loc 1 471 0
 17704 0080 0020     		movs	r0, #0
 470:../../../SDK_embedded/libs/stm32/STM32_USB_FS_Device_Driver/usb_core.c ****     vSetEPRxStatus(EP_RX_VALID);/* re-enable for next data reception */
 17705              		.loc 1 470 0
 17706 0082 4FF4405E 		mov	lr, #12288	@ movhi
 471:../../../SDK_embedded/libs/stm32/STM32_USB_FS_Device_Driver/usb_core.c ****     SetEPTxCount(ENDP0, 0);
 17707              		.loc 1 471 0
 17708 0086 0146     		mov	r1, r0
 470:../../../SDK_embedded/libs/stm32/STM32_USB_FS_Device_Driver/usb_core.c ****     vSetEPRxStatus(EP_RX_VALID);/* re-enable for next data reception */
 17709              		.loc 1 470 0
 17710 0088 A2F800E0 		strh	lr, [r2, #0]	@ movhi
 471:../../../SDK_embedded/libs/stm32/STM32_USB_FS_Device_Driver/usb_core.c ****     SetEPTxCount(ENDP0, 0);
 17711              		.loc 1 471 0
 17712 008c 1D4B     		ldr	r3, .L104+16
 17713 008e 9847     		blx	r3
 472:../../../SDK_embedded/libs/stm32/STM32_USB_FS_Device_Driver/usb_core.c ****     vSetEPTxStatus(EP_TX_VALID);/* Expect the host to abort the data OUT stage */
 17714              		.loc 1 472 0
 17715 0090 1D48     		ldr	r0, .L104+20
 17716 0092 3021     		movs	r1, #48
 17717 0094 0180     		strh	r1, [r0, #0]	@ movhi
 17718              	.L97:
 475:../../../SDK_embedded/libs/stm32/STM32_USB_FS_Device_Driver/usb_core.c ****   if (pEPinfo->Usb_rLength >= pEPinfo->PacketSize)
 17719              		.loc 1 475 0
 17720 0096 238A     		ldrh	r3, [r4, #16]
 17721 0098 B4F814C0 		ldrh	ip, [r4, #20]
 17722 009c 154A     		ldr	r2, .L104
 17723 009e 9C45     		cmp	ip, r3
 17724 00a0 02D8     		bhi	.L98
 477:../../../SDK_embedded/libs/stm32/STM32_USB_FS_Device_Driver/usb_core.c ****     pInformation->ControlState = OUT_DATA;
 17725              		.loc 1 477 0
 17726 00a2 1368     		ldr	r3, [r2, #0]
 17727 00a4 0322     		movs	r2, #3
 17728 00a6 02E0     		b	.L103
 17729              	.L98:
 481:../../../SDK_embedded/libs/stm32/STM32_USB_FS_Device_Driver/usb_core.c ****     if (pEPinfo->Usb_rLength > 0)
 17730              		.loc 1 481 0
 17731 00a8 1BB1     		cbz	r3, .L100
 483:../../../SDK_embedded/libs/stm32/STM32_USB_FS_Device_Driver/usb_core.c ****       pInformation->ControlState = LAST_OUT_DATA;
 17732              		.loc 1 483 0
 17733 00aa 1368     		ldr	r3, [r2, #0]
 17734 00ac 0522     		movs	r2, #5
 17735              	.L103:
 17736 00ae 1A72     		strb	r2, [r3, #8]
 17737 00b0 0EE0     		b	.L99
 17738              	.L100:
 487:../../../SDK_embedded/libs/stm32/STM32_USB_FS_Device_Driver/usb_core.c ****       pInformation->ControlState = WAIT_STATUS_IN;
 17739              		.loc 1 487 0
 17740 00b2 1268     		ldr	r2, [r2, #0]
 17741 00b4 0620     		movs	r0, #6
 488:../../../SDK_embedded/libs/stm32/STM32_USB_FS_Device_Driver/usb_core.c ****       USB_StatusIn();
 17742              		.loc 1 488 0
 17743 00b6 1549     		ldr	r1, .L104+24
 487:../../../SDK_embedded/libs/stm32/STM32_USB_FS_Device_Driver/usb_core.c ****       pInformation->ControlState = WAIT_STATUS_IN;
 17744              		.loc 1 487 0
 17745 00b8 1072     		strb	r0, [r2, #8]
 488:../../../SDK_embedded/libs/stm32/STM32_USB_FS_Device_Driver/usb_core.c ****       USB_StatusIn();
 17746              		.loc 1 488 0
 17747 00ba 0A68     		ldr	r2, [r1, #0]
 17748 00bc 1448     		ldr	r0, .L104+28
 17749 00be 1FFA82FE 		uxth	lr, r2
 17750 00c2 0EEB0001 		add	r1, lr, r0
 17751 00c6 1048     		ldr	r0, .L104+20
 17752 00c8 4A00     		lsls	r2, r1, #1
 17753 00ca 3021     		movs	r1, #48
 17754 00cc 1360     		str	r3, [r2, #0]
 17755 00ce 0180     		strh	r1, [r0, #0]	@ movhi
 17756              	.L99:
 17757              	.LBE30:
 17758              	.LBE29:
 983:../../../SDK_embedded/libs/stm32/STM32_USB_FS_Device_Driver/usb_core.c ****     ControlState = pInformation->ControlState; /* may be changed outside the function */
 17759              		.loc 1 983 0
 17760 00d0 0849     		ldr	r1, .L104
 17761 00d2 0B68     		ldr	r3, [r1, #0]
 17762 00d4 1B7A     		ldrb	r3, [r3, #8]	@ zero_extendqisi2
 17763              	.LVL80:
 17764 00d6 06E0     		b	.L94
 17765              	.LVL81:
 17766              	.L95:
 986:../../../SDK_embedded/libs/stm32/STM32_USB_FS_Device_Driver/usb_core.c ****   else if (ControlState == WAIT_STATUS_OUT)
 17767              		.loc 1 986 0
 17768 00d8 072B     		cmp	r3, #7
 17769 00da 03D1     		bne	.L102
 988:../../../SDK_embedded/libs/stm32/STM32_USB_FS_Device_Driver/usb_core.c ****     (*pProperty->Process_Status_OUT)();
 17770              		.loc 1 988 0
 17771 00dc 0D4B     		ldr	r3, .L104+32
 17772              	.LVL82:
 17773 00de 1A68     		ldr	r2, [r3, #0]
 17774 00e0 D068     		ldr	r0, [r2, #12]
 17775              	.LVL83:
 17776 00e2 8047     		blx	r0
 17777              	.LVL84:
 17778              	.L102:
 998:../../../SDK_embedded/libs/stm32/STM32_USB_FS_Device_Driver/usb_core.c ****     ControlState = STALLED;
 17779              		.loc 1 998 0
 17780 00e4 0823     		movs	r3, #8
 17781              	.L94:
 17782              	.LVL85:
1001:../../../SDK_embedded/libs/stm32/STM32_USB_FS_Device_Driver/usb_core.c ****   pInformation->ControlState = ControlState;
 17783              		.loc 1 1001 0
 17784 00e6 034A     		ldr	r2, .L104
1003:../../../SDK_embedded/libs/stm32/STM32_USB_FS_Device_Driver/usb_core.c ****   return Post0_Process();
 17785              		.loc 1 1003 0
 17786 00e8 0B49     		ldr	r1, .L104+36
1001:../../../SDK_embedded/libs/stm32/STM32_USB_FS_Device_Driver/usb_core.c ****   pInformation->ControlState = ControlState;
 17787              		.loc 1 1001 0
 17788 00ea 1068     		ldr	r0, [r2, #0]
 17789 00ec 0372     		strb	r3, [r0, #8]
1003:../../../SDK_embedded/libs/stm32/STM32_USB_FS_Device_Driver/usb_core.c ****   return Post0_Process();
 17790              		.loc 1 1003 0
 17791 00ee 8847     		blx	r1
 17792              	.LVL86:
1004:../../../SDK_embedded/libs/stm32/STM32_USB_FS_Device_Driver/usb_core.c **** }
 17793              		.loc 1 1004 0
 17794 00f0 F8BD     		pop	{r3, r4, r5, r6, r7, pc}
 17795              	.L105:
 17796 00f2 00BF     		.align	2
 17797              	.L104:
 17798 00f4 00000000 		.word	pInformation
 17799 00f8 00000000 		.word	GetEPRxAddr
 17800 00fc 00000000 		.word	PMAToUserBufferCopy
 17801 0100 00000000 		.word	SaveRState
 17802 0104 00000000 		.word	SetEPTxCount
 17803 0108 00000000 		.word	SaveTState
 17804 010c 505C0040 		.word	1073765456
 17805 0110 02300020 		.word	536883202
 17806 0114 00000000 		.word	pProperty
 17807 0118 00000000 		.word	Post0_Process
 17808              		.cfi_endproc
 17809              	.LFE44:
 17811              		.section	.text.Setup0_Process,"ax",%progbits
 17812              		.align	1
 17813              		.global	Setup0_Process
 17814              		.thumb
 17815              		.thumb_func
 17817              	Setup0_Process:
 17818              	.LFB42:
 878:../../../SDK_embedded/libs/stm32/STM32_USB_FS_Device_Driver/usb_core.c **** {
 17819              		.loc 1 878 0
 17820              		.cfi_startproc
 17821              		@ args = 0, pretend = 0, frame = 8
 17822              		@ frame_needed = 0, uses_anonymous_args = 0
 17823              	.LVL87:
 17824 0000 F7B5     		push	{r0, r1, r2, r4, r5, r6, r7, lr}
 17825              	.LCFI11:
 17826              		.cfi_def_cfa_offset 32
 17827              		.cfi_offset 14, -4
 17828              		.cfi_offset 7, -8
 17829              		.cfi_offset 6, -12
 17830              		.cfi_offset 5, -16
 17831              		.cfi_offset 4, -20
 17832              		.cfi_offset 2, -24
 17833              		.cfi_offset 1, -28
 17834              		.cfi_offset 0, -32
 895:../../../SDK_embedded/libs/stm32/STM32_USB_FS_Device_Driver/usb_core.c ****   pBuf.b = PMAAddr + (uint8_t *)(_GetEPRxAddr(ENDP0) * 2); /* *2 for 32 bits addr */
 17835              		.loc 1 895 0
 17836 0002 924E     		ldr	r6, .L160
 17837 0004 924C     		ldr	r4, .L160+4
 17838 0006 3568     		ldr	r5, [r6, #0]
 898:../../../SDK_embedded/libs/stm32/STM32_USB_FS_Device_Driver/usb_core.c ****   if (pInformation->ControlState != PAUSE)
 17839              		.loc 1 898 0
 17840 0008 924E     		ldr	r6, .L160+8
 895:../../../SDK_embedded/libs/stm32/STM32_USB_FS_Device_Driver/usb_core.c ****   pBuf.b = PMAAddr + (uint8_t *)(_GetEPRxAddr(ENDP0) * 2); /* *2 for 32 bits addr */
 17841              		.loc 1 895 0
 17842 000a AAB2     		uxth	r2, r5
 898:../../../SDK_embedded/libs/stm32/STM32_USB_FS_Device_Driver/usb_core.c ****   if (pInformation->ControlState != PAUSE)
 17843              		.loc 1 898 0
 17844 000c 3568     		ldr	r5, [r6, #0]
 895:../../../SDK_embedded/libs/stm32/STM32_USB_FS_Device_Driver/usb_core.c ****   pBuf.b = PMAAddr + (uint8_t *)(_GetEPRxAddr(ENDP0) * 2); /* *2 for 32 bits addr */
 17845              		.loc 1 895 0
 17846 000e 1119     		adds	r1, r2, r4
 898:../../../SDK_embedded/libs/stm32/STM32_USB_FS_Device_Driver/usb_core.c ****   if (pInformation->ControlState != PAUSE)
 17847              		.loc 1 898 0
 17848 0010 2B7A     		ldrb	r3, [r5, #8]	@ zero_extendqisi2
 895:../../../SDK_embedded/libs/stm32/STM32_USB_FS_Device_Driver/usb_core.c ****   pBuf.b = PMAAddr + (uint8_t *)(_GetEPRxAddr(ENDP0) * 2); /* *2 for 32 bits addr */
 17849              		.loc 1 895 0
 17850 0012 4800     		lsls	r0, r1, #1
 898:../../../SDK_embedded/libs/stm32/STM32_USB_FS_Device_Driver/usb_core.c ****   if (pInformation->ControlState != PAUSE)
 17851              		.loc 1 898 0
 17852 0014 092B     		cmp	r3, #9
 895:../../../SDK_embedded/libs/stm32/STM32_USB_FS_Device_Driver/usb_core.c ****   pBuf.b = PMAAddr + (uint8_t *)(_GetEPRxAddr(ENDP0) * 2); /* *2 for 32 bits addr */
 17853              		.loc 1 895 0
 17854 0016 0468     		ldr	r4, [r0, #0]
 17855              	.LVL88:
 898:../../../SDK_embedded/libs/stm32/STM32_USB_FS_Device_Driver/usb_core.c ****   if (pInformation->ControlState != PAUSE)
 17856              		.loc 1 898 0
 17857 0018 18D0     		beq	.L107
 895:../../../SDK_embedded/libs/stm32/STM32_USB_FS_Device_Driver/usb_core.c ****   pBuf.b = PMAAddr + (uint8_t *)(_GetEPRxAddr(ENDP0) * 2); /* *2 for 32 bits addr */
 17858              		.loc 1 895 0
 17859 001a A2B2     		uxth	r2, r4
 17860 001c 02F10051 		add	r1, r2, #536870912
 17861 0020 01F54050 		add	r0, r1, #12288
 17862              	.LVL89:
 17863 0024 4400     		lsls	r4, r0, #1
 17864              	.LVL90:
 900:../../../SDK_embedded/libs/stm32/STM32_USB_FS_Device_Driver/usb_core.c ****     pInformation->USBbmRequestType = *pBuf.b++; /* bmRequestType */
 17865              		.loc 1 900 0
 17866 0026 94F800E0 		ldrb	lr, [r4, #0]	@ zero_extendqisi2
 17867 002a 85F800E0 		strb	lr, [r5, #0]
 901:../../../SDK_embedded/libs/stm32/STM32_USB_FS_Device_Driver/usb_core.c ****     pInformation->USBbRequest = *pBuf.b++; /* bRequest */
 17868              		.loc 1 901 0
 17869 002e 6778     		ldrb	r7, [r4, #1]	@ zero_extendqisi2
 17870 0030 6F70     		strb	r7, [r5, #1]
 903:../../../SDK_embedded/libs/stm32/STM32_USB_FS_Device_Driver/usb_core.c ****     pInformation->USBwValue = ByteSwap(*pBuf.w++); /* wValue */
 17871              		.loc 1 903 0
 17872 0032 A088     		ldrh	r0, [r4, #4]
 17873 0034 884F     		ldr	r7, .L160+12
 17874 0036 B847     		blx	r7
 17875 0038 6880     		strh	r0, [r5, #2]	@ movhi
 905:../../../SDK_embedded/libs/stm32/STM32_USB_FS_Device_Driver/usb_core.c ****     pInformation->USBwIndex  = ByteSwap(*pBuf.w++); /* wIndex */
 17876              		.loc 1 905 0
 17877 003a 2089     		ldrh	r0, [r4, #8]
 17878 003c 3568     		ldr	r5, [r6, #0]
 17879 003e B847     		blx	r7
 17880 0040 A880     		strh	r0, [r5, #4]	@ movhi
 907:../../../SDK_embedded/libs/stm32/STM32_USB_FS_Device_Driver/usb_core.c ****     pInformation->USBwLength = *pBuf.w; /* wLength */
 17881              		.loc 1 907 0
 17882 0042 3368     		ldr	r3, [r6, #0]
 17883 0044 B4F80CC0 		ldrh	ip, [r4, #12]
 17884 0048 A3F806C0 		strh	ip, [r3, #6]	@ movhi
 17885              	.L107:
 910:../../../SDK_embedded/libs/stm32/STM32_USB_FS_Device_Driver/usb_core.c ****   pInformation->ControlState = SETTING_UP;
 17886              		.loc 1 910 0
 17887 004c 814C     		ldr	r4, .L160+8
 17888 004e 0125     		movs	r5, #1
 17889 0050 2368     		ldr	r3, [r4, #0]
 911:../../../SDK_embedded/libs/stm32/STM32_USB_FS_Device_Driver/usb_core.c ****   if (pInformation->USBwLength == 0)
 17890              		.loc 1 911 0
 17891 0052 D888     		ldrh	r0, [r3, #6]
 910:../../../SDK_embedded/libs/stm32/STM32_USB_FS_Device_Driver/usb_core.c ****   pInformation->ControlState = SETTING_UP;
 17892              		.loc 1 910 0
 17893 0054 1D72     		strb	r5, [r3, #8]
 17894 0056 5D78     		ldrb	r5, [r3, #1]	@ zero_extendqisi2
 911:../../../SDK_embedded/libs/stm32/STM32_USB_FS_Device_Driver/usb_core.c ****   if (pInformation->USBwLength == 0)
 17895              		.loc 1 911 0
 17896 0058 0028     		cmp	r0, #0
 17897 005a 65D1     		bne	.L108
 17898              	.LVL91:
 17899              	.LBB38:
 17900              	.LBB39:
 576:../../../SDK_embedded/libs/stm32/STM32_USB_FS_Device_Driver/usb_core.c ****   if (Type_Recipient == (STANDARD_REQUEST | DEVICE_RECIPIENT))
 17901              		.loc 1 576 0
 17902 005c 93F800C0 		ldrb	ip, [r3, #0]	@ zero_extendqisi2
 17903 0060 1CF07F02 		ands	r2, ip, #127
 17904 0064 31D1     		bne	.L109
 580:../../../SDK_embedded/libs/stm32/STM32_USB_FS_Device_Driver/usb_core.c ****     if (RequestNo == SET_CONFIGURATION)
 17905              		.loc 1 580 0
 17906 0066 092D     		cmp	r5, #9
 582:../../../SDK_embedded/libs/stm32/STM32_USB_FS_Device_Driver/usb_core.c ****       Result = Standard_SetConfiguration();
 17907              		.loc 1 582 0
 17908 0068 08BF     		it	eq
 17909 006a 7C4B     		ldreq	r3, .L160+16
 580:../../../SDK_embedded/libs/stm32/STM32_USB_FS_Device_Driver/usb_core.c ****     if (RequestNo == SET_CONFIGURATION)
 17910              		.loc 1 580 0
 17911 006c 3DD0     		beq	.L154
 586:../../../SDK_embedded/libs/stm32/STM32_USB_FS_Device_Driver/usb_core.c ****     else if (RequestNo == SET_ADDRESS)
 17912              		.loc 1 586 0
 17913 006e 052D     		cmp	r5, #5
 17914 0070 0ED1     		bne	.L112
 588:../../../SDK_embedded/libs/stm32/STM32_USB_FS_Device_Driver/usb_core.c ****       if ((pInformation->USBwValue0 > 127) || (pInformation->USBwValue1 != 0)
 17915              		.loc 1 588 0
 17916 0072 93F903E0 		ldrsb	lr, [r3, #3]
 17917 0076 BEF1000F 		cmp	lr, #0
 17918 007a 50DB     		blt	.L148
 17919 007c 9978     		ldrb	r1, [r3, #2]	@ zero_extendqisi2
 17920 007e 0029     		cmp	r1, #0
 17921 0080 4DD1     		bne	.L148
 589:../../../SDK_embedded/libs/stm32/STM32_USB_FS_Device_Driver/usb_core.c ****           || (pInformation->USBwIndex != 0)
 17922              		.loc 1 589 0
 17923 0082 9A88     		ldrh	r2, [r3, #4]
 17924 0084 002A     		cmp	r2, #0
 17925 0086 4AD1     		bne	.L148
 590:../../../SDK_embedded/libs/stm32/STM32_USB_FS_Device_Driver/usb_core.c ****           || (pInformation->Current_Configuration != 0))
 17926              		.loc 1 590 0
 17927 0088 9B7A     		ldrb	r3, [r3, #10]	@ zero_extendqisi2
 17928 008a 002B     		cmp	r3, #0
 17929 008c 38D0     		beq	.L141
 17930 008e 46E0     		b	.L148
 17931              	.L112:
 606:../../../SDK_embedded/libs/stm32/STM32_USB_FS_Device_Driver/usb_core.c ****     else if (RequestNo == SET_FEATURE)
 17932              		.loc 1 606 0
 17933 0090 032D     		cmp	r5, #3
 17934 0092 0BD1     		bne	.L115
 608:../../../SDK_embedded/libs/stm32/STM32_USB_FS_Device_Driver/usb_core.c ****       if ((pInformation->USBwValue0 == DEVICE_REMOTE_WAKEUP)
 17935              		.loc 1 608 0
 17936 0094 D878     		ldrb	r0, [r3, #3]	@ zero_extendqisi2
 17937 0096 0128     		cmp	r0, #1
 17938 0098 29D1     		bne	.L116
 609:../../../SDK_embedded/libs/stm32/STM32_USB_FS_Device_Driver/usb_core.c ****           && (pInformation->USBwIndex == 0)
 17939              		.loc 1 609 0
 17940 009a 9988     		ldrh	r1, [r3, #4]
 17941 009c 0029     		cmp	r1, #0
 17942 009e 26D1     		bne	.L116
 610:../../../SDK_embedded/libs/stm32/STM32_USB_FS_Device_Driver/usb_core.c ****           && (ValBit(pInformation->Current_Feature, 5)))
 17943              		.loc 1 610 0
 17944 00a0 5B7A     		ldrb	r3, [r3, #9]	@ zero_extendqisi2
 17945 00a2 9806     		lsls	r0, r3, #26
 612:../../../SDK_embedded/libs/stm32/STM32_USB_FS_Device_Driver/usb_core.c ****         Result = Standard_SetDeviceFeature();
 17946              		.loc 1 612 0
 17947 00a4 48BF     		it	mi
 17948 00a6 6E4B     		ldrmi	r3, .L160+20
 610:../../../SDK_embedded/libs/stm32/STM32_USB_FS_Device_Driver/usb_core.c ****           && (ValBit(pInformation->Current_Feature, 5)))
 17949              		.loc 1 610 0
 17950 00a8 1FD4     		bmi	.L154
 17951 00aa 20E0     		b	.L116
 17952              	.L115:
 620:../../../SDK_embedded/libs/stm32/STM32_USB_FS_Device_Driver/usb_core.c ****     else if (RequestNo == CLEAR_FEATURE)
 17953              		.loc 1 620 0
 17954 00ac 012D     		cmp	r5, #1
 17955 00ae 1ED1     		bne	.L116
 622:../../../SDK_embedded/libs/stm32/STM32_USB_FS_Device_Driver/usb_core.c ****       if (pInformation->USBwValue0 == DEVICE_REMOTE_WAKEUP
 17956              		.loc 1 622 0
 17957 00b0 93F803C0 		ldrb	ip, [r3, #3]	@ zero_extendqisi2
 17958 00b4 BCF1010F 		cmp	ip, #1
 17959 00b8 19D1     		bne	.L116
 623:../../../SDK_embedded/libs/stm32/STM32_USB_FS_Device_Driver/usb_core.c ****           && pInformation->USBwIndex == 0
 17960              		.loc 1 623 0
 17961 00ba 9A88     		ldrh	r2, [r3, #4]
 17962 00bc BAB9     		cbnz	r2, .L116
 624:../../../SDK_embedded/libs/stm32/STM32_USB_FS_Device_Driver/usb_core.c ****           && ValBit(pInformation->Current_Feature, 5))
 17963              		.loc 1 624 0
 17964 00be 93F809E0 		ldrb	lr, [r3, #9]	@ zero_extendqisi2
 17965 00c2 5FEA8E61 		lsls	r1, lr, #26
 17966 00c6 12D5     		bpl	.L116
 17967 00c8 0AE0     		b	.L157
 17968              	.L109:
 637:../../../SDK_embedded/libs/stm32/STM32_USB_FS_Device_Driver/usb_core.c ****   else if (Type_Recipient == (STANDARD_REQUEST | INTERFACE_RECIPIENT))
 17969              		.loc 1 637 0
 17970 00ca 012A     		cmp	r2, #1
 17971 00cc 04D1     		bne	.L117
 640:../../../SDK_embedded/libs/stm32/STM32_USB_FS_Device_Driver/usb_core.c ****     if (RequestNo == SET_INTERFACE)
 17972              		.loc 1 640 0
 17973 00ce 0B2D     		cmp	r5, #11
 642:../../../SDK_embedded/libs/stm32/STM32_USB_FS_Device_Driver/usb_core.c ****       Result = Standard_SetInterface();
 17974              		.loc 1 642 0
 17975 00d0 08BF     		it	eq
 17976 00d2 644B     		ldreq	r3, .L160+24
 640:../../../SDK_embedded/libs/stm32/STM32_USB_FS_Device_Driver/usb_core.c ****     if (RequestNo == SET_INTERFACE)
 17977              		.loc 1 640 0
 17978 00d4 0BD1     		bne	.L116
 17979 00d6 08E0     		b	.L154
 17980              	.L117:
 647:../../../SDK_embedded/libs/stm32/STM32_USB_FS_Device_Driver/usb_core.c ****   else if (Type_Recipient == (STANDARD_REQUEST | ENDPOINT_RECIPIENT))
 17981              		.loc 1 647 0
 17982 00d8 022A     		cmp	r2, #2
 17983 00da 08D1     		bne	.L116
 650:../../../SDK_embedded/libs/stm32/STM32_USB_FS_Device_Driver/usb_core.c ****     if (RequestNo == CLEAR_FEATURE)
 17984              		.loc 1 650 0
 17985 00dc 012D     		cmp	r5, #1
 17986 00de 01D1     		bne	.L118
 17987              	.L157:
 652:../../../SDK_embedded/libs/stm32/STM32_USB_FS_Device_Driver/usb_core.c ****       Result = Standard_ClearFeature();
 17988              		.loc 1 652 0
 17989 00e0 614B     		ldr	r3, .L160+28
 17990 00e2 02E0     		b	.L154
 17991              	.L118:
 655:../../../SDK_embedded/libs/stm32/STM32_USB_FS_Device_Driver/usb_core.c ****     else if (RequestNo == SET_FEATURE)
 17992              		.loc 1 655 0
 17993 00e4 032D     		cmp	r5, #3
 17994 00e6 02D1     		bne	.L116
 657:../../../SDK_embedded/libs/stm32/STM32_USB_FS_Device_Driver/usb_core.c ****       Result = Standard_SetEndPointFeature();
 17995              		.loc 1 657 0
 17996 00e8 604B     		ldr	r3, .L160+32
 17997              	.L154:
 17998 00ea 9847     		blx	r3
 17999              	.LVL92:
 666:../../../SDK_embedded/libs/stm32/STM32_USB_FS_Device_Driver/usb_core.c ****   if (Result != USB_SUCCESS)
 18000              		.loc 1 666 0
 18001 00ec 40B1     		cbz	r0, .L141
 18002              	.LVL93:
 18003              	.L116:
 668:../../../SDK_embedded/libs/stm32/STM32_USB_FS_Device_Driver/usb_core.c ****     Result = (*pProperty->Class_NoData_Setup)(RequestNo);
 18004              		.loc 1 668 0
 18005 00ee 6049     		ldr	r1, .L160+36
 18006 00f0 0868     		ldr	r0, [r1, #0]
 18007 00f2 4369     		ldr	r3, [r0, #20]
 18008 00f4 2846     		mov	r0, r5
 18009 00f6 9847     		blx	r3
 18010              	.LVL94:
 671:../../../SDK_embedded/libs/stm32/STM32_USB_FS_Device_Driver/usb_core.c ****       ControlState = PAUSE;
 18011              		.loc 1 671 0
 18012 00f8 0923     		movs	r3, #9
 669:../../../SDK_embedded/libs/stm32/STM32_USB_FS_Device_Driver/usb_core.c ****     if (Result == USB_NOT_READY)
 18013              		.loc 1 669 0
 18014 00fa 0328     		cmp	r0, #3
 18015 00fc 10D0     		beq	.L113
 676:../../../SDK_embedded/libs/stm32/STM32_USB_FS_Device_Driver/usb_core.c ****   if (Result != USB_SUCCESS)
 18016              		.loc 1 676 0
 18017 00fe 70B9     		cbnz	r0, .L148
 18018              	.LVL95:
 18019              	.L141:
 684:../../../SDK_embedded/libs/stm32/STM32_USB_FS_Device_Driver/usb_core.c ****   USB_StatusIn();
 18020              		.loc 1 684 0
 18021 0100 5249     		ldr	r1, .L160
 18022 0102 5C4B     		ldr	r3, .L160+40
 18023 0104 0868     		ldr	r0, [r1, #0]
 18024 0106 1FFA80FC 		uxth	ip, r0
 18025 010a 0CEB0302 		add	r2, ip, r3
 18026 010e 5A4B     		ldr	r3, .L160+44
 18027 0110 5100     		lsls	r1, r2, #1
 18028 0112 0020     		movs	r0, #0
 18029 0114 3022     		movs	r2, #48
 18030 0116 0860     		str	r0, [r1, #0]
 18031 0118 1A80     		strh	r2, [r3, #0]	@ movhi
 682:../../../SDK_embedded/libs/stm32/STM32_USB_FS_Device_Driver/usb_core.c ****   ControlState = WAIT_STATUS_IN;/* After no data stage SETUP */
 18032              		.loc 1 682 0
 18033 011a 0623     		movs	r3, #6
 18034 011c 00E0     		b	.L113
 18035              	.LVL96:
 18036              	.L148:
 678:../../../SDK_embedded/libs/stm32/STM32_USB_FS_Device_Driver/usb_core.c ****     ControlState = STALLED;
 18037              		.loc 1 678 0
 18038 011e 0823     		movs	r3, #8
 18039              	.L113:
 18040              	.LVL97:
 687:../../../SDK_embedded/libs/stm32/STM32_USB_FS_Device_Driver/usb_core.c ****   pInformation->ControlState = ControlState;
 18041              		.loc 1 687 0
 18042 0120 4C48     		ldr	r0, .L160+8
 18043 0122 0268     		ldr	r2, [r0, #0]
 18044 0124 1372     		strb	r3, [r2, #8]
 18045 0126 F6E0     		b	.L119
 18046              	.LVL98:
 18047              	.L108:
 18048              	.LBE39:
 18049              	.LBE38:
 18050              	.LBB40:
 18051              	.LBB41:
 713:../../../SDK_embedded/libs/stm32/STM32_USB_FS_Device_Driver/usb_core.c ****   if (Request_No == GET_DESCRIPTOR)
 18052              		.loc 1 713 0
 18053 0128 062D     		cmp	r5, #6
 18054 012a 18D1     		bne	.L120
 715:../../../SDK_embedded/libs/stm32/STM32_USB_FS_Device_Driver/usb_core.c ****     if (Type_Recipient == (STANDARD_REQUEST | DEVICE_RECIPIENT))
 18055              		.loc 1 715 0
 18056 012c 93F800E0 		ldrb	lr, [r3, #0]	@ zero_extendqisi2
 18057 0130 5FEA4E62 		lsls	r2, lr, #25
 18058 0134 40F0A680 		bne	.L132
 18059              	.LBB42:
 717:../../../SDK_embedded/libs/stm32/STM32_USB_FS_Device_Driver/usb_core.c ****       uint8_t wValue1 = pInformation->USBwValue1;
 18060              		.loc 1 717 0
 18061 0138 9A78     		ldrb	r2, [r3, #2]	@ zero_extendqisi2
 18062              	.LVL99:
 18063 013a 4D4B     		ldr	r3, .L160+36
 718:../../../SDK_embedded/libs/stm32/STM32_USB_FS_Device_Driver/usb_core.c ****       if (wValue1 == DEVICE_DESCRIPTOR)
 18064              		.loc 1 718 0
 18065 013c 012A     		cmp	r2, #1
 720:../../../SDK_embedded/libs/stm32/STM32_USB_FS_Device_Driver/usb_core.c ****         CopyRoutine = pProperty->GetDeviceDescriptor;
 18066              		.loc 1 720 0
 18067 013e 04BF     		itt	eq
 18068 0140 1B68     		ldreq	r3, [r3, #0]
 18069 0142 DB69     		ldreq	r3, [r3, #28]
 718:../../../SDK_embedded/libs/stm32/STM32_USB_FS_Device_Driver/usb_core.c ****       if (wValue1 == DEVICE_DESCRIPTOR)
 18070              		.loc 1 718 0
 18071 0144 78D0     		beq	.L123
 722:../../../SDK_embedded/libs/stm32/STM32_USB_FS_Device_Driver/usb_core.c ****       else if (wValue1 == CONFIG_DESCRIPTOR)
 18072              		.loc 1 722 0
 18073 0146 022A     		cmp	r2, #2
 724:../../../SDK_embedded/libs/stm32/STM32_USB_FS_Device_Driver/usb_core.c ****         CopyRoutine = pProperty->GetConfigDescriptor;
 18074              		.loc 1 724 0
 18075 0148 04BF     		itt	eq
 18076 014a 1B68     		ldreq	r3, [r3, #0]
 18077 014c 1B6A     		ldreq	r3, [r3, #32]
 722:../../../SDK_embedded/libs/stm32/STM32_USB_FS_Device_Driver/usb_core.c ****       else if (wValue1 == CONFIG_DESCRIPTOR)
 18078              		.loc 1 722 0
 18079 014e 73D0     		beq	.L123
 726:../../../SDK_embedded/libs/stm32/STM32_USB_FS_Device_Driver/usb_core.c ****       else if (wValue1 == STRING_DESCRIPTOR)
 18080              		.loc 1 726 0
 18081 0150 032A     		cmp	r2, #3
 728:../../../SDK_embedded/libs/stm32/STM32_USB_FS_Device_Driver/usb_core.c ****         CopyRoutine = pProperty->GetStringDescriptor;
 18082              		.loc 1 728 0
 18083 0152 04BF     		itt	eq
 18084 0154 1B68     		ldreq	r3, [r3, #0]
 18085 0156 5B6A     		ldreq	r3, [r3, #36]
 726:../../../SDK_embedded/libs/stm32/STM32_USB_FS_Device_Driver/usb_core.c ****       else if (wValue1 == STRING_DESCRIPTOR)
 18086              		.loc 1 726 0
 18087 0158 40F09480 		bne	.L132
 18088 015c 6CE0     		b	.L123
 18089              	.LVL100:
 18090              	.L120:
 18091              	.LBE42:
 734:../../../SDK_embedded/libs/stm32/STM32_USB_FS_Device_Driver/usb_core.c ****   else if ((Request_No == GET_STATUS) && (pInformation->USBwValue == 0)
 18092              		.loc 1 734 0
 18093 015e 002D     		cmp	r5, #0
 18094 0160 47D1     		bne	.L125
 18095 0162 5988     		ldrh	r1, [r3, #2]
 18096 0164 0029     		cmp	r1, #0
 18097 0166 40F08D80 		bne	.L132
 736:../../../SDK_embedded/libs/stm32/STM32_USB_FS_Device_Driver/usb_core.c ****            && (pInformation->USBwIndex1 == 0))
 18098              		.loc 1 736 0
 18099 016a 5A68     		ldr	r2, [r3, #4]
 18100 016c 22F47F4C 		bic	ip, r2, #65280
 18101 0170 BCF5003F 		cmp	ip, #131072
 18102 0174 40F08680 		bne	.L132
 739:../../../SDK_embedded/libs/stm32/STM32_USB_FS_Device_Driver/usb_core.c ****     if ((Type_Recipient == (STANDARD_REQUEST | DEVICE_RECIPIENT))
 18103              		.loc 1 739 0
 18104 0178 1878     		ldrb	r0, [r3, #0]	@ zero_extendqisi2
 18105 017a 10F07F02 		ands	r2, r0, #127
 18106 017e 04D1     		bne	.L126
 740:../../../SDK_embedded/libs/stm32/STM32_USB_FS_Device_Driver/usb_core.c ****         && (pInformation->USBwIndex == 0))
 18107              		.loc 1 740 0
 18108 0180 9B88     		ldrh	r3, [r3, #4]
 18109 0182 002B     		cmp	r3, #0
 18110 0184 00F0CA80 		beq	.L151
 18111 0188 7CE0     		b	.L132
 18112              	.L126:
 746:../../../SDK_embedded/libs/stm32/STM32_USB_FS_Device_Driver/usb_core.c ****     else if (Type_Recipient == (STANDARD_REQUEST | INTERFACE_RECIPIENT))
 18113              		.loc 1 746 0
 18114 018a 012A     		cmp	r2, #1
 18115 018c 09D1     		bne	.L128
 748:../../../SDK_embedded/libs/stm32/STM32_USB_FS_Device_Driver/usb_core.c ****       if (((*pProperty->Class_Get_Interface_Setting)(pInformation->USBwIndex0, 0) == USB_SUCCESS)
 18116              		.loc 1 748 0
 18117 018e 3848     		ldr	r0, .L160+36
 18118 0190 0268     		ldr	r2, [r0, #0]
 18119 0192 5879     		ldrb	r0, [r3, #5]	@ zero_extendqisi2
 18120 0194 9269     		ldr	r2, [r2, #24]
 18121 0196 9047     		blx	r2
 18122 0198 0028     		cmp	r0, #0
 18123 019a 73D1     		bne	.L132
 749:../../../SDK_embedded/libs/stm32/STM32_USB_FS_Device_Driver/usb_core.c ****           && (pInformation->Current_Configuration != 0))
 18124              		.loc 1 749 0
 18125 019c 2168     		ldr	r1, [r4, #0]
 18126 019e 8B7A     		ldrb	r3, [r1, #10]	@ zero_extendqisi2
 18127 01a0 23E0     		b	.L159
 18128              	.L128:
 756:../../../SDK_embedded/libs/stm32/STM32_USB_FS_Device_Driver/usb_core.c ****     else if (Type_Recipient == (STANDARD_REQUEST | ENDPOINT_RECIPIENT))
 18129              		.loc 1 756 0
 18130 01a2 022A     		cmp	r2, #2
 18131 01a4 6ED1     		bne	.L132
 758:../../../SDK_embedded/libs/stm32/STM32_USB_FS_Device_Driver/usb_core.c ****       Related_Endpoint = (pInformation->USBwIndex0 & 0x0f);
 18132              		.loc 1 758 0
 18133 01a6 5879     		ldrb	r0, [r3, #5]	@ zero_extendqisi2
 18134 01a8 00F00F02 		and	r2, r0, #15
 18135              	.LVL101:
 18136 01ac 4FEA820C 		lsl	ip, r2, #2
 761:../../../SDK_embedded/libs/stm32/STM32_USB_FS_Device_Driver/usb_core.c ****       if (ValBit(pInformation->USBwIndex0, 7))
 18137              		.loc 1 761 0
 18138 01b0 10F0800F 		tst	r0, #128
 759:../../../SDK_embedded/libs/stm32/STM32_USB_FS_Device_Driver/usb_core.c ****       Reserved = pInformation->USBwIndex0 & 0x70;
 18139              		.loc 1 759 0
 18140 01b4 00F0700E 		and	lr, r0, #112
 18141              	.LVL102:
 765:../../../SDK_embedded/libs/stm32/STM32_USB_FS_Device_Driver/usb_core.c ****         Status = _GetEPTxStatus(Related_Endpoint);
 18142              		.loc 1 765 0
 18143 01b8 0CF18041 		add	r1, ip, #1073741824
 772:../../../SDK_embedded/libs/stm32/STM32_USB_FS_Device_Driver/usb_core.c ****       if ((Related_Endpoint < Device_Table.Total_Endpoint) && (Reserved == 0)
 18144              		.loc 1 772 0
 18145 01bc 2F48     		ldr	r0, .L160+48
 765:../../../SDK_embedded/libs/stm32/STM32_USB_FS_Device_Driver/usb_core.c ****         Status = _GetEPTxStatus(Related_Endpoint);
 18146              		.loc 1 765 0
 18147 01be 01F5B843 		add	r3, r1, #23552
 18148 01c2 1B68     		ldr	r3, [r3, #0]
 772:../../../SDK_embedded/libs/stm32/STM32_USB_FS_Device_Driver/usb_core.c ****       if ((Related_Endpoint < Device_Table.Total_Endpoint) && (Reserved == 0)
 18149              		.loc 1 772 0
 18150 01c4 90F800C0 		ldrb	ip, [r0, #0]	@ zero_extendqisi2
 765:../../../SDK_embedded/libs/stm32/STM32_USB_FS_Device_Driver/usb_core.c ****         Status = _GetEPTxStatus(Related_Endpoint);
 18151              		.loc 1 765 0
 18152 01c8 14BF     		ite	ne
 18153 01ca 03F03003 		andne	r3, r3, #48
 18154              	.LVL103:
 769:../../../SDK_embedded/libs/stm32/STM32_USB_FS_Device_Driver/usb_core.c ****         Status = _GetEPRxStatus(Related_Endpoint);
 18155              		.loc 1 769 0
 18156 01ce 03F44053 		andeq	r3, r3, #12288
 18157              	.LVL104:
 772:../../../SDK_embedded/libs/stm32/STM32_USB_FS_Device_Driver/usb_core.c ****       if ((Related_Endpoint < Device_Table.Total_Endpoint) && (Reserved == 0)
 18158              		.loc 1 772 0
 18159 01d2 6245     		cmp	r2, ip
 18160 01d4 2CBF     		ite	cs
 18161 01d6 0022     		movcs	r2, #0
 18162              	.LVL105:
 18163 01d8 0122     		movcc	r2, #1
 18164 01da BEF1000F 		cmp	lr, #0
 18165 01de 14BF     		ite	ne
 18166 01e0 0022     		movne	r2, #0
 18167 01e2 02F00102 		andeq	r2, r2, #1
 18168 01e6 002A     		cmp	r2, #0
 18169 01e8 4CD0     		beq	.L132
 18170              	.LVL106:
 18171              	.L159:
 773:../../../SDK_embedded/libs/stm32/STM32_USB_FS_Device_Driver/usb_core.c ****           && (Status != 0))
 18172              		.loc 1 773 0
 18173 01ea 002B     		cmp	r3, #0
 18174 01ec 40F09680 		bne	.L151
 18175 01f0 48E0     		b	.L132
 18176              	.L125:
 782:../../../SDK_embedded/libs/stm32/STM32_USB_FS_Device_Driver/usb_core.c ****   else if (Request_No == GET_CONFIGURATION)
 18177              		.loc 1 782 0
 18178 01f2 082D     		cmp	r5, #8
 18179 01f4 04D1     		bne	.L131
 784:../../../SDK_embedded/libs/stm32/STM32_USB_FS_Device_Driver/usb_core.c ****     if (Type_Recipient == (STANDARD_REQUEST | DEVICE_RECIPIENT))
 18180              		.loc 1 784 0
 18181 01f6 1A78     		ldrb	r2, [r3, #0]	@ zero_extendqisi2
 18182 01f8 5306     		lsls	r3, r2, #25
 18183 01fa 00F09180 		beq	.L152
 18184 01fe 41E0     		b	.L132
 18185              	.L131:
 790:../../../SDK_embedded/libs/stm32/STM32_USB_FS_Device_Driver/usb_core.c ****   else if (Request_No == GET_INTERFACE)
 18186              		.loc 1 790 0
 18187 0200 0A2D     		cmp	r5, #10
 18188 0202 3FD1     		bne	.L132
 792:../../../SDK_embedded/libs/stm32/STM32_USB_FS_Device_Driver/usb_core.c ****     if ((Type_Recipient == (STANDARD_REQUEST | INTERFACE_RECIPIENT))
 18189              		.loc 1 792 0
 18190 0204 1978     		ldrb	r1, [r3, #0]	@ zero_extendqisi2
 18191 0206 01F07F0E 		and	lr, r1, #127
 18192 020a BEF1010F 		cmp	lr, #1
 18193 020e 39D1     		bne	.L132
 793:../../../SDK_embedded/libs/stm32/STM32_USB_FS_Device_Driver/usb_core.c ****         && (pInformation->Current_Configuration != 0) && (pInformation->USBwValue == 0)
 18194              		.loc 1 793 0
 18195 0210 987A     		ldrb	r0, [r3, #10]	@ zero_extendqisi2
 18196 0212 0028     		cmp	r0, #0
 18197 0214 36D0     		beq	.L132
 18198 0216 5988     		ldrh	r1, [r3, #2]
 18199 0218 0029     		cmp	r1, #0
 18200 021a 33D1     		bne	.L132
 794:../../../SDK_embedded/libs/stm32/STM32_USB_FS_Device_Driver/usb_core.c ****         && (pInformation->USBwIndex1 == 0) && (pInformation->USBwLength == 0x0001)
 18201              		.loc 1 794 0
 18202 021c 5A68     		ldr	r2, [r3, #4]
 18203 021e 22F47F4C 		bic	ip, r2, #65280
 18204 0222 BCF5803F 		cmp	ip, #65536
 18205 0226 2DD1     		bne	.L132
 795:../../../SDK_embedded/libs/stm32/STM32_USB_FS_Device_Driver/usb_core.c ****         && ((*pProperty->Class_Get_Interface_Setting)(pInformation->USBwIndex0, 0) == USB_SUCCESS))
 18206              		.loc 1 795 0
 18207 0228 1148     		ldr	r0, .L160+36
 18208 022a 0268     		ldr	r2, [r0, #0]
 18209 022c 5879     		ldrb	r0, [r3, #5]	@ zero_extendqisi2
 18210 022e 9369     		ldr	r3, [r2, #24]
 18211 0230 9847     		blx	r3
 797:../../../SDK_embedded/libs/stm32/STM32_USB_FS_Device_Driver/usb_core.c ****       CopyRoutine = Standard_GetInterface;
 18212              		.loc 1 797 0
 18213 0232 134B     		ldr	r3, .L160+52
 795:../../../SDK_embedded/libs/stm32/STM32_USB_FS_Device_Driver/usb_core.c ****         && ((*pProperty->Class_Get_Interface_Setting)(pInformation->USBwIndex0, 0) == USB_SUCCESS))
 18214              		.loc 1 795 0
 18215 0234 08B1     		cbz	r0, .L142
 18216 0236 25E0     		b	.L132
 18217              	.LVL107:
 18218              	.L123:
 802:../../../SDK_embedded/libs/stm32/STM32_USB_FS_Device_Driver/usb_core.c ****   if (CopyRoutine)
 18219              		.loc 1 802 0
 18220 0238 23B3     		cbz	r3, .L132
 18221              	.LVL108:
 18222              	.L142:
 804:../../../SDK_embedded/libs/stm32/STM32_USB_FS_Device_Driver/usb_core.c ****     pInformation->Ctrl_Info.Usb_wOffset = wOffset;
 18223              		.loc 1 804 0
 18224 023a 0648     		ldr	r0, .L160+8
 18225 023c 0021     		movs	r1, #0
 18226 023e 0268     		ldr	r2, [r0, #0]
 808:../../../SDK_embedded/libs/stm32/STM32_USB_FS_Device_Driver/usb_core.c ****     (*CopyRoutine)(0);
 18227              		.loc 1 808 0
 18228 0240 0020     		movs	r0, #0
 804:../../../SDK_embedded/libs/stm32/STM32_USB_FS_Device_Driver/usb_core.c ****     pInformation->Ctrl_Info.Usb_wOffset = wOffset;
 18229              		.loc 1 804 0
 18230 0242 5182     		strh	r1, [r2, #18]	@ movhi
 805:../../../SDK_embedded/libs/stm32/STM32_USB_FS_Device_Driver/usb_core.c ****     pInformation->Ctrl_Info.CopyData = CopyRoutine;
 18231              		.loc 1 805 0
 18232 0244 9361     		str	r3, [r2, #24]
 808:../../../SDK_embedded/libs/stm32/STM32_USB_FS_Device_Driver/usb_core.c ****     (*CopyRoutine)(0);
 18233              		.loc 1 808 0
 18234 0246 9847     		blx	r3
 18235              	.LVL109:
 809:../../../SDK_embedded/libs/stm32/STM32_USB_FS_Device_Driver/usb_core.c ****     Result = USB_SUCCESS;
 18236              		.loc 1 809 0
 18237 0248 0020     		movs	r0, #0
 18238 024a 26E0     		b	.L133
 18239              	.L161:
 18240              		.align	2
 18241              	.L160:
 18242 024c 505C0040 		.word	1073765456
 18243 0250 04300020 		.word	536883204
 18244 0254 00000000 		.word	pInformation
 18245 0258 00000000 		.word	ByteSwap
 18246 025c 00000000 		.word	Standard_SetConfiguration
 18247 0260 00000000 		.word	Standard_SetDeviceFeature
 18248 0264 00000000 		.word	Standard_SetInterface
 18249 0268 00000000 		.word	Standard_ClearFeature
 18250 026c 00000000 		.word	Standard_SetEndPointFeature
 18251 0270 00000000 		.word	pProperty
 18252 0274 02300020 		.word	536883202
 18253 0278 00000000 		.word	SaveTState
 18254 027c 00000000 		.word	Device_Table
 18255 0280 00000000 		.word	Standard_GetInterface
 18256              	.LVL110:
 18257              	.L132:
 813:../../../SDK_embedded/libs/stm32/STM32_USB_FS_Device_Driver/usb_core.c ****     Result = (*pProperty->Class_Data_Setup)(pInformation->USBbRequest);
 18258              		.loc 1 813 0
 18259 0284 274C     		ldr	r4, .L162
 18260 0286 2168     		ldr	r1, [r4, #0]
 18261 0288 274C     		ldr	r4, .L162+4
 18262 028a 0B69     		ldr	r3, [r1, #16]
 18263 028c 2268     		ldr	r2, [r4, #0]
 18264 028e 5078     		ldrb	r0, [r2, #1]	@ zero_extendqisi2
 18265 0290 9847     		blx	r3
 18266              	.LVL111:
 814:../../../SDK_embedded/libs/stm32/STM32_USB_FS_Device_Driver/usb_core.c ****     if (Result == USB_NOT_READY)
 18267              		.loc 1 814 0
 18268 0292 0328     		cmp	r0, #3
 816:../../../SDK_embedded/libs/stm32/STM32_USB_FS_Device_Driver/usb_core.c ****       pInformation->ControlState = PAUSE;
 18269              		.loc 1 816 0
 18270 0294 08BF     		it	eq
 18271 0296 2368     		ldreq	r3, [r4, #0]
 814:../../../SDK_embedded/libs/stm32/STM32_USB_FS_Device_Driver/usb_core.c ****     if (Result == USB_NOT_READY)
 18272              		.loc 1 814 0
 18273 0298 06D0     		beq	.L158
 18274              	.LVL112:
 18275              	.L133:
 821:../../../SDK_embedded/libs/stm32/STM32_USB_FS_Device_Driver/usb_core.c ****   if (pInformation->Ctrl_Info.Usb_wLength == 0xFFFF)
 18276              		.loc 1 821 0
 18277 029a 234B     		ldr	r3, .L162+4
 18278 029c 4FF6FF7E 		movw	lr, #65535
 18279 02a0 1B68     		ldr	r3, [r3, #0]
 18280 02a2 1A8A     		ldrh	r2, [r3, #16]
 18281 02a4 7245     		cmp	r2, lr
 18282 02a6 01D1     		bne	.L134
 18283              	.LVL113:
 18284              	.L158:
 824:../../../SDK_embedded/libs/stm32/STM32_USB_FS_Device_Driver/usb_core.c ****     pInformation->ControlState = PAUSE;
 18285              		.loc 1 824 0
 18286 02a8 0922     		movs	r2, #9
 18287 02aa 03E0     		b	.L156
 18288              	.LVL114:
 18289              	.L134:
 827:../../../SDK_embedded/libs/stm32/STM32_USB_FS_Device_Driver/usb_core.c ****   if ((Result == USB_UNSUPPORT) || (pInformation->Ctrl_Info.Usb_wLength == 0))
 18290              		.loc 1 827 0
 18291 02ac 0228     		cmp	r0, #2
 18292 02ae 00D0     		beq	.L135
 18293 02b0 12B9     		cbnz	r2, .L136
 18294              	.L135:
 830:../../../SDK_embedded/libs/stm32/STM32_USB_FS_Device_Driver/usb_core.c ****     pInformation->ControlState = STALLED;
 18295              		.loc 1 830 0
 18296 02b2 0822     		movs	r2, #8
 18297              	.LVL115:
 18298              	.L156:
 18299 02b4 1A72     		strb	r2, [r3, #8]
 18300 02b6 2EE0     		b	.L119
 18301              	.LVL116:
 18302              	.L136:
 835:../../../SDK_embedded/libs/stm32/STM32_USB_FS_Device_Driver/usb_core.c ****   if (ValBit(pInformation->USBbmRequestType, 7))
 18303              		.loc 1 835 0
 18304 02b8 93F900C0 		ldrsb	ip, [r3, #0]
 18305 02bc BCF1000F 		cmp	ip, #0
 18306 02c0 22DA     		bge	.L137
 18307              	.LBB43:
 838:../../../SDK_embedded/libs/stm32/STM32_USB_FS_Device_Driver/usb_core.c ****     __IO uint32_t wLength = pInformation->USBwLength;
 18308              		.loc 1 838 0
 18309 02c2 D988     		ldrh	r1, [r3, #6]
 18310 02c4 0191     		str	r1, [sp, #4]
 18311              	.LVL117:
 841:../../../SDK_embedded/libs/stm32/STM32_USB_FS_Device_Driver/usb_core.c ****     if (pInformation->Ctrl_Info.Usb_wLength > wLength)
 18312              		.loc 1 841 0
 18313 02c6 0198     		ldr	r0, [sp, #4]
 18314              	.LVL118:
 18315 02c8 8242     		cmp	r2, r0
 843:../../../SDK_embedded/libs/stm32/STM32_USB_FS_Device_Driver/usb_core.c ****       pInformation->Ctrl_Info.Usb_wLength = wLength;
 18316              		.loc 1 843 0
 18317 02ca 84BF     		itt	hi
 18318 02cc 019A     		ldrhi	r2, [sp, #4]
 18319 02ce 1A82     		strhhi	r2, [r3, #16]	@ movhi
 841:../../../SDK_embedded/libs/stm32/STM32_USB_FS_Device_Driver/usb_core.c ****     if (pInformation->Ctrl_Info.Usb_wLength > wLength)
 18320              		.loc 1 841 0
 18321 02d0 11D8     		bhi	.L139
 846:../../../SDK_embedded/libs/stm32/STM32_USB_FS_Device_Driver/usb_core.c ****     else if (pInformation->Ctrl_Info.Usb_wLength < pInformation->USBwLength)
 18322              		.loc 1 846 0
 18323 02d2 8A42     		cmp	r2, r1
 18324 02d4 0FD2     		bcs	.L139
 848:../../../SDK_embedded/libs/stm32/STM32_USB_FS_Device_Driver/usb_core.c ****       if (pInformation->Ctrl_Info.Usb_wLength < pProperty->MaxPacketSize)
 18325              		.loc 1 848 0
 18326 02d6 1348     		ldr	r0, .L162
 18327 02d8 0168     		ldr	r1, [r0, #0]
 18328 02da 91F82C10 		ldrb	r1, [r1, #44]	@ zero_extendqisi2
 18329 02de 8A42     		cmp	r2, r1
 18330 02e0 01D2     		bcs	.L140
 850:../../../SDK_embedded/libs/stm32/STM32_USB_FS_Device_Driver/usb_core.c ****         Data_Mul_MaxPacketSize = FALSE;
 18331              		.loc 1 850 0
 18332 02e2 0021     		movs	r1, #0
 18333 02e4 05E0     		b	.L155
 18334              	.L140:
 852:../../../SDK_embedded/libs/stm32/STM32_USB_FS_Device_Driver/usb_core.c ****       else if ((pInformation->Ctrl_Info.Usb_wLength % pProperty->MaxPacketSize) == 0)
 18335              		.loc 1 852 0
 18336 02e6 92FBF1FE 		sdiv	lr, r2, r1
 18337 02ea 01FB1E22 		mls	r2, r1, lr, r2
 18338 02ee 12B9     		cbnz	r2, .L139
 854:../../../SDK_embedded/libs/stm32/STM32_USB_FS_Device_Driver/usb_core.c ****         Data_Mul_MaxPacketSize = TRUE;
 18339              		.loc 1 854 0
 18340 02f0 0121     		movs	r1, #1
 18341              	.L155:
 18342 02f2 0E48     		ldr	r0, .L162+8
 18343 02f4 0170     		strb	r1, [r0, #0]
 18344              	.L139:
 858:../../../SDK_embedded/libs/stm32/STM32_USB_FS_Device_Driver/usb_core.c ****     pInformation->Ctrl_Info.PacketSize = pProperty->MaxPacketSize;
 18345              		.loc 1 858 0
 18346 02f6 0B4A     		ldr	r2, .L162
 18347 02f8 1168     		ldr	r1, [r2, #0]
 18348 02fa 91F82CC0 		ldrb	ip, [r1, #44]	@ zero_extendqisi2
 18349 02fe A3F814C0 		strh	ip, [r3, #20]	@ movhi
 859:../../../SDK_embedded/libs/stm32/STM32_USB_FS_Device_Driver/usb_core.c ****     DataStageIn();
 18350              		.loc 1 859 0
 18351 0302 0B4B     		ldr	r3, .L162+12
 18352 0304 9847     		blx	r3
 18353 0306 06E0     		b	.L119
 18354              	.LVL119:
 18355              	.L137:
 18356              	.LBE43:
 864:../../../SDK_embedded/libs/stm32/STM32_USB_FS_Device_Driver/usb_core.c ****     vSetEPRxStatus(EP_RX_VALID); /* enable for next data reception */
 18357              		.loc 1 864 0
 18358 0308 0A48     		ldr	r0, .L162+16
 18359              	.LVL120:
 863:../../../SDK_embedded/libs/stm32/STM32_USB_FS_Device_Driver/usb_core.c ****     pInformation->ControlState = OUT_DATA;
 18360              		.loc 1 863 0
 18361 030a 0321     		movs	r1, #3
 864:../../../SDK_embedded/libs/stm32/STM32_USB_FS_Device_Driver/usb_core.c ****     vSetEPRxStatus(EP_RX_VALID); /* enable for next data reception */
 18362              		.loc 1 864 0
 18363 030c 4FF4405E 		mov	lr, #12288	@ movhi
 863:../../../SDK_embedded/libs/stm32/STM32_USB_FS_Device_Driver/usb_core.c ****     pInformation->ControlState = OUT_DATA;
 18364              		.loc 1 863 0
 18365 0310 1972     		strb	r1, [r3, #8]
 864:../../../SDK_embedded/libs/stm32/STM32_USB_FS_Device_Driver/usb_core.c ****     vSetEPRxStatus(EP_RX_VALID); /* enable for next data reception */
 18366              		.loc 1 864 0
 18367 0312 A0F800E0 		strh	lr, [r0, #0]	@ movhi
 18368              	.LVL121:
 18369              	.L119:
 18370              	.LBE41:
 18371              	.LBE40:
 921:../../../SDK_embedded/libs/stm32/STM32_USB_FS_Device_Driver/usb_core.c ****   return Post0_Process();
 18372              		.loc 1 921 0
 18373 0316 084B     		ldr	r3, .L162+20
 18374 0318 9847     		blx	r3
 922:../../../SDK_embedded/libs/stm32/STM32_USB_FS_Device_Driver/usb_core.c **** }
 18375              		.loc 1 922 0
 18376 031a FEBD     		pop	{r1, r2, r3, r4, r5, r6, r7, pc}
 18377              	.LVL122:
 18378              	.L151:
 18379              	.LBB45:
 18380              	.LBB44:
 775:../../../SDK_embedded/libs/stm32/STM32_USB_FS_Device_Driver/usb_core.c ****         CopyRoutine = Standard_GetStatus;
 18381              		.loc 1 775 0
 18382 031c 074B     		ldr	r3, .L162+24
 18383 031e 8CE7     		b	.L142
 18384              	.L152:
 786:../../../SDK_embedded/libs/stm32/STM32_USB_FS_Device_Driver/usb_core.c ****       CopyRoutine = Standard_GetConfiguration;
 18385              		.loc 1 786 0
 18386 0320 074B     		ldr	r3, .L162+28
 18387 0322 8AE7     		b	.L142
 18388              	.L163:
 18389              		.align	2
 18390              	.L162:
 18391 0324 00000000 		.word	pProperty
 18392 0328 00000000 		.word	pInformation
 18393 032c 00000000 		.word	.LANCHOR0
 18394 0330 00000000 		.word	DataStageIn
 18395 0334 00000000 		.word	SaveRState
 18396 0338 00000000 		.word	Post0_Process
 18397 033c 00000000 		.word	Standard_GetStatus
 18398 0340 00000000 		.word	Standard_GetConfiguration
 18399              	.LBE44:
 18400              	.LBE45:
 18401              		.cfi_endproc
 18402              	.LFE42:
 18404              		.section	.text.SetDeviceAddress,"ax",%progbits
 18405              		.align	1
 18406              		.global	SetDeviceAddress
 18407              		.thumb
 18408              		.thumb_func
 18410              	SetDeviceAddress:
 18411              	.LFB46:
1050:../../../SDK_embedded/libs/stm32/STM32_USB_FS_Device_Driver/usb_core.c **** 
1051:../../../SDK_embedded/libs/stm32/STM32_USB_FS_Device_Driver/usb_core.c **** /*******************************************************************************
1052:../../../SDK_embedded/libs/stm32/STM32_USB_FS_Device_Driver/usb_core.c **** * Function Name  : SetDeviceAddress.
1053:../../../SDK_embedded/libs/stm32/STM32_USB_FS_Device_Driver/usb_core.c **** * Description    : Set the device and all the used Endpoints addresses.
1054:../../../SDK_embedded/libs/stm32/STM32_USB_FS_Device_Driver/usb_core.c **** * Input          : - Val: device adress.
1055:../../../SDK_embedded/libs/stm32/STM32_USB_FS_Device_Driver/usb_core.c **** * Output         : None.
1056:../../../SDK_embedded/libs/stm32/STM32_USB_FS_Device_Driver/usb_core.c **** * Return         : None.
1057:../../../SDK_embedded/libs/stm32/STM32_USB_FS_Device_Driver/usb_core.c **** *******************************************************************************/
1058:../../../SDK_embedded/libs/stm32/STM32_USB_FS_Device_Driver/usb_core.c **** void SetDeviceAddress(uint8_t Val)
1059:../../../SDK_embedded/libs/stm32/STM32_USB_FS_Device_Driver/usb_core.c **** {
 18412              		.loc 1 1059 0
 18413              		.cfi_startproc
 18414              		@ args = 0, pretend = 0, frame = 0
 18415              		@ frame_needed = 0, uses_anonymous_args = 0
 18416              	.LVL123:
 18417 0000 70B5     		push	{r4, r5, r6, lr}
 18418              	.LCFI12:
 18419              		.cfi_def_cfa_offset 16
 18420              		.cfi_offset 14, -4
 18421              		.cfi_offset 6, -8
 18422              		.cfi_offset 5, -12
 18423              		.cfi_offset 4, -16
1060:../../../SDK_embedded/libs/stm32/STM32_USB_FS_Device_Driver/usb_core.c **** #ifdef STM32F10X_CL 
1061:../../../SDK_embedded/libs/stm32/STM32_USB_FS_Device_Driver/usb_core.c ****   PCD_EP_SetAddress ((uint8_t)Val);
1062:../../../SDK_embedded/libs/stm32/STM32_USB_FS_Device_Driver/usb_core.c **** #else 
1063:../../../SDK_embedded/libs/stm32/STM32_USB_FS_Device_Driver/usb_core.c ****   uint32_t i;
1064:../../../SDK_embedded/libs/stm32/STM32_USB_FS_Device_Driver/usb_core.c ****   uint32_t nEP = Device_Table.Total_Endpoint;
 18424              		.loc 1 1064 0
 18425 0002 0F4B     		ldr	r3, .L167
 18426 0004 1C78     		ldrb	r4, [r3, #0]	@ zero_extendqisi2
 18427              	.LVL124:
1065:../../../SDK_embedded/libs/stm32/STM32_USB_FS_Device_Driver/usb_core.c **** 
1066:../../../SDK_embedded/libs/stm32/STM32_USB_FS_Device_Driver/usb_core.c ****   /* set address in every used endpoint */
1067:../../../SDK_embedded/libs/stm32/STM32_USB_FS_Device_Driver/usb_core.c ****   for (i = 0; i < nEP; i++)
 18428              		.loc 1 1067 0
 18429 0006 0023     		movs	r3, #0
 18430 0008 12E0     		b	.L165
 18431              	.LVL125:
 18432              	.L166:
1068:../../../SDK_embedded/libs/stm32/STM32_USB_FS_Device_Driver/usb_core.c ****   {
1069:../../../SDK_embedded/libs/stm32/STM32_USB_FS_Device_Driver/usb_core.c ****     _SetEPAddress((uint8_t)i, (uint8_t)i);
 18433              		.loc 1 1069 0 discriminator 2
 18434 000a DAB2     		uxtb	r2, r3
 18435 000c 9100     		lsls	r1, r2, #2
 18436 000e 01F18046 		add	r6, r1, #1073741824
 18437 0012 06F5B841 		add	r1, r6, #23552
 18438 0016 0E68     		ldr	r6, [r1, #0]
 18439 0018 42F40045 		orr	r5, r2, #32768
 18440 001c 40F60F72 		movw	r2, #3855
 18441 0020 45F08005 		orr	r5, r5, #128
 18442 0024 06EA020C 		and	ip, r6, r2
 18443 0028 45EA0C02 		orr	r2, r5, ip
 18444 002c 0A60     		str	r2, [r1, #0]
1067:../../../SDK_embedded/libs/stm32/STM32_USB_FS_Device_Driver/usb_core.c ****   for (i = 0; i < nEP; i++)
 18445              		.loc 1 1067 0 discriminator 2
 18446 002e 0133     		adds	r3, r3, #1
 18447              	.LVL126:
 18448              	.L165:
1067:../../../SDK_embedded/libs/stm32/STM32_USB_FS_Device_Driver/usb_core.c ****   for (i = 0; i < nEP; i++)
 18449              		.loc 1 1067 0 is_stmt 0 discriminator 1
 18450 0030 A342     		cmp	r3, r4
 18451 0032 EAD3     		bcc	.L166
1070:../../../SDK_embedded/libs/stm32/STM32_USB_FS_Device_Driver/usb_core.c ****   } /* for */
1071:../../../SDK_embedded/libs/stm32/STM32_USB_FS_Device_Driver/usb_core.c ****   _SetDADDR(Val | DADDR_EF); /* set device address and enable function */
 18452              		.loc 1 1071 0 is_stmt 1
 18453 0034 034B     		ldr	r3, .L167+4
 18454              	.LVL127:
 18455 0036 40F08000 		orr	r0, r0, #128
 18456              	.LVL128:
 18457 003a 1860     		str	r0, [r3, #0]
1072:../../../SDK_embedded/libs/stm32/STM32_USB_FS_Device_Driver/usb_core.c **** #endif  /* STM32F10X_CL */  
1073:../../../SDK_embedded/libs/stm32/STM32_USB_FS_Device_Driver/usb_core.c **** }
 18458              		.loc 1 1073 0
 18459 003c 70BD     		pop	{r4, r5, r6, pc}
 18460              	.L168:
 18461 003e 00BF     		.align	2
 18462              	.L167:
 18463 0040 00000000 		.word	Device_Table
 18464 0044 4C5C0040 		.word	1073765452
 18465              		.cfi_endproc
 18466              	.LFE46:
 18468              		.section	.text.In0_Process,"ax",%progbits
 18469              		.align	1
 18470              		.global	In0_Process
 18471              		.thumb
 18472              		.thumb_func
 18474              	In0_Process:
 18475              	.LFB43:
 932:../../../SDK_embedded/libs/stm32/STM32_USB_FS_Device_Driver/usb_core.c **** {
 18476              		.loc 1 932 0
 18477              		.cfi_startproc
 18478              		@ args = 0, pretend = 0, frame = 0
 18479              		@ frame_needed = 0, uses_anonymous_args = 0
 18480 0000 10B5     		push	{r4, lr}
 18481              	.LCFI13:
 18482              		.cfi_def_cfa_offset 8
 18483              		.cfi_offset 14, -4
 18484              		.cfi_offset 4, -8
 933:../../../SDK_embedded/libs/stm32/STM32_USB_FS_Device_Driver/usb_core.c ****   uint32_t ControlState = pInformation->ControlState;
 18485              		.loc 1 933 0
 18486 0002 174C     		ldr	r4, .L174
 18487 0004 2368     		ldr	r3, [r4, #0]
 18488 0006 1A7A     		ldrb	r2, [r3, #8]	@ zero_extendqisi2
 18489              	.LVL129:
 935:../../../SDK_embedded/libs/stm32/STM32_USB_FS_Device_Driver/usb_core.c ****   if ((ControlState == IN_DATA) || (ControlState == LAST_IN_DATA))
 18490              		.loc 1 935 0
 18491 0008 A2F10200 		sub	r0, r2, #2
 18492 000c D0F1000C 		rsbs	ip, r0, #0
 18493 0010 4CEB0001 		adc	r1, ip, r0
 18494 0014 042A     		cmp	r2, #4
 18495 0016 08BF     		it	eq
 18496 0018 41F00101 		orreq	r1, r1, #1
 18497 001c 21B1     		cbz	r1, .L170
 937:../../../SDK_embedded/libs/stm32/STM32_USB_FS_Device_Driver/usb_core.c ****     DataStageIn();
 18498              		.loc 1 937 0
 18499 001e 114A     		ldr	r2, .L174+4
 18500              	.LVL130:
 18501 0020 9047     		blx	r2
 18502              	.LVL131:
 939:../../../SDK_embedded/libs/stm32/STM32_USB_FS_Device_Driver/usb_core.c ****     ControlState = pInformation->ControlState;
 18503              		.loc 1 939 0
 18504 0022 2368     		ldr	r3, [r4, #0]
 18505 0024 1B7A     		ldrb	r3, [r3, #8]	@ zero_extendqisi2
 18506              	.LVL132:
 18507 0026 15E0     		b	.L171
 18508              	.LVL133:
 18509              	.L170:
 942:../../../SDK_embedded/libs/stm32/STM32_USB_FS_Device_Driver/usb_core.c ****   else if (ControlState == WAIT_STATUS_IN)
 18510              		.loc 1 942 0
 18511 0028 062A     		cmp	r2, #6
 18512 002a 12D1     		bne	.L173
 944:../../../SDK_embedded/libs/stm32/STM32_USB_FS_Device_Driver/usb_core.c ****     if ((pInformation->USBbRequest == SET_ADDRESS) &&
 18513              		.loc 1 944 0
 18514 002c 93F801E0 		ldrb	lr, [r3, #1]	@ zero_extendqisi2
 18515 0030 BEF1050F 		cmp	lr, #5
 18516 0034 09D1     		bne	.L172
 945:../../../SDK_embedded/libs/stm32/STM32_USB_FS_Device_Driver/usb_core.c ****         (Type_Recipient == (STANDARD_REQUEST | DEVICE_RECIPIENT)))
 18517              		.loc 1 945 0 discriminator 1
 18518 0036 1978     		ldrb	r1, [r3, #0]	@ zero_extendqisi2
 944:../../../SDK_embedded/libs/stm32/STM32_USB_FS_Device_Driver/usb_core.c ****     if ((pInformation->USBbRequest == SET_ADDRESS) &&
 18519              		.loc 1 944 0 discriminator 1
 18520 0038 4A06     		lsls	r2, r1, #25
 18521              	.LVL134:
 18522 003a 06D1     		bne	.L172
 947:../../../SDK_embedded/libs/stm32/STM32_USB_FS_Device_Driver/usb_core.c ****       SetDeviceAddress(pInformation->USBwValue0);
 18523              		.loc 1 947 0
 18524 003c D878     		ldrb	r0, [r3, #3]	@ zero_extendqisi2
 18525              	.LVL135:
 18526 003e 0A49     		ldr	r1, .L174+8
 18527 0040 8847     		blx	r1
 948:../../../SDK_embedded/libs/stm32/STM32_USB_FS_Device_Driver/usb_core.c ****       pUser_Standard_Requests->User_SetDeviceAddress();
 18528              		.loc 1 948 0
 18529 0042 0A4A     		ldr	r2, .L174+12
 18530 0044 1368     		ldr	r3, [r2, #0]
 18531 0046 186A     		ldr	r0, [r3, #32]
 18532 0048 8047     		blx	r0
 18533              	.L172:
 950:../../../SDK_embedded/libs/stm32/STM32_USB_FS_Device_Driver/usb_core.c ****     (*pProperty->Process_Status_IN)();
 18534              		.loc 1 950 0
 18535 004a 094A     		ldr	r2, .L174+16
 18536 004c 1368     		ldr	r3, [r2, #0]
 18537 004e 9868     		ldr	r0, [r3, #8]
 18538 0050 8047     		blx	r0
 18539              	.LVL136:
 18540              	.L173:
 956:../../../SDK_embedded/libs/stm32/STM32_USB_FS_Device_Driver/usb_core.c ****     ControlState = STALLED;
 18541              		.loc 1 956 0
 18542 0052 0823     		movs	r3, #8
 18543              	.L171:
 18544              	.LVL137:
 959:../../../SDK_embedded/libs/stm32/STM32_USB_FS_Device_Driver/usb_core.c ****   pInformation->ControlState = ControlState;
 18545              		.loc 1 959 0
 18546 0054 024A     		ldr	r2, .L174
 961:../../../SDK_embedded/libs/stm32/STM32_USB_FS_Device_Driver/usb_core.c ****   return Post0_Process();
 18547              		.loc 1 961 0
 18548 0056 0749     		ldr	r1, .L174+20
 959:../../../SDK_embedded/libs/stm32/STM32_USB_FS_Device_Driver/usb_core.c ****   pInformation->ControlState = ControlState;
 18549              		.loc 1 959 0
 18550 0058 1068     		ldr	r0, [r2, #0]
 18551 005a 0372     		strb	r3, [r0, #8]
 961:../../../SDK_embedded/libs/stm32/STM32_USB_FS_Device_Driver/usb_core.c ****   return Post0_Process();
 18552              		.loc 1 961 0
 18553 005c 8847     		blx	r1
 18554              	.LVL138:
 962:../../../SDK_embedded/libs/stm32/STM32_USB_FS_Device_Driver/usb_core.c **** }
 18555              		.loc 1 962 0
 18556 005e 10BD     		pop	{r4, pc}
 18557              	.L175:
 18558              		.align	2
 18559              	.L174:
 18560 0060 00000000 		.word	pInformation
 18561 0064 00000000 		.word	DataStageIn
 18562 0068 00000000 		.word	SetDeviceAddress
 18563 006c 00000000 		.word	pUser_Standard_Requests
 18564 0070 00000000 		.word	pProperty
 18565 0074 00000000 		.word	Post0_Process
 18566              		.cfi_endproc
 18567              	.LFE43:
 18569              		.section	.text.NOP_Process,"ax",%progbits
 18570              		.align	1
 18571              		.global	NOP_Process
 18572              		.thumb
 18573              		.thumb_func
 18575              	NOP_Process:
 18576              	.LFB47:
1074:../../../SDK_embedded/libs/stm32/STM32_USB_FS_Device_Driver/usb_core.c **** 
1075:../../../SDK_embedded/libs/stm32/STM32_USB_FS_Device_Driver/usb_core.c **** /*******************************************************************************
1076:../../../SDK_embedded/libs/stm32/STM32_USB_FS_Device_Driver/usb_core.c **** * Function Name  : NOP_Process
1077:../../../SDK_embedded/libs/stm32/STM32_USB_FS_Device_Driver/usb_core.c **** * Description    : No operation function.
1078:../../../SDK_embedded/libs/stm32/STM32_USB_FS_Device_Driver/usb_core.c **** * Input          : None.
1079:../../../SDK_embedded/libs/stm32/STM32_USB_FS_Device_Driver/usb_core.c **** * Output         : None.
1080:../../../SDK_embedded/libs/stm32/STM32_USB_FS_Device_Driver/usb_core.c **** * Return         : None.
1081:../../../SDK_embedded/libs/stm32/STM32_USB_FS_Device_Driver/usb_core.c **** *******************************************************************************/
1082:../../../SDK_embedded/libs/stm32/STM32_USB_FS_Device_Driver/usb_core.c **** void NOP_Process(void)
1083:../../../SDK_embedded/libs/stm32/STM32_USB_FS_Device_Driver/usb_core.c **** {
 18577              		.loc 1 1083 0
 18578              		.cfi_startproc
 18579              		@ args = 0, pretend = 0, frame = 0
 18580              		@ frame_needed = 0, uses_anonymous_args = 0
 18581              		@ link register save eliminated.
1084:../../../SDK_embedded/libs/stm32/STM32_USB_FS_Device_Driver/usb_core.c **** }
 18582              		.loc 1 1084 0
 18583 0000 7047     		bx	lr
 18584              		.cfi_endproc
 18585              	.LFE47:
 18587              		.global	Data_Mul_MaxPacketSize
 18588              		.comm	StatusInfo,2,2
 18589              		.section	.bss.Data_Mul_MaxPacketSize,"aw",%nobits
 18590              		.set	.LANCHOR0,. + 0
 18593              	Data_Mul_MaxPacketSize:
 18594 0000 00       		.space	1
 18595              		.text
 18596              	.Letext0: