   1              		.syntax unified
   2              		.cpu cortex-m3
   3              		.fpu softvfp
   4              		.eabi_attribute 20, 1
   5              		.eabi_attribute 21, 1
   6              		.eabi_attribute 23, 3
   7              		.eabi_attribute 24, 1
   8              		.eabi_attribute 25, 1
   9              		.eabi_attribute 26, 1
  10              		.eabi_attribute 30, 4
  11              		.eabi_attribute 18, 4
  12              		.thumb
  13              		.file	"stm32f10x_adc.c"
  23              	.Ltext0:
 16829              		.align	1
 16830              		.global	ADC_DeInit
 16831              		.thumb
 16832              		.thumb_func
 16834              	ADC_DeInit:
 16835              	.LFB29:
   1:../../../SDK_embedded/libs/stm32/STM32F10x_StdPeriph_Driver/stm32f10x_adc.c **** /**
   2:../../../SDK_embedded/libs/stm32/STM32F10x_StdPeriph_Driver/stm32f10x_adc.c ****   ******************************************************************************
   3:../../../SDK_embedded/libs/stm32/STM32F10x_StdPeriph_Driver/stm32f10x_adc.c ****   * @file    stm32f10x_adc.c
   4:../../../SDK_embedded/libs/stm32/STM32F10x_StdPeriph_Driver/stm32f10x_adc.c ****   * @author  MCD Application Team
   5:../../../SDK_embedded/libs/stm32/STM32F10x_StdPeriph_Driver/stm32f10x_adc.c ****   * @version V3.3.0
   6:../../../SDK_embedded/libs/stm32/STM32F10x_StdPeriph_Driver/stm32f10x_adc.c ****   * @date    04/16/2010
   7:../../../SDK_embedded/libs/stm32/STM32F10x_StdPeriph_Driver/stm32f10x_adc.c ****   * @brief   This file provides all the ADC firmware functions.
   8:../../../SDK_embedded/libs/stm32/STM32F10x_StdPeriph_Driver/stm32f10x_adc.c ****   ******************************************************************************
   9:../../../SDK_embedded/libs/stm32/STM32F10x_StdPeriph_Driver/stm32f10x_adc.c ****   * @copy
  10:../../../SDK_embedded/libs/stm32/STM32F10x_StdPeriph_Driver/stm32f10x_adc.c ****   *
  11:../../../SDK_embedded/libs/stm32/STM32F10x_StdPeriph_Driver/stm32f10x_adc.c ****   * THE PRESENT FIRMWARE WHICH IS FOR GUIDANCE ONLY AIMS AT PROVIDING CUSTOMERS
  12:../../../SDK_embedded/libs/stm32/STM32F10x_StdPeriph_Driver/stm32f10x_adc.c ****   * WITH CODING INFORMATION REGARDING THEIR PRODUCTS IN ORDER FOR THEM TO SAVE
  13:../../../SDK_embedded/libs/stm32/STM32F10x_StdPeriph_Driver/stm32f10x_adc.c ****   * TIME. AS A RESULT, STMICROELECTRONICS SHALL NOT BE HELD LIABLE FOR ANY
  14:../../../SDK_embedded/libs/stm32/STM32F10x_StdPeriph_Driver/stm32f10x_adc.c ****   * DIRECT, INDIRECT OR CONSEQUENTIAL DAMAGES WITH RESPECT TO ANY CLAIMS ARISING
  15:../../../SDK_embedded/libs/stm32/STM32F10x_StdPeriph_Driver/stm32f10x_adc.c ****   * FROM THE CONTENT OF SUCH FIRMWARE AND/OR THE USE MADE BY CUSTOMERS OF THE
  16:../../../SDK_embedded/libs/stm32/STM32F10x_StdPeriph_Driver/stm32f10x_adc.c ****   * CODING INFORMATION CONTAINED HEREIN IN CONNECTION WITH THEIR PRODUCTS.
  17:../../../SDK_embedded/libs/stm32/STM32F10x_StdPeriph_Driver/stm32f10x_adc.c ****   *
  18:../../../SDK_embedded/libs/stm32/STM32F10x_StdPeriph_Driver/stm32f10x_adc.c ****   * <h2><center>&copy; COPYRIGHT 2010 STMicroelectronics</center></h2>
  19:../../../SDK_embedded/libs/stm32/STM32F10x_StdPeriph_Driver/stm32f10x_adc.c ****   */ 
  20:../../../SDK_embedded/libs/stm32/STM32F10x_StdPeriph_Driver/stm32f10x_adc.c **** 
  21:../../../SDK_embedded/libs/stm32/STM32F10x_StdPeriph_Driver/stm32f10x_adc.c **** /* Includes ------------------------------------------------------------------*/
  22:../../../SDK_embedded/libs/stm32/STM32F10x_StdPeriph_Driver/stm32f10x_adc.c **** #include "stm32f10x_adc.h"
  23:../../../SDK_embedded/libs/stm32/STM32F10x_StdPeriph_Driver/stm32f10x_adc.c **** #include "stm32f10x_rcc.h"
  24:../../../SDK_embedded/libs/stm32/STM32F10x_StdPeriph_Driver/stm32f10x_adc.c **** 
  25:../../../SDK_embedded/libs/stm32/STM32F10x_StdPeriph_Driver/stm32f10x_adc.c **** /** @addtogroup STM32F10x_StdPeriph_Driver
  26:../../../SDK_embedded/libs/stm32/STM32F10x_StdPeriph_Driver/stm32f10x_adc.c ****   * @{
  27:../../../SDK_embedded/libs/stm32/STM32F10x_StdPeriph_Driver/stm32f10x_adc.c ****   */
  28:../../../SDK_embedded/libs/stm32/STM32F10x_StdPeriph_Driver/stm32f10x_adc.c **** 
  29:../../../SDK_embedded/libs/stm32/STM32F10x_StdPeriph_Driver/stm32f10x_adc.c **** /** @defgroup ADC 
  30:../../../SDK_embedded/libs/stm32/STM32F10x_StdPeriph_Driver/stm32f10x_adc.c ****   * @brief ADC driver modules
  31:../../../SDK_embedded/libs/stm32/STM32F10x_StdPeriph_Driver/stm32f10x_adc.c ****   * @{
  32:../../../SDK_embedded/libs/stm32/STM32F10x_StdPeriph_Driver/stm32f10x_adc.c ****   */
  33:../../../SDK_embedded/libs/stm32/STM32F10x_StdPeriph_Driver/stm32f10x_adc.c **** 
  34:../../../SDK_embedded/libs/stm32/STM32F10x_StdPeriph_Driver/stm32f10x_adc.c **** /** @defgroup ADC_Private_TypesDefinitions
  35:../../../SDK_embedded/libs/stm32/STM32F10x_StdPeriph_Driver/stm32f10x_adc.c ****   * @{
  36:../../../SDK_embedded/libs/stm32/STM32F10x_StdPeriph_Driver/stm32f10x_adc.c ****   */
  37:../../../SDK_embedded/libs/stm32/STM32F10x_StdPeriph_Driver/stm32f10x_adc.c **** 
  38:../../../SDK_embedded/libs/stm32/STM32F10x_StdPeriph_Driver/stm32f10x_adc.c **** /**
  39:../../../SDK_embedded/libs/stm32/STM32F10x_StdPeriph_Driver/stm32f10x_adc.c ****   * @}
  40:../../../SDK_embedded/libs/stm32/STM32F10x_StdPeriph_Driver/stm32f10x_adc.c ****   */
  41:../../../SDK_embedded/libs/stm32/STM32F10x_StdPeriph_Driver/stm32f10x_adc.c **** 
  42:../../../SDK_embedded/libs/stm32/STM32F10x_StdPeriph_Driver/stm32f10x_adc.c **** /** @defgroup ADC_Private_Defines
  43:../../../SDK_embedded/libs/stm32/STM32F10x_StdPeriph_Driver/stm32f10x_adc.c ****   * @{
  44:../../../SDK_embedded/libs/stm32/STM32F10x_StdPeriph_Driver/stm32f10x_adc.c ****   */
  45:../../../SDK_embedded/libs/stm32/STM32F10x_StdPeriph_Driver/stm32f10x_adc.c **** 
  46:../../../SDK_embedded/libs/stm32/STM32F10x_StdPeriph_Driver/stm32f10x_adc.c **** /* ADC DISCNUM mask */
  47:../../../SDK_embedded/libs/stm32/STM32F10x_StdPeriph_Driver/stm32f10x_adc.c **** #define CR1_DISCNUM_Reset           ((uint32_t)0xFFFF1FFF)
  48:../../../SDK_embedded/libs/stm32/STM32F10x_StdPeriph_Driver/stm32f10x_adc.c **** 
  49:../../../SDK_embedded/libs/stm32/STM32F10x_StdPeriph_Driver/stm32f10x_adc.c **** /* ADC DISCEN mask */
  50:../../../SDK_embedded/libs/stm32/STM32F10x_StdPeriph_Driver/stm32f10x_adc.c **** #define CR1_DISCEN_Set              ((uint32_t)0x00000800)
  51:../../../SDK_embedded/libs/stm32/STM32F10x_StdPeriph_Driver/stm32f10x_adc.c **** #define CR1_DISCEN_Reset            ((uint32_t)0xFFFFF7FF)
  52:../../../SDK_embedded/libs/stm32/STM32F10x_StdPeriph_Driver/stm32f10x_adc.c **** 
  53:../../../SDK_embedded/libs/stm32/STM32F10x_StdPeriph_Driver/stm32f10x_adc.c **** /* ADC JAUTO mask */
  54:../../../SDK_embedded/libs/stm32/STM32F10x_StdPeriph_Driver/stm32f10x_adc.c **** #define CR1_JAUTO_Set               ((uint32_t)0x00000400)
  55:../../../SDK_embedded/libs/stm32/STM32F10x_StdPeriph_Driver/stm32f10x_adc.c **** #define CR1_JAUTO_Reset             ((uint32_t)0xFFFFFBFF)
  56:../../../SDK_embedded/libs/stm32/STM32F10x_StdPeriph_Driver/stm32f10x_adc.c **** 
  57:../../../SDK_embedded/libs/stm32/STM32F10x_StdPeriph_Driver/stm32f10x_adc.c **** /* ADC JDISCEN mask */
  58:../../../SDK_embedded/libs/stm32/STM32F10x_StdPeriph_Driver/stm32f10x_adc.c **** #define CR1_JDISCEN_Set             ((uint32_t)0x00001000)
  59:../../../SDK_embedded/libs/stm32/STM32F10x_StdPeriph_Driver/stm32f10x_adc.c **** #define CR1_JDISCEN_Reset           ((uint32_t)0xFFFFEFFF)
  60:../../../SDK_embedded/libs/stm32/STM32F10x_StdPeriph_Driver/stm32f10x_adc.c **** 
  61:../../../SDK_embedded/libs/stm32/STM32F10x_StdPeriph_Driver/stm32f10x_adc.c **** /* ADC AWDCH mask */
  62:../../../SDK_embedded/libs/stm32/STM32F10x_StdPeriph_Driver/stm32f10x_adc.c **** #define CR1_AWDCH_Reset             ((uint32_t)0xFFFFFFE0)
  63:../../../SDK_embedded/libs/stm32/STM32F10x_StdPeriph_Driver/stm32f10x_adc.c **** 
  64:../../../SDK_embedded/libs/stm32/STM32F10x_StdPeriph_Driver/stm32f10x_adc.c **** /* ADC Analog watchdog enable mode mask */
  65:../../../SDK_embedded/libs/stm32/STM32F10x_StdPeriph_Driver/stm32f10x_adc.c **** #define CR1_AWDMode_Reset           ((uint32_t)0xFF3FFDFF)
  66:../../../SDK_embedded/libs/stm32/STM32F10x_StdPeriph_Driver/stm32f10x_adc.c **** 
  67:../../../SDK_embedded/libs/stm32/STM32F10x_StdPeriph_Driver/stm32f10x_adc.c **** /* CR1 register Mask */
  68:../../../SDK_embedded/libs/stm32/STM32F10x_StdPeriph_Driver/stm32f10x_adc.c **** #define CR1_CLEAR_Mask              ((uint32_t)0xFFF0FEFF)
  69:../../../SDK_embedded/libs/stm32/STM32F10x_StdPeriph_Driver/stm32f10x_adc.c **** 
  70:../../../SDK_embedded/libs/stm32/STM32F10x_StdPeriph_Driver/stm32f10x_adc.c **** /* ADC ADON mask */
  71:../../../SDK_embedded/libs/stm32/STM32F10x_StdPeriph_Driver/stm32f10x_adc.c **** #define CR2_ADON_Set                ((uint32_t)0x00000001)
  72:../../../SDK_embedded/libs/stm32/STM32F10x_StdPeriph_Driver/stm32f10x_adc.c **** #define CR2_ADON_Reset              ((uint32_t)0xFFFFFFFE)
  73:../../../SDK_embedded/libs/stm32/STM32F10x_StdPeriph_Driver/stm32f10x_adc.c **** 
  74:../../../SDK_embedded/libs/stm32/STM32F10x_StdPeriph_Driver/stm32f10x_adc.c **** /* ADC DMA mask */
  75:../../../SDK_embedded/libs/stm32/STM32F10x_StdPeriph_Driver/stm32f10x_adc.c **** #define CR2_DMA_Set                 ((uint32_t)0x00000100)
  76:../../../SDK_embedded/libs/stm32/STM32F10x_StdPeriph_Driver/stm32f10x_adc.c **** #define CR2_DMA_Reset               ((uint32_t)0xFFFFFEFF)
  77:../../../SDK_embedded/libs/stm32/STM32F10x_StdPeriph_Driver/stm32f10x_adc.c **** 
  78:../../../SDK_embedded/libs/stm32/STM32F10x_StdPeriph_Driver/stm32f10x_adc.c **** /* ADC RSTCAL mask */
  79:../../../SDK_embedded/libs/stm32/STM32F10x_StdPeriph_Driver/stm32f10x_adc.c **** #define CR2_RSTCAL_Set              ((uint32_t)0x00000008)
  80:../../../SDK_embedded/libs/stm32/STM32F10x_StdPeriph_Driver/stm32f10x_adc.c **** 
  81:../../../SDK_embedded/libs/stm32/STM32F10x_StdPeriph_Driver/stm32f10x_adc.c **** /* ADC CAL mask */
  82:../../../SDK_embedded/libs/stm32/STM32F10x_StdPeriph_Driver/stm32f10x_adc.c **** #define CR2_CAL_Set                 ((uint32_t)0x00000004)
  83:../../../SDK_embedded/libs/stm32/STM32F10x_StdPeriph_Driver/stm32f10x_adc.c **** 
  84:../../../SDK_embedded/libs/stm32/STM32F10x_StdPeriph_Driver/stm32f10x_adc.c **** /* ADC SWSTART mask */
  85:../../../SDK_embedded/libs/stm32/STM32F10x_StdPeriph_Driver/stm32f10x_adc.c **** #define CR2_SWSTART_Set             ((uint32_t)0x00400000)
  86:../../../SDK_embedded/libs/stm32/STM32F10x_StdPeriph_Driver/stm32f10x_adc.c **** 
  87:../../../SDK_embedded/libs/stm32/STM32F10x_StdPeriph_Driver/stm32f10x_adc.c **** /* ADC EXTTRIG mask */
  88:../../../SDK_embedded/libs/stm32/STM32F10x_StdPeriph_Driver/stm32f10x_adc.c **** #define CR2_EXTTRIG_Set             ((uint32_t)0x00100000)
  89:../../../SDK_embedded/libs/stm32/STM32F10x_StdPeriph_Driver/stm32f10x_adc.c **** #define CR2_EXTTRIG_Reset           ((uint32_t)0xFFEFFFFF)
  90:../../../SDK_embedded/libs/stm32/STM32F10x_StdPeriph_Driver/stm32f10x_adc.c **** 
  91:../../../SDK_embedded/libs/stm32/STM32F10x_StdPeriph_Driver/stm32f10x_adc.c **** /* ADC Software start mask */
  92:../../../SDK_embedded/libs/stm32/STM32F10x_StdPeriph_Driver/stm32f10x_adc.c **** #define CR2_EXTTRIG_SWSTART_Set     ((uint32_t)0x00500000)
  93:../../../SDK_embedded/libs/stm32/STM32F10x_StdPeriph_Driver/stm32f10x_adc.c **** #define CR2_EXTTRIG_SWSTART_Reset   ((uint32_t)0xFFAFFFFF)
  94:../../../SDK_embedded/libs/stm32/STM32F10x_StdPeriph_Driver/stm32f10x_adc.c **** 
  95:../../../SDK_embedded/libs/stm32/STM32F10x_StdPeriph_Driver/stm32f10x_adc.c **** /* ADC JEXTSEL mask */
  96:../../../SDK_embedded/libs/stm32/STM32F10x_StdPeriph_Driver/stm32f10x_adc.c **** #define CR2_JEXTSEL_Reset           ((uint32_t)0xFFFF8FFF)
  97:../../../SDK_embedded/libs/stm32/STM32F10x_StdPeriph_Driver/stm32f10x_adc.c **** 
  98:../../../SDK_embedded/libs/stm32/STM32F10x_StdPeriph_Driver/stm32f10x_adc.c **** /* ADC JEXTTRIG mask */
  99:../../../SDK_embedded/libs/stm32/STM32F10x_StdPeriph_Driver/stm32f10x_adc.c **** #define CR2_JEXTTRIG_Set            ((uint32_t)0x00008000)
 100:../../../SDK_embedded/libs/stm32/STM32F10x_StdPeriph_Driver/stm32f10x_adc.c **** #define CR2_JEXTTRIG_Reset          ((uint32_t)0xFFFF7FFF)
 101:../../../SDK_embedded/libs/stm32/STM32F10x_StdPeriph_Driver/stm32f10x_adc.c **** 
 102:../../../SDK_embedded/libs/stm32/STM32F10x_StdPeriph_Driver/stm32f10x_adc.c **** /* ADC JSWSTART mask */
 103:../../../SDK_embedded/libs/stm32/STM32F10x_StdPeriph_Driver/stm32f10x_adc.c **** #define CR2_JSWSTART_Set            ((uint32_t)0x00200000)
 104:../../../SDK_embedded/libs/stm32/STM32F10x_StdPeriph_Driver/stm32f10x_adc.c **** 
 105:../../../SDK_embedded/libs/stm32/STM32F10x_StdPeriph_Driver/stm32f10x_adc.c **** /* ADC injected software start mask */
 106:../../../SDK_embedded/libs/stm32/STM32F10x_StdPeriph_Driver/stm32f10x_adc.c **** #define CR2_JEXTTRIG_JSWSTART_Set   ((uint32_t)0x00208000)
 107:../../../SDK_embedded/libs/stm32/STM32F10x_StdPeriph_Driver/stm32f10x_adc.c **** #define CR2_JEXTTRIG_JSWSTART_Reset ((uint32_t)0xFFDF7FFF)
 108:../../../SDK_embedded/libs/stm32/STM32F10x_StdPeriph_Driver/stm32f10x_adc.c **** 
 109:../../../SDK_embedded/libs/stm32/STM32F10x_StdPeriph_Driver/stm32f10x_adc.c **** /* ADC TSPD mask */
 110:../../../SDK_embedded/libs/stm32/STM32F10x_StdPeriph_Driver/stm32f10x_adc.c **** #define CR2_TSVREFE_Set             ((uint32_t)0x00800000)
 111:../../../SDK_embedded/libs/stm32/STM32F10x_StdPeriph_Driver/stm32f10x_adc.c **** #define CR2_TSVREFE_Reset           ((uint32_t)0xFF7FFFFF)
 112:../../../SDK_embedded/libs/stm32/STM32F10x_StdPeriph_Driver/stm32f10x_adc.c **** 
 113:../../../SDK_embedded/libs/stm32/STM32F10x_StdPeriph_Driver/stm32f10x_adc.c **** /* CR2 register Mask */
 114:../../../SDK_embedded/libs/stm32/STM32F10x_StdPeriph_Driver/stm32f10x_adc.c **** #define CR2_CLEAR_Mask              ((uint32_t)0xFFF1F7FD)
 115:../../../SDK_embedded/libs/stm32/STM32F10x_StdPeriph_Driver/stm32f10x_adc.c **** 
 116:../../../SDK_embedded/libs/stm32/STM32F10x_StdPeriph_Driver/stm32f10x_adc.c **** /* ADC SQx mask */
 117:../../../SDK_embedded/libs/stm32/STM32F10x_StdPeriph_Driver/stm32f10x_adc.c **** #define SQR3_SQ_Set                 ((uint32_t)0x0000001F)
 118:../../../SDK_embedded/libs/stm32/STM32F10x_StdPeriph_Driver/stm32f10x_adc.c **** #define SQR2_SQ_Set                 ((uint32_t)0x0000001F)
 119:../../../SDK_embedded/libs/stm32/STM32F10x_StdPeriph_Driver/stm32f10x_adc.c **** #define SQR1_SQ_Set                 ((uint32_t)0x0000001F)
 120:../../../SDK_embedded/libs/stm32/STM32F10x_StdPeriph_Driver/stm32f10x_adc.c **** 
 121:../../../SDK_embedded/libs/stm32/STM32F10x_StdPeriph_Driver/stm32f10x_adc.c **** /* SQR1 register Mask */
 122:../../../SDK_embedded/libs/stm32/STM32F10x_StdPeriph_Driver/stm32f10x_adc.c **** #define SQR1_CLEAR_Mask             ((uint32_t)0xFF0FFFFF)
 123:../../../SDK_embedded/libs/stm32/STM32F10x_StdPeriph_Driver/stm32f10x_adc.c **** 
 124:../../../SDK_embedded/libs/stm32/STM32F10x_StdPeriph_Driver/stm32f10x_adc.c **** /* ADC JSQx mask */
 125:../../../SDK_embedded/libs/stm32/STM32F10x_StdPeriph_Driver/stm32f10x_adc.c **** #define JSQR_JSQ_Set                ((uint32_t)0x0000001F)
 126:../../../SDK_embedded/libs/stm32/STM32F10x_StdPeriph_Driver/stm32f10x_adc.c **** 
 127:../../../SDK_embedded/libs/stm32/STM32F10x_StdPeriph_Driver/stm32f10x_adc.c **** /* ADC JL mask */
 128:../../../SDK_embedded/libs/stm32/STM32F10x_StdPeriph_Driver/stm32f10x_adc.c **** #define JSQR_JL_Set                 ((uint32_t)0x00300000)
 129:../../../SDK_embedded/libs/stm32/STM32F10x_StdPeriph_Driver/stm32f10x_adc.c **** #define JSQR_JL_Reset               ((uint32_t)0xFFCFFFFF)
 130:../../../SDK_embedded/libs/stm32/STM32F10x_StdPeriph_Driver/stm32f10x_adc.c **** 
 131:../../../SDK_embedded/libs/stm32/STM32F10x_StdPeriph_Driver/stm32f10x_adc.c **** /* ADC SMPx mask */
 132:../../../SDK_embedded/libs/stm32/STM32F10x_StdPeriph_Driver/stm32f10x_adc.c **** #define SMPR1_SMP_Set               ((uint32_t)0x00000007)
 133:../../../SDK_embedded/libs/stm32/STM32F10x_StdPeriph_Driver/stm32f10x_adc.c **** #define SMPR2_SMP_Set               ((uint32_t)0x00000007)
 134:../../../SDK_embedded/libs/stm32/STM32F10x_StdPeriph_Driver/stm32f10x_adc.c **** 
 135:../../../SDK_embedded/libs/stm32/STM32F10x_StdPeriph_Driver/stm32f10x_adc.c **** /* ADC JDRx registers offset */
 136:../../../SDK_embedded/libs/stm32/STM32F10x_StdPeriph_Driver/stm32f10x_adc.c **** #define JDR_Offset                  ((uint8_t)0x28)
 137:../../../SDK_embedded/libs/stm32/STM32F10x_StdPeriph_Driver/stm32f10x_adc.c **** 
 138:../../../SDK_embedded/libs/stm32/STM32F10x_StdPeriph_Driver/stm32f10x_adc.c **** /* ADC1 DR register base address */
 139:../../../SDK_embedded/libs/stm32/STM32F10x_StdPeriph_Driver/stm32f10x_adc.c **** #define DR_ADDRESS                  ((uint32_t)0x4001244C)
 140:../../../SDK_embedded/libs/stm32/STM32F10x_StdPeriph_Driver/stm32f10x_adc.c **** 
 141:../../../SDK_embedded/libs/stm32/STM32F10x_StdPeriph_Driver/stm32f10x_adc.c **** /**
 142:../../../SDK_embedded/libs/stm32/STM32F10x_StdPeriph_Driver/stm32f10x_adc.c ****   * @}
 143:../../../SDK_embedded/libs/stm32/STM32F10x_StdPeriph_Driver/stm32f10x_adc.c ****   */
 144:../../../SDK_embedded/libs/stm32/STM32F10x_StdPeriph_Driver/stm32f10x_adc.c **** 
 145:../../../SDK_embedded/libs/stm32/STM32F10x_StdPeriph_Driver/stm32f10x_adc.c **** /** @defgroup ADC_Private_Macros
 146:../../../SDK_embedded/libs/stm32/STM32F10x_StdPeriph_Driver/stm32f10x_adc.c ****   * @{
 147:../../../SDK_embedded/libs/stm32/STM32F10x_StdPeriph_Driver/stm32f10x_adc.c ****   */
 148:../../../SDK_embedded/libs/stm32/STM32F10x_StdPeriph_Driver/stm32f10x_adc.c **** 
 149:../../../SDK_embedded/libs/stm32/STM32F10x_StdPeriph_Driver/stm32f10x_adc.c **** /**
 150:../../../SDK_embedded/libs/stm32/STM32F10x_StdPeriph_Driver/stm32f10x_adc.c ****   * @}
 151:../../../SDK_embedded/libs/stm32/STM32F10x_StdPeriph_Driver/stm32f10x_adc.c ****   */
 152:../../../SDK_embedded/libs/stm32/STM32F10x_StdPeriph_Driver/stm32f10x_adc.c **** 
 153:../../../SDK_embedded/libs/stm32/STM32F10x_StdPeriph_Driver/stm32f10x_adc.c **** /** @defgroup ADC_Private_Variables
 154:../../../SDK_embedded/libs/stm32/STM32F10x_StdPeriph_Driver/stm32f10x_adc.c ****   * @{
 155:../../../SDK_embedded/libs/stm32/STM32F10x_StdPeriph_Driver/stm32f10x_adc.c ****   */
 156:../../../SDK_embedded/libs/stm32/STM32F10x_StdPeriph_Driver/stm32f10x_adc.c **** 
 157:../../../SDK_embedded/libs/stm32/STM32F10x_StdPeriph_Driver/stm32f10x_adc.c **** /**
 158:../../../SDK_embedded/libs/stm32/STM32F10x_StdPeriph_Driver/stm32f10x_adc.c ****   * @}
 159:../../../SDK_embedded/libs/stm32/STM32F10x_StdPeriph_Driver/stm32f10x_adc.c ****   */
 160:../../../SDK_embedded/libs/stm32/STM32F10x_StdPeriph_Driver/stm32f10x_adc.c **** 
 161:../../../SDK_embedded/libs/stm32/STM32F10x_StdPeriph_Driver/stm32f10x_adc.c **** /** @defgroup ADC_Private_FunctionPrototypes
 162:../../../SDK_embedded/libs/stm32/STM32F10x_StdPeriph_Driver/stm32f10x_adc.c ****   * @{
 163:../../../SDK_embedded/libs/stm32/STM32F10x_StdPeriph_Driver/stm32f10x_adc.c ****   */
 164:../../../SDK_embedded/libs/stm32/STM32F10x_StdPeriph_Driver/stm32f10x_adc.c **** 
 165:../../../SDK_embedded/libs/stm32/STM32F10x_StdPeriph_Driver/stm32f10x_adc.c **** /**
 166:../../../SDK_embedded/libs/stm32/STM32F10x_StdPeriph_Driver/stm32f10x_adc.c ****   * @}
 167:../../../SDK_embedded/libs/stm32/STM32F10x_StdPeriph_Driver/stm32f10x_adc.c ****   */
 168:../../../SDK_embedded/libs/stm32/STM32F10x_StdPeriph_Driver/stm32f10x_adc.c **** 
 169:../../../SDK_embedded/libs/stm32/STM32F10x_StdPeriph_Driver/stm32f10x_adc.c **** /** @defgroup ADC_Private_Functions
 170:../../../SDK_embedded/libs/stm32/STM32F10x_StdPeriph_Driver/stm32f10x_adc.c ****   * @{
 171:../../../SDK_embedded/libs/stm32/STM32F10x_StdPeriph_Driver/stm32f10x_adc.c ****   */
 172:../../../SDK_embedded/libs/stm32/STM32F10x_StdPeriph_Driver/stm32f10x_adc.c **** 
 173:../../../SDK_embedded/libs/stm32/STM32F10x_StdPeriph_Driver/stm32f10x_adc.c **** /**
 174:../../../SDK_embedded/libs/stm32/STM32F10x_StdPeriph_Driver/stm32f10x_adc.c ****   * @brief  Deinitializes the ADCx peripheral registers to their default reset values.
 175:../../../SDK_embedded/libs/stm32/STM32F10x_StdPeriph_Driver/stm32f10x_adc.c ****   * @param  ADCx: where x can be 1, 2 or 3 to select the ADC peripheral.
 176:../../../SDK_embedded/libs/stm32/STM32F10x_StdPeriph_Driver/stm32f10x_adc.c ****   * @retval None
 177:../../../SDK_embedded/libs/stm32/STM32F10x_StdPeriph_Driver/stm32f10x_adc.c ****   */
 178:../../../SDK_embedded/libs/stm32/STM32F10x_StdPeriph_Driver/stm32f10x_adc.c **** void ADC_DeInit(ADC_TypeDef* ADCx)
 179:../../../SDK_embedded/libs/stm32/STM32F10x_StdPeriph_Driver/stm32f10x_adc.c **** {
 16836              		.loc 1 179 0
 16837              		.cfi_startproc
 16838              		@ args = 0, pretend = 0, frame = 0
 16839              		@ frame_needed = 0, uses_anonymous_args = 0
 16840              	.LVL0:
 180:../../../SDK_embedded/libs/stm32/STM32F10x_StdPeriph_Driver/stm32f10x_adc.c ****   /* Check the parameters */
 181:../../../SDK_embedded/libs/stm32/STM32F10x_StdPeriph_Driver/stm32f10x_adc.c ****   assert_param(IS_ADC_ALL_PERIPH(ADCx));
 182:../../../SDK_embedded/libs/stm32/STM32F10x_StdPeriph_Driver/stm32f10x_adc.c ****   
 183:../../../SDK_embedded/libs/stm32/STM32F10x_StdPeriph_Driver/stm32f10x_adc.c ****   if (ADCx == ADC1)
 16841              		.loc 1 183 0
 16842 0000 124B     		ldr	r3, .L6
 179:../../../SDK_embedded/libs/stm32/STM32F10x_StdPeriph_Driver/stm32f10x_adc.c **** {
 16843              		.loc 1 179 0
 16844 0002 10B5     		push	{r4, lr}
 16845              	.LCFI0:
 16846              		.cfi_def_cfa_offset 8
 16847              		.cfi_offset 14, -4
 16848              		.cfi_offset 4, -8
 16849              		.loc 1 183 0
 16850 0004 9842     		cmp	r0, r3
 16851 0006 07D1     		bne	.L2
 184:../../../SDK_embedded/libs/stm32/STM32F10x_StdPeriph_Driver/stm32f10x_adc.c ****   {
 185:../../../SDK_embedded/libs/stm32/STM32F10x_StdPeriph_Driver/stm32f10x_adc.c ****     /* Enable ADC1 reset state */
 186:../../../SDK_embedded/libs/stm32/STM32F10x_StdPeriph_Driver/stm32f10x_adc.c ****     RCC_APB2PeriphResetCmd(RCC_APB2Periph_ADC1, ENABLE);
 16852              		.loc 1 186 0
 16853 0008 4FF40070 		mov	r0, #512
 16854              	.LVL1:
 16855 000c 0121     		movs	r1, #1
 16856 000e 104C     		ldr	r4, .L6+4
 16857 0010 A047     		blx	r4
 187:../../../SDK_embedded/libs/stm32/STM32F10x_StdPeriph_Driver/stm32f10x_adc.c ****     /* Release ADC1 from reset state */
 188:../../../SDK_embedded/libs/stm32/STM32F10x_StdPeriph_Driver/stm32f10x_adc.c ****     RCC_APB2PeriphResetCmd(RCC_APB2Periph_ADC1, DISABLE);
 16858              		.loc 1 188 0
 16859 0012 4FF40070 		mov	r0, #512
 16860 0016 09E0     		b	.L5
 16861              	.LVL2:
 16862              	.L2:
 189:../../../SDK_embedded/libs/stm32/STM32F10x_StdPeriph_Driver/stm32f10x_adc.c ****   }
 190:../../../SDK_embedded/libs/stm32/STM32F10x_StdPeriph_Driver/stm32f10x_adc.c ****   else if (ADCx == ADC2)
 16863              		.loc 1 190 0
 16864 0018 0E49     		ldr	r1, .L6+8
 16865 001a 8842     		cmp	r0, r1
 16866 001c 09D1     		bne	.L4
 191:../../../SDK_embedded/libs/stm32/STM32F10x_StdPeriph_Driver/stm32f10x_adc.c ****   {
 192:../../../SDK_embedded/libs/stm32/STM32F10x_StdPeriph_Driver/stm32f10x_adc.c ****     /* Enable ADC2 reset state */
 193:../../../SDK_embedded/libs/stm32/STM32F10x_StdPeriph_Driver/stm32f10x_adc.c ****     RCC_APB2PeriphResetCmd(RCC_APB2Periph_ADC2, ENABLE);
 16867              		.loc 1 193 0
 16868 001e 4FF48060 		mov	r0, #1024
 16869              	.LVL3:
 16870 0022 0121     		movs	r1, #1
 16871 0024 0A4C     		ldr	r4, .L6+4
 16872 0026 A047     		blx	r4
 194:../../../SDK_embedded/libs/stm32/STM32F10x_StdPeriph_Driver/stm32f10x_adc.c ****     /* Release ADC2 from reset state */
 195:../../../SDK_embedded/libs/stm32/STM32F10x_StdPeriph_Driver/stm32f10x_adc.c ****     RCC_APB2PeriphResetCmd(RCC_APB2Periph_ADC2, DISABLE);
 16873              		.loc 1 195 0
 16874 0028 4FF48060 		mov	r0, #1024
 16875              	.L5:
 16876 002c 0021     		movs	r1, #0
 16877 002e A047     		blx	r4
 16878 0030 10BD     		pop	{r4, pc}
 16879              	.LVL4:
 16880              	.L4:
 196:../../../SDK_embedded/libs/stm32/STM32F10x_StdPeriph_Driver/stm32f10x_adc.c ****   }
 197:../../../SDK_embedded/libs/stm32/STM32F10x_StdPeriph_Driver/stm32f10x_adc.c ****   else
 198:../../../SDK_embedded/libs/stm32/STM32F10x_StdPeriph_Driver/stm32f10x_adc.c ****   {
 199:../../../SDK_embedded/libs/stm32/STM32F10x_StdPeriph_Driver/stm32f10x_adc.c ****     if (ADCx == ADC3)
 16881              		.loc 1 199 0
 16882 0032 094A     		ldr	r2, .L6+12
 16883 0034 9042     		cmp	r0, r2
 16884 0036 08D1     		bne	.L1
 200:../../../SDK_embedded/libs/stm32/STM32F10x_StdPeriph_Driver/stm32f10x_adc.c ****     {
 201:../../../SDK_embedded/libs/stm32/STM32F10x_StdPeriph_Driver/stm32f10x_adc.c ****       /* Enable ADC3 reset state */
 202:../../../SDK_embedded/libs/stm32/STM32F10x_StdPeriph_Driver/stm32f10x_adc.c ****       RCC_APB2PeriphResetCmd(RCC_APB2Periph_ADC3, ENABLE);
 16885              		.loc 1 202 0
 16886 0038 4FF40040 		mov	r0, #32768
 16887              	.LVL5:
 16888 003c 0121     		movs	r1, #1
 16889 003e 044C     		ldr	r4, .L6+4
 16890 0040 A047     		blx	r4
 203:../../../SDK_embedded/libs/stm32/STM32F10x_StdPeriph_Driver/stm32f10x_adc.c ****       /* Release ADC3 from reset state */
 204:../../../SDK_embedded/libs/stm32/STM32F10x_StdPeriph_Driver/stm32f10x_adc.c ****       RCC_APB2PeriphResetCmd(RCC_APB2Periph_ADC3, DISABLE);
 16891              		.loc 1 204 0
 16892 0042 4FF40040 		mov	r0, #32768
 16893 0046 0021     		movs	r1, #0
 16894 0048 A047     		blx	r4
 16895              	.L1:
 16896 004a 10BD     		pop	{r4, pc}
 16897              	.L7:
 16898              		.align	2
 16899              	.L6:
 16900 004c 00240140 		.word	1073816576
 16901 0050 00000000 		.word	RCC_APB2PeriphResetCmd
 16902 0054 00280140 		.word	1073817600
 16903 0058 003C0140 		.word	1073822720
 16904              		.cfi_endproc
 16905              	.LFE29:
 16907              		.section	.text.ADC_Init,"ax",%progbits
 16908              		.align	1
 16909              		.global	ADC_Init
 16910              		.thumb
 16911              		.thumb_func
 16913              	ADC_Init:
 16914              	.LFB30:
 205:../../../SDK_embedded/libs/stm32/STM32F10x_StdPeriph_Driver/stm32f10x_adc.c ****     }
 206:../../../SDK_embedded/libs/stm32/STM32F10x_StdPeriph_Driver/stm32f10x_adc.c ****   }
 207:../../../SDK_embedded/libs/stm32/STM32F10x_StdPeriph_Driver/stm32f10x_adc.c **** }
 208:../../../SDK_embedded/libs/stm32/STM32F10x_StdPeriph_Driver/stm32f10x_adc.c **** 
 209:../../../SDK_embedded/libs/stm32/STM32F10x_StdPeriph_Driver/stm32f10x_adc.c **** /**
 210:../../../SDK_embedded/libs/stm32/STM32F10x_StdPeriph_Driver/stm32f10x_adc.c ****   * @brief  Initializes the ADCx peripheral according to the specified parameters
 211:../../../SDK_embedded/libs/stm32/STM32F10x_StdPeriph_Driver/stm32f10x_adc.c ****   *   in the ADC_InitStruct.
 212:../../../SDK_embedded/libs/stm32/STM32F10x_StdPeriph_Driver/stm32f10x_adc.c ****   * @param  ADCx: where x can be 1, 2 or 3 to select the ADC peripheral.
 213:../../../SDK_embedded/libs/stm32/STM32F10x_StdPeriph_Driver/stm32f10x_adc.c ****   * @param  ADC_InitStruct: pointer to an ADC_InitTypeDef structure that contains
 214:../../../SDK_embedded/libs/stm32/STM32F10x_StdPeriph_Driver/stm32f10x_adc.c ****   *   the configuration information for the specified ADC peripheral.
 215:../../../SDK_embedded/libs/stm32/STM32F10x_StdPeriph_Driver/stm32f10x_adc.c ****   * @retval None
 216:../../../SDK_embedded/libs/stm32/STM32F10x_StdPeriph_Driver/stm32f10x_adc.c ****   */
 217:../../../SDK_embedded/libs/stm32/STM32F10x_StdPeriph_Driver/stm32f10x_adc.c **** void ADC_Init(ADC_TypeDef* ADCx, ADC_InitTypeDef* ADC_InitStruct)
 218:../../../SDK_embedded/libs/stm32/STM32F10x_StdPeriph_Driver/stm32f10x_adc.c **** {
 16915              		.loc 1 218 0
 16916              		.cfi_startproc
 16917              		@ args = 0, pretend = 0, frame = 0
 16918              		@ frame_needed = 0, uses_anonymous_args = 0
 16919              	.LVL6:
 219:../../../SDK_embedded/libs/stm32/STM32F10x_StdPeriph_Driver/stm32f10x_adc.c ****   uint32_t tmpreg1 = 0;
 220:../../../SDK_embedded/libs/stm32/STM32F10x_StdPeriph_Driver/stm32f10x_adc.c ****   uint8_t tmpreg2 = 0;
 221:../../../SDK_embedded/libs/stm32/STM32F10x_StdPeriph_Driver/stm32f10x_adc.c ****   /* Check the parameters */
 222:../../../SDK_embedded/libs/stm32/STM32F10x_StdPeriph_Driver/stm32f10x_adc.c ****   assert_param(IS_ADC_ALL_PERIPH(ADCx));
 223:../../../SDK_embedded/libs/stm32/STM32F10x_StdPeriph_Driver/stm32f10x_adc.c ****   assert_param(IS_ADC_MODE(ADC_InitStruct->ADC_Mode));
 224:../../../SDK_embedded/libs/stm32/STM32F10x_StdPeriph_Driver/stm32f10x_adc.c ****   assert_param(IS_FUNCTIONAL_STATE(ADC_InitStruct->ADC_ScanConvMode));
 225:../../../SDK_embedded/libs/stm32/STM32F10x_StdPeriph_Driver/stm32f10x_adc.c ****   assert_param(IS_FUNCTIONAL_STATE(ADC_InitStruct->ADC_ContinuousConvMode));
 226:../../../SDK_embedded/libs/stm32/STM32F10x_StdPeriph_Driver/stm32f10x_adc.c ****   assert_param(IS_ADC_EXT_TRIG(ADC_InitStruct->ADC_ExternalTrigConv));   
 227:../../../SDK_embedded/libs/stm32/STM32F10x_StdPeriph_Driver/stm32f10x_adc.c ****   assert_param(IS_ADC_DATA_ALIGN(ADC_InitStruct->ADC_DataAlign)); 
 228:../../../SDK_embedded/libs/stm32/STM32F10x_StdPeriph_Driver/stm32f10x_adc.c ****   assert_param(IS_ADC_REGULAR_LENGTH(ADC_InitStruct->ADC_NbrOfChannel));
 229:../../../SDK_embedded/libs/stm32/STM32F10x_StdPeriph_Driver/stm32f10x_adc.c **** 
 230:../../../SDK_embedded/libs/stm32/STM32F10x_StdPeriph_Driver/stm32f10x_adc.c ****   /*---------------------------- ADCx CR1 Configuration -----------------*/
 231:../../../SDK_embedded/libs/stm32/STM32F10x_StdPeriph_Driver/stm32f10x_adc.c ****   /* Get the ADCx CR1 value */
 232:../../../SDK_embedded/libs/stm32/STM32F10x_StdPeriph_Driver/stm32f10x_adc.c ****   tmpreg1 = ADCx->CR1;
 16920              		.loc 1 232 0
 16921 0000 4268     		ldr	r2, [r0, #4]
 16922              	.LVL7:
 218:../../../SDK_embedded/libs/stm32/STM32F10x_StdPeriph_Driver/stm32f10x_adc.c **** {
 16923              		.loc 1 218 0
 16924 0002 10B5     		push	{r4, lr}
 16925              	.LCFI1:
 16926              		.cfi_def_cfa_offset 8
 16927              		.cfi_offset 14, -4
 16928              		.cfi_offset 4, -8
 233:../../../SDK_embedded/libs/stm32/STM32F10x_StdPeriph_Driver/stm32f10x_adc.c ****   /* Clear DUALMOD and SCAN bits */
 234:../../../SDK_embedded/libs/stm32/STM32F10x_StdPeriph_Driver/stm32f10x_adc.c ****   tmpreg1 &= CR1_CLEAR_Mask;
 16929              		.loc 1 234 0
 16930 0004 22F4702C 		bic	ip, r2, #983040
 235:../../../SDK_embedded/libs/stm32/STM32F10x_StdPeriph_Driver/stm32f10x_adc.c ****   /* Configure ADCx: Dual mode and scan conversion mode */
 236:../../../SDK_embedded/libs/stm32/STM32F10x_StdPeriph_Driver/stm32f10x_adc.c ****   /* Set DUALMOD bits according to ADC_Mode value */
 237:../../../SDK_embedded/libs/stm32/STM32F10x_StdPeriph_Driver/stm32f10x_adc.c ****   /* Set SCAN bit according to ADC_ScanConvMode value */
 238:../../../SDK_embedded/libs/stm32/STM32F10x_StdPeriph_Driver/stm32f10x_adc.c ****   tmpreg1 |= (uint32_t)(ADC_InitStruct->ADC_Mode | ((uint32_t)ADC_InitStruct->ADC_ScanConvMode << 8
 16931              		.loc 1 238 0
 16932 0008 0C68     		ldr	r4, [r1, #0]
 16933 000a 0A79     		ldrb	r2, [r1, #4]	@ zero_extendqisi2
 16934              	.LVL8:
 234:../../../SDK_embedded/libs/stm32/STM32F10x_StdPeriph_Driver/stm32f10x_adc.c ****   tmpreg1 &= CR1_CLEAR_Mask;
 16935              		.loc 1 234 0
 16936 000c 2CF48073 		bic	r3, ip, #256
 16937              		.loc 1 238 0
 16938 0010 43EA040C 		orr	ip, r3, r4
 16939 0014 4CEA0224 		orr	r4, ip, r2, lsl #8
 16940              	.LVL9:
 239:../../../SDK_embedded/libs/stm32/STM32F10x_StdPeriph_Driver/stm32f10x_adc.c ****   /* Write to ADCx CR1 */
 240:../../../SDK_embedded/libs/stm32/STM32F10x_StdPeriph_Driver/stm32f10x_adc.c ****   ADCx->CR1 = tmpreg1;
 241:../../../SDK_embedded/libs/stm32/STM32F10x_StdPeriph_Driver/stm32f10x_adc.c **** 
 242:../../../SDK_embedded/libs/stm32/STM32F10x_StdPeriph_Driver/stm32f10x_adc.c ****   /*---------------------------- ADCx CR2 Configuration -----------------*/
 243:../../../SDK_embedded/libs/stm32/STM32F10x_StdPeriph_Driver/stm32f10x_adc.c ****   /* Get the ADCx CR2 value */
 244:../../../SDK_embedded/libs/stm32/STM32F10x_StdPeriph_Driver/stm32f10x_adc.c ****   tmpreg1 = ADCx->CR2;
 245:../../../SDK_embedded/libs/stm32/STM32F10x_StdPeriph_Driver/stm32f10x_adc.c ****   /* Clear CONT, ALIGN and EXTSEL bits */
 246:../../../SDK_embedded/libs/stm32/STM32F10x_StdPeriph_Driver/stm32f10x_adc.c ****   tmpreg1 &= CR2_CLEAR_Mask;
 247:../../../SDK_embedded/libs/stm32/STM32F10x_StdPeriph_Driver/stm32f10x_adc.c ****   /* Configure ADCx: external trigger event and continuous conversion mode */
 248:../../../SDK_embedded/libs/stm32/STM32F10x_StdPeriph_Driver/stm32f10x_adc.c ****   /* Set ALIGN bit according to ADC_DataAlign value */
 249:../../../SDK_embedded/libs/stm32/STM32F10x_StdPeriph_Driver/stm32f10x_adc.c ****   /* Set EXTSEL bits according to ADC_ExternalTrigConv value */
 250:../../../SDK_embedded/libs/stm32/STM32F10x_StdPeriph_Driver/stm32f10x_adc.c ****   /* Set CONT bit according to ADC_ContinuousConvMode value */
 251:../../../SDK_embedded/libs/stm32/STM32F10x_StdPeriph_Driver/stm32f10x_adc.c ****   tmpreg1 |= (uint32_t)(ADC_InitStruct->ADC_DataAlign | ADC_InitStruct->ADC_ExternalTrigConv |
 16941              		.loc 1 251 0
 16942 0018 CB68     		ldr	r3, [r1, #12]
 16943 001a 8A68     		ldr	r2, [r1, #8]
 240:../../../SDK_embedded/libs/stm32/STM32F10x_StdPeriph_Driver/stm32f10x_adc.c ****   ADCx->CR1 = tmpreg1;
 16944              		.loc 1 240 0
 16945 001c 4460     		str	r4, [r0, #4]
 244:../../../SDK_embedded/libs/stm32/STM32F10x_StdPeriph_Driver/stm32f10x_adc.c ****   tmpreg1 = ADCx->CR2;
 16946              		.loc 1 244 0
 16947 001e 8468     		ldr	r4, [r0, #8]
 16948              	.LVL10:
 16949              		.loc 1 251 0
 16950 0020 42EA030C 		orr	ip, r2, r3
 246:../../../SDK_embedded/libs/stm32/STM32F10x_StdPeriph_Driver/stm32f10x_adc.c ****   tmpreg1 &= CR2_CLEAR_Mask;
 16951              		.loc 1 246 0
 16952 0024 094A     		ldr	r2, .L9
 16953 0026 04EA0203 		and	r3, r4, r2
 252:../../../SDK_embedded/libs/stm32/STM32F10x_StdPeriph_Driver/stm32f10x_adc.c ****             ((uint32_t)ADC_InitStruct->ADC_ContinuousConvMode << 1));
 16954              		.loc 1 252 0
 16955 002a 4A79     		ldrb	r2, [r1, #5]	@ zero_extendqisi2
 251:../../../SDK_embedded/libs/stm32/STM32F10x_StdPeriph_Driver/stm32f10x_adc.c ****   tmpreg1 |= (uint32_t)(ADC_InitStruct->ADC_DataAlign | ADC_InitStruct->ADC_ExternalTrigConv |
 16956              		.loc 1 251 0
 16957 002c 4CEA030C 		orr	ip, ip, r3
 16958 0030 4CEA4203 		orr	r3, ip, r2, lsl #1
 16959              	.LVL11:
 253:../../../SDK_embedded/libs/stm32/STM32F10x_StdPeriph_Driver/stm32f10x_adc.c ****   /* Write to ADCx CR2 */
 254:../../../SDK_embedded/libs/stm32/STM32F10x_StdPeriph_Driver/stm32f10x_adc.c ****   ADCx->CR2 = tmpreg1;
 16960              		.loc 1 254 0
 16961 0034 8360     		str	r3, [r0, #8]
 255:../../../SDK_embedded/libs/stm32/STM32F10x_StdPeriph_Driver/stm32f10x_adc.c **** 
 256:../../../SDK_embedded/libs/stm32/STM32F10x_StdPeriph_Driver/stm32f10x_adc.c ****   /*---------------------------- ADCx SQR1 Configuration -----------------*/
 257:../../../SDK_embedded/libs/stm32/STM32F10x_StdPeriph_Driver/stm32f10x_adc.c ****   /* Get the ADCx SQR1 value */
 258:../../../SDK_embedded/libs/stm32/STM32F10x_StdPeriph_Driver/stm32f10x_adc.c ****   tmpreg1 = ADCx->SQR1;
 259:../../../SDK_embedded/libs/stm32/STM32F10x_StdPeriph_Driver/stm32f10x_adc.c ****   /* Clear L bits */
 260:../../../SDK_embedded/libs/stm32/STM32F10x_StdPeriph_Driver/stm32f10x_adc.c ****   tmpreg1 &= SQR1_CLEAR_Mask;
 261:../../../SDK_embedded/libs/stm32/STM32F10x_StdPeriph_Driver/stm32f10x_adc.c ****   /* Configure ADCx: regular channel sequence length */
 262:../../../SDK_embedded/libs/stm32/STM32F10x_StdPeriph_Driver/stm32f10x_adc.c ****   /* Set L bits according to ADC_NbrOfChannel value */
 263:../../../SDK_embedded/libs/stm32/STM32F10x_StdPeriph_Driver/stm32f10x_adc.c ****   tmpreg2 |= (uint8_t) (ADC_InitStruct->ADC_NbrOfChannel - (uint8_t)1);
 16962              		.loc 1 263 0
 16963 0036 097C     		ldrb	r1, [r1, #16]	@ zero_extendqisi2
 16964              	.LVL12:
 258:../../../SDK_embedded/libs/stm32/STM32F10x_StdPeriph_Driver/stm32f10x_adc.c ****   tmpreg1 = ADCx->SQR1;
 16965              		.loc 1 258 0
 16966 0038 C26A     		ldr	r2, [r0, #44]
 16967              	.LVL13:
 16968              		.loc 1 263 0
 16969 003a 4B1E     		subs	r3, r1, #1
 260:../../../SDK_embedded/libs/stm32/STM32F10x_StdPeriph_Driver/stm32f10x_adc.c ****   tmpreg1 &= SQR1_CLEAR_Mask;
 16970              		.loc 1 260 0
 16971 003c 22F47002 		bic	r2, r2, #15728640
 16972              	.LVL14:
 264:../../../SDK_embedded/libs/stm32/STM32F10x_StdPeriph_Driver/stm32f10x_adc.c ****   tmpreg1 |= (uint32_t)tmpreg2 << 20;
 16973              		.loc 1 264 0
 16974 0040 D9B2     		uxtb	r1, r3
 16975 0042 42EA0153 		orr	r3, r2, r1, lsl #20
 16976              	.LVL15:
 265:../../../SDK_embedded/libs/stm32/STM32F10x_StdPeriph_Driver/stm32f10x_adc.c ****   /* Write to ADCx SQR1 */
 266:../../../SDK_embedded/libs/stm32/STM32F10x_StdPeriph_Driver/stm32f10x_adc.c ****   ADCx->SQR1 = tmpreg1;
 16977              		.loc 1 266 0
 16978 0046 C362     		str	r3, [r0, #44]
 267:../../../SDK_embedded/libs/stm32/STM32F10x_StdPeriph_Driver/stm32f10x_adc.c **** }
 16979              		.loc 1 267 0
 16980 0048 10BD     		pop	{r4, pc}
 16981              	.L10:
 16982 004a 00BF     		.align	2
 16983              	.L9:
 16984 004c FDF7F1FF 		.word	-919555
 16985              		.cfi_endproc
 16986              	.LFE30:
 16988              		.section	.text.ADC_StructInit,"ax",%progbits
 16989              		.align	1
 16990              		.global	ADC_StructInit
 16991              		.thumb
 16992              		.thumb_func
 16994              	ADC_StructInit:
 16995              	.LFB31:
 268:../../../SDK_embedded/libs/stm32/STM32F10x_StdPeriph_Driver/stm32f10x_adc.c **** 
 269:../../../SDK_embedded/libs/stm32/STM32F10x_StdPeriph_Driver/stm32f10x_adc.c **** /**
 270:../../../SDK_embedded/libs/stm32/STM32F10x_StdPeriph_Driver/stm32f10x_adc.c ****   * @brief  Fills each ADC_InitStruct member with its default value.
 271:../../../SDK_embedded/libs/stm32/STM32F10x_StdPeriph_Driver/stm32f10x_adc.c ****   * @param  ADC_InitStruct : pointer to an ADC_InitTypeDef structure which will be initialized.
 272:../../../SDK_embedded/libs/stm32/STM32F10x_StdPeriph_Driver/stm32f10x_adc.c ****   * @retval None
 273:../../../SDK_embedded/libs/stm32/STM32F10x_StdPeriph_Driver/stm32f10x_adc.c ****   */
 274:../../../SDK_embedded/libs/stm32/STM32F10x_StdPeriph_Driver/stm32f10x_adc.c **** void ADC_StructInit(ADC_InitTypeDef* ADC_InitStruct)
 275:../../../SDK_embedded/libs/stm32/STM32F10x_StdPeriph_Driver/stm32f10x_adc.c **** {
 16996              		.loc 1 275 0
 16997              		.cfi_startproc
 16998              		@ args = 0, pretend = 0, frame = 0
 16999              		@ frame_needed = 0, uses_anonymous_args = 0
 17000              		@ link register save eliminated.
 17001              	.LVL16:
 276:../../../SDK_embedded/libs/stm32/STM32F10x_StdPeriph_Driver/stm32f10x_adc.c ****   /* Reset ADC init structure parameters values */
 277:../../../SDK_embedded/libs/stm32/STM32F10x_StdPeriph_Driver/stm32f10x_adc.c ****   /* Initialize the ADC_Mode member */
 278:../../../SDK_embedded/libs/stm32/STM32F10x_StdPeriph_Driver/stm32f10x_adc.c ****   ADC_InitStruct->ADC_Mode = ADC_Mode_Independent;
 17002              		.loc 1 278 0
 17003 0000 0021     		movs	r1, #0
 279:../../../SDK_embedded/libs/stm32/STM32F10x_StdPeriph_Driver/stm32f10x_adc.c ****   /* initialize the ADC_ScanConvMode member */
 280:../../../SDK_embedded/libs/stm32/STM32F10x_StdPeriph_Driver/stm32f10x_adc.c ****   ADC_InitStruct->ADC_ScanConvMode = DISABLE;
 281:../../../SDK_embedded/libs/stm32/STM32F10x_StdPeriph_Driver/stm32f10x_adc.c ****   /* Initialize the ADC_ContinuousConvMode member */
 282:../../../SDK_embedded/libs/stm32/STM32F10x_StdPeriph_Driver/stm32f10x_adc.c ****   ADC_InitStruct->ADC_ContinuousConvMode = DISABLE;
 283:../../../SDK_embedded/libs/stm32/STM32F10x_StdPeriph_Driver/stm32f10x_adc.c ****   /* Initialize the ADC_ExternalTrigConv member */
 284:../../../SDK_embedded/libs/stm32/STM32F10x_StdPeriph_Driver/stm32f10x_adc.c ****   ADC_InitStruct->ADC_ExternalTrigConv = ADC_ExternalTrigConv_T1_CC1;
 285:../../../SDK_embedded/libs/stm32/STM32F10x_StdPeriph_Driver/stm32f10x_adc.c ****   /* Initialize the ADC_DataAlign member */
 286:../../../SDK_embedded/libs/stm32/STM32F10x_StdPeriph_Driver/stm32f10x_adc.c ****   ADC_InitStruct->ADC_DataAlign = ADC_DataAlign_Right;
 287:../../../SDK_embedded/libs/stm32/STM32F10x_StdPeriph_Driver/stm32f10x_adc.c ****   /* Initialize the ADC_NbrOfChannel member */
 288:../../../SDK_embedded/libs/stm32/STM32F10x_StdPeriph_Driver/stm32f10x_adc.c ****   ADC_InitStruct->ADC_NbrOfChannel = 1;
 17004              		.loc 1 288 0
 17005 0002 0123     		movs	r3, #1
 278:../../../SDK_embedded/libs/stm32/STM32F10x_StdPeriph_Driver/stm32f10x_adc.c ****   ADC_InitStruct->ADC_Mode = ADC_Mode_Independent;
 17006              		.loc 1 278 0
 17007 0004 0160     		str	r1, [r0, #0]
 280:../../../SDK_embedded/libs/stm32/STM32F10x_StdPeriph_Driver/stm32f10x_adc.c ****   ADC_InitStruct->ADC_ScanConvMode = DISABLE;
 17008              		.loc 1 280 0
 17009 0006 0171     		strb	r1, [r0, #4]
 282:../../../SDK_embedded/libs/stm32/STM32F10x_StdPeriph_Driver/stm32f10x_adc.c ****   ADC_InitStruct->ADC_ContinuousConvMode = DISABLE;
 17010              		.loc 1 282 0
 17011 0008 4171     		strb	r1, [r0, #5]
 284:../../../SDK_embedded/libs/stm32/STM32F10x_StdPeriph_Driver/stm32f10x_adc.c ****   ADC_InitStruct->ADC_ExternalTrigConv = ADC_ExternalTrigConv_T1_CC1;
 17012              		.loc 1 284 0
 17013 000a 8160     		str	r1, [r0, #8]
 286:../../../SDK_embedded/libs/stm32/STM32F10x_StdPeriph_Driver/stm32f10x_adc.c ****   ADC_InitStruct->ADC_DataAlign = ADC_DataAlign_Right;
 17014              		.loc 1 286 0
 17015 000c C160     		str	r1, [r0, #12]
 17016              		.loc 1 288 0
 17017 000e 0374     		strb	r3, [r0, #16]
 289:../../../SDK_embedded/libs/stm32/STM32F10x_StdPeriph_Driver/stm32f10x_adc.c **** }
 17018              		.loc 1 289 0
 17019 0010 7047     		bx	lr
 17020              		.cfi_endproc
 17021              	.LFE31:
 17023              		.section	.text.ADC_Cmd,"ax",%progbits
 17024              		.align	1
 17025              		.global	ADC_Cmd
 17026              		.thumb
 17027              		.thumb_func
 17029              	ADC_Cmd:
 17030              	.LFB32:
 290:../../../SDK_embedded/libs/stm32/STM32F10x_StdPeriph_Driver/stm32f10x_adc.c **** 
 291:../../../SDK_embedded/libs/stm32/STM32F10x_StdPeriph_Driver/stm32f10x_adc.c **** /**
 292:../../../SDK_embedded/libs/stm32/STM32F10x_StdPeriph_Driver/stm32f10x_adc.c ****   * @brief  Enables or disables the specified ADC peripheral.
 293:../../../SDK_embedded/libs/stm32/STM32F10x_StdPeriph_Driver/stm32f10x_adc.c ****   * @param  ADCx: where x can be 1, 2 or 3 to select the ADC peripheral.
 294:../../../SDK_embedded/libs/stm32/STM32F10x_StdPeriph_Driver/stm32f10x_adc.c ****   * @param  NewState: new state of the ADCx peripheral.
 295:../../../SDK_embedded/libs/stm32/STM32F10x_StdPeriph_Driver/stm32f10x_adc.c ****   *   This parameter can be: ENABLE or DISABLE.
 296:../../../SDK_embedded/libs/stm32/STM32F10x_StdPeriph_Driver/stm32f10x_adc.c ****   * @retval None
 297:../../../SDK_embedded/libs/stm32/STM32F10x_StdPeriph_Driver/stm32f10x_adc.c ****   */
 298:../../../SDK_embedded/libs/stm32/STM32F10x_StdPeriph_Driver/stm32f10x_adc.c **** void ADC_Cmd(ADC_TypeDef* ADCx, FunctionalState NewState)
 299:../../../SDK_embedded/libs/stm32/STM32F10x_StdPeriph_Driver/stm32f10x_adc.c **** {
 17031              		.loc 1 299 0
 17032              		.cfi_startproc
 17033              		@ args = 0, pretend = 0, frame = 0
 17034              		@ frame_needed = 0, uses_anonymous_args = 0
 17035              		@ link register save eliminated.
 17036              	.LVL17:
 300:../../../SDK_embedded/libs/stm32/STM32F10x_StdPeriph_Driver/stm32f10x_adc.c ****   /* Check the parameters */
 301:../../../SDK_embedded/libs/stm32/STM32F10x_StdPeriph_Driver/stm32f10x_adc.c ****   assert_param(IS_ADC_ALL_PERIPH(ADCx));
 302:../../../SDK_embedded/libs/stm32/STM32F10x_StdPeriph_Driver/stm32f10x_adc.c ****   assert_param(IS_FUNCTIONAL_STATE(NewState));
 303:../../../SDK_embedded/libs/stm32/STM32F10x_StdPeriph_Driver/stm32f10x_adc.c ****   if (NewState != DISABLE)
 17037              		.loc 1 303 0
 17038 0000 19B1     		cbz	r1, .L13
 304:../../../SDK_embedded/libs/stm32/STM32F10x_StdPeriph_Driver/stm32f10x_adc.c ****   {
 305:../../../SDK_embedded/libs/stm32/STM32F10x_StdPeriph_Driver/stm32f10x_adc.c ****     /* Set the ADON bit to wake up the ADC from power down mode */
 306:../../../SDK_embedded/libs/stm32/STM32F10x_StdPeriph_Driver/stm32f10x_adc.c ****     ADCx->CR2 |= CR2_ADON_Set;
 17039              		.loc 1 306 0
 17040 0002 8368     		ldr	r3, [r0, #8]
 17041 0004 43F00103 		orr	r3, r3, #1
 17042 0008 02E0     		b	.L15
 17043              	.L13:
 307:../../../SDK_embedded/libs/stm32/STM32F10x_StdPeriph_Driver/stm32f10x_adc.c ****   }
 308:../../../SDK_embedded/libs/stm32/STM32F10x_StdPeriph_Driver/stm32f10x_adc.c ****   else
 309:../../../SDK_embedded/libs/stm32/STM32F10x_StdPeriph_Driver/stm32f10x_adc.c ****   {
 310:../../../SDK_embedded/libs/stm32/STM32F10x_StdPeriph_Driver/stm32f10x_adc.c ****     /* Disable the selected ADC peripheral */
 311:../../../SDK_embedded/libs/stm32/STM32F10x_StdPeriph_Driver/stm32f10x_adc.c ****     ADCx->CR2 &= CR2_ADON_Reset;
 17044              		.loc 1 311 0
 17045 000a 8168     		ldr	r1, [r0, #8]
 17046              	.LVL18:
 17047 000c 21F00103 		bic	r3, r1, #1
 17048              	.L15:
 17049 0010 8360     		str	r3, [r0, #8]
 17050 0012 7047     		bx	lr
 17051              		.cfi_endproc
 17052              	.LFE32:
 17054              		.section	.text.ADC_DMACmd,"ax",%progbits
 17055              		.align	1
 17056              		.global	ADC_DMACmd
 17057              		.thumb
 17058              		.thumb_func
 17060              	ADC_DMACmd:
 17061              	.LFB33:
 312:../../../SDK_embedded/libs/stm32/STM32F10x_StdPeriph_Driver/stm32f10x_adc.c ****   }
 313:../../../SDK_embedded/libs/stm32/STM32F10x_StdPeriph_Driver/stm32f10x_adc.c **** }
 314:../../../SDK_embedded/libs/stm32/STM32F10x_StdPeriph_Driver/stm32f10x_adc.c **** 
 315:../../../SDK_embedded/libs/stm32/STM32F10x_StdPeriph_Driver/stm32f10x_adc.c **** /**
 316:../../../SDK_embedded/libs/stm32/STM32F10x_StdPeriph_Driver/stm32f10x_adc.c ****   * @brief  Enables or disables the specified ADC DMA request.
 317:../../../SDK_embedded/libs/stm32/STM32F10x_StdPeriph_Driver/stm32f10x_adc.c ****   * @param  ADCx: where x can be 1 or 3 to select the ADC peripheral.
 318:../../../SDK_embedded/libs/stm32/STM32F10x_StdPeriph_Driver/stm32f10x_adc.c ****   *   Note: ADC2 hasn't a DMA capability.
 319:../../../SDK_embedded/libs/stm32/STM32F10x_StdPeriph_Driver/stm32f10x_adc.c ****   * @param  NewState: new state of the selected ADC DMA transfer.
 320:../../../SDK_embedded/libs/stm32/STM32F10x_StdPeriph_Driver/stm32f10x_adc.c ****   *   This parameter can be: ENABLE or DISABLE.
 321:../../../SDK_embedded/libs/stm32/STM32F10x_StdPeriph_Driver/stm32f10x_adc.c ****   * @retval None
 322:../../../SDK_embedded/libs/stm32/STM32F10x_StdPeriph_Driver/stm32f10x_adc.c ****   */
 323:../../../SDK_embedded/libs/stm32/STM32F10x_StdPeriph_Driver/stm32f10x_adc.c **** void ADC_DMACmd(ADC_TypeDef* ADCx, FunctionalState NewState)
 324:../../../SDK_embedded/libs/stm32/STM32F10x_StdPeriph_Driver/stm32f10x_adc.c **** {
 17062              		.loc 1 324 0
 17063              		.cfi_startproc
 17064              		@ args = 0, pretend = 0, frame = 0
 17065              		@ frame_needed = 0, uses_anonymous_args = 0
 17066              		@ link register save eliminated.
 17067              	.LVL19:
 325:../../../SDK_embedded/libs/stm32/STM32F10x_StdPeriph_Driver/stm32f10x_adc.c ****   /* Check the parameters */
 326:../../../SDK_embedded/libs/stm32/STM32F10x_StdPeriph_Driver/stm32f10x_adc.c ****   assert_param(IS_ADC_DMA_PERIPH(ADCx));
 327:../../../SDK_embedded/libs/stm32/STM32F10x_StdPeriph_Driver/stm32f10x_adc.c ****   assert_param(IS_FUNCTIONAL_STATE(NewState));
 328:../../../SDK_embedded/libs/stm32/STM32F10x_StdPeriph_Driver/stm32f10x_adc.c ****   if (NewState != DISABLE)
 17068              		.loc 1 328 0
 17069 0000 19B1     		cbz	r1, .L17
 329:../../../SDK_embedded/libs/stm32/STM32F10x_StdPeriph_Driver/stm32f10x_adc.c ****   {
 330:../../../SDK_embedded/libs/stm32/STM32F10x_StdPeriph_Driver/stm32f10x_adc.c ****     /* Enable the selected ADC DMA request */
 331:../../../SDK_embedded/libs/stm32/STM32F10x_StdPeriph_Driver/stm32f10x_adc.c ****     ADCx->CR2 |= CR2_DMA_Set;
 17070              		.loc 1 331 0
 17071 0002 8368     		ldr	r3, [r0, #8]
 17072 0004 43F48073 		orr	r3, r3, #256
 17073 0008 02E0     		b	.L19
 17074              	.L17:
 332:../../../SDK_embedded/libs/stm32/STM32F10x_StdPeriph_Driver/stm32f10x_adc.c ****   }
 333:../../../SDK_embedded/libs/stm32/STM32F10x_StdPeriph_Driver/stm32f10x_adc.c ****   else
 334:../../../SDK_embedded/libs/stm32/STM32F10x_StdPeriph_Driver/stm32f10x_adc.c ****   {
 335:../../../SDK_embedded/libs/stm32/STM32F10x_StdPeriph_Driver/stm32f10x_adc.c ****     /* Disable the selected ADC DMA request */
 336:../../../SDK_embedded/libs/stm32/STM32F10x_StdPeriph_Driver/stm32f10x_adc.c ****     ADCx->CR2 &= CR2_DMA_Reset;
 17075              		.loc 1 336 0
 17076 000a 8168     		ldr	r1, [r0, #8]
 17077              	.LVL20:
 17078 000c 21F48073 		bic	r3, r1, #256
 17079              	.L19:
 17080 0010 8360     		str	r3, [r0, #8]
 17081 0012 7047     		bx	lr
 17082              		.cfi_endproc
 17083              	.LFE33:
 17085              		.section	.text.ADC_ITConfig,"ax",%progbits
 17086              		.align	1
 17087              		.global	ADC_ITConfig
 17088              		.thumb
 17089              		.thumb_func
 17091              	ADC_ITConfig:
 17092              	.LFB34:
 337:../../../SDK_embedded/libs/stm32/STM32F10x_StdPeriph_Driver/stm32f10x_adc.c ****   }
 338:../../../SDK_embedded/libs/stm32/STM32F10x_StdPeriph_Driver/stm32f10x_adc.c **** }
 339:../../../SDK_embedded/libs/stm32/STM32F10x_StdPeriph_Driver/stm32f10x_adc.c **** 
 340:../../../SDK_embedded/libs/stm32/STM32F10x_StdPeriph_Driver/stm32f10x_adc.c **** /**
 341:../../../SDK_embedded/libs/stm32/STM32F10x_StdPeriph_Driver/stm32f10x_adc.c ****   * @brief  Enables or disables the specified ADC interrupts.
 342:../../../SDK_embedded/libs/stm32/STM32F10x_StdPeriph_Driver/stm32f10x_adc.c ****   * @param  ADCx: where x can be 1, 2 or 3 to select the ADC peripheral.
 343:../../../SDK_embedded/libs/stm32/STM32F10x_StdPeriph_Driver/stm32f10x_adc.c ****   * @param  ADC_IT: specifies the ADC interrupt sources to be enabled or disabled. 
 344:../../../SDK_embedded/libs/stm32/STM32F10x_StdPeriph_Driver/stm32f10x_adc.c ****   *   This parameter can be any combination of the following values:
 345:../../../SDK_embedded/libs/stm32/STM32F10x_StdPeriph_Driver/stm32f10x_adc.c ****   *     @arg ADC_IT_EOC: End of conversion interrupt mask
 346:../../../SDK_embedded/libs/stm32/STM32F10x_StdPeriph_Driver/stm32f10x_adc.c ****   *     @arg ADC_IT_AWD: Analog watchdog interrupt mask
 347:../../../SDK_embedded/libs/stm32/STM32F10x_StdPeriph_Driver/stm32f10x_adc.c ****   *     @arg ADC_IT_JEOC: End of injected conversion interrupt mask
 348:../../../SDK_embedded/libs/stm32/STM32F10x_StdPeriph_Driver/stm32f10x_adc.c ****   * @param  NewState: new state of the specified ADC interrupts.
 349:../../../SDK_embedded/libs/stm32/STM32F10x_StdPeriph_Driver/stm32f10x_adc.c ****   *   This parameter can be: ENABLE or DISABLE.
 350:../../../SDK_embedded/libs/stm32/STM32F10x_StdPeriph_Driver/stm32f10x_adc.c ****   * @retval None
 351:../../../SDK_embedded/libs/stm32/STM32F10x_StdPeriph_Driver/stm32f10x_adc.c ****   */
 352:../../../SDK_embedded/libs/stm32/STM32F10x_StdPeriph_Driver/stm32f10x_adc.c **** void ADC_ITConfig(ADC_TypeDef* ADCx, uint16_t ADC_IT, FunctionalState NewState)
 353:../../../SDK_embedded/libs/stm32/STM32F10x_StdPeriph_Driver/stm32f10x_adc.c **** {
 17093              		.loc 1 353 0
 17094              		.cfi_startproc
 17095              		@ args = 0, pretend = 0, frame = 0
 17096              		@ frame_needed = 0, uses_anonymous_args = 0
 17097              		@ link register save eliminated.
 17098              	.LVL21:
 354:../../../SDK_embedded/libs/stm32/STM32F10x_StdPeriph_Driver/stm32f10x_adc.c ****   uint8_t itmask = 0;
 355:../../../SDK_embedded/libs/stm32/STM32F10x_StdPeriph_Driver/stm32f10x_adc.c ****   /* Check the parameters */
 356:../../../SDK_embedded/libs/stm32/STM32F10x_StdPeriph_Driver/stm32f10x_adc.c ****   assert_param(IS_ADC_ALL_PERIPH(ADCx));
 357:../../../SDK_embedded/libs/stm32/STM32F10x_StdPeriph_Driver/stm32f10x_adc.c ****   assert_param(IS_FUNCTIONAL_STATE(NewState));
 358:../../../SDK_embedded/libs/stm32/STM32F10x_StdPeriph_Driver/stm32f10x_adc.c ****   assert_param(IS_ADC_IT(ADC_IT));
 359:../../../SDK_embedded/libs/stm32/STM32F10x_StdPeriph_Driver/stm32f10x_adc.c ****   /* Get the ADC IT index */
 360:../../../SDK_embedded/libs/stm32/STM32F10x_StdPeriph_Driver/stm32f10x_adc.c ****   itmask = (uint8_t)ADC_IT;
 17099              		.loc 1 360 0
 17100 0000 C9B2     		uxtb	r1, r1
 17101              	.LVL22:
 361:../../../SDK_embedded/libs/stm32/STM32F10x_StdPeriph_Driver/stm32f10x_adc.c ****   if (NewState != DISABLE)
 17102              		.loc 1 361 0
 17103 0002 12B1     		cbz	r2, .L21
 362:../../../SDK_embedded/libs/stm32/STM32F10x_StdPeriph_Driver/stm32f10x_adc.c ****   {
 363:../../../SDK_embedded/libs/stm32/STM32F10x_StdPeriph_Driver/stm32f10x_adc.c ****     /* Enable the selected ADC interrupts */
 364:../../../SDK_embedded/libs/stm32/STM32F10x_StdPeriph_Driver/stm32f10x_adc.c ****     ADCx->CR1 |= itmask;
 17104              		.loc 1 364 0
 17105 0004 4368     		ldr	r3, [r0, #4]
 17106 0006 1943     		orrs	r1, r1, r3
 17107              	.LVL23:
 17108 0008 02E0     		b	.L23
 17109              	.LVL24:
 17110              	.L21:
 365:../../../SDK_embedded/libs/stm32/STM32F10x_StdPeriph_Driver/stm32f10x_adc.c ****   }
 366:../../../SDK_embedded/libs/stm32/STM32F10x_StdPeriph_Driver/stm32f10x_adc.c ****   else
 367:../../../SDK_embedded/libs/stm32/STM32F10x_StdPeriph_Driver/stm32f10x_adc.c ****   {
 368:../../../SDK_embedded/libs/stm32/STM32F10x_StdPeriph_Driver/stm32f10x_adc.c ****     /* Disable the selected ADC interrupts */
 369:../../../SDK_embedded/libs/stm32/STM32F10x_StdPeriph_Driver/stm32f10x_adc.c ****     ADCx->CR1 &= (~(uint32_t)itmask);
 17111              		.loc 1 369 0
 17112 000a 4268     		ldr	r2, [r0, #4]
 17113              	.LVL25:
 17114 000c 22EA0101 		bic	r1, r2, r1
 17115              	.LVL26:
 17116              	.L23:
 17117 0010 4160     		str	r1, [r0, #4]
 17118 0012 7047     		bx	lr
 17119              		.cfi_endproc
 17120              	.LFE34:
 17122              		.section	.text.ADC_ResetCalibration,"ax",%progbits
 17123              		.align	1
 17124              		.global	ADC_ResetCalibration
 17125              		.thumb
 17126              		.thumb_func
 17128              	ADC_ResetCalibration:
 17129              	.LFB35:
 370:../../../SDK_embedded/libs/stm32/STM32F10x_StdPeriph_Driver/stm32f10x_adc.c ****   }
 371:../../../SDK_embedded/libs/stm32/STM32F10x_StdPeriph_Driver/stm32f10x_adc.c **** }
 372:../../../SDK_embedded/libs/stm32/STM32F10x_StdPeriph_Driver/stm32f10x_adc.c **** 
 373:../../../SDK_embedded/libs/stm32/STM32F10x_StdPeriph_Driver/stm32f10x_adc.c **** /**
 374:../../../SDK_embedded/libs/stm32/STM32F10x_StdPeriph_Driver/stm32f10x_adc.c ****   * @brief  Resets the selected ADC calibration registers.
 375:../../../SDK_embedded/libs/stm32/STM32F10x_StdPeriph_Driver/stm32f10x_adc.c ****   * @param  ADCx: where x can be 1, 2 or 3 to select the ADC peripheral.
 376:../../../SDK_embedded/libs/stm32/STM32F10x_StdPeriph_Driver/stm32f10x_adc.c ****   * @retval None
 377:../../../SDK_embedded/libs/stm32/STM32F10x_StdPeriph_Driver/stm32f10x_adc.c ****   */
 378:../../../SDK_embedded/libs/stm32/STM32F10x_StdPeriph_Driver/stm32f10x_adc.c **** void ADC_ResetCalibration(ADC_TypeDef* ADCx)
 379:../../../SDK_embedded/libs/stm32/STM32F10x_StdPeriph_Driver/stm32f10x_adc.c **** {
 17130              		.loc 1 379 0
 17131              		.cfi_startproc
 17132              		@ args = 0, pretend = 0, frame = 0
 17133              		@ frame_needed = 0, uses_anonymous_args = 0
 17134              		@ link register save eliminated.
 17135              	.LVL27:
 380:../../../SDK_embedded/libs/stm32/STM32F10x_StdPeriph_Driver/stm32f10x_adc.c ****   /* Check the parameters */
 381:../../../SDK_embedded/libs/stm32/STM32F10x_StdPeriph_Driver/stm32f10x_adc.c ****   assert_param(IS_ADC_ALL_PERIPH(ADCx));
 382:../../../SDK_embedded/libs/stm32/STM32F10x_StdPeriph_Driver/stm32f10x_adc.c ****   /* Resets the selected ADC calibartion registers */  
 383:../../../SDK_embedded/libs/stm32/STM32F10x_StdPeriph_Driver/stm32f10x_adc.c ****   ADCx->CR2 |= CR2_RSTCAL_Set;
 17136              		.loc 1 383 0
 17137 0000 8168     		ldr	r1, [r0, #8]
 17138 0002 41F00803 		orr	r3, r1, #8
 17139 0006 8360     		str	r3, [r0, #8]
 384:../../../SDK_embedded/libs/stm32/STM32F10x_StdPeriph_Driver/stm32f10x_adc.c **** }
 17140              		.loc 1 384 0
 17141 0008 7047     		bx	lr
 17142              		.cfi_endproc
 17143              	.LFE35:
 17145              		.section	.text.ADC_GetResetCalibrationStatus,"ax",%progbits
 17146              		.align	1
 17147              		.global	ADC_GetResetCalibrationStatus
 17148              		.thumb
 17149              		.thumb_func
 17151              	ADC_GetResetCalibrationStatus:
 17152              	.LFB36:
 385:../../../SDK_embedded/libs/stm32/STM32F10x_StdPeriph_Driver/stm32f10x_adc.c **** 
 386:../../../SDK_embedded/libs/stm32/STM32F10x_StdPeriph_Driver/stm32f10x_adc.c **** /**
 387:../../../SDK_embedded/libs/stm32/STM32F10x_StdPeriph_Driver/stm32f10x_adc.c ****   * @brief  Gets the selected ADC reset calibration registers status.
 388:../../../SDK_embedded/libs/stm32/STM32F10x_StdPeriph_Driver/stm32f10x_adc.c ****   * @param  ADCx: where x can be 1, 2 or 3 to select the ADC peripheral.
 389:../../../SDK_embedded/libs/stm32/STM32F10x_StdPeriph_Driver/stm32f10x_adc.c ****   * @retval The new state of ADC reset calibration registers (SET or RESET).
 390:../../../SDK_embedded/libs/stm32/STM32F10x_StdPeriph_Driver/stm32f10x_adc.c ****   */
 391:../../../SDK_embedded/libs/stm32/STM32F10x_StdPeriph_Driver/stm32f10x_adc.c **** FlagStatus ADC_GetResetCalibrationStatus(ADC_TypeDef* ADCx)
 392:../../../SDK_embedded/libs/stm32/STM32F10x_StdPeriph_Driver/stm32f10x_adc.c **** {
 17153              		.loc 1 392 0
 17154              		.cfi_startproc
 17155              		@ args = 0, pretend = 0, frame = 0
 17156              		@ frame_needed = 0, uses_anonymous_args = 0
 17157              		@ link register save eliminated.
 17158              	.LVL28:
 393:../../../SDK_embedded/libs/stm32/STM32F10x_StdPeriph_Driver/stm32f10x_adc.c ****   FlagStatus bitstatus = RESET;
 394:../../../SDK_embedded/libs/stm32/STM32F10x_StdPeriph_Driver/stm32f10x_adc.c ****   /* Check the parameters */
 395:../../../SDK_embedded/libs/stm32/STM32F10x_StdPeriph_Driver/stm32f10x_adc.c ****   assert_param(IS_ADC_ALL_PERIPH(ADCx));
 396:../../../SDK_embedded/libs/stm32/STM32F10x_StdPeriph_Driver/stm32f10x_adc.c ****   /* Check the status of RSTCAL bit */
 397:../../../SDK_embedded/libs/stm32/STM32F10x_StdPeriph_Driver/stm32f10x_adc.c ****   if ((ADCx->CR2 & CR2_RSTCAL_Set) != (uint32_t)RESET)
 17159              		.loc 1 397 0
 17160 0000 8068     		ldr	r0, [r0, #8]
 17161              	.LVL29:
 17162 0002 C0F3C000 		ubfx	r0, r0, #3, #1
 17163              	.LVL30:
 398:../../../SDK_embedded/libs/stm32/STM32F10x_StdPeriph_Driver/stm32f10x_adc.c ****   {
 399:../../../SDK_embedded/libs/stm32/STM32F10x_StdPeriph_Driver/stm32f10x_adc.c ****     /* RSTCAL bit is set */
 400:../../../SDK_embedded/libs/stm32/STM32F10x_StdPeriph_Driver/stm32f10x_adc.c ****     bitstatus = SET;
 401:../../../SDK_embedded/libs/stm32/STM32F10x_StdPeriph_Driver/stm32f10x_adc.c ****   }
 402:../../../SDK_embedded/libs/stm32/STM32F10x_StdPeriph_Driver/stm32f10x_adc.c ****   else
 403:../../../SDK_embedded/libs/stm32/STM32F10x_StdPeriph_Driver/stm32f10x_adc.c ****   {
 404:../../../SDK_embedded/libs/stm32/STM32F10x_StdPeriph_Driver/stm32f10x_adc.c ****     /* RSTCAL bit is reset */
 405:../../../SDK_embedded/libs/stm32/STM32F10x_StdPeriph_Driver/stm32f10x_adc.c ****     bitstatus = RESET;
 406:../../../SDK_embedded/libs/stm32/STM32F10x_StdPeriph_Driver/stm32f10x_adc.c ****   }
 407:../../../SDK_embedded/libs/stm32/STM32F10x_StdPeriph_Driver/stm32f10x_adc.c ****   /* Return the RSTCAL bit status */
 408:../../../SDK_embedded/libs/stm32/STM32F10x_StdPeriph_Driver/stm32f10x_adc.c ****   return  bitstatus;
 409:../../../SDK_embedded/libs/stm32/STM32F10x_StdPeriph_Driver/stm32f10x_adc.c **** }
 17164              		.loc 1 409 0
 17165 0006 7047     		bx	lr
 17166              		.cfi_endproc
 17167              	.LFE36:
 17169              		.section	.text.ADC_StartCalibration,"ax",%progbits
 17170              		.align	1
 17171              		.global	ADC_StartCalibration
 17172              		.thumb
 17173              		.thumb_func
 17175              	ADC_StartCalibration:
 17176              	.LFB37:
 410:../../../SDK_embedded/libs/stm32/STM32F10x_StdPeriph_Driver/stm32f10x_adc.c **** 
 411:../../../SDK_embedded/libs/stm32/STM32F10x_StdPeriph_Driver/stm32f10x_adc.c **** /**
 412:../../../SDK_embedded/libs/stm32/STM32F10x_StdPeriph_Driver/stm32f10x_adc.c ****   * @brief  Starts the selected ADC calibration process.
 413:../../../SDK_embedded/libs/stm32/STM32F10x_StdPeriph_Driver/stm32f10x_adc.c ****   * @param  ADCx: where x can be 1, 2 or 3 to select the ADC peripheral.
 414:../../../SDK_embedded/libs/stm32/STM32F10x_StdPeriph_Driver/stm32f10x_adc.c ****   * @retval None
 415:../../../SDK_embedded/libs/stm32/STM32F10x_StdPeriph_Driver/stm32f10x_adc.c ****   */
 416:../../../SDK_embedded/libs/stm32/STM32F10x_StdPeriph_Driver/stm32f10x_adc.c **** void ADC_StartCalibration(ADC_TypeDef* ADCx)
 417:../../../SDK_embedded/libs/stm32/STM32F10x_StdPeriph_Driver/stm32f10x_adc.c **** {
 17177              		.loc 1 417 0
 17178              		.cfi_startproc
 17179              		@ args = 0, pretend = 0, frame = 0
 17180              		@ frame_needed = 0, uses_anonymous_args = 0
 17181              		@ link register save eliminated.
 17182              	.LVL31:
 418:../../../SDK_embedded/libs/stm32/STM32F10x_StdPeriph_Driver/stm32f10x_adc.c ****   /* Check the parameters */
 419:../../../SDK_embedded/libs/stm32/STM32F10x_StdPeriph_Driver/stm32f10x_adc.c ****   assert_param(IS_ADC_ALL_PERIPH(ADCx));
 420:../../../SDK_embedded/libs/stm32/STM32F10x_StdPeriph_Driver/stm32f10x_adc.c ****   /* Enable the selected ADC calibration process */  
 421:../../../SDK_embedded/libs/stm32/STM32F10x_StdPeriph_Driver/stm32f10x_adc.c ****   ADCx->CR2 |= CR2_CAL_Set;
 17183              		.loc 1 421 0
 17184 0000 8168     		ldr	r1, [r0, #8]
 17185 0002 41F00403 		orr	r3, r1, #4
 17186 0006 8360     		str	r3, [r0, #8]
 422:../../../SDK_embedded/libs/stm32/STM32F10x_StdPeriph_Driver/stm32f10x_adc.c **** }
 17187              		.loc 1 422 0
 17188 0008 7047     		bx	lr
 17189              		.cfi_endproc
 17190              	.LFE37:
 17192              		.section	.text.ADC_GetCalibrationStatus,"ax",%progbits
 17193              		.align	1
 17194              		.global	ADC_GetCalibrationStatus
 17195              		.thumb
 17196              		.thumb_func
 17198              	ADC_GetCalibrationStatus:
 17199              	.LFB38:
 423:../../../SDK_embedded/libs/stm32/STM32F10x_StdPeriph_Driver/stm32f10x_adc.c **** 
 424:../../../SDK_embedded/libs/stm32/STM32F10x_StdPeriph_Driver/stm32f10x_adc.c **** /**
 425:../../../SDK_embedded/libs/stm32/STM32F10x_StdPeriph_Driver/stm32f10x_adc.c ****   * @brief  Gets the selected ADC calibration status.
 426:../../../SDK_embedded/libs/stm32/STM32F10x_StdPeriph_Driver/stm32f10x_adc.c ****   * @param  ADCx: where x can be 1, 2 or 3 to select the ADC peripheral.
 427:../../../SDK_embedded/libs/stm32/STM32F10x_StdPeriph_Driver/stm32f10x_adc.c ****   * @retval The new state of ADC calibration (SET or RESET).
 428:../../../SDK_embedded/libs/stm32/STM32F10x_StdPeriph_Driver/stm32f10x_adc.c ****   */
 429:../../../SDK_embedded/libs/stm32/STM32F10x_StdPeriph_Driver/stm32f10x_adc.c **** FlagStatus ADC_GetCalibrationStatus(ADC_TypeDef* ADCx)
 430:../../../SDK_embedded/libs/stm32/STM32F10x_StdPeriph_Driver/stm32f10x_adc.c **** {
 17200              		.loc 1 430 0
 17201              		.cfi_startproc
 17202              		@ args = 0, pretend = 0, frame = 0
 17203              		@ frame_needed = 0, uses_anonymous_args = 0
 17204              		@ link register save eliminated.
 17205              	.LVL32:
 431:../../../SDK_embedded/libs/stm32/STM32F10x_StdPeriph_Driver/stm32f10x_adc.c ****   FlagStatus bitstatus = RESET;
 432:../../../SDK_embedded/libs/stm32/STM32F10x_StdPeriph_Driver/stm32f10x_adc.c ****   /* Check the parameters */
 433:../../../SDK_embedded/libs/stm32/STM32F10x_StdPeriph_Driver/stm32f10x_adc.c ****   assert_param(IS_ADC_ALL_PERIPH(ADCx));
 434:../../../SDK_embedded/libs/stm32/STM32F10x_StdPeriph_Driver/stm32f10x_adc.c ****   /* Check the status of CAL bit */
 435:../../../SDK_embedded/libs/stm32/STM32F10x_StdPeriph_Driver/stm32f10x_adc.c ****   if ((ADCx->CR2 & CR2_CAL_Set) != (uint32_t)RESET)
 17206              		.loc 1 435 0
 17207 0000 8068     		ldr	r0, [r0, #8]
 17208              	.LVL33:
 17209 0002 C0F38000 		ubfx	r0, r0, #2, #1
 17210              	.LVL34:
 436:../../../SDK_embedded/libs/stm32/STM32F10x_StdPeriph_Driver/stm32f10x_adc.c ****   {
 437:../../../SDK_embedded/libs/stm32/STM32F10x_StdPeriph_Driver/stm32f10x_adc.c ****     /* CAL bit is set: calibration on going */
 438:../../../SDK_embedded/libs/stm32/STM32F10x_StdPeriph_Driver/stm32f10x_adc.c ****     bitstatus = SET;
 439:../../../SDK_embedded/libs/stm32/STM32F10x_StdPeriph_Driver/stm32f10x_adc.c ****   }
 440:../../../SDK_embedded/libs/stm32/STM32F10x_StdPeriph_Driver/stm32f10x_adc.c ****   else
 441:../../../SDK_embedded/libs/stm32/STM32F10x_StdPeriph_Driver/stm32f10x_adc.c ****   {
 442:../../../SDK_embedded/libs/stm32/STM32F10x_StdPeriph_Driver/stm32f10x_adc.c ****     /* CAL bit is reset: end of calibration */
 443:../../../SDK_embedded/libs/stm32/STM32F10x_StdPeriph_Driver/stm32f10x_adc.c ****     bitstatus = RESET;
 444:../../../SDK_embedded/libs/stm32/STM32F10x_StdPeriph_Driver/stm32f10x_adc.c ****   }
 445:../../../SDK_embedded/libs/stm32/STM32F10x_StdPeriph_Driver/stm32f10x_adc.c ****   /* Return the CAL bit status */
 446:../../../SDK_embedded/libs/stm32/STM32F10x_StdPeriph_Driver/stm32f10x_adc.c ****   return  bitstatus;
 447:../../../SDK_embedded/libs/stm32/STM32F10x_StdPeriph_Driver/stm32f10x_adc.c **** }
 17211              		.loc 1 447 0
 17212 0006 7047     		bx	lr
 17213              		.cfi_endproc
 17214              	.LFE38:
 17216              		.section	.text.ADC_SoftwareStartConvCmd,"ax",%progbits
 17217              		.align	1
 17218              		.global	ADC_SoftwareStartConvCmd
 17219              		.thumb
 17220              		.thumb_func
 17222              	ADC_SoftwareStartConvCmd:
 17223              	.LFB39:
 448:../../../SDK_embedded/libs/stm32/STM32F10x_StdPeriph_Driver/stm32f10x_adc.c **** 
 449:../../../SDK_embedded/libs/stm32/STM32F10x_StdPeriph_Driver/stm32f10x_adc.c **** /**
 450:../../../SDK_embedded/libs/stm32/STM32F10x_StdPeriph_Driver/stm32f10x_adc.c ****   * @brief  Enables or disables the selected ADC software start conversion .
 451:../../../SDK_embedded/libs/stm32/STM32F10x_StdPeriph_Driver/stm32f10x_adc.c ****   * @param  ADCx: where x can be 1, 2 or 3 to select the ADC peripheral.
 452:../../../SDK_embedded/libs/stm32/STM32F10x_StdPeriph_Driver/stm32f10x_adc.c ****   * @param  NewState: new state of the selected ADC software start conversion.
 453:../../../SDK_embedded/libs/stm32/STM32F10x_StdPeriph_Driver/stm32f10x_adc.c ****   *   This parameter can be: ENABLE or DISABLE.
 454:../../../SDK_embedded/libs/stm32/STM32F10x_StdPeriph_Driver/stm32f10x_adc.c ****   * @retval None
 455:../../../SDK_embedded/libs/stm32/STM32F10x_StdPeriph_Driver/stm32f10x_adc.c ****   */
 456:../../../SDK_embedded/libs/stm32/STM32F10x_StdPeriph_Driver/stm32f10x_adc.c **** void ADC_SoftwareStartConvCmd(ADC_TypeDef* ADCx, FunctionalState NewState)
 457:../../../SDK_embedded/libs/stm32/STM32F10x_StdPeriph_Driver/stm32f10x_adc.c **** {
 17224              		.loc 1 457 0
 17225              		.cfi_startproc
 17226              		@ args = 0, pretend = 0, frame = 0
 17227              		@ frame_needed = 0, uses_anonymous_args = 0
 17228              		@ link register save eliminated.
 17229              	.LVL35:
 458:../../../SDK_embedded/libs/stm32/STM32F10x_StdPeriph_Driver/stm32f10x_adc.c ****   /* Check the parameters */
 459:../../../SDK_embedded/libs/stm32/STM32F10x_StdPeriph_Driver/stm32f10x_adc.c ****   assert_param(IS_ADC_ALL_PERIPH(ADCx));
 460:../../../SDK_embedded/libs/stm32/STM32F10x_StdPeriph_Driver/stm32f10x_adc.c ****   assert_param(IS_FUNCTIONAL_STATE(NewState));
 461:../../../SDK_embedded/libs/stm32/STM32F10x_StdPeriph_Driver/stm32f10x_adc.c ****   if (NewState != DISABLE)
 17230              		.loc 1 461 0
 17231 0000 19B1     		cbz	r1, .L29
 462:../../../SDK_embedded/libs/stm32/STM32F10x_StdPeriph_Driver/stm32f10x_adc.c ****   {
 463:../../../SDK_embedded/libs/stm32/STM32F10x_StdPeriph_Driver/stm32f10x_adc.c ****     /* Enable the selected ADC conversion on external event and start the selected
 464:../../../SDK_embedded/libs/stm32/STM32F10x_StdPeriph_Driver/stm32f10x_adc.c ****        ADC conversion */
 465:../../../SDK_embedded/libs/stm32/STM32F10x_StdPeriph_Driver/stm32f10x_adc.c ****     ADCx->CR2 |= CR2_EXTTRIG_SWSTART_Set;
 17232              		.loc 1 465 0
 17233 0002 8368     		ldr	r3, [r0, #8]
 17234 0004 43F4A003 		orr	r3, r3, #5242880
 17235 0008 02E0     		b	.L31
 17236              	.L29:
 466:../../../SDK_embedded/libs/stm32/STM32F10x_StdPeriph_Driver/stm32f10x_adc.c ****   }
 467:../../../SDK_embedded/libs/stm32/STM32F10x_StdPeriph_Driver/stm32f10x_adc.c ****   else
 468:../../../SDK_embedded/libs/stm32/STM32F10x_StdPeriph_Driver/stm32f10x_adc.c ****   {
 469:../../../SDK_embedded/libs/stm32/STM32F10x_StdPeriph_Driver/stm32f10x_adc.c ****     /* Disable the selected ADC conversion on external event and stop the selected
 470:../../../SDK_embedded/libs/stm32/STM32F10x_StdPeriph_Driver/stm32f10x_adc.c ****        ADC conversion */
 471:../../../SDK_embedded/libs/stm32/STM32F10x_StdPeriph_Driver/stm32f10x_adc.c ****     ADCx->CR2 &= CR2_EXTTRIG_SWSTART_Reset;
 17237              		.loc 1 471 0
 17238 000a 8168     		ldr	r1, [r0, #8]
 17239              	.LVL36:
 17240 000c 21F4A003 		bic	r3, r1, #5242880
 17241              	.L31:
 17242 0010 8360     		str	r3, [r0, #8]
 17243 0012 7047     		bx	lr
 17244              		.cfi_endproc
 17245              	.LFE39:
 17247              		.section	.text.ADC_GetSoftwareStartConvStatus,"ax",%progbits
 17248              		.align	1
 17249              		.global	ADC_GetSoftwareStartConvStatus
 17250              		.thumb
 17251              		.thumb_func
 17253              	ADC_GetSoftwareStartConvStatus:
 17254              	.LFB40:
 472:../../../SDK_embedded/libs/stm32/STM32F10x_StdPeriph_Driver/stm32f10x_adc.c ****   }
 473:../../../SDK_embedded/libs/stm32/STM32F10x_StdPeriph_Driver/stm32f10x_adc.c **** }
 474:../../../SDK_embedded/libs/stm32/STM32F10x_StdPeriph_Driver/stm32f10x_adc.c **** 
 475:../../../SDK_embedded/libs/stm32/STM32F10x_StdPeriph_Driver/stm32f10x_adc.c **** /**
 476:../../../SDK_embedded/libs/stm32/STM32F10x_StdPeriph_Driver/stm32f10x_adc.c ****   * @brief  Gets the selected ADC Software start conversion Status.
 477:../../../SDK_embedded/libs/stm32/STM32F10x_StdPeriph_Driver/stm32f10x_adc.c ****   * @param  ADCx: where x can be 1, 2 or 3 to select the ADC peripheral.
 478:../../../SDK_embedded/libs/stm32/STM32F10x_StdPeriph_Driver/stm32f10x_adc.c ****   * @retval The new state of ADC software start conversion (SET or RESET).
 479:../../../SDK_embedded/libs/stm32/STM32F10x_StdPeriph_Driver/stm32f10x_adc.c ****   */
 480:../../../SDK_embedded/libs/stm32/STM32F10x_StdPeriph_Driver/stm32f10x_adc.c **** FlagStatus ADC_GetSoftwareStartConvStatus(ADC_TypeDef* ADCx)
 481:../../../SDK_embedded/libs/stm32/STM32F10x_StdPeriph_Driver/stm32f10x_adc.c **** {
 17255              		.loc 1 481 0
 17256              		.cfi_startproc
 17257              		@ args = 0, pretend = 0, frame = 0
 17258              		@ frame_needed = 0, uses_anonymous_args = 0
 17259              		@ link register save eliminated.
 17260              	.LVL37:
 482:../../../SDK_embedded/libs/stm32/STM32F10x_StdPeriph_Driver/stm32f10x_adc.c ****   FlagStatus bitstatus = RESET;
 483:../../../SDK_embedded/libs/stm32/STM32F10x_StdPeriph_Driver/stm32f10x_adc.c ****   /* Check the parameters */
 484:../../../SDK_embedded/libs/stm32/STM32F10x_StdPeriph_Driver/stm32f10x_adc.c ****   assert_param(IS_ADC_ALL_PERIPH(ADCx));
 485:../../../SDK_embedded/libs/stm32/STM32F10x_StdPeriph_Driver/stm32f10x_adc.c ****   /* Check the status of SWSTART bit */
 486:../../../SDK_embedded/libs/stm32/STM32F10x_StdPeriph_Driver/stm32f10x_adc.c ****   if ((ADCx->CR2 & CR2_SWSTART_Set) != (uint32_t)RESET)
 17261              		.loc 1 486 0
 17262 0000 8068     		ldr	r0, [r0, #8]
 17263              	.LVL38:
 17264 0002 C0F38050 		ubfx	r0, r0, #22, #1
 17265              	.LVL39:
 487:../../../SDK_embedded/libs/stm32/STM32F10x_StdPeriph_Driver/stm32f10x_adc.c ****   {
 488:../../../SDK_embedded/libs/stm32/STM32F10x_StdPeriph_Driver/stm32f10x_adc.c ****     /* SWSTART bit is set */
 489:../../../SDK_embedded/libs/stm32/STM32F10x_StdPeriph_Driver/stm32f10x_adc.c ****     bitstatus = SET;
 490:../../../SDK_embedded/libs/stm32/STM32F10x_StdPeriph_Driver/stm32f10x_adc.c ****   }
 491:../../../SDK_embedded/libs/stm32/STM32F10x_StdPeriph_Driver/stm32f10x_adc.c ****   else
 492:../../../SDK_embedded/libs/stm32/STM32F10x_StdPeriph_Driver/stm32f10x_adc.c ****   {
 493:../../../SDK_embedded/libs/stm32/STM32F10x_StdPeriph_Driver/stm32f10x_adc.c ****     /* SWSTART bit is reset */
 494:../../../SDK_embedded/libs/stm32/STM32F10x_StdPeriph_Driver/stm32f10x_adc.c ****     bitstatus = RESET;
 495:../../../SDK_embedded/libs/stm32/STM32F10x_StdPeriph_Driver/stm32f10x_adc.c ****   }
 496:../../../SDK_embedded/libs/stm32/STM32F10x_StdPeriph_Driver/stm32f10x_adc.c ****   /* Return the SWSTART bit status */
 497:../../../SDK_embedded/libs/stm32/STM32F10x_StdPeriph_Driver/stm32f10x_adc.c ****   return  bitstatus;
 498:../../../SDK_embedded/libs/stm32/STM32F10x_StdPeriph_Driver/stm32f10x_adc.c **** }
 17266              		.loc 1 498 0
 17267 0006 7047     		bx	lr
 17268              		.cfi_endproc
 17269              	.LFE40:
 17271              		.section	.text.ADC_DiscModeChannelCountConfig,"ax",%progbits
 17272              		.align	1
 17273              		.global	ADC_DiscModeChannelCountConfig
 17274              		.thumb
 17275              		.thumb_func
 17277              	ADC_DiscModeChannelCountConfig:
 17278              	.LFB41:
 499:../../../SDK_embedded/libs/stm32/STM32F10x_StdPeriph_Driver/stm32f10x_adc.c **** 
 500:../../../SDK_embedded/libs/stm32/STM32F10x_StdPeriph_Driver/stm32f10x_adc.c **** /**
 501:../../../SDK_embedded/libs/stm32/STM32F10x_StdPeriph_Driver/stm32f10x_adc.c ****   * @brief  Configures the discontinuous mode for the selected ADC regular
 502:../../../SDK_embedded/libs/stm32/STM32F10x_StdPeriph_Driver/stm32f10x_adc.c ****   *   group channel.
 503:../../../SDK_embedded/libs/stm32/STM32F10x_StdPeriph_Driver/stm32f10x_adc.c ****   * @param  ADCx: where x can be 1, 2 or 3 to select the ADC peripheral.
 504:../../../SDK_embedded/libs/stm32/STM32F10x_StdPeriph_Driver/stm32f10x_adc.c ****   * @param  Number: specifies the discontinuous mode regular channel
 505:../../../SDK_embedded/libs/stm32/STM32F10x_StdPeriph_Driver/stm32f10x_adc.c ****   *   count value. This number must be between 1 and 8.
 506:../../../SDK_embedded/libs/stm32/STM32F10x_StdPeriph_Driver/stm32f10x_adc.c ****   * @retval None
 507:../../../SDK_embedded/libs/stm32/STM32F10x_StdPeriph_Driver/stm32f10x_adc.c ****   */
 508:../../../SDK_embedded/libs/stm32/STM32F10x_StdPeriph_Driver/stm32f10x_adc.c **** void ADC_DiscModeChannelCountConfig(ADC_TypeDef* ADCx, uint8_t Number)
 509:../../../SDK_embedded/libs/stm32/STM32F10x_StdPeriph_Driver/stm32f10x_adc.c **** {
 17279              		.loc 1 509 0
 17280              		.cfi_startproc
 17281              		@ args = 0, pretend = 0, frame = 0
 17282              		@ frame_needed = 0, uses_anonymous_args = 0
 17283              		@ link register save eliminated.
 17284              	.LVL40:
 510:../../../SDK_embedded/libs/stm32/STM32F10x_StdPeriph_Driver/stm32f10x_adc.c ****   uint32_t tmpreg1 = 0;
 511:../../../SDK_embedded/libs/stm32/STM32F10x_StdPeriph_Driver/stm32f10x_adc.c ****   uint32_t tmpreg2 = 0;
 512:../../../SDK_embedded/libs/stm32/STM32F10x_StdPeriph_Driver/stm32f10x_adc.c ****   /* Check the parameters */
 513:../../../SDK_embedded/libs/stm32/STM32F10x_StdPeriph_Driver/stm32f10x_adc.c ****   assert_param(IS_ADC_ALL_PERIPH(ADCx));
 514:../../../SDK_embedded/libs/stm32/STM32F10x_StdPeriph_Driver/stm32f10x_adc.c ****   assert_param(IS_ADC_REGULAR_DISC_NUMBER(Number));
 515:../../../SDK_embedded/libs/stm32/STM32F10x_StdPeriph_Driver/stm32f10x_adc.c ****   /* Get the old register value */
 516:../../../SDK_embedded/libs/stm32/STM32F10x_StdPeriph_Driver/stm32f10x_adc.c ****   tmpreg1 = ADCx->CR1;
 17285              		.loc 1 516 0
 17286 0000 4268     		ldr	r2, [r0, #4]
 17287              	.LVL41:
 517:../../../SDK_embedded/libs/stm32/STM32F10x_StdPeriph_Driver/stm32f10x_adc.c ****   /* Clear the old discontinuous mode channel count */
 518:../../../SDK_embedded/libs/stm32/STM32F10x_StdPeriph_Driver/stm32f10x_adc.c ****   tmpreg1 &= CR1_DISCNUM_Reset;
 17288              		.loc 1 518 0
 17289 0002 22F46043 		bic	r3, r2, #57344
 17290              	.LVL42:
 519:../../../SDK_embedded/libs/stm32/STM32F10x_StdPeriph_Driver/stm32f10x_adc.c ****   /* Set the discontinuous mode channel count */
 520:../../../SDK_embedded/libs/stm32/STM32F10x_StdPeriph_Driver/stm32f10x_adc.c ****   tmpreg2 = Number - 1;
 17291              		.loc 1 520 0
 17292 0006 4A1E     		subs	r2, r1, #1
 521:../../../SDK_embedded/libs/stm32/STM32F10x_StdPeriph_Driver/stm32f10x_adc.c ****   tmpreg1 |= tmpreg2 << 13;
 17293              		.loc 1 521 0
 17294 0008 43EA4231 		orr	r1, r3, r2, lsl #13
 17295              	.LVL43:
 522:../../../SDK_embedded/libs/stm32/STM32F10x_StdPeriph_Driver/stm32f10x_adc.c ****   /* Store the new register value */
 523:../../../SDK_embedded/libs/stm32/STM32F10x_StdPeriph_Driver/stm32f10x_adc.c ****   ADCx->CR1 = tmpreg1;
 17296              		.loc 1 523 0
 17297 000c 4160     		str	r1, [r0, #4]
 524:../../../SDK_embedded/libs/stm32/STM32F10x_StdPeriph_Driver/stm32f10x_adc.c **** }
 17298              		.loc 1 524 0
 17299 000e 7047     		bx	lr
 17300              		.cfi_endproc
 17301              	.LFE41:
 17303              		.section	.text.ADC_DiscModeCmd,"ax",%progbits
 17304              		.align	1
 17305              		.global	ADC_DiscModeCmd
 17306              		.thumb
 17307              		.thumb_func
 17309              	ADC_DiscModeCmd:
 17310              	.LFB42:
 525:../../../SDK_embedded/libs/stm32/STM32F10x_StdPeriph_Driver/stm32f10x_adc.c **** 
 526:../../../SDK_embedded/libs/stm32/STM32F10x_StdPeriph_Driver/stm32f10x_adc.c **** /**
 527:../../../SDK_embedded/libs/stm32/STM32F10x_StdPeriph_Driver/stm32f10x_adc.c ****   * @brief  Enables or disables the discontinuous mode on regular group
 528:../../../SDK_embedded/libs/stm32/STM32F10x_StdPeriph_Driver/stm32f10x_adc.c ****   *   channel for the specified ADC
 529:../../../SDK_embedded/libs/stm32/STM32F10x_StdPeriph_Driver/stm32f10x_adc.c ****   * @param  ADCx: where x can be 1, 2 or 3 to select the ADC peripheral.
 530:../../../SDK_embedded/libs/stm32/STM32F10x_StdPeriph_Driver/stm32f10x_adc.c ****   * @param  NewState: new state of the selected ADC discontinuous mode
 531:../../../SDK_embedded/libs/stm32/STM32F10x_StdPeriph_Driver/stm32f10x_adc.c ****   *   on regular group channel.
 532:../../../SDK_embedded/libs/stm32/STM32F10x_StdPeriph_Driver/stm32f10x_adc.c ****   *   This parameter can be: ENABLE or DISABLE.
 533:../../../SDK_embedded/libs/stm32/STM32F10x_StdPeriph_Driver/stm32f10x_adc.c ****   * @retval None
 534:../../../SDK_embedded/libs/stm32/STM32F10x_StdPeriph_Driver/stm32f10x_adc.c ****   */
 535:../../../SDK_embedded/libs/stm32/STM32F10x_StdPeriph_Driver/stm32f10x_adc.c **** void ADC_DiscModeCmd(ADC_TypeDef* ADCx, FunctionalState NewState)
 536:../../../SDK_embedded/libs/stm32/STM32F10x_StdPeriph_Driver/stm32f10x_adc.c **** {
 17311              		.loc 1 536 0
 17312              		.cfi_startproc
 17313              		@ args = 0, pretend = 0, frame = 0
 17314              		@ frame_needed = 0, uses_anonymous_args = 0
 17315              		@ link register save eliminated.
 17316              	.LVL44:
 537:../../../SDK_embedded/libs/stm32/STM32F10x_StdPeriph_Driver/stm32f10x_adc.c ****   /* Check the parameters */
 538:../../../SDK_embedded/libs/stm32/STM32F10x_StdPeriph_Driver/stm32f10x_adc.c ****   assert_param(IS_ADC_ALL_PERIPH(ADCx));
 539:../../../SDK_embedded/libs/stm32/STM32F10x_StdPeriph_Driver/stm32f10x_adc.c ****   assert_param(IS_FUNCTIONAL_STATE(NewState));
 540:../../../SDK_embedded/libs/stm32/STM32F10x_StdPeriph_Driver/stm32f10x_adc.c ****   if (NewState != DISABLE)
 17317              		.loc 1 540 0
 17318 0000 19B1     		cbz	r1, .L35
 541:../../../SDK_embedded/libs/stm32/STM32F10x_StdPeriph_Driver/stm32f10x_adc.c ****   {
 542:../../../SDK_embedded/libs/stm32/STM32F10x_StdPeriph_Driver/stm32f10x_adc.c ****     /* Enable the selected ADC regular discontinuous mode */
 543:../../../SDK_embedded/libs/stm32/STM32F10x_StdPeriph_Driver/stm32f10x_adc.c ****     ADCx->CR1 |= CR1_DISCEN_Set;
 17319              		.loc 1 543 0
 17320 0002 4368     		ldr	r3, [r0, #4]
 17321 0004 43F40063 		orr	r3, r3, #2048
 17322 0008 02E0     		b	.L37
 17323              	.L35:
 544:../../../SDK_embedded/libs/stm32/STM32F10x_StdPeriph_Driver/stm32f10x_adc.c ****   }
 545:../../../SDK_embedded/libs/stm32/STM32F10x_StdPeriph_Driver/stm32f10x_adc.c ****   else
 546:../../../SDK_embedded/libs/stm32/STM32F10x_StdPeriph_Driver/stm32f10x_adc.c ****   {
 547:../../../SDK_embedded/libs/stm32/STM32F10x_StdPeriph_Driver/stm32f10x_adc.c ****     /* Disable the selected ADC regular discontinuous mode */
 548:../../../SDK_embedded/libs/stm32/STM32F10x_StdPeriph_Driver/stm32f10x_adc.c ****     ADCx->CR1 &= CR1_DISCEN_Reset;
 17324              		.loc 1 548 0
 17325 000a 4168     		ldr	r1, [r0, #4]
 17326              	.LVL45:
 17327 000c 21F40063 		bic	r3, r1, #2048
 17328              	.L37:
 17329 0010 4360     		str	r3, [r0, #4]
 17330 0012 7047     		bx	lr
 17331              		.cfi_endproc
 17332              	.LFE42:
 17334              		.section	.text.ADC_RegularChannelConfig,"ax",%progbits
 17335              		.align	1
 17336              		.global	ADC_RegularChannelConfig
 17337              		.thumb
 17338              		.thumb_func
 17340              	ADC_RegularChannelConfig:
 17341              	.LFB43:
 549:../../../SDK_embedded/libs/stm32/STM32F10x_StdPeriph_Driver/stm32f10x_adc.c ****   }
 550:../../../SDK_embedded/libs/stm32/STM32F10x_StdPeriph_Driver/stm32f10x_adc.c **** }
 551:../../../SDK_embedded/libs/stm32/STM32F10x_StdPeriph_Driver/stm32f10x_adc.c **** 
 552:../../../SDK_embedded/libs/stm32/STM32F10x_StdPeriph_Driver/stm32f10x_adc.c **** /**
 553:../../../SDK_embedded/libs/stm32/STM32F10x_StdPeriph_Driver/stm32f10x_adc.c ****   * @brief  Configures for the selected ADC regular channel its corresponding
 554:../../../SDK_embedded/libs/stm32/STM32F10x_StdPeriph_Driver/stm32f10x_adc.c ****   *   rank in the sequencer and its sample time.
 555:../../../SDK_embedded/libs/stm32/STM32F10x_StdPeriph_Driver/stm32f10x_adc.c ****   * @param  ADCx: where x can be 1, 2 or 3 to select the ADC peripheral.
 556:../../../SDK_embedded/libs/stm32/STM32F10x_StdPeriph_Driver/stm32f10x_adc.c ****   * @param  ADC_Channel: the ADC channel to configure. 
 557:../../../SDK_embedded/libs/stm32/STM32F10x_StdPeriph_Driver/stm32f10x_adc.c ****   *   This parameter can be one of the following values:
 558:../../../SDK_embedded/libs/stm32/STM32F10x_StdPeriph_Driver/stm32f10x_adc.c ****   *     @arg ADC_Channel_0: ADC Channel0 selected
 559:../../../SDK_embedded/libs/stm32/STM32F10x_StdPeriph_Driver/stm32f10x_adc.c ****   *     @arg ADC_Channel_1: ADC Channel1 selected
 560:../../../SDK_embedded/libs/stm32/STM32F10x_StdPeriph_Driver/stm32f10x_adc.c ****   *     @arg ADC_Channel_2: ADC Channel2 selected
 561:../../../SDK_embedded/libs/stm32/STM32F10x_StdPeriph_Driver/stm32f10x_adc.c ****   *     @arg ADC_Channel_3: ADC Channel3 selected
 562:../../../SDK_embedded/libs/stm32/STM32F10x_StdPeriph_Driver/stm32f10x_adc.c ****   *     @arg ADC_Channel_4: ADC Channel4 selected
 563:../../../SDK_embedded/libs/stm32/STM32F10x_StdPeriph_Driver/stm32f10x_adc.c ****   *     @arg ADC_Channel_5: ADC Channel5 selected
 564:../../../SDK_embedded/libs/stm32/STM32F10x_StdPeriph_Driver/stm32f10x_adc.c ****   *     @arg ADC_Channel_6: ADC Channel6 selected
 565:../../../SDK_embedded/libs/stm32/STM32F10x_StdPeriph_Driver/stm32f10x_adc.c ****   *     @arg ADC_Channel_7: ADC Channel7 selected
 566:../../../SDK_embedded/libs/stm32/STM32F10x_StdPeriph_Driver/stm32f10x_adc.c ****   *     @arg ADC_Channel_8: ADC Channel8 selected
 567:../../../SDK_embedded/libs/stm32/STM32F10x_StdPeriph_Driver/stm32f10x_adc.c ****   *     @arg ADC_Channel_9: ADC Channel9 selected
 568:../../../SDK_embedded/libs/stm32/STM32F10x_StdPeriph_Driver/stm32f10x_adc.c ****   *     @arg ADC_Channel_10: ADC Channel10 selected
 569:../../../SDK_embedded/libs/stm32/STM32F10x_StdPeriph_Driver/stm32f10x_adc.c ****   *     @arg ADC_Channel_11: ADC Channel11 selected
 570:../../../SDK_embedded/libs/stm32/STM32F10x_StdPeriph_Driver/stm32f10x_adc.c ****   *     @arg ADC_Channel_12: ADC Channel12 selected
 571:../../../SDK_embedded/libs/stm32/STM32F10x_StdPeriph_Driver/stm32f10x_adc.c ****   *     @arg ADC_Channel_13: ADC Channel13 selected
 572:../../../SDK_embedded/libs/stm32/STM32F10x_StdPeriph_Driver/stm32f10x_adc.c ****   *     @arg ADC_Channel_14: ADC Channel14 selected
 573:../../../SDK_embedded/libs/stm32/STM32F10x_StdPeriph_Driver/stm32f10x_adc.c ****   *     @arg ADC_Channel_15: ADC Channel15 selected
 574:../../../SDK_embedded/libs/stm32/STM32F10x_StdPeriph_Driver/stm32f10x_adc.c ****   *     @arg ADC_Channel_16: ADC Channel16 selected
 575:../../../SDK_embedded/libs/stm32/STM32F10x_StdPeriph_Driver/stm32f10x_adc.c ****   *     @arg ADC_Channel_17: ADC Channel17 selected
 576:../../../SDK_embedded/libs/stm32/STM32F10x_StdPeriph_Driver/stm32f10x_adc.c ****   * @param  Rank: The rank in the regular group sequencer. This parameter must be between 1 to 16.
 577:../../../SDK_embedded/libs/stm32/STM32F10x_StdPeriph_Driver/stm32f10x_adc.c ****   * @param  ADC_SampleTime: The sample time value to be set for the selected channel. 
 578:../../../SDK_embedded/libs/stm32/STM32F10x_StdPeriph_Driver/stm32f10x_adc.c ****   *   This parameter can be one of the following values:
 579:../../../SDK_embedded/libs/stm32/STM32F10x_StdPeriph_Driver/stm32f10x_adc.c ****   *     @arg ADC_SampleTime_1Cycles5: Sample time equal to 1.5 cycles
 580:../../../SDK_embedded/libs/stm32/STM32F10x_StdPeriph_Driver/stm32f10x_adc.c ****   *     @arg ADC_SampleTime_7Cycles5: Sample time equal to 7.5 cycles
 581:../../../SDK_embedded/libs/stm32/STM32F10x_StdPeriph_Driver/stm32f10x_adc.c ****   *     @arg ADC_SampleTime_13Cycles5: Sample time equal to 13.5 cycles
 582:../../../SDK_embedded/libs/stm32/STM32F10x_StdPeriph_Driver/stm32f10x_adc.c ****   *     @arg ADC_SampleTime_28Cycles5: Sample time equal to 28.5 cycles	
 583:../../../SDK_embedded/libs/stm32/STM32F10x_StdPeriph_Driver/stm32f10x_adc.c ****   *     @arg ADC_SampleTime_41Cycles5: Sample time equal to 41.5 cycles	
 584:../../../SDK_embedded/libs/stm32/STM32F10x_StdPeriph_Driver/stm32f10x_adc.c ****   *     @arg ADC_SampleTime_55Cycles5: Sample time equal to 55.5 cycles	
 585:../../../SDK_embedded/libs/stm32/STM32F10x_StdPeriph_Driver/stm32f10x_adc.c ****   *     @arg ADC_SampleTime_71Cycles5: Sample time equal to 71.5 cycles	
 586:../../../SDK_embedded/libs/stm32/STM32F10x_StdPeriph_Driver/stm32f10x_adc.c ****   *     @arg ADC_SampleTime_239Cycles5: Sample time equal to 239.5 cycles	
 587:../../../SDK_embedded/libs/stm32/STM32F10x_StdPeriph_Driver/stm32f10x_adc.c ****   * @retval None
 588:../../../SDK_embedded/libs/stm32/STM32F10x_StdPeriph_Driver/stm32f10x_adc.c ****   */
 589:../../../SDK_embedded/libs/stm32/STM32F10x_StdPeriph_Driver/stm32f10x_adc.c **** void ADC_RegularChannelConfig(ADC_TypeDef* ADCx, uint8_t ADC_Channel, uint8_t Rank, uint8_t ADC_Sam
 590:../../../SDK_embedded/libs/stm32/STM32F10x_StdPeriph_Driver/stm32f10x_adc.c **** {
 17342              		.loc 1 590 0
 17343              		.cfi_startproc
 17344              		@ args = 0, pretend = 0, frame = 0
 17345              		@ frame_needed = 0, uses_anonymous_args = 0
 17346              	.LVL46:
 591:../../../SDK_embedded/libs/stm32/STM32F10x_StdPeriph_Driver/stm32f10x_adc.c ****   uint32_t tmpreg1 = 0, tmpreg2 = 0;
 592:../../../SDK_embedded/libs/stm32/STM32F10x_StdPeriph_Driver/stm32f10x_adc.c ****   /* Check the parameters */
 593:../../../SDK_embedded/libs/stm32/STM32F10x_StdPeriph_Driver/stm32f10x_adc.c ****   assert_param(IS_ADC_ALL_PERIPH(ADCx));
 594:../../../SDK_embedded/libs/stm32/STM32F10x_StdPeriph_Driver/stm32f10x_adc.c ****   assert_param(IS_ADC_CHANNEL(ADC_Channel));
 595:../../../SDK_embedded/libs/stm32/STM32F10x_StdPeriph_Driver/stm32f10x_adc.c ****   assert_param(IS_ADC_REGULAR_RANK(Rank));
 596:../../../SDK_embedded/libs/stm32/STM32F10x_StdPeriph_Driver/stm32f10x_adc.c ****   assert_param(IS_ADC_SAMPLE_TIME(ADC_SampleTime));
 597:../../../SDK_embedded/libs/stm32/STM32F10x_StdPeriph_Driver/stm32f10x_adc.c ****   /* if ADC_Channel_10 ... ADC_Channel_17 is selected */
 598:../../../SDK_embedded/libs/stm32/STM32F10x_StdPeriph_Driver/stm32f10x_adc.c ****   if (ADC_Channel > ADC_Channel_9)
 17347              		.loc 1 598 0
 17348 0000 0929     		cmp	r1, #9
 590:../../../SDK_embedded/libs/stm32/STM32F10x_StdPeriph_Driver/stm32f10x_adc.c **** {
 17349              		.loc 1 590 0
 17350 0002 70B5     		push	{r4, r5, r6, lr}
 17351              	.LCFI2:
 17352              		.cfi_def_cfa_offset 16
 17353              		.cfi_offset 14, -4
 17354              		.cfi_offset 6, -8
 17355              		.cfi_offset 5, -12
 17356              		.cfi_offset 4, -16
 17357 0004 4FF00304 		mov	r4, #3
 17358              		.loc 1 598 0
 17359 0008 0BD9     		bls	.L39
 599:../../../SDK_embedded/libs/stm32/STM32F10x_StdPeriph_Driver/stm32f10x_adc.c ****   {
 600:../../../SDK_embedded/libs/stm32/STM32F10x_StdPeriph_Driver/stm32f10x_adc.c ****     /* Get the old register value */
 601:../../../SDK_embedded/libs/stm32/STM32F10x_StdPeriph_Driver/stm32f10x_adc.c ****     tmpreg1 = ADCx->SMPR1;
 602:../../../SDK_embedded/libs/stm32/STM32F10x_StdPeriph_Driver/stm32f10x_adc.c ****     /* Calculate the mask to clear */
 603:../../../SDK_embedded/libs/stm32/STM32F10x_StdPeriph_Driver/stm32f10x_adc.c ****     tmpreg2 = SMPR1_SMP_Set << (3 * (ADC_Channel - 10));
 17360              		.loc 1 603 0
 17361 000a 4C43     		muls	r4, r1, r4
 17362 000c 0725     		movs	r5, #7
 17363 000e 1E3C     		subs	r4, r4, #30
 17364 0010 A540     		lsls	r5, r5, r4
 604:../../../SDK_embedded/libs/stm32/STM32F10x_StdPeriph_Driver/stm32f10x_adc.c ****     /* Clear the old channel sample time */
 605:../../../SDK_embedded/libs/stm32/STM32F10x_StdPeriph_Driver/stm32f10x_adc.c ****     tmpreg1 &= ~tmpreg2;
 606:../../../SDK_embedded/libs/stm32/STM32F10x_StdPeriph_Driver/stm32f10x_adc.c ****     /* Calculate the mask to set */
 607:../../../SDK_embedded/libs/stm32/STM32F10x_StdPeriph_Driver/stm32f10x_adc.c ****     tmpreg2 = (uint32_t)ADC_SampleTime << (3 * (ADC_Channel - 10));
 17365              		.loc 1 607 0
 17366 0012 A340     		lsls	r3, r3, r4
 17367              	.LVL47:
 601:../../../SDK_embedded/libs/stm32/STM32F10x_StdPeriph_Driver/stm32f10x_adc.c ****     tmpreg1 = ADCx->SMPR1;
 17368              		.loc 1 601 0
 17369 0014 C668     		ldr	r6, [r0, #12]
 17370              	.LVL48:
 605:../../../SDK_embedded/libs/stm32/STM32F10x_StdPeriph_Driver/stm32f10x_adc.c ****     tmpreg1 &= ~tmpreg2;
 17371              		.loc 1 605 0
 17372 0016 26EA0505 		bic	r5, r6, r5
 17373              	.LVL49:
 608:../../../SDK_embedded/libs/stm32/STM32F10x_StdPeriph_Driver/stm32f10x_adc.c ****     /* Set the new channel sample time */
 609:../../../SDK_embedded/libs/stm32/STM32F10x_StdPeriph_Driver/stm32f10x_adc.c ****     tmpreg1 |= tmpreg2;
 17374              		.loc 1 609 0
 17375 001a 45EA0304 		orr	r4, r5, r3
 17376              	.LVL50:
 610:../../../SDK_embedded/libs/stm32/STM32F10x_StdPeriph_Driver/stm32f10x_adc.c ****     /* Store the new register value */
 611:../../../SDK_embedded/libs/stm32/STM32F10x_StdPeriph_Driver/stm32f10x_adc.c ****     ADCx->SMPR1 = tmpreg1;
 17377              		.loc 1 611 0
 17378 001e C460     		str	r4, [r0, #12]
 17379 0020 09E0     		b	.L40
 17380              	.LVL51:
 17381              	.L39:
 612:../../../SDK_embedded/libs/stm32/STM32F10x_StdPeriph_Driver/stm32f10x_adc.c ****   }
 613:../../../SDK_embedded/libs/stm32/STM32F10x_StdPeriph_Driver/stm32f10x_adc.c ****   else /* ADC_Channel include in ADC_Channel_[0..9] */
 614:../../../SDK_embedded/libs/stm32/STM32F10x_StdPeriph_Driver/stm32f10x_adc.c ****   {
 615:../../../SDK_embedded/libs/stm32/STM32F10x_StdPeriph_Driver/stm32f10x_adc.c ****     /* Get the old register value */
 616:../../../SDK_embedded/libs/stm32/STM32F10x_StdPeriph_Driver/stm32f10x_adc.c ****     tmpreg1 = ADCx->SMPR2;
 617:../../../SDK_embedded/libs/stm32/STM32F10x_StdPeriph_Driver/stm32f10x_adc.c ****     /* Calculate the mask to clear */
 618:../../../SDK_embedded/libs/stm32/STM32F10x_StdPeriph_Driver/stm32f10x_adc.c ****     tmpreg2 = SMPR2_SMP_Set << (3 * ADC_Channel);
 17382              		.loc 1 618 0
 17383 0022 4C43     		muls	r4, r1, r4
 17384 0024 0725     		movs	r5, #7
 17385 0026 A540     		lsls	r5, r5, r4
 619:../../../SDK_embedded/libs/stm32/STM32F10x_StdPeriph_Driver/stm32f10x_adc.c ****     /* Clear the old channel sample time */
 620:../../../SDK_embedded/libs/stm32/STM32F10x_StdPeriph_Driver/stm32f10x_adc.c ****     tmpreg1 &= ~tmpreg2;
 621:../../../SDK_embedded/libs/stm32/STM32F10x_StdPeriph_Driver/stm32f10x_adc.c ****     /* Calculate the mask to set */
 622:../../../SDK_embedded/libs/stm32/STM32F10x_StdPeriph_Driver/stm32f10x_adc.c ****     tmpreg2 = (uint32_t)ADC_SampleTime << (3 * ADC_Channel);
 17386              		.loc 1 622 0
 17387 0028 A340     		lsls	r3, r3, r4
 17388              	.LVL52:
 616:../../../SDK_embedded/libs/stm32/STM32F10x_StdPeriph_Driver/stm32f10x_adc.c ****     tmpreg1 = ADCx->SMPR2;
 17389              		.loc 1 616 0
 17390 002a 0669     		ldr	r6, [r0, #16]
 17391              	.LVL53:
 620:../../../SDK_embedded/libs/stm32/STM32F10x_StdPeriph_Driver/stm32f10x_adc.c ****     tmpreg1 &= ~tmpreg2;
 17392              		.loc 1 620 0
 17393 002c 26EA0505 		bic	r5, r6, r5
 17394              	.LVL54:
 623:../../../SDK_embedded/libs/stm32/STM32F10x_StdPeriph_Driver/stm32f10x_adc.c ****     /* Set the new channel sample time */
 624:../../../SDK_embedded/libs/stm32/STM32F10x_StdPeriph_Driver/stm32f10x_adc.c ****     tmpreg1 |= tmpreg2;
 17395              		.loc 1 624 0
 17396 0030 45EA0304 		orr	r4, r5, r3
 17397              	.LVL55:
 625:../../../SDK_embedded/libs/stm32/STM32F10x_StdPeriph_Driver/stm32f10x_adc.c ****     /* Store the new register value */
 626:../../../SDK_embedded/libs/stm32/STM32F10x_StdPeriph_Driver/stm32f10x_adc.c ****     ADCx->SMPR2 = tmpreg1;
 17398              		.loc 1 626 0
 17399 0034 0461     		str	r4, [r0, #16]
 17400              	.L40:
 627:../../../SDK_embedded/libs/stm32/STM32F10x_StdPeriph_Driver/stm32f10x_adc.c ****   }
 628:../../../SDK_embedded/libs/stm32/STM32F10x_StdPeriph_Driver/stm32f10x_adc.c ****   /* For Rank 1 to 6 */
 629:../../../SDK_embedded/libs/stm32/STM32F10x_StdPeriph_Driver/stm32f10x_adc.c ****   if (Rank < 7)
 17401              		.loc 1 629 0
 17402 0036 062A     		cmp	r2, #6
 17403 0038 4FF00503 		mov	r3, #5
 17404 003c 0CD8     		bhi	.L41
 630:../../../SDK_embedded/libs/stm32/STM32F10x_StdPeriph_Driver/stm32f10x_adc.c ****   {
 631:../../../SDK_embedded/libs/stm32/STM32F10x_StdPeriph_Driver/stm32f10x_adc.c ****     /* Get the old register value */
 632:../../../SDK_embedded/libs/stm32/STM32F10x_StdPeriph_Driver/stm32f10x_adc.c ****     tmpreg1 = ADCx->SQR3;
 633:../../../SDK_embedded/libs/stm32/STM32F10x_StdPeriph_Driver/stm32f10x_adc.c ****     /* Calculate the mask to clear */
 634:../../../SDK_embedded/libs/stm32/STM32F10x_StdPeriph_Driver/stm32f10x_adc.c ****     tmpreg2 = SQR3_SQ_Set << (5 * (Rank - 1));
 17405              		.loc 1 634 0
 17406 003e 013A     		subs	r2, r2, #1
 17407              	.LVL56:
 17408 0040 5343     		muls	r3, r2, r3
 17409 0042 1F22     		movs	r2, #31
 17410 0044 9A40     		lsls	r2, r2, r3
 635:../../../SDK_embedded/libs/stm32/STM32F10x_StdPeriph_Driver/stm32f10x_adc.c ****     /* Clear the old SQx bits for the selected rank */
 636:../../../SDK_embedded/libs/stm32/STM32F10x_StdPeriph_Driver/stm32f10x_adc.c ****     tmpreg1 &= ~tmpreg2;
 637:../../../SDK_embedded/libs/stm32/STM32F10x_StdPeriph_Driver/stm32f10x_adc.c ****     /* Calculate the mask to set */
 638:../../../SDK_embedded/libs/stm32/STM32F10x_StdPeriph_Driver/stm32f10x_adc.c ****     tmpreg2 = (uint32_t)ADC_Channel << (5 * (Rank - 1));
 17411              		.loc 1 638 0
 17412 0046 11FA03F3 		lsls	r3, r1, r3
 632:../../../SDK_embedded/libs/stm32/STM32F10x_StdPeriph_Driver/stm32f10x_adc.c ****     tmpreg1 = ADCx->SQR3;
 17413              		.loc 1 632 0
 17414 004a 446B     		ldr	r4, [r0, #52]
 17415              	.LVL57:
 636:../../../SDK_embedded/libs/stm32/STM32F10x_StdPeriph_Driver/stm32f10x_adc.c ****     tmpreg1 &= ~tmpreg2;
 17416              		.loc 1 636 0
 17417 004c 24EA0202 		bic	r2, r4, r2
 17418              	.LVL58:
 639:../../../SDK_embedded/libs/stm32/STM32F10x_StdPeriph_Driver/stm32f10x_adc.c ****     /* Set the SQx bits for the selected rank */
 640:../../../SDK_embedded/libs/stm32/STM32F10x_StdPeriph_Driver/stm32f10x_adc.c ****     tmpreg1 |= tmpreg2;
 17419              		.loc 1 640 0
 17420 0050 42EA0301 		orr	r1, r2, r3
 17421              	.LVL59:
 641:../../../SDK_embedded/libs/stm32/STM32F10x_StdPeriph_Driver/stm32f10x_adc.c ****     /* Store the new register value */
 642:../../../SDK_embedded/libs/stm32/STM32F10x_StdPeriph_Driver/stm32f10x_adc.c ****     ADCx->SQR3 = tmpreg1;
 17422              		.loc 1 642 0
 17423 0054 4163     		str	r1, [r0, #52]
 17424 0056 70BD     		pop	{r4, r5, r6, pc}
 17425              	.LVL60:
 17426              	.L41:
 643:../../../SDK_embedded/libs/stm32/STM32F10x_StdPeriph_Driver/stm32f10x_adc.c ****   }
 644:../../../SDK_embedded/libs/stm32/STM32F10x_StdPeriph_Driver/stm32f10x_adc.c ****   /* For Rank 7 to 12 */
 645:../../../SDK_embedded/libs/stm32/STM32F10x_StdPeriph_Driver/stm32f10x_adc.c ****   else if (Rank < 13)
 17427              		.loc 1 645 0
 17428 0058 0C2A     		cmp	r2, #12
 17429 005a 0CD8     		bhi	.L43
 646:../../../SDK_embedded/libs/stm32/STM32F10x_StdPeriph_Driver/stm32f10x_adc.c ****   {
 647:../../../SDK_embedded/libs/stm32/STM32F10x_StdPeriph_Driver/stm32f10x_adc.c ****     /* Get the old register value */
 648:../../../SDK_embedded/libs/stm32/STM32F10x_StdPeriph_Driver/stm32f10x_adc.c ****     tmpreg1 = ADCx->SQR2;
 649:../../../SDK_embedded/libs/stm32/STM32F10x_StdPeriph_Driver/stm32f10x_adc.c ****     /* Calculate the mask to clear */
 650:../../../SDK_embedded/libs/stm32/STM32F10x_StdPeriph_Driver/stm32f10x_adc.c ****     tmpreg2 = SQR2_SQ_Set << (5 * (Rank - 7));
 17430              		.loc 1 650 0
 17431 005c 5343     		muls	r3, r2, r3
 17432 005e 1F22     		movs	r2, #31
 17433              	.LVL61:
 17434 0060 233B     		subs	r3, r3, #35
 17435 0062 9A40     		lsls	r2, r2, r3
 651:../../../SDK_embedded/libs/stm32/STM32F10x_StdPeriph_Driver/stm32f10x_adc.c ****     /* Clear the old SQx bits for the selected rank */
 652:../../../SDK_embedded/libs/stm32/STM32F10x_StdPeriph_Driver/stm32f10x_adc.c ****     tmpreg1 &= ~tmpreg2;
 653:../../../SDK_embedded/libs/stm32/STM32F10x_StdPeriph_Driver/stm32f10x_adc.c ****     /* Calculate the mask to set */
 654:../../../SDK_embedded/libs/stm32/STM32F10x_StdPeriph_Driver/stm32f10x_adc.c ****     tmpreg2 = (uint32_t)ADC_Channel << (5 * (Rank - 7));
 17436              		.loc 1 654 0
 17437 0064 11FA03F3 		lsls	r3, r1, r3
 648:../../../SDK_embedded/libs/stm32/STM32F10x_StdPeriph_Driver/stm32f10x_adc.c ****     tmpreg1 = ADCx->SQR2;
 17438              		.loc 1 648 0
 17439 0068 046B     		ldr	r4, [r0, #48]
 17440              	.LVL62:
 652:../../../SDK_embedded/libs/stm32/STM32F10x_StdPeriph_Driver/stm32f10x_adc.c ****     tmpreg1 &= ~tmpreg2;
 17441              		.loc 1 652 0
 17442 006a 24EA020C 		bic	ip, r4, r2
 17443              	.LVL63:
 655:../../../SDK_embedded/libs/stm32/STM32F10x_StdPeriph_Driver/stm32f10x_adc.c ****     /* Set the SQx bits for the selected rank */
 656:../../../SDK_embedded/libs/stm32/STM32F10x_StdPeriph_Driver/stm32f10x_adc.c ****     tmpreg1 |= tmpreg2;
 17444              		.loc 1 656 0
 17445 006e 4CEA0301 		orr	r1, ip, r3
 17446              	.LVL64:
 657:../../../SDK_embedded/libs/stm32/STM32F10x_StdPeriph_Driver/stm32f10x_adc.c ****     /* Store the new register value */
 658:../../../SDK_embedded/libs/stm32/STM32F10x_StdPeriph_Driver/stm32f10x_adc.c ****     ADCx->SQR2 = tmpreg1;
 17447              		.loc 1 658 0
 17448 0072 0163     		str	r1, [r0, #48]
 17449 0074 70BD     		pop	{r4, r5, r6, pc}
 17450              	.LVL65:
 17451              	.L43:
 659:../../../SDK_embedded/libs/stm32/STM32F10x_StdPeriph_Driver/stm32f10x_adc.c ****   }
 660:../../../SDK_embedded/libs/stm32/STM32F10x_StdPeriph_Driver/stm32f10x_adc.c ****   /* For Rank 13 to 16 */
 661:../../../SDK_embedded/libs/stm32/STM32F10x_StdPeriph_Driver/stm32f10x_adc.c ****   else
 662:../../../SDK_embedded/libs/stm32/STM32F10x_StdPeriph_Driver/stm32f10x_adc.c ****   {
 663:../../../SDK_embedded/libs/stm32/STM32F10x_StdPeriph_Driver/stm32f10x_adc.c ****     /* Get the old register value */
 664:../../../SDK_embedded/libs/stm32/STM32F10x_StdPeriph_Driver/stm32f10x_adc.c ****     tmpreg1 = ADCx->SQR1;
 665:../../../SDK_embedded/libs/stm32/STM32F10x_StdPeriph_Driver/stm32f10x_adc.c ****     /* Calculate the mask to clear */
 666:../../../SDK_embedded/libs/stm32/STM32F10x_StdPeriph_Driver/stm32f10x_adc.c ****     tmpreg2 = SQR1_SQ_Set << (5 * (Rank - 13));
 17452              		.loc 1 666 0
 17453 0076 5343     		muls	r3, r2, r3
 17454 0078 1F22     		movs	r2, #31
 17455              	.LVL66:
 17456 007a 413B     		subs	r3, r3, #65
 17457 007c 9A40     		lsls	r2, r2, r3
 667:../../../SDK_embedded/libs/stm32/STM32F10x_StdPeriph_Driver/stm32f10x_adc.c ****     /* Clear the old SQx bits for the selected rank */
 668:../../../SDK_embedded/libs/stm32/STM32F10x_StdPeriph_Driver/stm32f10x_adc.c ****     tmpreg1 &= ~tmpreg2;
 669:../../../SDK_embedded/libs/stm32/STM32F10x_StdPeriph_Driver/stm32f10x_adc.c ****     /* Calculate the mask to set */
 670:../../../SDK_embedded/libs/stm32/STM32F10x_StdPeriph_Driver/stm32f10x_adc.c ****     tmpreg2 = (uint32_t)ADC_Channel << (5 * (Rank - 13));
 17458              		.loc 1 670 0
 17459 007e 11FA03F3 		lsls	r3, r1, r3
 664:../../../SDK_embedded/libs/stm32/STM32F10x_StdPeriph_Driver/stm32f10x_adc.c ****     tmpreg1 = ADCx->SQR1;
 17460              		.loc 1 664 0
 17461 0082 C46A     		ldr	r4, [r0, #44]
 17462              	.LVL67:
 668:../../../SDK_embedded/libs/stm32/STM32F10x_StdPeriph_Driver/stm32f10x_adc.c ****     tmpreg1 &= ~tmpreg2;
 17463              		.loc 1 668 0
 17464 0084 24EA020C 		bic	ip, r4, r2
 17465              	.LVL68:
 671:../../../SDK_embedded/libs/stm32/STM32F10x_StdPeriph_Driver/stm32f10x_adc.c ****     /* Set the SQx bits for the selected rank */
 672:../../../SDK_embedded/libs/stm32/STM32F10x_StdPeriph_Driver/stm32f10x_adc.c ****     tmpreg1 |= tmpreg2;
 17466              		.loc 1 672 0
 17467 0088 4CEA0301 		orr	r1, ip, r3
 17468              	.LVL69:
 673:../../../SDK_embedded/libs/stm32/STM32F10x_StdPeriph_Driver/stm32f10x_adc.c ****     /* Store the new register value */
 674:../../../SDK_embedded/libs/stm32/STM32F10x_StdPeriph_Driver/stm32f10x_adc.c ****     ADCx->SQR1 = tmpreg1;
 17469              		.loc 1 674 0
 17470 008c C162     		str	r1, [r0, #44]
 17471 008e 70BD     		pop	{r4, r5, r6, pc}
 17472              		.cfi_endproc
 17473              	.LFE43:
 17475              		.section	.text.ADC_ExternalTrigConvCmd,"ax",%progbits
 17476              		.align	1
 17477              		.global	ADC_ExternalTrigConvCmd
 17478              		.thumb
 17479              		.thumb_func
 17481              	ADC_ExternalTrigConvCmd:
 17482              	.LFB44:
 675:../../../SDK_embedded/libs/stm32/STM32F10x_StdPeriph_Driver/stm32f10x_adc.c ****   }
 676:../../../SDK_embedded/libs/stm32/STM32F10x_StdPeriph_Driver/stm32f10x_adc.c **** }
 677:../../../SDK_embedded/libs/stm32/STM32F10x_StdPeriph_Driver/stm32f10x_adc.c **** 
 678:../../../SDK_embedded/libs/stm32/STM32F10x_StdPeriph_Driver/stm32f10x_adc.c **** /**
 679:../../../SDK_embedded/libs/stm32/STM32F10x_StdPeriph_Driver/stm32f10x_adc.c ****   * @brief  Enables or disables the ADCx conversion through external trigger.
 680:../../../SDK_embedded/libs/stm32/STM32F10x_StdPeriph_Driver/stm32f10x_adc.c ****   * @param  ADCx: where x can be 1, 2 or 3 to select the ADC peripheral.
 681:../../../SDK_embedded/libs/stm32/STM32F10x_StdPeriph_Driver/stm32f10x_adc.c ****   * @param  NewState: new state of the selected ADC external trigger start of conversion.
 682:../../../SDK_embedded/libs/stm32/STM32F10x_StdPeriph_Driver/stm32f10x_adc.c ****   *   This parameter can be: ENABLE or DISABLE.
 683:../../../SDK_embedded/libs/stm32/STM32F10x_StdPeriph_Driver/stm32f10x_adc.c ****   * @retval None
 684:../../../SDK_embedded/libs/stm32/STM32F10x_StdPeriph_Driver/stm32f10x_adc.c ****   */
 685:../../../SDK_embedded/libs/stm32/STM32F10x_StdPeriph_Driver/stm32f10x_adc.c **** void ADC_ExternalTrigConvCmd(ADC_TypeDef* ADCx, FunctionalState NewState)
 686:../../../SDK_embedded/libs/stm32/STM32F10x_StdPeriph_Driver/stm32f10x_adc.c **** {
 17483              		.loc 1 686 0
 17484              		.cfi_startproc
 17485              		@ args = 0, pretend = 0, frame = 0
 17486              		@ frame_needed = 0, uses_anonymous_args = 0
 17487              		@ link register save eliminated.
 17488              	.LVL70:
 687:../../../SDK_embedded/libs/stm32/STM32F10x_StdPeriph_Driver/stm32f10x_adc.c ****   /* Check the parameters */
 688:../../../SDK_embedded/libs/stm32/STM32F10x_StdPeriph_Driver/stm32f10x_adc.c ****   assert_param(IS_ADC_ALL_PERIPH(ADCx));
 689:../../../SDK_embedded/libs/stm32/STM32F10x_StdPeriph_Driver/stm32f10x_adc.c ****   assert_param(IS_FUNCTIONAL_STATE(NewState));
 690:../../../SDK_embedded/libs/stm32/STM32F10x_StdPeriph_Driver/stm32f10x_adc.c ****   if (NewState != DISABLE)
 17489              		.loc 1 690 0
 17490 0000 19B1     		cbz	r1, .L45
 691:../../../SDK_embedded/libs/stm32/STM32F10x_StdPeriph_Driver/stm32f10x_adc.c ****   {
 692:../../../SDK_embedded/libs/stm32/STM32F10x_StdPeriph_Driver/stm32f10x_adc.c ****     /* Enable the selected ADC conversion on external event */
 693:../../../SDK_embedded/libs/stm32/STM32F10x_StdPeriph_Driver/stm32f10x_adc.c ****     ADCx->CR2 |= CR2_EXTTRIG_Set;
 17491              		.loc 1 693 0
 17492 0002 8368     		ldr	r3, [r0, #8]
 17493 0004 43F48013 		orr	r3, r3, #1048576
 17494 0008 02E0     		b	.L47
 17495              	.L45:
 694:../../../SDK_embedded/libs/stm32/STM32F10x_StdPeriph_Driver/stm32f10x_adc.c ****   }
 695:../../../SDK_embedded/libs/stm32/STM32F10x_StdPeriph_Driver/stm32f10x_adc.c ****   else
 696:../../../SDK_embedded/libs/stm32/STM32F10x_StdPeriph_Driver/stm32f10x_adc.c ****   {
 697:../../../SDK_embedded/libs/stm32/STM32F10x_StdPeriph_Driver/stm32f10x_adc.c ****     /* Disable the selected ADC conversion on external event */
 698:../../../SDK_embedded/libs/stm32/STM32F10x_StdPeriph_Driver/stm32f10x_adc.c ****     ADCx->CR2 &= CR2_EXTTRIG_Reset;
 17496              		.loc 1 698 0
 17497 000a 8168     		ldr	r1, [r0, #8]
 17498              	.LVL71:
 17499 000c 21F48013 		bic	r3, r1, #1048576
 17500              	.L47:
 17501 0010 8360     		str	r3, [r0, #8]
 17502 0012 7047     		bx	lr
 17503              		.cfi_endproc
 17504              	.LFE44:
 17506              		.section	.text.ADC_GetConversionValue,"ax",%progbits
 17507              		.align	1
 17508              		.global	ADC_GetConversionValue
 17509              		.thumb
 17510              		.thumb_func
 17512              	ADC_GetConversionValue:
 17513              	.LFB45:
 699:../../../SDK_embedded/libs/stm32/STM32F10x_StdPeriph_Driver/stm32f10x_adc.c ****   }
 700:../../../SDK_embedded/libs/stm32/STM32F10x_StdPeriph_Driver/stm32f10x_adc.c **** }
 701:../../../SDK_embedded/libs/stm32/STM32F10x_StdPeriph_Driver/stm32f10x_adc.c **** 
 702:../../../SDK_embedded/libs/stm32/STM32F10x_StdPeriph_Driver/stm32f10x_adc.c **** /**
 703:../../../SDK_embedded/libs/stm32/STM32F10x_StdPeriph_Driver/stm32f10x_adc.c ****   * @brief  Returns the last ADCx conversion result data for regular channel.
 704:../../../SDK_embedded/libs/stm32/STM32F10x_StdPeriph_Driver/stm32f10x_adc.c ****   * @param  ADCx: where x can be 1, 2 or 3 to select the ADC peripheral.
 705:../../../SDK_embedded/libs/stm32/STM32F10x_StdPeriph_Driver/stm32f10x_adc.c ****   * @retval The Data conversion value.
 706:../../../SDK_embedded/libs/stm32/STM32F10x_StdPeriph_Driver/stm32f10x_adc.c ****   */
 707:../../../SDK_embedded/libs/stm32/STM32F10x_StdPeriph_Driver/stm32f10x_adc.c **** uint16_t ADC_GetConversionValue(ADC_TypeDef* ADCx)
 708:../../../SDK_embedded/libs/stm32/STM32F10x_StdPeriph_Driver/stm32f10x_adc.c **** {
 17514              		.loc 1 708 0
 17515              		.cfi_startproc
 17516              		@ args = 0, pretend = 0, frame = 0
 17517              		@ frame_needed = 0, uses_anonymous_args = 0
 17518              		@ link register save eliminated.
 17519              	.LVL72:
 709:../../../SDK_embedded/libs/stm32/STM32F10x_StdPeriph_Driver/stm32f10x_adc.c ****   /* Check the parameters */
 710:../../../SDK_embedded/libs/stm32/STM32F10x_StdPeriph_Driver/stm32f10x_adc.c ****   assert_param(IS_ADC_ALL_PERIPH(ADCx));
 711:../../../SDK_embedded/libs/stm32/STM32F10x_StdPeriph_Driver/stm32f10x_adc.c ****   /* Return the selected ADC conversion value */
 712:../../../SDK_embedded/libs/stm32/STM32F10x_StdPeriph_Driver/stm32f10x_adc.c ****   return (uint16_t) ADCx->DR;
 17520              		.loc 1 712 0
 17521 0000 C06C     		ldr	r0, [r0, #76]
 17522              	.LVL73:
 17523 0002 80B2     		uxth	r0, r0
 713:../../../SDK_embedded/libs/stm32/STM32F10x_StdPeriph_Driver/stm32f10x_adc.c **** }
 17524              		.loc 1 713 0
 17525 0004 7047     		bx	lr
 17526              		.cfi_endproc
 17527              	.LFE45:
 17529              		.section	.text.ADC_GetDualModeConversionValue,"ax",%progbits
 17530              		.align	1
 17531              		.global	ADC_GetDualModeConversionValue
 17532              		.thumb
 17533              		.thumb_func
 17535              	ADC_GetDualModeConversionValue:
 17536              	.LFB46:
 714:../../../SDK_embedded/libs/stm32/STM32F10x_StdPeriph_Driver/stm32f10x_adc.c **** 
 715:../../../SDK_embedded/libs/stm32/STM32F10x_StdPeriph_Driver/stm32f10x_adc.c **** /**
 716:../../../SDK_embedded/libs/stm32/STM32F10x_StdPeriph_Driver/stm32f10x_adc.c ****   * @brief  Returns the last ADC1 and ADC2 conversion result data in dual mode.
 717:../../../SDK_embedded/libs/stm32/STM32F10x_StdPeriph_Driver/stm32f10x_adc.c ****   * @retval The Data conversion value.
 718:../../../SDK_embedded/libs/stm32/STM32F10x_StdPeriph_Driver/stm32f10x_adc.c ****   */
 719:../../../SDK_embedded/libs/stm32/STM32F10x_StdPeriph_Driver/stm32f10x_adc.c **** uint32_t ADC_GetDualModeConversionValue(void)
 720:../../../SDK_embedded/libs/stm32/STM32F10x_StdPeriph_Driver/stm32f10x_adc.c **** {
 17537              		.loc 1 720 0
 17538              		.cfi_startproc
 17539              		@ args = 0, pretend = 0, frame = 0
 17540              		@ frame_needed = 0, uses_anonymous_args = 0
 17541              		@ link register save eliminated.
 721:../../../SDK_embedded/libs/stm32/STM32F10x_StdPeriph_Driver/stm32f10x_adc.c ****   /* Return the dual mode conversion value */
 722:../../../SDK_embedded/libs/stm32/STM32F10x_StdPeriph_Driver/stm32f10x_adc.c ****   return (*(__IO uint32_t *) DR_ADDRESS);
 17542              		.loc 1 722 0
 17543 0000 014B     		ldr	r3, .L50
 17544 0002 1868     		ldr	r0, [r3, #0]
 723:../../../SDK_embedded/libs/stm32/STM32F10x_StdPeriph_Driver/stm32f10x_adc.c **** }
 17545              		.loc 1 723 0
 17546 0004 7047     		bx	lr
 17547              	.L51:
 17548 0006 00BF     		.align	2
 17549              	.L50:
 17550 0008 4C240140 		.word	1073816652
 17551              		.cfi_endproc
 17552              	.LFE46:
 17554              		.section	.text.ADC_AutoInjectedConvCmd,"ax",%progbits
 17555              		.align	1
 17556              		.global	ADC_AutoInjectedConvCmd
 17557              		.thumb
 17558              		.thumb_func
 17560              	ADC_AutoInjectedConvCmd:
 17561              	.LFB47:
 724:../../../SDK_embedded/libs/stm32/STM32F10x_StdPeriph_Driver/stm32f10x_adc.c **** 
 725:../../../SDK_embedded/libs/stm32/STM32F10x_StdPeriph_Driver/stm32f10x_adc.c **** /**
 726:../../../SDK_embedded/libs/stm32/STM32F10x_StdPeriph_Driver/stm32f10x_adc.c ****   * @brief  Enables or disables the selected ADC automatic injected group
 727:../../../SDK_embedded/libs/stm32/STM32F10x_StdPeriph_Driver/stm32f10x_adc.c ****   *   conversion after regular one.
 728:../../../SDK_embedded/libs/stm32/STM32F10x_StdPeriph_Driver/stm32f10x_adc.c ****   * @param  ADCx: where x can be 1, 2 or 3 to select the ADC peripheral.
 729:../../../SDK_embedded/libs/stm32/STM32F10x_StdPeriph_Driver/stm32f10x_adc.c ****   * @param  NewState: new state of the selected ADC auto injected conversion
 730:../../../SDK_embedded/libs/stm32/STM32F10x_StdPeriph_Driver/stm32f10x_adc.c ****   *   This parameter can be: ENABLE or DISABLE.
 731:../../../SDK_embedded/libs/stm32/STM32F10x_StdPeriph_Driver/stm32f10x_adc.c ****   * @retval None
 732:../../../SDK_embedded/libs/stm32/STM32F10x_StdPeriph_Driver/stm32f10x_adc.c ****   */
 733:../../../SDK_embedded/libs/stm32/STM32F10x_StdPeriph_Driver/stm32f10x_adc.c **** void ADC_AutoInjectedConvCmd(ADC_TypeDef* ADCx, FunctionalState NewState)
 734:../../../SDK_embedded/libs/stm32/STM32F10x_StdPeriph_Driver/stm32f10x_adc.c **** {
 17562              		.loc 1 734 0
 17563              		.cfi_startproc
 17564              		@ args = 0, pretend = 0, frame = 0
 17565              		@ frame_needed = 0, uses_anonymous_args = 0
 17566              		@ link register save eliminated.
 17567              	.LVL74:
 735:../../../SDK_embedded/libs/stm32/STM32F10x_StdPeriph_Driver/stm32f10x_adc.c ****   /* Check the parameters */
 736:../../../SDK_embedded/libs/stm32/STM32F10x_StdPeriph_Driver/stm32f10x_adc.c ****   assert_param(IS_ADC_ALL_PERIPH(ADCx));
 737:../../../SDK_embedded/libs/stm32/STM32F10x_StdPeriph_Driver/stm32f10x_adc.c ****   assert_param(IS_FUNCTIONAL_STATE(NewState));
 738:../../../SDK_embedded/libs/stm32/STM32F10x_StdPeriph_Driver/stm32f10x_adc.c ****   if (NewState != DISABLE)
 17568              		.loc 1 738 0
 17569 0000 19B1     		cbz	r1, .L53
 739:../../../SDK_embedded/libs/stm32/STM32F10x_StdPeriph_Driver/stm32f10x_adc.c ****   {
 740:../../../SDK_embedded/libs/stm32/STM32F10x_StdPeriph_Driver/stm32f10x_adc.c ****     /* Enable the selected ADC automatic injected group conversion */
 741:../../../SDK_embedded/libs/stm32/STM32F10x_StdPeriph_Driver/stm32f10x_adc.c ****     ADCx->CR1 |= CR1_JAUTO_Set;
 17570              		.loc 1 741 0
 17571 0002 4368     		ldr	r3, [r0, #4]
 17572 0004 43F48063 		orr	r3, r3, #1024
 17573 0008 02E0     		b	.L55
 17574              	.L53:
 742:../../../SDK_embedded/libs/stm32/STM32F10x_StdPeriph_Driver/stm32f10x_adc.c ****   }
 743:../../../SDK_embedded/libs/stm32/STM32F10x_StdPeriph_Driver/stm32f10x_adc.c ****   else
 744:../../../SDK_embedded/libs/stm32/STM32F10x_StdPeriph_Driver/stm32f10x_adc.c ****   {
 745:../../../SDK_embedded/libs/stm32/STM32F10x_StdPeriph_Driver/stm32f10x_adc.c ****     /* Disable the selected ADC automatic injected group conversion */
 746:../../../SDK_embedded/libs/stm32/STM32F10x_StdPeriph_Driver/stm32f10x_adc.c ****     ADCx->CR1 &= CR1_JAUTO_Reset;
 17575              		.loc 1 746 0
 17576 000a 4168     		ldr	r1, [r0, #4]
 17577              	.LVL75:
 17578 000c 21F48063 		bic	r3, r1, #1024
 17579              	.L55:
 17580 0010 4360     		str	r3, [r0, #4]
 17581 0012 7047     		bx	lr
 17582              		.cfi_endproc
 17583              	.LFE47:
 17585              		.section	.text.ADC_InjectedDiscModeCmd,"ax",%progbits
 17586              		.align	1
 17587              		.global	ADC_InjectedDiscModeCmd
 17588              		.thumb
 17589              		.thumb_func
 17591              	ADC_InjectedDiscModeCmd:
 17592              	.LFB48:
 747:../../../SDK_embedded/libs/stm32/STM32F10x_StdPeriph_Driver/stm32f10x_adc.c ****   }
 748:../../../SDK_embedded/libs/stm32/STM32F10x_StdPeriph_Driver/stm32f10x_adc.c **** }
 749:../../../SDK_embedded/libs/stm32/STM32F10x_StdPeriph_Driver/stm32f10x_adc.c **** 
 750:../../../SDK_embedded/libs/stm32/STM32F10x_StdPeriph_Driver/stm32f10x_adc.c **** /**
 751:../../../SDK_embedded/libs/stm32/STM32F10x_StdPeriph_Driver/stm32f10x_adc.c ****   * @brief  Enables or disables the discontinuous mode for injected group
 752:../../../SDK_embedded/libs/stm32/STM32F10x_StdPeriph_Driver/stm32f10x_adc.c ****   *   channel for the specified ADC
 753:../../../SDK_embedded/libs/stm32/STM32F10x_StdPeriph_Driver/stm32f10x_adc.c ****   * @param  ADCx: where x can be 1, 2 or 3 to select the ADC peripheral.
 754:../../../SDK_embedded/libs/stm32/STM32F10x_StdPeriph_Driver/stm32f10x_adc.c ****   * @param  NewState: new state of the selected ADC discontinuous mode
 755:../../../SDK_embedded/libs/stm32/STM32F10x_StdPeriph_Driver/stm32f10x_adc.c ****   *   on injected group channel.
 756:../../../SDK_embedded/libs/stm32/STM32F10x_StdPeriph_Driver/stm32f10x_adc.c ****   *   This parameter can be: ENABLE or DISABLE.
 757:../../../SDK_embedded/libs/stm32/STM32F10x_StdPeriph_Driver/stm32f10x_adc.c ****   * @retval None
 758:../../../SDK_embedded/libs/stm32/STM32F10x_StdPeriph_Driver/stm32f10x_adc.c ****   */
 759:../../../SDK_embedded/libs/stm32/STM32F10x_StdPeriph_Driver/stm32f10x_adc.c **** void ADC_InjectedDiscModeCmd(ADC_TypeDef* ADCx, FunctionalState NewState)
 760:../../../SDK_embedded/libs/stm32/STM32F10x_StdPeriph_Driver/stm32f10x_adc.c **** {
 17593              		.loc 1 760 0
 17594              		.cfi_startproc
 17595              		@ args = 0, pretend = 0, frame = 0
 17596              		@ frame_needed = 0, uses_anonymous_args = 0
 17597              		@ link register save eliminated.
 17598              	.LVL76:
 761:../../../SDK_embedded/libs/stm32/STM32F10x_StdPeriph_Driver/stm32f10x_adc.c ****   /* Check the parameters */
 762:../../../SDK_embedded/libs/stm32/STM32F10x_StdPeriph_Driver/stm32f10x_adc.c ****   assert_param(IS_ADC_ALL_PERIPH(ADCx));
 763:../../../SDK_embedded/libs/stm32/STM32F10x_StdPeriph_Driver/stm32f10x_adc.c ****   assert_param(IS_FUNCTIONAL_STATE(NewState));
 764:../../../SDK_embedded/libs/stm32/STM32F10x_StdPeriph_Driver/stm32f10x_adc.c ****   if (NewState != DISABLE)
 17599              		.loc 1 764 0
 17600 0000 19B1     		cbz	r1, .L57
 765:../../../SDK_embedded/libs/stm32/STM32F10x_StdPeriph_Driver/stm32f10x_adc.c ****   {
 766:../../../SDK_embedded/libs/stm32/STM32F10x_StdPeriph_Driver/stm32f10x_adc.c ****     /* Enable the selected ADC injected discontinuous mode */
 767:../../../SDK_embedded/libs/stm32/STM32F10x_StdPeriph_Driver/stm32f10x_adc.c ****     ADCx->CR1 |= CR1_JDISCEN_Set;
 17601              		.loc 1 767 0
 17602 0002 4368     		ldr	r3, [r0, #4]
 17603 0004 43F48053 		orr	r3, r3, #4096
 17604 0008 02E0     		b	.L59
 17605              	.L57:
 768:../../../SDK_embedded/libs/stm32/STM32F10x_StdPeriph_Driver/stm32f10x_adc.c ****   }
 769:../../../SDK_embedded/libs/stm32/STM32F10x_StdPeriph_Driver/stm32f10x_adc.c ****   else
 770:../../../SDK_embedded/libs/stm32/STM32F10x_StdPeriph_Driver/stm32f10x_adc.c ****   {
 771:../../../SDK_embedded/libs/stm32/STM32F10x_StdPeriph_Driver/stm32f10x_adc.c ****     /* Disable the selected ADC injected discontinuous mode */
 772:../../../SDK_embedded/libs/stm32/STM32F10x_StdPeriph_Driver/stm32f10x_adc.c ****     ADCx->CR1 &= CR1_JDISCEN_Reset;
 17606              		.loc 1 772 0
 17607 000a 4168     		ldr	r1, [r0, #4]
 17608              	.LVL77:
 17609 000c 21F48053 		bic	r3, r1, #4096
 17610              	.L59:
 17611 0010 4360     		str	r3, [r0, #4]
 17612 0012 7047     		bx	lr
 17613              		.cfi_endproc
 17614              	.LFE48:
 17616              		.section	.text.ADC_ExternalTrigInjectedConvConfig,"ax",%progbits
 17617              		.align	1
 17618              		.global	ADC_ExternalTrigInjectedConvConfig
 17619              		.thumb
 17620              		.thumb_func
 17622              	ADC_ExternalTrigInjectedConvConfig:
 17623              	.LFB49:
 773:../../../SDK_embedded/libs/stm32/STM32F10x_StdPeriph_Driver/stm32f10x_adc.c ****   }
 774:../../../SDK_embedded/libs/stm32/STM32F10x_StdPeriph_Driver/stm32f10x_adc.c **** }
 775:../../../SDK_embedded/libs/stm32/STM32F10x_StdPeriph_Driver/stm32f10x_adc.c **** 
 776:../../../SDK_embedded/libs/stm32/STM32F10x_StdPeriph_Driver/stm32f10x_adc.c **** /**
 777:../../../SDK_embedded/libs/stm32/STM32F10x_StdPeriph_Driver/stm32f10x_adc.c ****   * @brief  Configures the ADCx external trigger for injected channels conversion.
 778:../../../SDK_embedded/libs/stm32/STM32F10x_StdPeriph_Driver/stm32f10x_adc.c ****   * @param  ADCx: where x can be 1, 2 or 3 to select the ADC peripheral.
 779:../../../SDK_embedded/libs/stm32/STM32F10x_StdPeriph_Driver/stm32f10x_adc.c ****   * @param  ADC_ExternalTrigInjecConv: specifies the ADC trigger to start injected conversion. 
 780:../../../SDK_embedded/libs/stm32/STM32F10x_StdPeriph_Driver/stm32f10x_adc.c ****   *   This parameter can be one of the following values:
 781:../../../SDK_embedded/libs/stm32/STM32F10x_StdPeriph_Driver/stm32f10x_adc.c ****   *     @arg ADC_ExternalTrigInjecConv_T1_TRGO: Timer1 TRGO event selected (for ADC1, ADC2 and ADC3
 782:../../../SDK_embedded/libs/stm32/STM32F10x_StdPeriph_Driver/stm32f10x_adc.c ****   *     @arg ADC_ExternalTrigInjecConv_T1_CC4: Timer1 capture compare4 selected (for ADC1, ADC2 and
 783:../../../SDK_embedded/libs/stm32/STM32F10x_StdPeriph_Driver/stm32f10x_adc.c ****   *     @arg ADC_ExternalTrigInjecConv_T2_TRGO: Timer2 TRGO event selected (for ADC1 and ADC2)
 784:../../../SDK_embedded/libs/stm32/STM32F10x_StdPeriph_Driver/stm32f10x_adc.c ****   *     @arg ADC_ExternalTrigInjecConv_T2_CC1: Timer2 capture compare1 selected (for ADC1 and ADC2)
 785:../../../SDK_embedded/libs/stm32/STM32F10x_StdPeriph_Driver/stm32f10x_adc.c ****   *     @arg ADC_ExternalTrigInjecConv_T3_CC4: Timer3 capture compare4 selected (for ADC1 and ADC2)
 786:../../../SDK_embedded/libs/stm32/STM32F10x_StdPeriph_Driver/stm32f10x_adc.c ****   *     @arg ADC_ExternalTrigInjecConv_T4_TRGO: Timer4 TRGO event selected (for ADC1 and ADC2)
 787:../../../SDK_embedded/libs/stm32/STM32F10x_StdPeriph_Driver/stm32f10x_adc.c ****   *     @arg ADC_ExternalTrigInjecConv_Ext_IT15_TIM8_CC4: External interrupt line 15 or Timer8
 788:../../../SDK_embedded/libs/stm32/STM32F10x_StdPeriph_Driver/stm32f10x_adc.c ****   *                                                       capture compare4 event selected (for ADC1
 789:../../../SDK_embedded/libs/stm32/STM32F10x_StdPeriph_Driver/stm32f10x_adc.c ****   *     @arg ADC_ExternalTrigInjecConv_T4_CC3: Timer4 capture compare3 selected (for ADC3 only)
 790:../../../SDK_embedded/libs/stm32/STM32F10x_StdPeriph_Driver/stm32f10x_adc.c ****   *     @arg ADC_ExternalTrigInjecConv_T8_CC2: Timer8 capture compare2 selected (for ADC3 only)    
 791:../../../SDK_embedded/libs/stm32/STM32F10x_StdPeriph_Driver/stm32f10x_adc.c ****   *     @arg ADC_ExternalTrigInjecConv_T8_CC4: Timer8 capture compare4 selected (for ADC3 only)
 792:../../../SDK_embedded/libs/stm32/STM32F10x_StdPeriph_Driver/stm32f10x_adc.c ****   *     @arg ADC_ExternalTrigInjecConv_T5_TRGO: Timer5 TRGO event selected (for ADC3 only)         
 793:../../../SDK_embedded/libs/stm32/STM32F10x_StdPeriph_Driver/stm32f10x_adc.c ****   *     @arg ADC_ExternalTrigInjecConv_T5_CC4: Timer5 capture compare4 selected (for ADC3 only)    
 794:../../../SDK_embedded/libs/stm32/STM32F10x_StdPeriph_Driver/stm32f10x_adc.c ****   *     @arg ADC_ExternalTrigInjecConv_None: Injected conversion started by software and not
 795:../../../SDK_embedded/libs/stm32/STM32F10x_StdPeriph_Driver/stm32f10x_adc.c ****   *                                          by external trigger (for ADC1, ADC2 and ADC3)
 796:../../../SDK_embedded/libs/stm32/STM32F10x_StdPeriph_Driver/stm32f10x_adc.c ****   * @retval None
 797:../../../SDK_embedded/libs/stm32/STM32F10x_StdPeriph_Driver/stm32f10x_adc.c ****   */
 798:../../../SDK_embedded/libs/stm32/STM32F10x_StdPeriph_Driver/stm32f10x_adc.c **** void ADC_ExternalTrigInjectedConvConfig(ADC_TypeDef* ADCx, uint32_t ADC_ExternalTrigInjecConv)
 799:../../../SDK_embedded/libs/stm32/STM32F10x_StdPeriph_Driver/stm32f10x_adc.c **** {
 17624              		.loc 1 799 0
 17625              		.cfi_startproc
 17626              		@ args = 0, pretend = 0, frame = 0
 17627              		@ frame_needed = 0, uses_anonymous_args = 0
 17628              		@ link register save eliminated.
 17629              	.LVL78:
 800:../../../SDK_embedded/libs/stm32/STM32F10x_StdPeriph_Driver/stm32f10x_adc.c ****   uint32_t tmpreg = 0;
 801:../../../SDK_embedded/libs/stm32/STM32F10x_StdPeriph_Driver/stm32f10x_adc.c ****   /* Check the parameters */
 802:../../../SDK_embedded/libs/stm32/STM32F10x_StdPeriph_Driver/stm32f10x_adc.c ****   assert_param(IS_ADC_ALL_PERIPH(ADCx));
 803:../../../SDK_embedded/libs/stm32/STM32F10x_StdPeriph_Driver/stm32f10x_adc.c ****   assert_param(IS_ADC_EXT_INJEC_TRIG(ADC_ExternalTrigInjecConv));
 804:../../../SDK_embedded/libs/stm32/STM32F10x_StdPeriph_Driver/stm32f10x_adc.c ****   /* Get the old register value */
 805:../../../SDK_embedded/libs/stm32/STM32F10x_StdPeriph_Driver/stm32f10x_adc.c ****   tmpreg = ADCx->CR2;
 17630              		.loc 1 805 0
 17631 0000 8268     		ldr	r2, [r0, #8]
 17632              	.LVL79:
 806:../../../SDK_embedded/libs/stm32/STM32F10x_StdPeriph_Driver/stm32f10x_adc.c ****   /* Clear the old external event selection for injected group */
 807:../../../SDK_embedded/libs/stm32/STM32F10x_StdPeriph_Driver/stm32f10x_adc.c ****   tmpreg &= CR2_JEXTSEL_Reset;
 17633              		.loc 1 807 0
 17634 0002 22F4E043 		bic	r3, r2, #28672
 17635              	.LVL80:
 808:../../../SDK_embedded/libs/stm32/STM32F10x_StdPeriph_Driver/stm32f10x_adc.c ****   /* Set the external event selection for injected group */
 809:../../../SDK_embedded/libs/stm32/STM32F10x_StdPeriph_Driver/stm32f10x_adc.c ****   tmpreg |= ADC_ExternalTrigInjecConv;
 17636              		.loc 1 809 0
 17637 0006 1943     		orrs	r1, r1, r3
 17638              	.LVL81:
 810:../../../SDK_embedded/libs/stm32/STM32F10x_StdPeriph_Driver/stm32f10x_adc.c ****   /* Store the new register value */
 811:../../../SDK_embedded/libs/stm32/STM32F10x_StdPeriph_Driver/stm32f10x_adc.c ****   ADCx->CR2 = tmpreg;
 17639              		.loc 1 811 0
 17640 0008 8160     		str	r1, [r0, #8]
 812:../../../SDK_embedded/libs/stm32/STM32F10x_StdPeriph_Driver/stm32f10x_adc.c **** }
 17641              		.loc 1 812 0
 17642 000a 7047     		bx	lr
 17643              		.cfi_endproc
 17644              	.LFE49:
 17646              		.section	.text.ADC_ExternalTrigInjectedConvCmd,"ax",%progbits
 17647              		.align	1
 17648              		.global	ADC_ExternalTrigInjectedConvCmd
 17649              		.thumb
 17650              		.thumb_func
 17652              	ADC_ExternalTrigInjectedConvCmd:
 17653              	.LFB50:
 813:../../../SDK_embedded/libs/stm32/STM32F10x_StdPeriph_Driver/stm32f10x_adc.c **** 
 814:../../../SDK_embedded/libs/stm32/STM32F10x_StdPeriph_Driver/stm32f10x_adc.c **** /**
 815:../../../SDK_embedded/libs/stm32/STM32F10x_StdPeriph_Driver/stm32f10x_adc.c ****   * @brief  Enables or disables the ADCx injected channels conversion through
 816:../../../SDK_embedded/libs/stm32/STM32F10x_StdPeriph_Driver/stm32f10x_adc.c ****   *   external trigger
 817:../../../SDK_embedded/libs/stm32/STM32F10x_StdPeriph_Driver/stm32f10x_adc.c ****   * @param  ADCx: where x can be 1, 2 or 3 to select the ADC peripheral.
 818:../../../SDK_embedded/libs/stm32/STM32F10x_StdPeriph_Driver/stm32f10x_adc.c ****   * @param  NewState: new state of the selected ADC external trigger start of
 819:../../../SDK_embedded/libs/stm32/STM32F10x_StdPeriph_Driver/stm32f10x_adc.c ****   *   injected conversion.
 820:../../../SDK_embedded/libs/stm32/STM32F10x_StdPeriph_Driver/stm32f10x_adc.c ****   *   This parameter can be: ENABLE or DISABLE.
 821:../../../SDK_embedded/libs/stm32/STM32F10x_StdPeriph_Driver/stm32f10x_adc.c ****   * @retval None
 822:../../../SDK_embedded/libs/stm32/STM32F10x_StdPeriph_Driver/stm32f10x_adc.c ****   */
 823:../../../SDK_embedded/libs/stm32/STM32F10x_StdPeriph_Driver/stm32f10x_adc.c **** void ADC_ExternalTrigInjectedConvCmd(ADC_TypeDef* ADCx, FunctionalState NewState)
 824:../../../SDK_embedded/libs/stm32/STM32F10x_StdPeriph_Driver/stm32f10x_adc.c **** {
 17654              		.loc 1 824 0
 17655              		.cfi_startproc
 17656              		@ args = 0, pretend = 0, frame = 0
 17657              		@ frame_needed = 0, uses_anonymous_args = 0
 17658              		@ link register save eliminated.
 17659              	.LVL82:
 825:../../../SDK_embedded/libs/stm32/STM32F10x_StdPeriph_Driver/stm32f10x_adc.c ****   /* Check the parameters */
 826:../../../SDK_embedded/libs/stm32/STM32F10x_StdPeriph_Driver/stm32f10x_adc.c ****   assert_param(IS_ADC_ALL_PERIPH(ADCx));
 827:../../../SDK_embedded/libs/stm32/STM32F10x_StdPeriph_Driver/stm32f10x_adc.c ****   assert_param(IS_FUNCTIONAL_STATE(NewState));
 828:../../../SDK_embedded/libs/stm32/STM32F10x_StdPeriph_Driver/stm32f10x_adc.c ****   if (NewState != DISABLE)
 17660              		.loc 1 828 0
 17661 0000 19B1     		cbz	r1, .L62
 829:../../../SDK_embedded/libs/stm32/STM32F10x_StdPeriph_Driver/stm32f10x_adc.c ****   {
 830:../../../SDK_embedded/libs/stm32/STM32F10x_StdPeriph_Driver/stm32f10x_adc.c ****     /* Enable the selected ADC external event selection for injected group */
 831:../../../SDK_embedded/libs/stm32/STM32F10x_StdPeriph_Driver/stm32f10x_adc.c ****     ADCx->CR2 |= CR2_JEXTTRIG_Set;
 17662              		.loc 1 831 0
 17663 0002 8368     		ldr	r3, [r0, #8]
 17664 0004 43F40043 		orr	r3, r3, #32768
 17665 0008 02E0     		b	.L64
 17666              	.L62:
 832:../../../SDK_embedded/libs/stm32/STM32F10x_StdPeriph_Driver/stm32f10x_adc.c ****   }
 833:../../../SDK_embedded/libs/stm32/STM32F10x_StdPeriph_Driver/stm32f10x_adc.c ****   else
 834:../../../SDK_embedded/libs/stm32/STM32F10x_StdPeriph_Driver/stm32f10x_adc.c ****   {
 835:../../../SDK_embedded/libs/stm32/STM32F10x_StdPeriph_Driver/stm32f10x_adc.c ****     /* Disable the selected ADC external event selection for injected group */
 836:../../../SDK_embedded/libs/stm32/STM32F10x_StdPeriph_Driver/stm32f10x_adc.c ****     ADCx->CR2 &= CR2_JEXTTRIG_Reset;
 17667              		.loc 1 836 0
 17668 000a 8168     		ldr	r1, [r0, #8]
 17669              	.LVL83:
 17670 000c 21F40043 		bic	r3, r1, #32768
 17671              	.L64:
 17672 0010 8360     		str	r3, [r0, #8]
 17673 0012 7047     		bx	lr
 17674              		.cfi_endproc
 17675              	.LFE50:
 17677              		.section	.text.ADC_SoftwareStartInjectedConvCmd,"ax",%progbits
 17678              		.align	1
 17679              		.global	ADC_SoftwareStartInjectedConvCmd
 17680              		.thumb
 17681              		.thumb_func
 17683              	ADC_SoftwareStartInjectedConvCmd:
 17684              	.LFB51:
 837:../../../SDK_embedded/libs/stm32/STM32F10x_StdPeriph_Driver/stm32f10x_adc.c ****   }
 838:../../../SDK_embedded/libs/stm32/STM32F10x_StdPeriph_Driver/stm32f10x_adc.c **** }
 839:../../../SDK_embedded/libs/stm32/STM32F10x_StdPeriph_Driver/stm32f10x_adc.c **** 
 840:../../../SDK_embedded/libs/stm32/STM32F10x_StdPeriph_Driver/stm32f10x_adc.c **** /**
 841:../../../SDK_embedded/libs/stm32/STM32F10x_StdPeriph_Driver/stm32f10x_adc.c ****   * @brief  Enables or disables the selected ADC start of the injected 
 842:../../../SDK_embedded/libs/stm32/STM32F10x_StdPeriph_Driver/stm32f10x_adc.c ****   *   channels conversion.
 843:../../../SDK_embedded/libs/stm32/STM32F10x_StdPeriph_Driver/stm32f10x_adc.c ****   * @param  ADCx: where x can be 1, 2 or 3 to select the ADC peripheral.
 844:../../../SDK_embedded/libs/stm32/STM32F10x_StdPeriph_Driver/stm32f10x_adc.c ****   * @param  NewState: new state of the selected ADC software start injected conversion.
 845:../../../SDK_embedded/libs/stm32/STM32F10x_StdPeriph_Driver/stm32f10x_adc.c ****   *   This parameter can be: ENABLE or DISABLE.
 846:../../../SDK_embedded/libs/stm32/STM32F10x_StdPeriph_Driver/stm32f10x_adc.c ****   * @retval None
 847:../../../SDK_embedded/libs/stm32/STM32F10x_StdPeriph_Driver/stm32f10x_adc.c ****   */
 848:../../../SDK_embedded/libs/stm32/STM32F10x_StdPeriph_Driver/stm32f10x_adc.c **** void ADC_SoftwareStartInjectedConvCmd(ADC_TypeDef* ADCx, FunctionalState NewState)
 849:../../../SDK_embedded/libs/stm32/STM32F10x_StdPeriph_Driver/stm32f10x_adc.c **** {
 17685              		.loc 1 849 0
 17686              		.cfi_startproc
 17687              		@ args = 0, pretend = 0, frame = 0
 17688              		@ frame_needed = 0, uses_anonymous_args = 0
 17689              		@ link register save eliminated.
 17690              	.LVL84:
 850:../../../SDK_embedded/libs/stm32/STM32F10x_StdPeriph_Driver/stm32f10x_adc.c ****   /* Check the parameters */
 851:../../../SDK_embedded/libs/stm32/STM32F10x_StdPeriph_Driver/stm32f10x_adc.c ****   assert_param(IS_ADC_ALL_PERIPH(ADCx));
 852:../../../SDK_embedded/libs/stm32/STM32F10x_StdPeriph_Driver/stm32f10x_adc.c ****   assert_param(IS_FUNCTIONAL_STATE(NewState));
 853:../../../SDK_embedded/libs/stm32/STM32F10x_StdPeriph_Driver/stm32f10x_adc.c ****   if (NewState != DISABLE)
 17691              		.loc 1 853 0
 17692 0000 19B1     		cbz	r1, .L66
 854:../../../SDK_embedded/libs/stm32/STM32F10x_StdPeriph_Driver/stm32f10x_adc.c ****   {
 855:../../../SDK_embedded/libs/stm32/STM32F10x_StdPeriph_Driver/stm32f10x_adc.c ****     /* Enable the selected ADC conversion for injected group on external event and start the select
 856:../../../SDK_embedded/libs/stm32/STM32F10x_StdPeriph_Driver/stm32f10x_adc.c ****        ADC injected conversion */
 857:../../../SDK_embedded/libs/stm32/STM32F10x_StdPeriph_Driver/stm32f10x_adc.c ****     ADCx->CR2 |= CR2_JEXTTRIG_JSWSTART_Set;
 17693              		.loc 1 857 0
 17694 0002 8368     		ldr	r3, [r0, #8]
 17695 0004 43F40213 		orr	r3, r3, #2129920
 17696 0008 02E0     		b	.L68
 17697              	.L66:
 858:../../../SDK_embedded/libs/stm32/STM32F10x_StdPeriph_Driver/stm32f10x_adc.c ****   }
 859:../../../SDK_embedded/libs/stm32/STM32F10x_StdPeriph_Driver/stm32f10x_adc.c ****   else
 860:../../../SDK_embedded/libs/stm32/STM32F10x_StdPeriph_Driver/stm32f10x_adc.c ****   {
 861:../../../SDK_embedded/libs/stm32/STM32F10x_StdPeriph_Driver/stm32f10x_adc.c ****     /* Disable the selected ADC conversion on external event for injected group and stop the select
 862:../../../SDK_embedded/libs/stm32/STM32F10x_StdPeriph_Driver/stm32f10x_adc.c ****        ADC injected conversion */
 863:../../../SDK_embedded/libs/stm32/STM32F10x_StdPeriph_Driver/stm32f10x_adc.c ****     ADCx->CR2 &= CR2_JEXTTRIG_JSWSTART_Reset;
 17698              		.loc 1 863 0
 17699 000a 8168     		ldr	r1, [r0, #8]
 17700              	.LVL85:
 17701 000c 21F40213 		bic	r3, r1, #2129920
 17702              	.L68:
 17703 0010 8360     		str	r3, [r0, #8]
 17704 0012 7047     		bx	lr
 17705              		.cfi_endproc
 17706              	.LFE51:
 17708              		.section	.text.ADC_GetSoftwareStartInjectedConvCmdStatus,"ax",%progbits
 17709              		.align	1
 17710              		.global	ADC_GetSoftwareStartInjectedConvCmdStatus
 17711              		.thumb
 17712              		.thumb_func
 17714              	ADC_GetSoftwareStartInjectedConvCmdStatus:
 17715              	.LFB52:
 864:../../../SDK_embedded/libs/stm32/STM32F10x_StdPeriph_Driver/stm32f10x_adc.c ****   }
 865:../../../SDK_embedded/libs/stm32/STM32F10x_StdPeriph_Driver/stm32f10x_adc.c **** }
 866:../../../SDK_embedded/libs/stm32/STM32F10x_StdPeriph_Driver/stm32f10x_adc.c **** 
 867:../../../SDK_embedded/libs/stm32/STM32F10x_StdPeriph_Driver/stm32f10x_adc.c **** /**
 868:../../../SDK_embedded/libs/stm32/STM32F10x_StdPeriph_Driver/stm32f10x_adc.c ****   * @brief  Gets the selected ADC Software start injected conversion Status.
 869:../../../SDK_embedded/libs/stm32/STM32F10x_StdPeriph_Driver/stm32f10x_adc.c ****   * @param  ADCx: where x can be 1, 2 or 3 to select the ADC peripheral.
 870:../../../SDK_embedded/libs/stm32/STM32F10x_StdPeriph_Driver/stm32f10x_adc.c ****   * @retval The new state of ADC software start injected conversion (SET or RESET).
 871:../../../SDK_embedded/libs/stm32/STM32F10x_StdPeriph_Driver/stm32f10x_adc.c ****   */
 872:../../../SDK_embedded/libs/stm32/STM32F10x_StdPeriph_Driver/stm32f10x_adc.c **** FlagStatus ADC_GetSoftwareStartInjectedConvCmdStatus(ADC_TypeDef* ADCx)
 873:../../../SDK_embedded/libs/stm32/STM32F10x_StdPeriph_Driver/stm32f10x_adc.c **** {
 17716              		.loc 1 873 0
 17717              		.cfi_startproc
 17718              		@ args = 0, pretend = 0, frame = 0
 17719              		@ frame_needed = 0, uses_anonymous_args = 0
 17720              		@ link register save eliminated.
 17721              	.LVL86:
 874:../../../SDK_embedded/libs/stm32/STM32F10x_StdPeriph_Driver/stm32f10x_adc.c ****   FlagStatus bitstatus = RESET;
 875:../../../SDK_embedded/libs/stm32/STM32F10x_StdPeriph_Driver/stm32f10x_adc.c ****   /* Check the parameters */
 876:../../../SDK_embedded/libs/stm32/STM32F10x_StdPeriph_Driver/stm32f10x_adc.c ****   assert_param(IS_ADC_ALL_PERIPH(ADCx));
 877:../../../SDK_embedded/libs/stm32/STM32F10x_StdPeriph_Driver/stm32f10x_adc.c ****   /* Check the status of JSWSTART bit */
 878:../../../SDK_embedded/libs/stm32/STM32F10x_StdPeriph_Driver/stm32f10x_adc.c ****   if ((ADCx->CR2 & CR2_JSWSTART_Set) != (uint32_t)RESET)
 17722              		.loc 1 878 0
 17723 0000 8068     		ldr	r0, [r0, #8]
 17724              	.LVL87:
 17725 0002 C0F34050 		ubfx	r0, r0, #21, #1
 17726              	.LVL88:
 879:../../../SDK_embedded/libs/stm32/STM32F10x_StdPeriph_Driver/stm32f10x_adc.c ****   {
 880:../../../SDK_embedded/libs/stm32/STM32F10x_StdPeriph_Driver/stm32f10x_adc.c ****     /* JSWSTART bit is set */
 881:../../../SDK_embedded/libs/stm32/STM32F10x_StdPeriph_Driver/stm32f10x_adc.c ****     bitstatus = SET;
 882:../../../SDK_embedded/libs/stm32/STM32F10x_StdPeriph_Driver/stm32f10x_adc.c ****   }
 883:../../../SDK_embedded/libs/stm32/STM32F10x_StdPeriph_Driver/stm32f10x_adc.c ****   else
 884:../../../SDK_embedded/libs/stm32/STM32F10x_StdPeriph_Driver/stm32f10x_adc.c ****   {
 885:../../../SDK_embedded/libs/stm32/STM32F10x_StdPeriph_Driver/stm32f10x_adc.c ****     /* JSWSTART bit is reset */
 886:../../../SDK_embedded/libs/stm32/STM32F10x_StdPeriph_Driver/stm32f10x_adc.c ****     bitstatus = RESET;
 887:../../../SDK_embedded/libs/stm32/STM32F10x_StdPeriph_Driver/stm32f10x_adc.c ****   }
 888:../../../SDK_embedded/libs/stm32/STM32F10x_StdPeriph_Driver/stm32f10x_adc.c ****   /* Return the JSWSTART bit status */
 889:../../../SDK_embedded/libs/stm32/STM32F10x_StdPeriph_Driver/stm32f10x_adc.c ****   return  bitstatus;
 890:../../../SDK_embedded/libs/stm32/STM32F10x_StdPeriph_Driver/stm32f10x_adc.c **** }
 17727              		.loc 1 890 0
 17728 0006 7047     		bx	lr
 17729              		.cfi_endproc
 17730              	.LFE52:
 17732              		.section	.text.ADC_InjectedChannelConfig,"ax",%progbits
 17733              		.align	1
 17734              		.global	ADC_InjectedChannelConfig
 17735              		.thumb
 17736              		.thumb_func
 17738              	ADC_InjectedChannelConfig:
 17739              	.LFB53:
 891:../../../SDK_embedded/libs/stm32/STM32F10x_StdPeriph_Driver/stm32f10x_adc.c **** 
 892:../../../SDK_embedded/libs/stm32/STM32F10x_StdPeriph_Driver/stm32f10x_adc.c **** /**
 893:../../../SDK_embedded/libs/stm32/STM32F10x_StdPeriph_Driver/stm32f10x_adc.c ****   * @brief  Configures for the selected ADC injected channel its corresponding
 894:../../../SDK_embedded/libs/stm32/STM32F10x_StdPeriph_Driver/stm32f10x_adc.c ****   *   rank in the sequencer and its sample time.
 895:../../../SDK_embedded/libs/stm32/STM32F10x_StdPeriph_Driver/stm32f10x_adc.c ****   * @param  ADCx: where x can be 1, 2 or 3 to select the ADC peripheral.
 896:../../../SDK_embedded/libs/stm32/STM32F10x_StdPeriph_Driver/stm32f10x_adc.c ****   * @param  ADC_Channel: the ADC channel to configure. 
 897:../../../SDK_embedded/libs/stm32/STM32F10x_StdPeriph_Driver/stm32f10x_adc.c ****   *   This parameter can be one of the following values:
 898:../../../SDK_embedded/libs/stm32/STM32F10x_StdPeriph_Driver/stm32f10x_adc.c ****   *     @arg ADC_Channel_0: ADC Channel0 selected
 899:../../../SDK_embedded/libs/stm32/STM32F10x_StdPeriph_Driver/stm32f10x_adc.c ****   *     @arg ADC_Channel_1: ADC Channel1 selected
 900:../../../SDK_embedded/libs/stm32/STM32F10x_StdPeriph_Driver/stm32f10x_adc.c ****   *     @arg ADC_Channel_2: ADC Channel2 selected
 901:../../../SDK_embedded/libs/stm32/STM32F10x_StdPeriph_Driver/stm32f10x_adc.c ****   *     @arg ADC_Channel_3: ADC Channel3 selected
 902:../../../SDK_embedded/libs/stm32/STM32F10x_StdPeriph_Driver/stm32f10x_adc.c ****   *     @arg ADC_Channel_4: ADC Channel4 selected
 903:../../../SDK_embedded/libs/stm32/STM32F10x_StdPeriph_Driver/stm32f10x_adc.c ****   *     @arg ADC_Channel_5: ADC Channel5 selected
 904:../../../SDK_embedded/libs/stm32/STM32F10x_StdPeriph_Driver/stm32f10x_adc.c ****   *     @arg ADC_Channel_6: ADC Channel6 selected
 905:../../../SDK_embedded/libs/stm32/STM32F10x_StdPeriph_Driver/stm32f10x_adc.c ****   *     @arg ADC_Channel_7: ADC Channel7 selected
 906:../../../SDK_embedded/libs/stm32/STM32F10x_StdPeriph_Driver/stm32f10x_adc.c ****   *     @arg ADC_Channel_8: ADC Channel8 selected
 907:../../../SDK_embedded/libs/stm32/STM32F10x_StdPeriph_Driver/stm32f10x_adc.c ****   *     @arg ADC_Channel_9: ADC Channel9 selected
 908:../../../SDK_embedded/libs/stm32/STM32F10x_StdPeriph_Driver/stm32f10x_adc.c ****   *     @arg ADC_Channel_10: ADC Channel10 selected
 909:../../../SDK_embedded/libs/stm32/STM32F10x_StdPeriph_Driver/stm32f10x_adc.c ****   *     @arg ADC_Channel_11: ADC Channel11 selected
 910:../../../SDK_embedded/libs/stm32/STM32F10x_StdPeriph_Driver/stm32f10x_adc.c ****   *     @arg ADC_Channel_12: ADC Channel12 selected
 911:../../../SDK_embedded/libs/stm32/STM32F10x_StdPeriph_Driver/stm32f10x_adc.c ****   *     @arg ADC_Channel_13: ADC Channel13 selected
 912:../../../SDK_embedded/libs/stm32/STM32F10x_StdPeriph_Driver/stm32f10x_adc.c ****   *     @arg ADC_Channel_14: ADC Channel14 selected
 913:../../../SDK_embedded/libs/stm32/STM32F10x_StdPeriph_Driver/stm32f10x_adc.c ****   *     @arg ADC_Channel_15: ADC Channel15 selected
 914:../../../SDK_embedded/libs/stm32/STM32F10x_StdPeriph_Driver/stm32f10x_adc.c ****   *     @arg ADC_Channel_16: ADC Channel16 selected
 915:../../../SDK_embedded/libs/stm32/STM32F10x_StdPeriph_Driver/stm32f10x_adc.c ****   *     @arg ADC_Channel_17: ADC Channel17 selected
 916:../../../SDK_embedded/libs/stm32/STM32F10x_StdPeriph_Driver/stm32f10x_adc.c ****   * @param  Rank: The rank in the injected group sequencer. This parameter must be between 1 and 4.
 917:../../../SDK_embedded/libs/stm32/STM32F10x_StdPeriph_Driver/stm32f10x_adc.c ****   * @param  ADC_SampleTime: The sample time value to be set for the selected channel. 
 918:../../../SDK_embedded/libs/stm32/STM32F10x_StdPeriph_Driver/stm32f10x_adc.c ****   *   This parameter can be one of the following values:
 919:../../../SDK_embedded/libs/stm32/STM32F10x_StdPeriph_Driver/stm32f10x_adc.c ****   *     @arg ADC_SampleTime_1Cycles5: Sample time equal to 1.5 cycles
 920:../../../SDK_embedded/libs/stm32/STM32F10x_StdPeriph_Driver/stm32f10x_adc.c ****   *     @arg ADC_SampleTime_7Cycles5: Sample time equal to 7.5 cycles
 921:../../../SDK_embedded/libs/stm32/STM32F10x_StdPeriph_Driver/stm32f10x_adc.c ****   *     @arg ADC_SampleTime_13Cycles5: Sample time equal to 13.5 cycles
 922:../../../SDK_embedded/libs/stm32/STM32F10x_StdPeriph_Driver/stm32f10x_adc.c ****   *     @arg ADC_SampleTime_28Cycles5: Sample time equal to 28.5 cycles	
 923:../../../SDK_embedded/libs/stm32/STM32F10x_StdPeriph_Driver/stm32f10x_adc.c ****   *     @arg ADC_SampleTime_41Cycles5: Sample time equal to 41.5 cycles	
 924:../../../SDK_embedded/libs/stm32/STM32F10x_StdPeriph_Driver/stm32f10x_adc.c ****   *     @arg ADC_SampleTime_55Cycles5: Sample time equal to 55.5 cycles	
 925:../../../SDK_embedded/libs/stm32/STM32F10x_StdPeriph_Driver/stm32f10x_adc.c ****   *     @arg ADC_SampleTime_71Cycles5: Sample time equal to 71.5 cycles	
 926:../../../SDK_embedded/libs/stm32/STM32F10x_StdPeriph_Driver/stm32f10x_adc.c ****   *     @arg ADC_SampleTime_239Cycles5: Sample time equal to 239.5 cycles	
 927:../../../SDK_embedded/libs/stm32/STM32F10x_StdPeriph_Driver/stm32f10x_adc.c ****   * @retval None
 928:../../../SDK_embedded/libs/stm32/STM32F10x_StdPeriph_Driver/stm32f10x_adc.c ****   */
 929:../../../SDK_embedded/libs/stm32/STM32F10x_StdPeriph_Driver/stm32f10x_adc.c **** void ADC_InjectedChannelConfig(ADC_TypeDef* ADCx, uint8_t ADC_Channel, uint8_t Rank, uint8_t ADC_Sa
 930:../../../SDK_embedded/libs/stm32/STM32F10x_StdPeriph_Driver/stm32f10x_adc.c **** {
 17740              		.loc 1 930 0
 17741              		.cfi_startproc
 17742              		@ args = 0, pretend = 0, frame = 0
 17743              		@ frame_needed = 0, uses_anonymous_args = 0
 17744              	.LVL89:
 931:../../../SDK_embedded/libs/stm32/STM32F10x_StdPeriph_Driver/stm32f10x_adc.c ****   uint32_t tmpreg1 = 0, tmpreg2 = 0, tmpreg3 = 0;
 932:../../../SDK_embedded/libs/stm32/STM32F10x_StdPeriph_Driver/stm32f10x_adc.c ****   /* Check the parameters */
 933:../../../SDK_embedded/libs/stm32/STM32F10x_StdPeriph_Driver/stm32f10x_adc.c ****   assert_param(IS_ADC_ALL_PERIPH(ADCx));
 934:../../../SDK_embedded/libs/stm32/STM32F10x_StdPeriph_Driver/stm32f10x_adc.c ****   assert_param(IS_ADC_CHANNEL(ADC_Channel));
 935:../../../SDK_embedded/libs/stm32/STM32F10x_StdPeriph_Driver/stm32f10x_adc.c ****   assert_param(IS_ADC_INJECTED_RANK(Rank));
 936:../../../SDK_embedded/libs/stm32/STM32F10x_StdPeriph_Driver/stm32f10x_adc.c ****   assert_param(IS_ADC_SAMPLE_TIME(ADC_SampleTime));
 937:../../../SDK_embedded/libs/stm32/STM32F10x_StdPeriph_Driver/stm32f10x_adc.c ****   /* if ADC_Channel_10 ... ADC_Channel_17 is selected */
 938:../../../SDK_embedded/libs/stm32/STM32F10x_StdPeriph_Driver/stm32f10x_adc.c ****   if (ADC_Channel > ADC_Channel_9)
 17745              		.loc 1 938 0
 17746 0000 0929     		cmp	r1, #9
 930:../../../SDK_embedded/libs/stm32/STM32F10x_StdPeriph_Driver/stm32f10x_adc.c **** {
 17747              		.loc 1 930 0
 17748 0002 70B5     		push	{r4, r5, r6, lr}
 17749              	.LCFI3:
 17750              		.cfi_def_cfa_offset 16
 17751              		.cfi_offset 14, -4
 17752              		.cfi_offset 6, -8
 17753              		.cfi_offset 5, -12
 17754              		.cfi_offset 4, -16
 17755 0004 4FF00304 		mov	r4, #3
 17756              		.loc 1 938 0
 17757 0008 0BD9     		bls	.L71
 939:../../../SDK_embedded/libs/stm32/STM32F10x_StdPeriph_Driver/stm32f10x_adc.c ****   {
 940:../../../SDK_embedded/libs/stm32/STM32F10x_StdPeriph_Driver/stm32f10x_adc.c ****     /* Get the old register value */
 941:../../../SDK_embedded/libs/stm32/STM32F10x_StdPeriph_Driver/stm32f10x_adc.c ****     tmpreg1 = ADCx->SMPR1;
 942:../../../SDK_embedded/libs/stm32/STM32F10x_StdPeriph_Driver/stm32f10x_adc.c ****     /* Calculate the mask to clear */
 943:../../../SDK_embedded/libs/stm32/STM32F10x_StdPeriph_Driver/stm32f10x_adc.c ****     tmpreg2 = SMPR1_SMP_Set << (3*(ADC_Channel - 10));
 17758              		.loc 1 943 0
 17759 000a 4C43     		muls	r4, r1, r4
 17760 000c 0725     		movs	r5, #7
 17761 000e 1E3C     		subs	r4, r4, #30
 17762 0010 A540     		lsls	r5, r5, r4
 944:../../../SDK_embedded/libs/stm32/STM32F10x_StdPeriph_Driver/stm32f10x_adc.c ****     /* Clear the old channel sample time */
 945:../../../SDK_embedded/libs/stm32/STM32F10x_StdPeriph_Driver/stm32f10x_adc.c ****     tmpreg1 &= ~tmpreg2;
 946:../../../SDK_embedded/libs/stm32/STM32F10x_StdPeriph_Driver/stm32f10x_adc.c ****     /* Calculate the mask to set */
 947:../../../SDK_embedded/libs/stm32/STM32F10x_StdPeriph_Driver/stm32f10x_adc.c ****     tmpreg2 = (uint32_t)ADC_SampleTime << (3*(ADC_Channel - 10));
 17763              		.loc 1 947 0
 17764 0012 A340     		lsls	r3, r3, r4
 17765              	.LVL90:
 941:../../../SDK_embedded/libs/stm32/STM32F10x_StdPeriph_Driver/stm32f10x_adc.c ****     tmpreg1 = ADCx->SMPR1;
 17766              		.loc 1 941 0
 17767 0014 C668     		ldr	r6, [r0, #12]
 17768              	.LVL91:
 945:../../../SDK_embedded/libs/stm32/STM32F10x_StdPeriph_Driver/stm32f10x_adc.c ****     tmpreg1 &= ~tmpreg2;
 17769              		.loc 1 945 0
 17770 0016 26EA0505 		bic	r5, r6, r5
 17771              	.LVL92:
 948:../../../SDK_embedded/libs/stm32/STM32F10x_StdPeriph_Driver/stm32f10x_adc.c ****     /* Set the new channel sample time */
 949:../../../SDK_embedded/libs/stm32/STM32F10x_StdPeriph_Driver/stm32f10x_adc.c ****     tmpreg1 |= tmpreg2;
 17772              		.loc 1 949 0
 17773 001a 45EA0304 		orr	r4, r5, r3
 17774              	.LVL93:
 950:../../../SDK_embedded/libs/stm32/STM32F10x_StdPeriph_Driver/stm32f10x_adc.c ****     /* Store the new register value */
 951:../../../SDK_embedded/libs/stm32/STM32F10x_StdPeriph_Driver/stm32f10x_adc.c ****     ADCx->SMPR1 = tmpreg1;
 17775              		.loc 1 951 0
 17776 001e C460     		str	r4, [r0, #12]
 17777 0020 09E0     		b	.L72
 17778              	.LVL94:
 17779              	.L71:
 952:../../../SDK_embedded/libs/stm32/STM32F10x_StdPeriph_Driver/stm32f10x_adc.c ****   }
 953:../../../SDK_embedded/libs/stm32/STM32F10x_StdPeriph_Driver/stm32f10x_adc.c ****   else /* ADC_Channel include in ADC_Channel_[0..9] */
 954:../../../SDK_embedded/libs/stm32/STM32F10x_StdPeriph_Driver/stm32f10x_adc.c ****   {
 955:../../../SDK_embedded/libs/stm32/STM32F10x_StdPeriph_Driver/stm32f10x_adc.c ****     /* Get the old register value */
 956:../../../SDK_embedded/libs/stm32/STM32F10x_StdPeriph_Driver/stm32f10x_adc.c ****     tmpreg1 = ADCx->SMPR2;
 957:../../../SDK_embedded/libs/stm32/STM32F10x_StdPeriph_Driver/stm32f10x_adc.c ****     /* Calculate the mask to clear */
 958:../../../SDK_embedded/libs/stm32/STM32F10x_StdPeriph_Driver/stm32f10x_adc.c ****     tmpreg2 = SMPR2_SMP_Set << (3 * ADC_Channel);
 17780              		.loc 1 958 0
 17781 0022 4C43     		muls	r4, r1, r4
 17782 0024 0725     		movs	r5, #7
 17783 0026 A540     		lsls	r5, r5, r4
 959:../../../SDK_embedded/libs/stm32/STM32F10x_StdPeriph_Driver/stm32f10x_adc.c ****     /* Clear the old channel sample time */
 960:../../../SDK_embedded/libs/stm32/STM32F10x_StdPeriph_Driver/stm32f10x_adc.c ****     tmpreg1 &= ~tmpreg2;
 961:../../../SDK_embedded/libs/stm32/STM32F10x_StdPeriph_Driver/stm32f10x_adc.c ****     /* Calculate the mask to set */
 962:../../../SDK_embedded/libs/stm32/STM32F10x_StdPeriph_Driver/stm32f10x_adc.c ****     tmpreg2 = (uint32_t)ADC_SampleTime << (3 * ADC_Channel);
 17784              		.loc 1 962 0
 17785 0028 A340     		lsls	r3, r3, r4
 17786              	.LVL95:
 956:../../../SDK_embedded/libs/stm32/STM32F10x_StdPeriph_Driver/stm32f10x_adc.c ****     tmpreg1 = ADCx->SMPR2;
 17787              		.loc 1 956 0
 17788 002a 0669     		ldr	r6, [r0, #16]
 17789              	.LVL96:
 960:../../../SDK_embedded/libs/stm32/STM32F10x_StdPeriph_Driver/stm32f10x_adc.c ****     tmpreg1 &= ~tmpreg2;
 17790              		.loc 1 960 0
 17791 002c 26EA0505 		bic	r5, r6, r5
 17792              	.LVL97:
 963:../../../SDK_embedded/libs/stm32/STM32F10x_StdPeriph_Driver/stm32f10x_adc.c ****     /* Set the new channel sample time */
 964:../../../SDK_embedded/libs/stm32/STM32F10x_StdPeriph_Driver/stm32f10x_adc.c ****     tmpreg1 |= tmpreg2;
 17793              		.loc 1 964 0
 17794 0030 45EA0304 		orr	r4, r5, r3
 17795              	.LVL98:
 965:../../../SDK_embedded/libs/stm32/STM32F10x_StdPeriph_Driver/stm32f10x_adc.c ****     /* Store the new register value */
 966:../../../SDK_embedded/libs/stm32/STM32F10x_StdPeriph_Driver/stm32f10x_adc.c ****     ADCx->SMPR2 = tmpreg1;
 17796              		.loc 1 966 0
 17797 0034 0461     		str	r4, [r0, #16]
 17798              	.L72:
 967:../../../SDK_embedded/libs/stm32/STM32F10x_StdPeriph_Driver/stm32f10x_adc.c ****   }
 968:../../../SDK_embedded/libs/stm32/STM32F10x_StdPeriph_Driver/stm32f10x_adc.c ****   /* Rank configuration */
 969:../../../SDK_embedded/libs/stm32/STM32F10x_StdPeriph_Driver/stm32f10x_adc.c ****   /* Get the old register value */
 970:../../../SDK_embedded/libs/stm32/STM32F10x_StdPeriph_Driver/stm32f10x_adc.c ****   tmpreg1 = ADCx->JSQR;
 17799              		.loc 1 970 0
 17800 0036 836B     		ldr	r3, [r0, #56]
 17801              	.LVL99:
 971:../../../SDK_embedded/libs/stm32/STM32F10x_StdPeriph_Driver/stm32f10x_adc.c ****   /* Get JL value: Number = JL+1 */
 972:../../../SDK_embedded/libs/stm32/STM32F10x_StdPeriph_Driver/stm32f10x_adc.c ****   tmpreg3 =  (tmpreg1 & JSQR_JL_Set)>> 20;
 973:../../../SDK_embedded/libs/stm32/STM32F10x_StdPeriph_Driver/stm32f10x_adc.c ****   /* Calculate the mask to clear: ((Rank-1)+(4-JL-1)) */
 974:../../../SDK_embedded/libs/stm32/STM32F10x_StdPeriph_Driver/stm32f10x_adc.c ****   tmpreg2 = JSQR_JSQ_Set << (5 * (uint8_t)((Rank + 3) - (tmpreg3 + 1)));
 17802              		.loc 1 974 0
 17803 0038 C3F3015C 		ubfx	ip, r3, #20, #2
 17804 003c CCEB0204 		rsb	r4, ip, r2
 17805 0040 A21C     		adds	r2, r4, #2
 17806              	.LVL100:
 17807 0042 D2B2     		uxtb	r2, r2
 17808 0044 0524     		movs	r4, #5
 17809 0046 6243     		muls	r2, r4, r2
 17810              	.LVL101:
 17811 0048 1F24     		movs	r4, #31
 17812 004a 9440     		lsls	r4, r4, r2
 975:../../../SDK_embedded/libs/stm32/STM32F10x_StdPeriph_Driver/stm32f10x_adc.c ****   /* Clear the old JSQx bits for the selected rank */
 976:../../../SDK_embedded/libs/stm32/STM32F10x_StdPeriph_Driver/stm32f10x_adc.c ****   tmpreg1 &= ~tmpreg2;
 977:../../../SDK_embedded/libs/stm32/STM32F10x_StdPeriph_Driver/stm32f10x_adc.c ****   /* Calculate the mask to set: ((Rank-1)+(4-JL-1)) */
 978:../../../SDK_embedded/libs/stm32/STM32F10x_StdPeriph_Driver/stm32f10x_adc.c ****   tmpreg2 = (uint32_t)ADC_Channel << (5 * (uint8_t)((Rank + 3) - (tmpreg3 + 1)));
 17813              		.loc 1 978 0
 17814 004c 11FA02F2 		lsls	r2, r1, r2
 17815              	.LVL102:
 976:../../../SDK_embedded/libs/stm32/STM32F10x_StdPeriph_Driver/stm32f10x_adc.c ****   tmpreg1 &= ~tmpreg2;
 17816              		.loc 1 976 0
 17817 0050 23EA040C 		bic	ip, r3, r4
 17818              	.LVL103:
 979:../../../SDK_embedded/libs/stm32/STM32F10x_StdPeriph_Driver/stm32f10x_adc.c ****   /* Set the JSQx bits for the selected rank */
 980:../../../SDK_embedded/libs/stm32/STM32F10x_StdPeriph_Driver/stm32f10x_adc.c ****   tmpreg1 |= tmpreg2;
 17819              		.loc 1 980 0
 17820 0054 4CEA0201 		orr	r1, ip, r2
 17821              	.LVL104:
 981:../../../SDK_embedded/libs/stm32/STM32F10x_StdPeriph_Driver/stm32f10x_adc.c ****   /* Store the new register value */
 982:../../../SDK_embedded/libs/stm32/STM32F10x_StdPeriph_Driver/stm32f10x_adc.c ****   ADCx->JSQR = tmpreg1;
 17822              		.loc 1 982 0
 17823 0058 8163     		str	r1, [r0, #56]
 983:../../../SDK_embedded/libs/stm32/STM32F10x_StdPeriph_Driver/stm32f10x_adc.c **** }
 17824              		.loc 1 983 0
 17825 005a 70BD     		pop	{r4, r5, r6, pc}
 17826              		.cfi_endproc
 17827              	.LFE53:
 17829              		.section	.text.ADC_InjectedSequencerLengthConfig,"ax",%progbits
 17830              		.align	1
 17831              		.global	ADC_InjectedSequencerLengthConfig
 17832              		.thumb
 17833              		.thumb_func
 17835              	ADC_InjectedSequencerLengthConfig:
 17836              	.LFB54:
 984:../../../SDK_embedded/libs/stm32/STM32F10x_StdPeriph_Driver/stm32f10x_adc.c **** 
 985:../../../SDK_embedded/libs/stm32/STM32F10x_StdPeriph_Driver/stm32f10x_adc.c **** /**
 986:../../../SDK_embedded/libs/stm32/STM32F10x_StdPeriph_Driver/stm32f10x_adc.c ****   * @brief  Configures the sequencer length for injected channels
 987:../../../SDK_embedded/libs/stm32/STM32F10x_StdPeriph_Driver/stm32f10x_adc.c ****   * @param  ADCx: where x can be 1, 2 or 3 to select the ADC peripheral.
 988:../../../SDK_embedded/libs/stm32/STM32F10x_StdPeriph_Driver/stm32f10x_adc.c ****   * @param  Length: The sequencer length. 
 989:../../../SDK_embedded/libs/stm32/STM32F10x_StdPeriph_Driver/stm32f10x_adc.c ****   *   This parameter must be a number between 1 to 4.
 990:../../../SDK_embedded/libs/stm32/STM32F10x_StdPeriph_Driver/stm32f10x_adc.c ****   * @retval None
 991:../../../SDK_embedded/libs/stm32/STM32F10x_StdPeriph_Driver/stm32f10x_adc.c ****   */
 992:../../../SDK_embedded/libs/stm32/STM32F10x_StdPeriph_Driver/stm32f10x_adc.c **** void ADC_InjectedSequencerLengthConfig(ADC_TypeDef* ADCx, uint8_t Length)
 993:../../../SDK_embedded/libs/stm32/STM32F10x_StdPeriph_Driver/stm32f10x_adc.c **** {
 17837              		.loc 1 993 0
 17838              		.cfi_startproc
 17839              		@ args = 0, pretend = 0, frame = 0
 17840              		@ frame_needed = 0, uses_anonymous_args = 0
 17841              		@ link register save eliminated.
 17842              	.LVL105:
 994:../../../SDK_embedded/libs/stm32/STM32F10x_StdPeriph_Driver/stm32f10x_adc.c ****   uint32_t tmpreg1 = 0;
 995:../../../SDK_embedded/libs/stm32/STM32F10x_StdPeriph_Driver/stm32f10x_adc.c ****   uint32_t tmpreg2 = 0;
 996:../../../SDK_embedded/libs/stm32/STM32F10x_StdPeriph_Driver/stm32f10x_adc.c ****   /* Check the parameters */
 997:../../../SDK_embedded/libs/stm32/STM32F10x_StdPeriph_Driver/stm32f10x_adc.c ****   assert_param(IS_ADC_ALL_PERIPH(ADCx));
 998:../../../SDK_embedded/libs/stm32/STM32F10x_StdPeriph_Driver/stm32f10x_adc.c ****   assert_param(IS_ADC_INJECTED_LENGTH(Length));
 999:../../../SDK_embedded/libs/stm32/STM32F10x_StdPeriph_Driver/stm32f10x_adc.c ****   
1000:../../../SDK_embedded/libs/stm32/STM32F10x_StdPeriph_Driver/stm32f10x_adc.c ****   /* Get the old register value */
1001:../../../SDK_embedded/libs/stm32/STM32F10x_StdPeriph_Driver/stm32f10x_adc.c ****   tmpreg1 = ADCx->JSQR;
 17843              		.loc 1 1001 0
 17844 0000 826B     		ldr	r2, [r0, #56]
 17845              	.LVL106:
1002:../../../SDK_embedded/libs/stm32/STM32F10x_StdPeriph_Driver/stm32f10x_adc.c ****   /* Clear the old injected sequnence lenght JL bits */
1003:../../../SDK_embedded/libs/stm32/STM32F10x_StdPeriph_Driver/stm32f10x_adc.c ****   tmpreg1 &= JSQR_JL_Reset;
 17846              		.loc 1 1003 0
 17847 0002 22F44013 		bic	r3, r2, #3145728
 17848              	.LVL107:
1004:../../../SDK_embedded/libs/stm32/STM32F10x_StdPeriph_Driver/stm32f10x_adc.c ****   /* Set the injected sequnence lenght JL bits */
1005:../../../SDK_embedded/libs/stm32/STM32F10x_StdPeriph_Driver/stm32f10x_adc.c ****   tmpreg2 = Length - 1; 
 17849              		.loc 1 1005 0
 17850 0006 4A1E     		subs	r2, r1, #1
1006:../../../SDK_embedded/libs/stm32/STM32F10x_StdPeriph_Driver/stm32f10x_adc.c ****   tmpreg1 |= tmpreg2 << 20;
 17851              		.loc 1 1006 0
 17852 0008 43EA0251 		orr	r1, r3, r2, lsl #20
 17853              	.LVL108:
1007:../../../SDK_embedded/libs/stm32/STM32F10x_StdPeriph_Driver/stm32f10x_adc.c ****   /* Store the new register value */
1008:../../../SDK_embedded/libs/stm32/STM32F10x_StdPeriph_Driver/stm32f10x_adc.c ****   ADCx->JSQR = tmpreg1;
 17854              		.loc 1 1008 0
 17855 000c 8163     		str	r1, [r0, #56]
1009:../../../SDK_embedded/libs/stm32/STM32F10x_StdPeriph_Driver/stm32f10x_adc.c **** }
 17856              		.loc 1 1009 0
 17857 000e 7047     		bx	lr
 17858              		.cfi_endproc
 17859              	.LFE54:
 17861              		.section	.text.ADC_SetInjectedOffset,"ax",%progbits
 17862              		.align	1
 17863              		.global	ADC_SetInjectedOffset
 17864              		.thumb
 17865              		.thumb_func
 17867              	ADC_SetInjectedOffset:
 17868              	.LFB55:
1010:../../../SDK_embedded/libs/stm32/STM32F10x_StdPeriph_Driver/stm32f10x_adc.c **** 
1011:../../../SDK_embedded/libs/stm32/STM32F10x_StdPeriph_Driver/stm32f10x_adc.c **** /**
1012:../../../SDK_embedded/libs/stm32/STM32F10x_StdPeriph_Driver/stm32f10x_adc.c ****   * @brief  Set the injected channels conversion value offset
1013:../../../SDK_embedded/libs/stm32/STM32F10x_StdPeriph_Driver/stm32f10x_adc.c ****   * @param  ADCx: where x can be 1, 2 or 3 to select the ADC peripheral.
1014:../../../SDK_embedded/libs/stm32/STM32F10x_StdPeriph_Driver/stm32f10x_adc.c ****   * @param  ADC_InjectedChannel: the ADC injected channel to set its offset. 
1015:../../../SDK_embedded/libs/stm32/STM32F10x_StdPeriph_Driver/stm32f10x_adc.c ****   *   This parameter can be one of the following values:
1016:../../../SDK_embedded/libs/stm32/STM32F10x_StdPeriph_Driver/stm32f10x_adc.c ****   *     @arg ADC_InjectedChannel_1: Injected Channel1 selected
1017:../../../SDK_embedded/libs/stm32/STM32F10x_StdPeriph_Driver/stm32f10x_adc.c ****   *     @arg ADC_InjectedChannel_2: Injected Channel2 selected
1018:../../../SDK_embedded/libs/stm32/STM32F10x_StdPeriph_Driver/stm32f10x_adc.c ****   *     @arg ADC_InjectedChannel_3: Injected Channel3 selected
1019:../../../SDK_embedded/libs/stm32/STM32F10x_StdPeriph_Driver/stm32f10x_adc.c ****   *     @arg ADC_InjectedChannel_4: Injected Channel4 selected
1020:../../../SDK_embedded/libs/stm32/STM32F10x_StdPeriph_Driver/stm32f10x_adc.c ****   * @param  Offset: the offset value for the selected ADC injected channel
1021:../../../SDK_embedded/libs/stm32/STM32F10x_StdPeriph_Driver/stm32f10x_adc.c ****   *   This parameter must be a 12bit value.
1022:../../../SDK_embedded/libs/stm32/STM32F10x_StdPeriph_Driver/stm32f10x_adc.c ****   * @retval None
1023:../../../SDK_embedded/libs/stm32/STM32F10x_StdPeriph_Driver/stm32f10x_adc.c ****   */
1024:../../../SDK_embedded/libs/stm32/STM32F10x_StdPeriph_Driver/stm32f10x_adc.c **** void ADC_SetInjectedOffset(ADC_TypeDef* ADCx, uint8_t ADC_InjectedChannel, uint16_t Offset)
1025:../../../SDK_embedded/libs/stm32/STM32F10x_StdPeriph_Driver/stm32f10x_adc.c **** {
 17869              		.loc 1 1025 0
 17870              		.cfi_startproc
 17871              		@ args = 0, pretend = 0, frame = 8
 17872              		@ frame_needed = 0, uses_anonymous_args = 0
 17873              		@ link register save eliminated.
 17874              	.LVL109:
 17875 0000 82B0     		sub	sp, sp, #8
 17876              	.LCFI4:
 17877              		.cfi_def_cfa_offset 8
1026:../../../SDK_embedded/libs/stm32/STM32F10x_StdPeriph_Driver/stm32f10x_adc.c ****   __IO uint32_t tmp = 0;
 17878              		.loc 1 1026 0
 17879 0002 0023     		movs	r3, #0
 17880 0004 0193     		str	r3, [sp, #4]
 17881              	.LVL110:
1027:../../../SDK_embedded/libs/stm32/STM32F10x_StdPeriph_Driver/stm32f10x_adc.c ****   
1028:../../../SDK_embedded/libs/stm32/STM32F10x_StdPeriph_Driver/stm32f10x_adc.c ****   /* Check the parameters */
1029:../../../SDK_embedded/libs/stm32/STM32F10x_StdPeriph_Driver/stm32f10x_adc.c ****   assert_param(IS_ADC_ALL_PERIPH(ADCx));
1030:../../../SDK_embedded/libs/stm32/STM32F10x_StdPeriph_Driver/stm32f10x_adc.c ****   assert_param(IS_ADC_INJECTED_CHANNEL(ADC_InjectedChannel));
1031:../../../SDK_embedded/libs/stm32/STM32F10x_StdPeriph_Driver/stm32f10x_adc.c ****   assert_param(IS_ADC_OFFSET(Offset));  
1032:../../../SDK_embedded/libs/stm32/STM32F10x_StdPeriph_Driver/stm32f10x_adc.c ****   
1033:../../../SDK_embedded/libs/stm32/STM32F10x_StdPeriph_Driver/stm32f10x_adc.c ****   tmp = (uint32_t)ADCx;
 17882              		.loc 1 1033 0
 17883 0006 0190     		str	r0, [sp, #4]
1034:../../../SDK_embedded/libs/stm32/STM32F10x_StdPeriph_Driver/stm32f10x_adc.c ****   tmp += ADC_InjectedChannel;
 17884              		.loc 1 1034 0
 17885 0008 0198     		ldr	r0, [sp, #4]
 17886              	.LVL111:
 17887 000a 0918     		adds	r1, r1, r0
 17888              	.LVL112:
 17889 000c 0191     		str	r1, [sp, #4]
 17890              	.LVL113:
1035:../../../SDK_embedded/libs/stm32/STM32F10x_StdPeriph_Driver/stm32f10x_adc.c ****   
1036:../../../SDK_embedded/libs/stm32/STM32F10x_StdPeriph_Driver/stm32f10x_adc.c ****   /* Set the selected injected channel data offset */
1037:../../../SDK_embedded/libs/stm32/STM32F10x_StdPeriph_Driver/stm32f10x_adc.c ****   *(__IO uint32_t *) tmp = (uint32_t)Offset;
 17891              		.loc 1 1037 0
 17892 000e 019B     		ldr	r3, [sp, #4]
 17893 0010 1A60     		str	r2, [r3, #0]
1038:../../../SDK_embedded/libs/stm32/STM32F10x_StdPeriph_Driver/stm32f10x_adc.c **** }
 17894              		.loc 1 1038 0
 17895 0012 02B0     		add	sp, sp, #8
 17896 0014 7047     		bx	lr
 17897              		.cfi_endproc
 17898              	.LFE55:
 17900              		.section	.text.ADC_GetInjectedConversionValue,"ax",%progbits
 17901              		.align	1
 17902              		.global	ADC_GetInjectedConversionValue
 17903              		.thumb
 17904              		.thumb_func
 17906              	ADC_GetInjectedConversionValue:
 17907              	.LFB56:
1039:../../../SDK_embedded/libs/stm32/STM32F10x_StdPeriph_Driver/stm32f10x_adc.c **** 
1040:../../../SDK_embedded/libs/stm32/STM32F10x_StdPeriph_Driver/stm32f10x_adc.c **** /**
1041:../../../SDK_embedded/libs/stm32/STM32F10x_StdPeriph_Driver/stm32f10x_adc.c ****   * @brief  Returns the ADC injected channel conversion result
1042:../../../SDK_embedded/libs/stm32/STM32F10x_StdPeriph_Driver/stm32f10x_adc.c ****   * @param  ADCx: where x can be 1, 2 or 3 to select the ADC peripheral.
1043:../../../SDK_embedded/libs/stm32/STM32F10x_StdPeriph_Driver/stm32f10x_adc.c ****   * @param  ADC_InjectedChannel: the converted ADC injected channel.
1044:../../../SDK_embedded/libs/stm32/STM32F10x_StdPeriph_Driver/stm32f10x_adc.c ****   *   This parameter can be one of the following values:
1045:../../../SDK_embedded/libs/stm32/STM32F10x_StdPeriph_Driver/stm32f10x_adc.c ****   *     @arg ADC_InjectedChannel_1: Injected Channel1 selected
1046:../../../SDK_embedded/libs/stm32/STM32F10x_StdPeriph_Driver/stm32f10x_adc.c ****   *     @arg ADC_InjectedChannel_2: Injected Channel2 selected
1047:../../../SDK_embedded/libs/stm32/STM32F10x_StdPeriph_Driver/stm32f10x_adc.c ****   *     @arg ADC_InjectedChannel_3: Injected Channel3 selected
1048:../../../SDK_embedded/libs/stm32/STM32F10x_StdPeriph_Driver/stm32f10x_adc.c ****   *     @arg ADC_InjectedChannel_4: Injected Channel4 selected
1049:../../../SDK_embedded/libs/stm32/STM32F10x_StdPeriph_Driver/stm32f10x_adc.c ****   * @retval The Data conversion value.
1050:../../../SDK_embedded/libs/stm32/STM32F10x_StdPeriph_Driver/stm32f10x_adc.c ****   */
1051:../../../SDK_embedded/libs/stm32/STM32F10x_StdPeriph_Driver/stm32f10x_adc.c **** uint16_t ADC_GetInjectedConversionValue(ADC_TypeDef* ADCx, uint8_t ADC_InjectedChannel)
1052:../../../SDK_embedded/libs/stm32/STM32F10x_StdPeriph_Driver/stm32f10x_adc.c **** {
 17908              		.loc 1 1052 0
 17909              		.cfi_startproc
 17910              		@ args = 0, pretend = 0, frame = 8
 17911              		@ frame_needed = 0, uses_anonymous_args = 0
 17912              		@ link register save eliminated.
 17913              	.LVL114:
 17914 0000 82B0     		sub	sp, sp, #8
 17915              	.LCFI5:
 17916              		.cfi_def_cfa_offset 8
1053:../../../SDK_embedded/libs/stm32/STM32F10x_StdPeriph_Driver/stm32f10x_adc.c ****   __IO uint32_t tmp = 0;
 17917              		.loc 1 1053 0
 17918 0002 0023     		movs	r3, #0
 17919 0004 0193     		str	r3, [sp, #4]
 17920              	.LVL115:
1054:../../../SDK_embedded/libs/stm32/STM32F10x_StdPeriph_Driver/stm32f10x_adc.c ****   
1055:../../../SDK_embedded/libs/stm32/STM32F10x_StdPeriph_Driver/stm32f10x_adc.c ****   /* Check the parameters */
1056:../../../SDK_embedded/libs/stm32/STM32F10x_StdPeriph_Driver/stm32f10x_adc.c ****   assert_param(IS_ADC_ALL_PERIPH(ADCx));
1057:../../../SDK_embedded/libs/stm32/STM32F10x_StdPeriph_Driver/stm32f10x_adc.c ****   assert_param(IS_ADC_INJECTED_CHANNEL(ADC_InjectedChannel));
1058:../../../SDK_embedded/libs/stm32/STM32F10x_StdPeriph_Driver/stm32f10x_adc.c **** 
1059:../../../SDK_embedded/libs/stm32/STM32F10x_StdPeriph_Driver/stm32f10x_adc.c ****   tmp = (uint32_t)ADCx;
 17921              		.loc 1 1059 0
 17922 0006 0190     		str	r0, [sp, #4]
1060:../../../SDK_embedded/libs/stm32/STM32F10x_StdPeriph_Driver/stm32f10x_adc.c ****   tmp += ADC_InjectedChannel + JDR_Offset;
 17923              		.loc 1 1060 0
 17924 0008 019A     		ldr	r2, [sp, #4]
 17925 000a 2832     		adds	r2, r2, #40
 17926 000c 5118     		adds	r1, r2, r1
 17927              	.LVL116:
 17928 000e 0191     		str	r1, [sp, #4]
 17929              	.LVL117:
1061:../../../SDK_embedded/libs/stm32/STM32F10x_StdPeriph_Driver/stm32f10x_adc.c ****   
1062:../../../SDK_embedded/libs/stm32/STM32F10x_StdPeriph_Driver/stm32f10x_adc.c ****   /* Returns the selected injected channel conversion data value */
1063:../../../SDK_embedded/libs/stm32/STM32F10x_StdPeriph_Driver/stm32f10x_adc.c ****   return (uint16_t) (*(__IO uint32_t*)  tmp);   
 17930              		.loc 1 1063 0
 17931 0010 019B     		ldr	r3, [sp, #4]
 17932 0012 1868     		ldr	r0, [r3, #0]
 17933              	.LVL118:
 17934 0014 80B2     		uxth	r0, r0
1064:../../../SDK_embedded/libs/stm32/STM32F10x_StdPeriph_Driver/stm32f10x_adc.c **** }
 17935              		.loc 1 1064 0
 17936 0016 02B0     		add	sp, sp, #8
 17937 0018 7047     		bx	lr
 17938              		.cfi_endproc
 17939              	.LFE56:
 17941              		.section	.text.ADC_AnalogWatchdogCmd,"ax",%progbits
 17942              		.align	1
 17943              		.global	ADC_AnalogWatchdogCmd
 17944              		.thumb
 17945              		.thumb_func
 17947              	ADC_AnalogWatchdogCmd:
 17948              	.LFB57:
1065:../../../SDK_embedded/libs/stm32/STM32F10x_StdPeriph_Driver/stm32f10x_adc.c **** 
1066:../../../SDK_embedded/libs/stm32/STM32F10x_StdPeriph_Driver/stm32f10x_adc.c **** /**
1067:../../../SDK_embedded/libs/stm32/STM32F10x_StdPeriph_Driver/stm32f10x_adc.c ****   * @brief  Enables or disables the analog watchdog on single/all regular
1068:../../../SDK_embedded/libs/stm32/STM32F10x_StdPeriph_Driver/stm32f10x_adc.c ****   *   or injected channels
1069:../../../SDK_embedded/libs/stm32/STM32F10x_StdPeriph_Driver/stm32f10x_adc.c ****   * @param  ADCx: where x can be 1, 2 or 3 to select the ADC peripheral.
1070:../../../SDK_embedded/libs/stm32/STM32F10x_StdPeriph_Driver/stm32f10x_adc.c ****   * @param  ADC_AnalogWatchdog: the ADC analog watchdog configuration.
1071:../../../SDK_embedded/libs/stm32/STM32F10x_StdPeriph_Driver/stm32f10x_adc.c ****   *   This parameter can be one of the following values:
1072:../../../SDK_embedded/libs/stm32/STM32F10x_StdPeriph_Driver/stm32f10x_adc.c ****   *     @arg ADC_AnalogWatchdog_SingleRegEnable: Analog watchdog on a single regular channel
1073:../../../SDK_embedded/libs/stm32/STM32F10x_StdPeriph_Driver/stm32f10x_adc.c ****   *     @arg ADC_AnalogWatchdog_SingleInjecEnable: Analog watchdog on a single injected channel
1074:../../../SDK_embedded/libs/stm32/STM32F10x_StdPeriph_Driver/stm32f10x_adc.c ****   *     @arg ADC_AnalogWatchdog_SingleRegOrInjecEnable: Analog watchdog on a single regular or inje
1075:../../../SDK_embedded/libs/stm32/STM32F10x_StdPeriph_Driver/stm32f10x_adc.c ****   *     @arg ADC_AnalogWatchdog_AllRegEnable: Analog watchdog on  all regular channel
1076:../../../SDK_embedded/libs/stm32/STM32F10x_StdPeriph_Driver/stm32f10x_adc.c ****   *     @arg ADC_AnalogWatchdog_AllInjecEnable: Analog watchdog on  all injected channel
1077:../../../SDK_embedded/libs/stm32/STM32F10x_StdPeriph_Driver/stm32f10x_adc.c ****   *     @arg ADC_AnalogWatchdog_AllRegAllInjecEnable: Analog watchdog on all regular and injected c
1078:../../../SDK_embedded/libs/stm32/STM32F10x_StdPeriph_Driver/stm32f10x_adc.c ****   *     @arg ADC_AnalogWatchdog_None: No channel guarded by the analog watchdog
1079:../../../SDK_embedded/libs/stm32/STM32F10x_StdPeriph_Driver/stm32f10x_adc.c ****   * @retval None	  
1080:../../../SDK_embedded/libs/stm32/STM32F10x_StdPeriph_Driver/stm32f10x_adc.c ****   */
1081:../../../SDK_embedded/libs/stm32/STM32F10x_StdPeriph_Driver/stm32f10x_adc.c **** void ADC_AnalogWatchdogCmd(ADC_TypeDef* ADCx, uint32_t ADC_AnalogWatchdog)
1082:../../../SDK_embedded/libs/stm32/STM32F10x_StdPeriph_Driver/stm32f10x_adc.c **** {
 17949              		.loc 1 1082 0
 17950              		.cfi_startproc
 17951              		@ args = 0, pretend = 0, frame = 0
 17952              		@ frame_needed = 0, uses_anonymous_args = 0
 17953              		@ link register save eliminated.
 17954              	.LVL119:
1083:../../../SDK_embedded/libs/stm32/STM32F10x_StdPeriph_Driver/stm32f10x_adc.c ****   uint32_t tmpreg = 0;
1084:../../../SDK_embedded/libs/stm32/STM32F10x_StdPeriph_Driver/stm32f10x_adc.c ****   /* Check the parameters */
1085:../../../SDK_embedded/libs/stm32/STM32F10x_StdPeriph_Driver/stm32f10x_adc.c ****   assert_param(IS_ADC_ALL_PERIPH(ADCx));
1086:../../../SDK_embedded/libs/stm32/STM32F10x_StdPeriph_Driver/stm32f10x_adc.c ****   assert_param(IS_ADC_ANALOG_WATCHDOG(ADC_AnalogWatchdog));
1087:../../../SDK_embedded/libs/stm32/STM32F10x_StdPeriph_Driver/stm32f10x_adc.c ****   /* Get the old register value */
1088:../../../SDK_embedded/libs/stm32/STM32F10x_StdPeriph_Driver/stm32f10x_adc.c ****   tmpreg = ADCx->CR1;
 17955              		.loc 1 1088 0
 17956 0000 4368     		ldr	r3, [r0, #4]
 17957              	.LVL120:
1089:../../../SDK_embedded/libs/stm32/STM32F10x_StdPeriph_Driver/stm32f10x_adc.c ****   /* Clear AWDEN, AWDENJ and AWDSGL bits */
1090:../../../SDK_embedded/libs/stm32/STM32F10x_StdPeriph_Driver/stm32f10x_adc.c ****   tmpreg &= CR1_AWDMode_Reset;
 17958              		.loc 1 1090 0
 17959 0002 23F44002 		bic	r2, r3, #12582912
 17960 0006 22F40073 		bic	r3, r2, #512
 17961              	.LVL121:
1091:../../../SDK_embedded/libs/stm32/STM32F10x_StdPeriph_Driver/stm32f10x_adc.c ****   /* Set the analog watchdog enable mode */
1092:../../../SDK_embedded/libs/stm32/STM32F10x_StdPeriph_Driver/stm32f10x_adc.c ****   tmpreg |= ADC_AnalogWatchdog;
 17962              		.loc 1 1092 0
 17963 000a 1943     		orrs	r1, r1, r3
 17964              	.LVL122:
1093:../../../SDK_embedded/libs/stm32/STM32F10x_StdPeriph_Driver/stm32f10x_adc.c ****   /* Store the new register value */
1094:../../../SDK_embedded/libs/stm32/STM32F10x_StdPeriph_Driver/stm32f10x_adc.c ****   ADCx->CR1 = tmpreg;
 17965              		.loc 1 1094 0
 17966 000c 4160     		str	r1, [r0, #4]
1095:../../../SDK_embedded/libs/stm32/STM32F10x_StdPeriph_Driver/stm32f10x_adc.c **** }
 17967              		.loc 1 1095 0
 17968 000e 7047     		bx	lr
 17969              		.cfi_endproc
 17970              	.LFE57:
 17972              		.section	.text.ADC_AnalogWatchdogThresholdsConfig,"ax",%progbits
 17973              		.align	1
 17974              		.global	ADC_AnalogWatchdogThresholdsConfig
 17975              		.thumb
 17976              		.thumb_func
 17978              	ADC_AnalogWatchdogThresholdsConfig:
 17979              	.LFB58:
1096:../../../SDK_embedded/libs/stm32/STM32F10x_StdPeriph_Driver/stm32f10x_adc.c **** 
1097:../../../SDK_embedded/libs/stm32/STM32F10x_StdPeriph_Driver/stm32f10x_adc.c **** /**
1098:../../../SDK_embedded/libs/stm32/STM32F10x_StdPeriph_Driver/stm32f10x_adc.c ****   * @brief  Configures the high and low thresholds of the analog watchdog.
1099:../../../SDK_embedded/libs/stm32/STM32F10x_StdPeriph_Driver/stm32f10x_adc.c ****   * @param  ADCx: where x can be 1, 2 or 3 to select the ADC peripheral.
1100:../../../SDK_embedded/libs/stm32/STM32F10x_StdPeriph_Driver/stm32f10x_adc.c ****   * @param  HighThreshold: the ADC analog watchdog High threshold value.
1101:../../../SDK_embedded/libs/stm32/STM32F10x_StdPeriph_Driver/stm32f10x_adc.c ****   *   This parameter must be a 12bit value.
1102:../../../SDK_embedded/libs/stm32/STM32F10x_StdPeriph_Driver/stm32f10x_adc.c ****   * @param  LowThreshold: the ADC analog watchdog Low threshold value.
1103:../../../SDK_embedded/libs/stm32/STM32F10x_StdPeriph_Driver/stm32f10x_adc.c ****   *   This parameter must be a 12bit value.
1104:../../../SDK_embedded/libs/stm32/STM32F10x_StdPeriph_Driver/stm32f10x_adc.c ****   * @retval None
1105:../../../SDK_embedded/libs/stm32/STM32F10x_StdPeriph_Driver/stm32f10x_adc.c ****   */
1106:../../../SDK_embedded/libs/stm32/STM32F10x_StdPeriph_Driver/stm32f10x_adc.c **** void ADC_AnalogWatchdogThresholdsConfig(ADC_TypeDef* ADCx, uint16_t HighThreshold,
1107:../../../SDK_embedded/libs/stm32/STM32F10x_StdPeriph_Driver/stm32f10x_adc.c ****                                         uint16_t LowThreshold)
1108:../../../SDK_embedded/libs/stm32/STM32F10x_StdPeriph_Driver/stm32f10x_adc.c **** {
 17980              		.loc 1 1108 0
 17981              		.cfi_startproc
 17982              		@ args = 0, pretend = 0, frame = 0
 17983              		@ frame_needed = 0, uses_anonymous_args = 0
 17984              		@ link register save eliminated.
 17985              	.LVL123:
1109:../../../SDK_embedded/libs/stm32/STM32F10x_StdPeriph_Driver/stm32f10x_adc.c ****   /* Check the parameters */
1110:../../../SDK_embedded/libs/stm32/STM32F10x_StdPeriph_Driver/stm32f10x_adc.c ****   assert_param(IS_ADC_ALL_PERIPH(ADCx));
1111:../../../SDK_embedded/libs/stm32/STM32F10x_StdPeriph_Driver/stm32f10x_adc.c ****   assert_param(IS_ADC_THRESHOLD(HighThreshold));
1112:../../../SDK_embedded/libs/stm32/STM32F10x_StdPeriph_Driver/stm32f10x_adc.c ****   assert_param(IS_ADC_THRESHOLD(LowThreshold));
1113:../../../SDK_embedded/libs/stm32/STM32F10x_StdPeriph_Driver/stm32f10x_adc.c ****   /* Set the ADCx high threshold */
1114:../../../SDK_embedded/libs/stm32/STM32F10x_StdPeriph_Driver/stm32f10x_adc.c ****   ADCx->HTR = HighThreshold;
 17986              		.loc 1 1114 0
 17987 0000 4162     		str	r1, [r0, #36]
1115:../../../SDK_embedded/libs/stm32/STM32F10x_StdPeriph_Driver/stm32f10x_adc.c ****   /* Set the ADCx low threshold */
1116:../../../SDK_embedded/libs/stm32/STM32F10x_StdPeriph_Driver/stm32f10x_adc.c ****   ADCx->LTR = LowThreshold;
 17988              		.loc 1 1116 0
 17989 0002 8262     		str	r2, [r0, #40]
1117:../../../SDK_embedded/libs/stm32/STM32F10x_StdPeriph_Driver/stm32f10x_adc.c **** }
 17990              		.loc 1 1117 0
 17991 0004 7047     		bx	lr
 17992              		.cfi_endproc
 17993              	.LFE58:
 17995              		.section	.text.ADC_AnalogWatchdogSingleChannelConfig,"ax",%progbits
 17996              		.align	1
 17997              		.global	ADC_AnalogWatchdogSingleChannelConfig
 17998              		.thumb
 17999              		.thumb_func
 18001              	ADC_AnalogWatchdogSingleChannelConfig:
 18002              	.LFB59:
1118:../../../SDK_embedded/libs/stm32/STM32F10x_StdPeriph_Driver/stm32f10x_adc.c **** 
1119:../../../SDK_embedded/libs/stm32/STM32F10x_StdPeriph_Driver/stm32f10x_adc.c **** /**
1120:../../../SDK_embedded/libs/stm32/STM32F10x_StdPeriph_Driver/stm32f10x_adc.c ****   * @brief  Configures the analog watchdog guarded single channel
1121:../../../SDK_embedded/libs/stm32/STM32F10x_StdPeriph_Driver/stm32f10x_adc.c ****   * @param  ADCx: where x can be 1, 2 or 3 to select the ADC peripheral.
1122:../../../SDK_embedded/libs/stm32/STM32F10x_StdPeriph_Driver/stm32f10x_adc.c ****   * @param  ADC_Channel: the ADC channel to configure for the analog watchdog. 
1123:../../../SDK_embedded/libs/stm32/STM32F10x_StdPeriph_Driver/stm32f10x_adc.c ****   *   This parameter can be one of the following values:
1124:../../../SDK_embedded/libs/stm32/STM32F10x_StdPeriph_Driver/stm32f10x_adc.c ****   *     @arg ADC_Channel_0: ADC Channel0 selected
1125:../../../SDK_embedded/libs/stm32/STM32F10x_StdPeriph_Driver/stm32f10x_adc.c ****   *     @arg ADC_Channel_1: ADC Channel1 selected
1126:../../../SDK_embedded/libs/stm32/STM32F10x_StdPeriph_Driver/stm32f10x_adc.c ****   *     @arg ADC_Channel_2: ADC Channel2 selected
1127:../../../SDK_embedded/libs/stm32/STM32F10x_StdPeriph_Driver/stm32f10x_adc.c ****   *     @arg ADC_Channel_3: ADC Channel3 selected
1128:../../../SDK_embedded/libs/stm32/STM32F10x_StdPeriph_Driver/stm32f10x_adc.c ****   *     @arg ADC_Channel_4: ADC Channel4 selected
1129:../../../SDK_embedded/libs/stm32/STM32F10x_StdPeriph_Driver/stm32f10x_adc.c ****   *     @arg ADC_Channel_5: ADC Channel5 selected
1130:../../../SDK_embedded/libs/stm32/STM32F10x_StdPeriph_Driver/stm32f10x_adc.c ****   *     @arg ADC_Channel_6: ADC Channel6 selected
1131:../../../SDK_embedded/libs/stm32/STM32F10x_StdPeriph_Driver/stm32f10x_adc.c ****   *     @arg ADC_Channel_7: ADC Channel7 selected
1132:../../../SDK_embedded/libs/stm32/STM32F10x_StdPeriph_Driver/stm32f10x_adc.c ****   *     @arg ADC_Channel_8: ADC Channel8 selected
1133:../../../SDK_embedded/libs/stm32/STM32F10x_StdPeriph_Driver/stm32f10x_adc.c ****   *     @arg ADC_Channel_9: ADC Channel9 selected
1134:../../../SDK_embedded/libs/stm32/STM32F10x_StdPeriph_Driver/stm32f10x_adc.c ****   *     @arg ADC_Channel_10: ADC Channel10 selected
1135:../../../SDK_embedded/libs/stm32/STM32F10x_StdPeriph_Driver/stm32f10x_adc.c ****   *     @arg ADC_Channel_11: ADC Channel11 selected
1136:../../../SDK_embedded/libs/stm32/STM32F10x_StdPeriph_Driver/stm32f10x_adc.c ****   *     @arg ADC_Channel_12: ADC Channel12 selected
1137:../../../SDK_embedded/libs/stm32/STM32F10x_StdPeriph_Driver/stm32f10x_adc.c ****   *     @arg ADC_Channel_13: ADC Channel13 selected
1138:../../../SDK_embedded/libs/stm32/STM32F10x_StdPeriph_Driver/stm32f10x_adc.c ****   *     @arg ADC_Channel_14: ADC Channel14 selected
1139:../../../SDK_embedded/libs/stm32/STM32F10x_StdPeriph_Driver/stm32f10x_adc.c ****   *     @arg ADC_Channel_15: ADC Channel15 selected
1140:../../../SDK_embedded/libs/stm32/STM32F10x_StdPeriph_Driver/stm32f10x_adc.c ****   *     @arg ADC_Channel_16: ADC Channel16 selected
1141:../../../SDK_embedded/libs/stm32/STM32F10x_StdPeriph_Driver/stm32f10x_adc.c ****   *     @arg ADC_Channel_17: ADC Channel17 selected
1142:../../../SDK_embedded/libs/stm32/STM32F10x_StdPeriph_Driver/stm32f10x_adc.c ****   * @retval None
1143:../../../SDK_embedded/libs/stm32/STM32F10x_StdPeriph_Driver/stm32f10x_adc.c ****   */
1144:../../../SDK_embedded/libs/stm32/STM32F10x_StdPeriph_Driver/stm32f10x_adc.c **** void ADC_AnalogWatchdogSingleChannelConfig(ADC_TypeDef* ADCx, uint8_t ADC_Channel)
1145:../../../SDK_embedded/libs/stm32/STM32F10x_StdPeriph_Driver/stm32f10x_adc.c **** {
 18003              		.loc 1 1145 0
 18004              		.cfi_startproc
 18005              		@ args = 0, pretend = 0, frame = 0
 18006              		@ frame_needed = 0, uses_anonymous_args = 0
 18007              		@ link register save eliminated.
 18008              	.LVL124:
1146:../../../SDK_embedded/libs/stm32/STM32F10x_StdPeriph_Driver/stm32f10x_adc.c ****   uint32_t tmpreg = 0;
1147:../../../SDK_embedded/libs/stm32/STM32F10x_StdPeriph_Driver/stm32f10x_adc.c ****   /* Check the parameters */
1148:../../../SDK_embedded/libs/stm32/STM32F10x_StdPeriph_Driver/stm32f10x_adc.c ****   assert_param(IS_ADC_ALL_PERIPH(ADCx));
1149:../../../SDK_embedded/libs/stm32/STM32F10x_StdPeriph_Driver/stm32f10x_adc.c ****   assert_param(IS_ADC_CHANNEL(ADC_Channel));
1150:../../../SDK_embedded/libs/stm32/STM32F10x_StdPeriph_Driver/stm32f10x_adc.c ****   /* Get the old register value */
1151:../../../SDK_embedded/libs/stm32/STM32F10x_StdPeriph_Driver/stm32f10x_adc.c ****   tmpreg = ADCx->CR1;
 18009              		.loc 1 1151 0
 18010 0000 4268     		ldr	r2, [r0, #4]
 18011              	.LVL125:
1152:../../../SDK_embedded/libs/stm32/STM32F10x_StdPeriph_Driver/stm32f10x_adc.c ****   /* Clear the Analog watchdog channel select bits */
1153:../../../SDK_embedded/libs/stm32/STM32F10x_StdPeriph_Driver/stm32f10x_adc.c ****   tmpreg &= CR1_AWDCH_Reset;
 18012              		.loc 1 1153 0
 18013 0002 22F01F03 		bic	r3, r2, #31
 18014              	.LVL126:
1154:../../../SDK_embedded/libs/stm32/STM32F10x_StdPeriph_Driver/stm32f10x_adc.c ****   /* Set the Analog watchdog channel */
1155:../../../SDK_embedded/libs/stm32/STM32F10x_StdPeriph_Driver/stm32f10x_adc.c ****   tmpreg |= ADC_Channel;
 18015              		.loc 1 1155 0
 18016 0006 1943     		orrs	r1, r1, r3
 18017              	.LVL127:
1156:../../../SDK_embedded/libs/stm32/STM32F10x_StdPeriph_Driver/stm32f10x_adc.c ****   /* Store the new register value */
1157:../../../SDK_embedded/libs/stm32/STM32F10x_StdPeriph_Driver/stm32f10x_adc.c ****   ADCx->CR1 = tmpreg;
 18018              		.loc 1 1157 0
 18019 0008 4160     		str	r1, [r0, #4]
1158:../../../SDK_embedded/libs/stm32/STM32F10x_StdPeriph_Driver/stm32f10x_adc.c **** }
 18020              		.loc 1 1158 0
 18021 000a 7047     		bx	lr
 18022              		.cfi_endproc
 18023              	.LFE59:
 18025              		.section	.text.ADC_TempSensorVrefintCmd,"ax",%progbits
 18026              		.align	1
 18027              		.global	ADC_TempSensorVrefintCmd
 18028              		.thumb
 18029              		.thumb_func
 18031              	ADC_TempSensorVrefintCmd:
 18032              	.LFB60:
1159:../../../SDK_embedded/libs/stm32/STM32F10x_StdPeriph_Driver/stm32f10x_adc.c **** 
1160:../../../SDK_embedded/libs/stm32/STM32F10x_StdPeriph_Driver/stm32f10x_adc.c **** /**
1161:../../../SDK_embedded/libs/stm32/STM32F10x_StdPeriph_Driver/stm32f10x_adc.c ****   * @brief  Enables or disables the temperature sensor and Vrefint channel.
1162:../../../SDK_embedded/libs/stm32/STM32F10x_StdPeriph_Driver/stm32f10x_adc.c ****   * @param  NewState: new state of the temperature sensor.
1163:../../../SDK_embedded/libs/stm32/STM32F10x_StdPeriph_Driver/stm32f10x_adc.c ****   *   This parameter can be: ENABLE or DISABLE.
1164:../../../SDK_embedded/libs/stm32/STM32F10x_StdPeriph_Driver/stm32f10x_adc.c ****   * @retval None
1165:../../../SDK_embedded/libs/stm32/STM32F10x_StdPeriph_Driver/stm32f10x_adc.c ****   */
1166:../../../SDK_embedded/libs/stm32/STM32F10x_StdPeriph_Driver/stm32f10x_adc.c **** void ADC_TempSensorVrefintCmd(FunctionalState NewState)
1167:../../../SDK_embedded/libs/stm32/STM32F10x_StdPeriph_Driver/stm32f10x_adc.c **** {
 18033              		.loc 1 1167 0
 18034              		.cfi_startproc
 18035              		@ args = 0, pretend = 0, frame = 0
 18036              		@ frame_needed = 0, uses_anonymous_args = 0
 18037              		@ link register save eliminated.
 18038              	.LVL128:
 18039 0000 054B     		ldr	r3, .L83
1168:../../../SDK_embedded/libs/stm32/STM32F10x_StdPeriph_Driver/stm32f10x_adc.c ****   /* Check the parameters */
1169:../../../SDK_embedded/libs/stm32/STM32F10x_StdPeriph_Driver/stm32f10x_adc.c ****   assert_param(IS_FUNCTIONAL_STATE(NewState));
1170:../../../SDK_embedded/libs/stm32/STM32F10x_StdPeriph_Driver/stm32f10x_adc.c ****   if (NewState != DISABLE)
 18040              		.loc 1 1170 0
 18041 0002 18B1     		cbz	r0, .L80
1171:../../../SDK_embedded/libs/stm32/STM32F10x_StdPeriph_Driver/stm32f10x_adc.c ****   {
1172:../../../SDK_embedded/libs/stm32/STM32F10x_StdPeriph_Driver/stm32f10x_adc.c ****     /* Enable the temperature sensor and Vrefint channel*/
1173:../../../SDK_embedded/libs/stm32/STM32F10x_StdPeriph_Driver/stm32f10x_adc.c ****     ADC1->CR2 |= CR2_TSVREFE_Set;
 18042              		.loc 1 1173 0
 18043 0004 9A68     		ldr	r2, [r3, #8]
 18044 0006 42F40002 		orr	r2, r2, #8388608
 18045 000a 02E0     		b	.L82
 18046              	.L80:
1174:../../../SDK_embedded/libs/stm32/STM32F10x_StdPeriph_Driver/stm32f10x_adc.c ****   }
1175:../../../SDK_embedded/libs/stm32/STM32F10x_StdPeriph_Driver/stm32f10x_adc.c ****   else
1176:../../../SDK_embedded/libs/stm32/STM32F10x_StdPeriph_Driver/stm32f10x_adc.c ****   {
1177:../../../SDK_embedded/libs/stm32/STM32F10x_StdPeriph_Driver/stm32f10x_adc.c ****     /* Disable the temperature sensor and Vrefint channel*/
1178:../../../SDK_embedded/libs/stm32/STM32F10x_StdPeriph_Driver/stm32f10x_adc.c ****     ADC1->CR2 &= CR2_TSVREFE_Reset;
 18047              		.loc 1 1178 0
 18048 000c 9868     		ldr	r0, [r3, #8]
 18049              	.LVL129:
 18050 000e 20F40002 		bic	r2, r0, #8388608
 18051              	.L82:
 18052 0012 9A60     		str	r2, [r3, #8]
 18053 0014 7047     		bx	lr
 18054              	.L84:
 18055 0016 00BF     		.align	2
 18056              	.L83:
 18057 0018 00240140 		.word	1073816576
 18058              		.cfi_endproc
 18059              	.LFE60:
 18061              		.section	.text.ADC_GetFlagStatus,"ax",%progbits
 18062              		.align	1
 18063              		.global	ADC_GetFlagStatus
 18064              		.thumb
 18065              		.thumb_func
 18067              	ADC_GetFlagStatus:
 18068              	.LFB61:
1179:../../../SDK_embedded/libs/stm32/STM32F10x_StdPeriph_Driver/stm32f10x_adc.c ****   }
1180:../../../SDK_embedded/libs/stm32/STM32F10x_StdPeriph_Driver/stm32f10x_adc.c **** }
1181:../../../SDK_embedded/libs/stm32/STM32F10x_StdPeriph_Driver/stm32f10x_adc.c **** 
1182:../../../SDK_embedded/libs/stm32/STM32F10x_StdPeriph_Driver/stm32f10x_adc.c **** /**
1183:../../../SDK_embedded/libs/stm32/STM32F10x_StdPeriph_Driver/stm32f10x_adc.c ****   * @brief  Checks whether the specified ADC flag is set or not.
1184:../../../SDK_embedded/libs/stm32/STM32F10x_StdPeriph_Driver/stm32f10x_adc.c ****   * @param  ADCx: where x can be 1, 2 or 3 to select the ADC peripheral.
1185:../../../SDK_embedded/libs/stm32/STM32F10x_StdPeriph_Driver/stm32f10x_adc.c ****   * @param  ADC_FLAG: specifies the flag to check. 
1186:../../../SDK_embedded/libs/stm32/STM32F10x_StdPeriph_Driver/stm32f10x_adc.c ****   *   This parameter can be one of the following values:
1187:../../../SDK_embedded/libs/stm32/STM32F10x_StdPeriph_Driver/stm32f10x_adc.c ****   *     @arg ADC_FLAG_AWD: Analog watchdog flag
1188:../../../SDK_embedded/libs/stm32/STM32F10x_StdPeriph_Driver/stm32f10x_adc.c ****   *     @arg ADC_FLAG_EOC: End of conversion flag
1189:../../../SDK_embedded/libs/stm32/STM32F10x_StdPeriph_Driver/stm32f10x_adc.c ****   *     @arg ADC_FLAG_JEOC: End of injected group conversion flag
1190:../../../SDK_embedded/libs/stm32/STM32F10x_StdPeriph_Driver/stm32f10x_adc.c ****   *     @arg ADC_FLAG_JSTRT: Start of injected group conversion flag
1191:../../../SDK_embedded/libs/stm32/STM32F10x_StdPeriph_Driver/stm32f10x_adc.c ****   *     @arg ADC_FLAG_STRT: Start of regular group conversion flag
1192:../../../SDK_embedded/libs/stm32/STM32F10x_StdPeriph_Driver/stm32f10x_adc.c ****   * @retval The new state of ADC_FLAG (SET or RESET).
1193:../../../SDK_embedded/libs/stm32/STM32F10x_StdPeriph_Driver/stm32f10x_adc.c ****   */
1194:../../../SDK_embedded/libs/stm32/STM32F10x_StdPeriph_Driver/stm32f10x_adc.c **** FlagStatus ADC_GetFlagStatus(ADC_TypeDef* ADCx, uint8_t ADC_FLAG)
1195:../../../SDK_embedded/libs/stm32/STM32F10x_StdPeriph_Driver/stm32f10x_adc.c **** {
 18069              		.loc 1 1195 0
 18070              		.cfi_startproc
 18071              		@ args = 0, pretend = 0, frame = 0
 18072              		@ frame_needed = 0, uses_anonymous_args = 0
 18073              		@ link register save eliminated.
 18074              	.LVL130:
1196:../../../SDK_embedded/libs/stm32/STM32F10x_StdPeriph_Driver/stm32f10x_adc.c ****   FlagStatus bitstatus = RESET;
1197:../../../SDK_embedded/libs/stm32/STM32F10x_StdPeriph_Driver/stm32f10x_adc.c ****   /* Check the parameters */
1198:../../../SDK_embedded/libs/stm32/STM32F10x_StdPeriph_Driver/stm32f10x_adc.c ****   assert_param(IS_ADC_ALL_PERIPH(ADCx));
1199:../../../SDK_embedded/libs/stm32/STM32F10x_StdPeriph_Driver/stm32f10x_adc.c ****   assert_param(IS_ADC_GET_FLAG(ADC_FLAG));
1200:../../../SDK_embedded/libs/stm32/STM32F10x_StdPeriph_Driver/stm32f10x_adc.c ****   /* Check the status of the specified ADC flag */
1201:../../../SDK_embedded/libs/stm32/STM32F10x_StdPeriph_Driver/stm32f10x_adc.c ****   if ((ADCx->SR & ADC_FLAG) != (uint8_t)RESET)
 18075              		.loc 1 1201 0
 18076 0000 0368     		ldr	r3, [r0, #0]
 18077              	.LVL131:
1202:../../../SDK_embedded/libs/stm32/STM32F10x_StdPeriph_Driver/stm32f10x_adc.c ****   {
1203:../../../SDK_embedded/libs/stm32/STM32F10x_StdPeriph_Driver/stm32f10x_adc.c ****     /* ADC_FLAG is set */
1204:../../../SDK_embedded/libs/stm32/STM32F10x_StdPeriph_Driver/stm32f10x_adc.c ****     bitstatus = SET;
 18078              		.loc 1 1204 0
 18079 0002 1942     		tst	r1, r3
1201:../../../SDK_embedded/libs/stm32/STM32F10x_StdPeriph_Driver/stm32f10x_adc.c ****   if ((ADCx->SR & ADC_FLAG) != (uint8_t)RESET)
 18080              		.loc 1 1201 0
 18081 0004 0CBF     		ite	eq
 18082 0006 0020     		moveq	r0, #0
 18083 0008 0120     		movne	r0, #1
 18084              	.LVL132:
1205:../../../SDK_embedded/libs/stm32/STM32F10x_StdPeriph_Driver/stm32f10x_adc.c ****   }
1206:../../../SDK_embedded/libs/stm32/STM32F10x_StdPeriph_Driver/stm32f10x_adc.c ****   else
1207:../../../SDK_embedded/libs/stm32/STM32F10x_StdPeriph_Driver/stm32f10x_adc.c ****   {
1208:../../../SDK_embedded/libs/stm32/STM32F10x_StdPeriph_Driver/stm32f10x_adc.c ****     /* ADC_FLAG is reset */
1209:../../../SDK_embedded/libs/stm32/STM32F10x_StdPeriph_Driver/stm32f10x_adc.c ****     bitstatus = RESET;
1210:../../../SDK_embedded/libs/stm32/STM32F10x_StdPeriph_Driver/stm32f10x_adc.c ****   }
1211:../../../SDK_embedded/libs/stm32/STM32F10x_StdPeriph_Driver/stm32f10x_adc.c ****   /* Return the ADC_FLAG status */
1212:../../../SDK_embedded/libs/stm32/STM32F10x_StdPeriph_Driver/stm32f10x_adc.c ****   return  bitstatus;
1213:../../../SDK_embedded/libs/stm32/STM32F10x_StdPeriph_Driver/stm32f10x_adc.c **** }
 18085              		.loc 1 1213 0
 18086 000a 7047     		bx	lr
 18087              		.cfi_endproc
 18088              	.LFE61:
 18090              		.section	.text.ADC_ClearFlag,"ax",%progbits
 18091              		.align	1
 18092              		.global	ADC_ClearFlag
 18093              		.thumb
 18094              		.thumb_func
 18096              	ADC_ClearFlag:
 18097              	.LFB62:
1214:../../../SDK_embedded/libs/stm32/STM32F10x_StdPeriph_Driver/stm32f10x_adc.c **** 
1215:../../../SDK_embedded/libs/stm32/STM32F10x_StdPeriph_Driver/stm32f10x_adc.c **** /**
1216:../../../SDK_embedded/libs/stm32/STM32F10x_StdPeriph_Driver/stm32f10x_adc.c ****   * @brief  Clears the ADCx's pending flags.
1217:../../../SDK_embedded/libs/stm32/STM32F10x_StdPeriph_Driver/stm32f10x_adc.c ****   * @param  ADCx: where x can be 1, 2 or 3 to select the ADC peripheral.
1218:../../../SDK_embedded/libs/stm32/STM32F10x_StdPeriph_Driver/stm32f10x_adc.c ****   * @param  ADC_FLAG: specifies the flag to clear. 
1219:../../../SDK_embedded/libs/stm32/STM32F10x_StdPeriph_Driver/stm32f10x_adc.c ****   *   This parameter can be any combination of the following values:
1220:../../../SDK_embedded/libs/stm32/STM32F10x_StdPeriph_Driver/stm32f10x_adc.c ****   *     @arg ADC_FLAG_AWD: Analog watchdog flag
1221:../../../SDK_embedded/libs/stm32/STM32F10x_StdPeriph_Driver/stm32f10x_adc.c ****   *     @arg ADC_FLAG_EOC: End of conversion flag
1222:../../../SDK_embedded/libs/stm32/STM32F10x_StdPeriph_Driver/stm32f10x_adc.c ****   *     @arg ADC_FLAG_JEOC: End of injected group conversion flag
1223:../../../SDK_embedded/libs/stm32/STM32F10x_StdPeriph_Driver/stm32f10x_adc.c ****   *     @arg ADC_FLAG_JSTRT: Start of injected group conversion flag
1224:../../../SDK_embedded/libs/stm32/STM32F10x_StdPeriph_Driver/stm32f10x_adc.c ****   *     @arg ADC_FLAG_STRT: Start of regular group conversion flag
1225:../../../SDK_embedded/libs/stm32/STM32F10x_StdPeriph_Driver/stm32f10x_adc.c ****   * @retval None
1226:../../../SDK_embedded/libs/stm32/STM32F10x_StdPeriph_Driver/stm32f10x_adc.c ****   */
1227:../../../SDK_embedded/libs/stm32/STM32F10x_StdPeriph_Driver/stm32f10x_adc.c **** void ADC_ClearFlag(ADC_TypeDef* ADCx, uint8_t ADC_FLAG)
1228:../../../SDK_embedded/libs/stm32/STM32F10x_StdPeriph_Driver/stm32f10x_adc.c **** {
 18098              		.loc 1 1228 0
 18099              		.cfi_startproc
 18100              		@ args = 0, pretend = 0, frame = 0
 18101              		@ frame_needed = 0, uses_anonymous_args = 0
 18102              		@ link register save eliminated.
 18103              	.LVL133:
1229:../../../SDK_embedded/libs/stm32/STM32F10x_StdPeriph_Driver/stm32f10x_adc.c ****   /* Check the parameters */
1230:../../../SDK_embedded/libs/stm32/STM32F10x_StdPeriph_Driver/stm32f10x_adc.c ****   assert_param(IS_ADC_ALL_PERIPH(ADCx));
1231:../../../SDK_embedded/libs/stm32/STM32F10x_StdPeriph_Driver/stm32f10x_adc.c ****   assert_param(IS_ADC_CLEAR_FLAG(ADC_FLAG));
1232:../../../SDK_embedded/libs/stm32/STM32F10x_StdPeriph_Driver/stm32f10x_adc.c ****   /* Clear the selected ADC flags */
1233:../../../SDK_embedded/libs/stm32/STM32F10x_StdPeriph_Driver/stm32f10x_adc.c ****   ADCx->SR = ~(uint32_t)ADC_FLAG;
 18104              		.loc 1 1233 0
 18105 0000 C943     		mvns	r1, r1
 18106              	.LVL134:
 18107 0002 0160     		str	r1, [r0, #0]
1234:../../../SDK_embedded/libs/stm32/STM32F10x_StdPeriph_Driver/stm32f10x_adc.c **** }
 18108              		.loc 1 1234 0
 18109 0004 7047     		bx	lr
 18110              		.cfi_endproc
 18111              	.LFE62:
 18113              		.section	.text.ADC_GetITStatus,"ax",%progbits
 18114              		.align	1
 18115              		.global	ADC_GetITStatus
 18116              		.thumb
 18117              		.thumb_func
 18119              	ADC_GetITStatus:
 18120              	.LFB63:
1235:../../../SDK_embedded/libs/stm32/STM32F10x_StdPeriph_Driver/stm32f10x_adc.c **** 
1236:../../../SDK_embedded/libs/stm32/STM32F10x_StdPeriph_Driver/stm32f10x_adc.c **** /**
1237:../../../SDK_embedded/libs/stm32/STM32F10x_StdPeriph_Driver/stm32f10x_adc.c ****   * @brief  Checks whether the specified ADC interrupt has occurred or not.
1238:../../../SDK_embedded/libs/stm32/STM32F10x_StdPeriph_Driver/stm32f10x_adc.c ****   * @param  ADCx: where x can be 1, 2 or 3 to select the ADC peripheral.
1239:../../../SDK_embedded/libs/stm32/STM32F10x_StdPeriph_Driver/stm32f10x_adc.c ****   * @param  ADC_IT: specifies the ADC interrupt source to check. 
1240:../../../SDK_embedded/libs/stm32/STM32F10x_StdPeriph_Driver/stm32f10x_adc.c ****   *   This parameter can be one of the following values:
1241:../../../SDK_embedded/libs/stm32/STM32F10x_StdPeriph_Driver/stm32f10x_adc.c ****   *     @arg ADC_IT_EOC: End of conversion interrupt mask
1242:../../../SDK_embedded/libs/stm32/STM32F10x_StdPeriph_Driver/stm32f10x_adc.c ****   *     @arg ADC_IT_AWD: Analog watchdog interrupt mask
1243:../../../SDK_embedded/libs/stm32/STM32F10x_StdPeriph_Driver/stm32f10x_adc.c ****   *     @arg ADC_IT_JEOC: End of injected conversion interrupt mask
1244:../../../SDK_embedded/libs/stm32/STM32F10x_StdPeriph_Driver/stm32f10x_adc.c ****   * @retval The new state of ADC_IT (SET or RESET).
1245:../../../SDK_embedded/libs/stm32/STM32F10x_StdPeriph_Driver/stm32f10x_adc.c ****   */
1246:../../../SDK_embedded/libs/stm32/STM32F10x_StdPeriph_Driver/stm32f10x_adc.c **** ITStatus ADC_GetITStatus(ADC_TypeDef* ADCx, uint16_t ADC_IT)
1247:../../../SDK_embedded/libs/stm32/STM32F10x_StdPeriph_Driver/stm32f10x_adc.c **** {
 18121              		.loc 1 1247 0
 18122              		.cfi_startproc
 18123              		@ args = 0, pretend = 0, frame = 0
 18124              		@ frame_needed = 0, uses_anonymous_args = 0
 18125              		@ link register save eliminated.
 18126              	.LVL135:
1248:../../../SDK_embedded/libs/stm32/STM32F10x_StdPeriph_Driver/stm32f10x_adc.c ****   ITStatus bitstatus = RESET;
1249:../../../SDK_embedded/libs/stm32/STM32F10x_StdPeriph_Driver/stm32f10x_adc.c ****   uint32_t itmask = 0, enablestatus = 0;
1250:../../../SDK_embedded/libs/stm32/STM32F10x_StdPeriph_Driver/stm32f10x_adc.c ****   /* Check the parameters */
1251:../../../SDK_embedded/libs/stm32/STM32F10x_StdPeriph_Driver/stm32f10x_adc.c ****   assert_param(IS_ADC_ALL_PERIPH(ADCx));
1252:../../../SDK_embedded/libs/stm32/STM32F10x_StdPeriph_Driver/stm32f10x_adc.c ****   assert_param(IS_ADC_GET_IT(ADC_IT));
1253:../../../SDK_embedded/libs/stm32/STM32F10x_StdPeriph_Driver/stm32f10x_adc.c ****   /* Get the ADC IT index */
1254:../../../SDK_embedded/libs/stm32/STM32F10x_StdPeriph_Driver/stm32f10x_adc.c ****   itmask = ADC_IT >> 8;
1255:../../../SDK_embedded/libs/stm32/STM32F10x_StdPeriph_Driver/stm32f10x_adc.c ****   /* Get the ADC_IT enable bit status */
1256:../../../SDK_embedded/libs/stm32/STM32F10x_StdPeriph_Driver/stm32f10x_adc.c ****   enablestatus = (ADCx->CR1 & (uint8_t)ADC_IT) ;
 18127              		.loc 1 1256 0
 18128 0000 4368     		ldr	r3, [r0, #4]
 18129              	.LVL136:
1257:../../../SDK_embedded/libs/stm32/STM32F10x_StdPeriph_Driver/stm32f10x_adc.c ****   /* Check the status of the specified ADC interrupt */
1258:../../../SDK_embedded/libs/stm32/STM32F10x_StdPeriph_Driver/stm32f10x_adc.c ****   if (((ADCx->SR & itmask) != (uint32_t)RESET) && enablestatus)
 18130              		.loc 1 1258 0
 18131 0002 0068     		ldr	r0, [r0, #0]
 18132              	.LVL137:
 18133 0004 10EA1120 		ands	r0, r0, r1, lsr #8
 18134 0008 04D0     		beq	.L88
1256:../../../SDK_embedded/libs/stm32/STM32F10x_StdPeriph_Driver/stm32f10x_adc.c ****   enablestatus = (ADCx->CR1 & (uint8_t)ADC_IT) ;
 18135              		.loc 1 1256 0 discriminator 1
 18136 000a C9B2     		uxtb	r1, r1
 18137              	.LVL138:
1259:../../../SDK_embedded/libs/stm32/STM32F10x_StdPeriph_Driver/stm32f10x_adc.c ****   {
1260:../../../SDK_embedded/libs/stm32/STM32F10x_StdPeriph_Driver/stm32f10x_adc.c ****     /* ADC_IT is set */
1261:../../../SDK_embedded/libs/stm32/STM32F10x_StdPeriph_Driver/stm32f10x_adc.c ****     bitstatus = SET;
 18138              		.loc 1 1261 0 discriminator 1
 18139 000c 1942     		tst	r1, r3
 18140 000e 0CBF     		ite	eq
 18141 0010 0020     		moveq	r0, #0
 18142 0012 0120     		movne	r0, #1
 18143              	.L88:
 18144              	.LVL139:
1262:../../../SDK_embedded/libs/stm32/STM32F10x_StdPeriph_Driver/stm32f10x_adc.c ****   }
1263:../../../SDK_embedded/libs/stm32/STM32F10x_StdPeriph_Driver/stm32f10x_adc.c ****   else
1264:../../../SDK_embedded/libs/stm32/STM32F10x_StdPeriph_Driver/stm32f10x_adc.c ****   {
1265:../../../SDK_embedded/libs/stm32/STM32F10x_StdPeriph_Driver/stm32f10x_adc.c ****     /* ADC_IT is reset */
1266:../../../SDK_embedded/libs/stm32/STM32F10x_StdPeriph_Driver/stm32f10x_adc.c ****     bitstatus = RESET;
1267:../../../SDK_embedded/libs/stm32/STM32F10x_StdPeriph_Driver/stm32f10x_adc.c ****   }
1268:../../../SDK_embedded/libs/stm32/STM32F10x_StdPeriph_Driver/stm32f10x_adc.c ****   /* Return the ADC_IT status */
1269:../../../SDK_embedded/libs/stm32/STM32F10x_StdPeriph_Driver/stm32f10x_adc.c ****   return  bitstatus;
1270:../../../SDK_embedded/libs/stm32/STM32F10x_StdPeriph_Driver/stm32f10x_adc.c **** }
 18145              		.loc 1 1270 0
 18146 0014 7047     		bx	lr
 18147              		.cfi_endproc
 18148              	.LFE63:
 18150              		.section	.text.ADC_ClearITPendingBit,"ax",%progbits
 18151              		.align	1
 18152              		.global	ADC_ClearITPendingBit
 18153              		.thumb
 18154              		.thumb_func
 18156              	ADC_ClearITPendingBit:
 18157              	.LFB64:
1271:../../../SDK_embedded/libs/stm32/STM32F10x_StdPeriph_Driver/stm32f10x_adc.c **** 
1272:../../../SDK_embedded/libs/stm32/STM32F10x_StdPeriph_Driver/stm32f10x_adc.c **** /**
1273:../../../SDK_embedded/libs/stm32/STM32F10x_StdPeriph_Driver/stm32f10x_adc.c ****   * @brief  Clears the ADCxs interrupt pending bits.
1274:../../../SDK_embedded/libs/stm32/STM32F10x_StdPeriph_Driver/stm32f10x_adc.c ****   * @param  ADCx: where x can be 1, 2 or 3 to select the ADC peripheral.
1275:../../../SDK_embedded/libs/stm32/STM32F10x_StdPeriph_Driver/stm32f10x_adc.c ****   * @param  ADC_IT: specifies the ADC interrupt pending bit to clear.
1276:../../../SDK_embedded/libs/stm32/STM32F10x_StdPeriph_Driver/stm32f10x_adc.c ****   *   This parameter can be any combination of the following values:
1277:../../../SDK_embedded/libs/stm32/STM32F10x_StdPeriph_Driver/stm32f10x_adc.c ****   *     @arg ADC_IT_EOC: End of conversion interrupt mask
1278:../../../SDK_embedded/libs/stm32/STM32F10x_StdPeriph_Driver/stm32f10x_adc.c ****   *     @arg ADC_IT_AWD: Analog watchdog interrupt mask
1279:../../../SDK_embedded/libs/stm32/STM32F10x_StdPeriph_Driver/stm32f10x_adc.c ****   *     @arg ADC_IT_JEOC: End of injected conversion interrupt mask
1280:../../../SDK_embedded/libs/stm32/STM32F10x_StdPeriph_Driver/stm32f10x_adc.c ****   * @retval None
1281:../../../SDK_embedded/libs/stm32/STM32F10x_StdPeriph_Driver/stm32f10x_adc.c ****   */
1282:../../../SDK_embedded/libs/stm32/STM32F10x_StdPeriph_Driver/stm32f10x_adc.c **** void ADC_ClearITPendingBit(ADC_TypeDef* ADCx, uint16_t ADC_IT)
1283:../../../SDK_embedded/libs/stm32/STM32F10x_StdPeriph_Driver/stm32f10x_adc.c **** {
 18158              		.loc 1 1283 0
 18159              		.cfi_startproc
 18160              		@ args = 0, pretend = 0, frame = 0
 18161              		@ frame_needed = 0, uses_anonymous_args = 0
 18162              		@ link register save eliminated.
 18163              	.LVL140:
1284:../../../SDK_embedded/libs/stm32/STM32F10x_StdPeriph_Driver/stm32f10x_adc.c ****   uint8_t itmask = 0;
1285:../../../SDK_embedded/libs/stm32/STM32F10x_StdPeriph_Driver/stm32f10x_adc.c ****   /* Check the parameters */
1286:../../../SDK_embedded/libs/stm32/STM32F10x_StdPeriph_Driver/stm32f10x_adc.c ****   assert_param(IS_ADC_ALL_PERIPH(ADCx));
1287:../../../SDK_embedded/libs/stm32/STM32F10x_StdPeriph_Driver/stm32f10x_adc.c ****   assert_param(IS_ADC_IT(ADC_IT));
1288:../../../SDK_embedded/libs/stm32/STM32F10x_StdPeriph_Driver/stm32f10x_adc.c ****   /* Get the ADC IT index */
1289:../../../SDK_embedded/libs/stm32/STM32F10x_StdPeriph_Driver/stm32f10x_adc.c ****   itmask = (uint8_t)(ADC_IT >> 8);
1290:../../../SDK_embedded/libs/stm32/STM32F10x_StdPeriph_Driver/stm32f10x_adc.c ****   /* Clear the selected ADC interrupt pending bits */
1291:../../../SDK_embedded/libs/stm32/STM32F10x_StdPeriph_Driver/stm32f10x_adc.c ****   ADCx->SR = ~(uint32_t)itmask;
 18164              		.loc 1 1291 0
 18165 0000 6FEA1121 		mvn	r1, r1, lsr #8
 18166              	.LVL141:
 18167 0004 0160     		str	r1, [r0, #0]
1292:../../../SDK_embedded/libs/stm32/STM32F10x_StdPeriph_Driver/stm32f10x_adc.c **** }
 18168              		.loc 1 1292 0
 18169 0006 7047     		bx	lr
 18170              		.cfi_endproc
 18171              	.LFE64:
 18173              		.text
 18174              	.Letext0: