   1              		.syntax unified
   2              		.cpu cortex-m3
   3              		.fpu softvfp
   4              		.eabi_attribute 20, 1
   5              		.eabi_attribute 21, 1
   6              		.eabi_attribute 23, 3
   7              		.eabi_attribute 24, 1
   8              		.eabi_attribute 25, 1
   9              		.eabi_attribute 26, 1
  10              		.eabi_attribute 30, 4
  11              		.eabi_attribute 18, 4
  12              		.thumb
  13              		.file	"stm32f10x_usart.c"
  23              	.Ltext0:
 16656              		.align	1
 16657              		.global	USART_DeInit
 16658              		.thumb
 16659              		.thumb_func
 16661              	USART_DeInit:
 16662              	.LFB29:
   1:../../../SDK_embedded/libs/stm32/STM32F10x_StdPeriph_Driver/stm32f10x_usart.c **** /**
   2:../../../SDK_embedded/libs/stm32/STM32F10x_StdPeriph_Driver/stm32f10x_usart.c ****   ******************************************************************************
   3:../../../SDK_embedded/libs/stm32/STM32F10x_StdPeriph_Driver/stm32f10x_usart.c ****   * @file    stm32f10x_usart.c
   4:../../../SDK_embedded/libs/stm32/STM32F10x_StdPeriph_Driver/stm32f10x_usart.c ****   * @author  MCD Application Team
   5:../../../SDK_embedded/libs/stm32/STM32F10x_StdPeriph_Driver/stm32f10x_usart.c ****   * @version V3.3.0
   6:../../../SDK_embedded/libs/stm32/STM32F10x_StdPeriph_Driver/stm32f10x_usart.c ****   * @date    04/16/2010
   7:../../../SDK_embedded/libs/stm32/STM32F10x_StdPeriph_Driver/stm32f10x_usart.c ****   * @brief   This file provides all the USART firmware functions.
   8:../../../SDK_embedded/libs/stm32/STM32F10x_StdPeriph_Driver/stm32f10x_usart.c ****   ******************************************************************************
   9:../../../SDK_embedded/libs/stm32/STM32F10x_StdPeriph_Driver/stm32f10x_usart.c ****   * @copy
  10:../../../SDK_embedded/libs/stm32/STM32F10x_StdPeriph_Driver/stm32f10x_usart.c ****   *
  11:../../../SDK_embedded/libs/stm32/STM32F10x_StdPeriph_Driver/stm32f10x_usart.c ****   * THE PRESENT FIRMWARE WHICH IS FOR GUIDANCE ONLY AIMS AT PROVIDING CUSTOMERS
  12:../../../SDK_embedded/libs/stm32/STM32F10x_StdPeriph_Driver/stm32f10x_usart.c ****   * WITH CODING INFORMATION REGARDING THEIR PRODUCTS IN ORDER FOR THEM TO SAVE
  13:../../../SDK_embedded/libs/stm32/STM32F10x_StdPeriph_Driver/stm32f10x_usart.c ****   * TIME. AS A RESULT, STMICROELECTRONICS SHALL NOT BE HELD LIABLE FOR ANY
  14:../../../SDK_embedded/libs/stm32/STM32F10x_StdPeriph_Driver/stm32f10x_usart.c ****   * DIRECT, INDIRECT OR CONSEQUENTIAL DAMAGES WITH RESPECT TO ANY CLAIMS ARISING
  15:../../../SDK_embedded/libs/stm32/STM32F10x_StdPeriph_Driver/stm32f10x_usart.c ****   * FROM THE CONTENT OF SUCH FIRMWARE AND/OR THE USE MADE BY CUSTOMERS OF THE
  16:../../../SDK_embedded/libs/stm32/STM32F10x_StdPeriph_Driver/stm32f10x_usart.c ****   * CODING INFORMATION CONTAINED HEREIN IN CONNECTION WITH THEIR PRODUCTS.
  17:../../../SDK_embedded/libs/stm32/STM32F10x_StdPeriph_Driver/stm32f10x_usart.c ****   *
  18:../../../SDK_embedded/libs/stm32/STM32F10x_StdPeriph_Driver/stm32f10x_usart.c ****   * <h2><center>&copy; COPYRIGHT 2010 STMicroelectronics</center></h2>
  19:../../../SDK_embedded/libs/stm32/STM32F10x_StdPeriph_Driver/stm32f10x_usart.c ****   */ 
  20:../../../SDK_embedded/libs/stm32/STM32F10x_StdPeriph_Driver/stm32f10x_usart.c **** 
  21:../../../SDK_embedded/libs/stm32/STM32F10x_StdPeriph_Driver/stm32f10x_usart.c **** /* Includes ------------------------------------------------------------------*/
  22:../../../SDK_embedded/libs/stm32/STM32F10x_StdPeriph_Driver/stm32f10x_usart.c **** #include "stm32f10x_usart.h"
  23:../../../SDK_embedded/libs/stm32/STM32F10x_StdPeriph_Driver/stm32f10x_usart.c **** #include "stm32f10x_rcc.h"
  24:../../../SDK_embedded/libs/stm32/STM32F10x_StdPeriph_Driver/stm32f10x_usart.c **** 
  25:../../../SDK_embedded/libs/stm32/STM32F10x_StdPeriph_Driver/stm32f10x_usart.c **** /** @addtogroup STM32F10x_StdPeriph_Driver
  26:../../../SDK_embedded/libs/stm32/STM32F10x_StdPeriph_Driver/stm32f10x_usart.c ****   * @{
  27:../../../SDK_embedded/libs/stm32/STM32F10x_StdPeriph_Driver/stm32f10x_usart.c ****   */
  28:../../../SDK_embedded/libs/stm32/STM32F10x_StdPeriph_Driver/stm32f10x_usart.c **** 
  29:../../../SDK_embedded/libs/stm32/STM32F10x_StdPeriph_Driver/stm32f10x_usart.c **** /** @defgroup USART 
  30:../../../SDK_embedded/libs/stm32/STM32F10x_StdPeriph_Driver/stm32f10x_usart.c ****   * @brief USART driver modules
  31:../../../SDK_embedded/libs/stm32/STM32F10x_StdPeriph_Driver/stm32f10x_usart.c ****   * @{
  32:../../../SDK_embedded/libs/stm32/STM32F10x_StdPeriph_Driver/stm32f10x_usart.c ****   */
  33:../../../SDK_embedded/libs/stm32/STM32F10x_StdPeriph_Driver/stm32f10x_usart.c **** 
  34:../../../SDK_embedded/libs/stm32/STM32F10x_StdPeriph_Driver/stm32f10x_usart.c **** /** @defgroup USART_Private_TypesDefinitions
  35:../../../SDK_embedded/libs/stm32/STM32F10x_StdPeriph_Driver/stm32f10x_usart.c ****   * @{
  36:../../../SDK_embedded/libs/stm32/STM32F10x_StdPeriph_Driver/stm32f10x_usart.c ****   */
  37:../../../SDK_embedded/libs/stm32/STM32F10x_StdPeriph_Driver/stm32f10x_usart.c **** 
  38:../../../SDK_embedded/libs/stm32/STM32F10x_StdPeriph_Driver/stm32f10x_usart.c **** /**
  39:../../../SDK_embedded/libs/stm32/STM32F10x_StdPeriph_Driver/stm32f10x_usart.c ****   * @}
  40:../../../SDK_embedded/libs/stm32/STM32F10x_StdPeriph_Driver/stm32f10x_usart.c ****   */
  41:../../../SDK_embedded/libs/stm32/STM32F10x_StdPeriph_Driver/stm32f10x_usart.c **** 
  42:../../../SDK_embedded/libs/stm32/STM32F10x_StdPeriph_Driver/stm32f10x_usart.c **** /** @defgroup USART_Private_Defines
  43:../../../SDK_embedded/libs/stm32/STM32F10x_StdPeriph_Driver/stm32f10x_usart.c ****   * @{
  44:../../../SDK_embedded/libs/stm32/STM32F10x_StdPeriph_Driver/stm32f10x_usart.c ****   */
  45:../../../SDK_embedded/libs/stm32/STM32F10x_StdPeriph_Driver/stm32f10x_usart.c **** 
  46:../../../SDK_embedded/libs/stm32/STM32F10x_StdPeriph_Driver/stm32f10x_usart.c **** #define CR1_UE_Set                ((uint16_t)0x2000)  /*!< USART Enable Mask */
  47:../../../SDK_embedded/libs/stm32/STM32F10x_StdPeriph_Driver/stm32f10x_usart.c **** #define CR1_UE_Reset              ((uint16_t)0xDFFF)  /*!< USART Disable Mask */
  48:../../../SDK_embedded/libs/stm32/STM32F10x_StdPeriph_Driver/stm32f10x_usart.c **** 
  49:../../../SDK_embedded/libs/stm32/STM32F10x_StdPeriph_Driver/stm32f10x_usart.c **** #define CR1_WAKE_Mask             ((uint16_t)0xF7FF)  /*!< USART WakeUp Method Mask */
  50:../../../SDK_embedded/libs/stm32/STM32F10x_StdPeriph_Driver/stm32f10x_usart.c **** 
  51:../../../SDK_embedded/libs/stm32/STM32F10x_StdPeriph_Driver/stm32f10x_usart.c **** #define CR1_RWU_Set               ((uint16_t)0x0002)  /*!< USART mute mode Enable Mask */
  52:../../../SDK_embedded/libs/stm32/STM32F10x_StdPeriph_Driver/stm32f10x_usart.c **** #define CR1_RWU_Reset             ((uint16_t)0xFFFD)  /*!< USART mute mode Enable Mask */
  53:../../../SDK_embedded/libs/stm32/STM32F10x_StdPeriph_Driver/stm32f10x_usart.c **** #define CR1_SBK_Set               ((uint16_t)0x0001)  /*!< USART Break Character send Mask */
  54:../../../SDK_embedded/libs/stm32/STM32F10x_StdPeriph_Driver/stm32f10x_usart.c **** #define CR1_CLEAR_Mask            ((uint16_t)0xE9F3)  /*!< USART CR1 Mask */
  55:../../../SDK_embedded/libs/stm32/STM32F10x_StdPeriph_Driver/stm32f10x_usart.c **** #define CR2_Address_Mask          ((uint16_t)0xFFF0)  /*!< USART address Mask */
  56:../../../SDK_embedded/libs/stm32/STM32F10x_StdPeriph_Driver/stm32f10x_usart.c **** 
  57:../../../SDK_embedded/libs/stm32/STM32F10x_StdPeriph_Driver/stm32f10x_usart.c **** #define CR2_LINEN_Set              ((uint16_t)0x4000)  /*!< USART LIN Enable Mask */
  58:../../../SDK_embedded/libs/stm32/STM32F10x_StdPeriph_Driver/stm32f10x_usart.c **** #define CR2_LINEN_Reset            ((uint16_t)0xBFFF)  /*!< USART LIN Disable Mask */
  59:../../../SDK_embedded/libs/stm32/STM32F10x_StdPeriph_Driver/stm32f10x_usart.c **** 
  60:../../../SDK_embedded/libs/stm32/STM32F10x_StdPeriph_Driver/stm32f10x_usart.c **** #define CR2_LBDL_Mask             ((uint16_t)0xFFDF)  /*!< USART LIN Break detection Mask */
  61:../../../SDK_embedded/libs/stm32/STM32F10x_StdPeriph_Driver/stm32f10x_usart.c **** #define CR2_STOP_CLEAR_Mask       ((uint16_t)0xCFFF)  /*!< USART CR2 STOP Bits Mask */
  62:../../../SDK_embedded/libs/stm32/STM32F10x_StdPeriph_Driver/stm32f10x_usart.c **** #define CR2_CLOCK_CLEAR_Mask      ((uint16_t)0xF0FF)  /*!< USART CR2 Clock Mask */
  63:../../../SDK_embedded/libs/stm32/STM32F10x_StdPeriph_Driver/stm32f10x_usart.c **** 
  64:../../../SDK_embedded/libs/stm32/STM32F10x_StdPeriph_Driver/stm32f10x_usart.c **** #define CR3_SCEN_Set              ((uint16_t)0x0020)  /*!< USART SC Enable Mask */
  65:../../../SDK_embedded/libs/stm32/STM32F10x_StdPeriph_Driver/stm32f10x_usart.c **** #define CR3_SCEN_Reset            ((uint16_t)0xFFDF)  /*!< USART SC Disable Mask */
  66:../../../SDK_embedded/libs/stm32/STM32F10x_StdPeriph_Driver/stm32f10x_usart.c **** 
  67:../../../SDK_embedded/libs/stm32/STM32F10x_StdPeriph_Driver/stm32f10x_usart.c **** #define CR3_NACK_Set              ((uint16_t)0x0010)  /*!< USART SC NACK Enable Mask */
  68:../../../SDK_embedded/libs/stm32/STM32F10x_StdPeriph_Driver/stm32f10x_usart.c **** #define CR3_NACK_Reset            ((uint16_t)0xFFEF)  /*!< USART SC NACK Disable Mask */
  69:../../../SDK_embedded/libs/stm32/STM32F10x_StdPeriph_Driver/stm32f10x_usart.c **** 
  70:../../../SDK_embedded/libs/stm32/STM32F10x_StdPeriph_Driver/stm32f10x_usart.c **** #define CR3_HDSEL_Set             ((uint16_t)0x0008)  /*!< USART Half-Duplex Enable Mask */
  71:../../../SDK_embedded/libs/stm32/STM32F10x_StdPeriph_Driver/stm32f10x_usart.c **** #define CR3_HDSEL_Reset           ((uint16_t)0xFFF7)  /*!< USART Half-Duplex Disable Mask */
  72:../../../SDK_embedded/libs/stm32/STM32F10x_StdPeriph_Driver/stm32f10x_usart.c **** 
  73:../../../SDK_embedded/libs/stm32/STM32F10x_StdPeriph_Driver/stm32f10x_usart.c **** #define CR3_IRLP_Mask             ((uint16_t)0xFFFB)  /*!< USART IrDA LowPower mode Mask */
  74:../../../SDK_embedded/libs/stm32/STM32F10x_StdPeriph_Driver/stm32f10x_usart.c **** #define CR3_CLEAR_Mask            ((uint16_t)0xFCFF)  /*!< USART CR3 Mask */
  75:../../../SDK_embedded/libs/stm32/STM32F10x_StdPeriph_Driver/stm32f10x_usart.c **** 
  76:../../../SDK_embedded/libs/stm32/STM32F10x_StdPeriph_Driver/stm32f10x_usart.c **** #define CR3_IREN_Set              ((uint16_t)0x0002)  /*!< USART IrDA Enable Mask */
  77:../../../SDK_embedded/libs/stm32/STM32F10x_StdPeriph_Driver/stm32f10x_usart.c **** #define CR3_IREN_Reset            ((uint16_t)0xFFFD)  /*!< USART IrDA Disable Mask */
  78:../../../SDK_embedded/libs/stm32/STM32F10x_StdPeriph_Driver/stm32f10x_usart.c **** #define GTPR_LSB_Mask             ((uint16_t)0x00FF)  /*!< Guard Time Register LSB Mask */
  79:../../../SDK_embedded/libs/stm32/STM32F10x_StdPeriph_Driver/stm32f10x_usart.c **** #define GTPR_MSB_Mask             ((uint16_t)0xFF00)  /*!< Guard Time Register MSB Mask */
  80:../../../SDK_embedded/libs/stm32/STM32F10x_StdPeriph_Driver/stm32f10x_usart.c **** #define IT_Mask                   ((uint16_t)0x001F)  /*!< USART Interrupt Mask */
  81:../../../SDK_embedded/libs/stm32/STM32F10x_StdPeriph_Driver/stm32f10x_usart.c **** 
  82:../../../SDK_embedded/libs/stm32/STM32F10x_StdPeriph_Driver/stm32f10x_usart.c **** /* USART OverSampling-8 Mask */
  83:../../../SDK_embedded/libs/stm32/STM32F10x_StdPeriph_Driver/stm32f10x_usart.c **** #define CR1_OVER8_Set             ((u16)0x8000)  /* USART OVER8 mode Enable Mask */
  84:../../../SDK_embedded/libs/stm32/STM32F10x_StdPeriph_Driver/stm32f10x_usart.c **** #define CR1_OVER8_Reset           ((u16)0x7FFF)  /* USART OVER8 mode Disable Mask */
  85:../../../SDK_embedded/libs/stm32/STM32F10x_StdPeriph_Driver/stm32f10x_usart.c **** 
  86:../../../SDK_embedded/libs/stm32/STM32F10x_StdPeriph_Driver/stm32f10x_usart.c **** /* USART One Bit Sampling Mask */
  87:../../../SDK_embedded/libs/stm32/STM32F10x_StdPeriph_Driver/stm32f10x_usart.c **** #define CR3_ONEBITE_Set           ((u16)0x0800)  /* USART ONEBITE mode Enable Mask */
  88:../../../SDK_embedded/libs/stm32/STM32F10x_StdPeriph_Driver/stm32f10x_usart.c **** #define CR3_ONEBITE_Reset         ((u16)0xF7FF)  /* USART ONEBITE mode Disable Mask */
  89:../../../SDK_embedded/libs/stm32/STM32F10x_StdPeriph_Driver/stm32f10x_usart.c **** 
  90:../../../SDK_embedded/libs/stm32/STM32F10x_StdPeriph_Driver/stm32f10x_usart.c **** /**
  91:../../../SDK_embedded/libs/stm32/STM32F10x_StdPeriph_Driver/stm32f10x_usart.c ****   * @}
  92:../../../SDK_embedded/libs/stm32/STM32F10x_StdPeriph_Driver/stm32f10x_usart.c ****   */
  93:../../../SDK_embedded/libs/stm32/STM32F10x_StdPeriph_Driver/stm32f10x_usart.c **** 
  94:../../../SDK_embedded/libs/stm32/STM32F10x_StdPeriph_Driver/stm32f10x_usart.c **** /** @defgroup USART_Private_Macros
  95:../../../SDK_embedded/libs/stm32/STM32F10x_StdPeriph_Driver/stm32f10x_usart.c ****   * @{
  96:../../../SDK_embedded/libs/stm32/STM32F10x_StdPeriph_Driver/stm32f10x_usart.c ****   */
  97:../../../SDK_embedded/libs/stm32/STM32F10x_StdPeriph_Driver/stm32f10x_usart.c **** 
  98:../../../SDK_embedded/libs/stm32/STM32F10x_StdPeriph_Driver/stm32f10x_usart.c **** /**
  99:../../../SDK_embedded/libs/stm32/STM32F10x_StdPeriph_Driver/stm32f10x_usart.c ****   * @}
 100:../../../SDK_embedded/libs/stm32/STM32F10x_StdPeriph_Driver/stm32f10x_usart.c ****   */
 101:../../../SDK_embedded/libs/stm32/STM32F10x_StdPeriph_Driver/stm32f10x_usart.c **** 
 102:../../../SDK_embedded/libs/stm32/STM32F10x_StdPeriph_Driver/stm32f10x_usart.c **** /** @defgroup USART_Private_Variables
 103:../../../SDK_embedded/libs/stm32/STM32F10x_StdPeriph_Driver/stm32f10x_usart.c ****   * @{
 104:../../../SDK_embedded/libs/stm32/STM32F10x_StdPeriph_Driver/stm32f10x_usart.c ****   */
 105:../../../SDK_embedded/libs/stm32/STM32F10x_StdPeriph_Driver/stm32f10x_usart.c **** 
 106:../../../SDK_embedded/libs/stm32/STM32F10x_StdPeriph_Driver/stm32f10x_usart.c **** /**
 107:../../../SDK_embedded/libs/stm32/STM32F10x_StdPeriph_Driver/stm32f10x_usart.c ****   * @}
 108:../../../SDK_embedded/libs/stm32/STM32F10x_StdPeriph_Driver/stm32f10x_usart.c ****   */
 109:../../../SDK_embedded/libs/stm32/STM32F10x_StdPeriph_Driver/stm32f10x_usart.c **** 
 110:../../../SDK_embedded/libs/stm32/STM32F10x_StdPeriph_Driver/stm32f10x_usart.c **** /** @defgroup USART_Private_FunctionPrototypes
 111:../../../SDK_embedded/libs/stm32/STM32F10x_StdPeriph_Driver/stm32f10x_usart.c ****   * @{
 112:../../../SDK_embedded/libs/stm32/STM32F10x_StdPeriph_Driver/stm32f10x_usart.c ****   */
 113:../../../SDK_embedded/libs/stm32/STM32F10x_StdPeriph_Driver/stm32f10x_usart.c **** 
 114:../../../SDK_embedded/libs/stm32/STM32F10x_StdPeriph_Driver/stm32f10x_usart.c **** /**
 115:../../../SDK_embedded/libs/stm32/STM32F10x_StdPeriph_Driver/stm32f10x_usart.c ****   * @}
 116:../../../SDK_embedded/libs/stm32/STM32F10x_StdPeriph_Driver/stm32f10x_usart.c ****   */
 117:../../../SDK_embedded/libs/stm32/STM32F10x_StdPeriph_Driver/stm32f10x_usart.c **** 
 118:../../../SDK_embedded/libs/stm32/STM32F10x_StdPeriph_Driver/stm32f10x_usart.c **** /** @defgroup USART_Private_Functions
 119:../../../SDK_embedded/libs/stm32/STM32F10x_StdPeriph_Driver/stm32f10x_usart.c ****   * @{
 120:../../../SDK_embedded/libs/stm32/STM32F10x_StdPeriph_Driver/stm32f10x_usart.c ****   */
 121:../../../SDK_embedded/libs/stm32/STM32F10x_StdPeriph_Driver/stm32f10x_usart.c **** 
 122:../../../SDK_embedded/libs/stm32/STM32F10x_StdPeriph_Driver/stm32f10x_usart.c **** /**
 123:../../../SDK_embedded/libs/stm32/STM32F10x_StdPeriph_Driver/stm32f10x_usart.c ****   * @brief  Deinitializes the USARTx peripheral registers to their default reset values.
 124:../../../SDK_embedded/libs/stm32/STM32F10x_StdPeriph_Driver/stm32f10x_usart.c ****   * @param  USARTx: Select the USART or the UART peripheral. 
 125:../../../SDK_embedded/libs/stm32/STM32F10x_StdPeriph_Driver/stm32f10x_usart.c ****   *   This parameter can be one of the following values: USART1, USART2, USART3, UART4 or UART5.
 126:../../../SDK_embedded/libs/stm32/STM32F10x_StdPeriph_Driver/stm32f10x_usart.c ****   * @retval None
 127:../../../SDK_embedded/libs/stm32/STM32F10x_StdPeriph_Driver/stm32f10x_usart.c ****   */
 128:../../../SDK_embedded/libs/stm32/STM32F10x_StdPeriph_Driver/stm32f10x_usart.c **** void USART_DeInit(USART_TypeDef* USARTx)
 129:../../../SDK_embedded/libs/stm32/STM32F10x_StdPeriph_Driver/stm32f10x_usart.c **** {
 16663              		.loc 1 129 0
 16664              		.cfi_startproc
 16665              		@ args = 0, pretend = 0, frame = 0
 16666              		@ frame_needed = 0, uses_anonymous_args = 0
 16667              	.LVL0:
 130:../../../SDK_embedded/libs/stm32/STM32F10x_StdPeriph_Driver/stm32f10x_usart.c ****   /* Check the parameters */
 131:../../../SDK_embedded/libs/stm32/STM32F10x_StdPeriph_Driver/stm32f10x_usart.c ****   assert_param(IS_USART_ALL_PERIPH(USARTx));
 132:../../../SDK_embedded/libs/stm32/STM32F10x_StdPeriph_Driver/stm32f10x_usart.c **** 
 133:../../../SDK_embedded/libs/stm32/STM32F10x_StdPeriph_Driver/stm32f10x_usart.c ****   if (USARTx == USART1)
 16668              		.loc 1 133 0
 16669 0000 1D4B     		ldr	r3, .L8
 129:../../../SDK_embedded/libs/stm32/STM32F10x_StdPeriph_Driver/stm32f10x_usart.c **** {
 16670              		.loc 1 129 0
 16671 0002 10B5     		push	{r4, lr}
 16672              	.LCFI0:
 16673              		.cfi_def_cfa_offset 8
 16674              		.cfi_offset 14, -4
 16675              		.cfi_offset 4, -8
 16676              		.loc 1 133 0
 16677 0004 9842     		cmp	r0, r3
 16678 0006 07D1     		bne	.L2
 134:../../../SDK_embedded/libs/stm32/STM32F10x_StdPeriph_Driver/stm32f10x_usart.c ****   {
 135:../../../SDK_embedded/libs/stm32/STM32F10x_StdPeriph_Driver/stm32f10x_usart.c ****     RCC_APB2PeriphResetCmd(RCC_APB2Periph_USART1, ENABLE);
 16679              		.loc 1 135 0
 16680 0008 4FF48040 		mov	r0, #16384
 16681              	.LVL1:
 16682 000c 0121     		movs	r1, #1
 16683 000e 1B4C     		ldr	r4, .L8+4
 16684 0010 A047     		blx	r4
 136:../../../SDK_embedded/libs/stm32/STM32F10x_StdPeriph_Driver/stm32f10x_usart.c ****     RCC_APB2PeriphResetCmd(RCC_APB2Periph_USART1, DISABLE);
 16685              		.loc 1 136 0
 16686 0012 4FF48040 		mov	r0, #16384
 16687 0016 1FE0     		b	.L7
 16688              	.LVL2:
 16689              	.L2:
 137:../../../SDK_embedded/libs/stm32/STM32F10x_StdPeriph_Driver/stm32f10x_usart.c ****   }
 138:../../../SDK_embedded/libs/stm32/STM32F10x_StdPeriph_Driver/stm32f10x_usart.c ****   else if (USARTx == USART2)
 16690              		.loc 1 138 0
 16691 0018 1949     		ldr	r1, .L8+8
 16692 001a 8842     		cmp	r0, r1
 16693 001c 07D1     		bne	.L4
 139:../../../SDK_embedded/libs/stm32/STM32F10x_StdPeriph_Driver/stm32f10x_usart.c ****   {
 140:../../../SDK_embedded/libs/stm32/STM32F10x_StdPeriph_Driver/stm32f10x_usart.c ****     RCC_APB1PeriphResetCmd(RCC_APB1Periph_USART2, ENABLE);
 16694              		.loc 1 140 0
 16695 001e 4FF40030 		mov	r0, #131072
 16696              	.LVL3:
 16697 0022 0121     		movs	r1, #1
 16698 0024 174C     		ldr	r4, .L8+12
 16699 0026 A047     		blx	r4
 141:../../../SDK_embedded/libs/stm32/STM32F10x_StdPeriph_Driver/stm32f10x_usart.c ****     RCC_APB1PeriphResetCmd(RCC_APB1Periph_USART2, DISABLE);
 16700              		.loc 1 141 0
 16701 0028 4FF40030 		mov	r0, #131072
 16702 002c 14E0     		b	.L7
 16703              	.LVL4:
 16704              	.L4:
 142:../../../SDK_embedded/libs/stm32/STM32F10x_StdPeriph_Driver/stm32f10x_usart.c ****   }
 143:../../../SDK_embedded/libs/stm32/STM32F10x_StdPeriph_Driver/stm32f10x_usart.c ****   else if (USARTx == USART3)
 16705              		.loc 1 143 0
 16706 002e 164A     		ldr	r2, .L8+16
 16707 0030 9042     		cmp	r0, r2
 16708 0032 07D1     		bne	.L5
 144:../../../SDK_embedded/libs/stm32/STM32F10x_StdPeriph_Driver/stm32f10x_usart.c ****   {
 145:../../../SDK_embedded/libs/stm32/STM32F10x_StdPeriph_Driver/stm32f10x_usart.c ****     RCC_APB1PeriphResetCmd(RCC_APB1Periph_USART3, ENABLE);
 16709              		.loc 1 145 0
 16710 0034 4FF48020 		mov	r0, #262144
 16711              	.LVL5:
 16712 0038 0121     		movs	r1, #1
 16713 003a 124C     		ldr	r4, .L8+12
 16714 003c A047     		blx	r4
 146:../../../SDK_embedded/libs/stm32/STM32F10x_StdPeriph_Driver/stm32f10x_usart.c ****     RCC_APB1PeriphResetCmd(RCC_APB1Periph_USART3, DISABLE);
 16715              		.loc 1 146 0
 16716 003e 4FF48020 		mov	r0, #262144
 16717 0042 09E0     		b	.L7
 16718              	.LVL6:
 16719              	.L5:
 147:../../../SDK_embedded/libs/stm32/STM32F10x_StdPeriph_Driver/stm32f10x_usart.c ****   }    
 148:../../../SDK_embedded/libs/stm32/STM32F10x_StdPeriph_Driver/stm32f10x_usart.c ****   else if (USARTx == UART4)
 16720              		.loc 1 148 0
 16721 0044 114B     		ldr	r3, .L8+20
 16722 0046 9842     		cmp	r0, r3
 16723 0048 09D1     		bne	.L6
 149:../../../SDK_embedded/libs/stm32/STM32F10x_StdPeriph_Driver/stm32f10x_usart.c ****   {
 150:../../../SDK_embedded/libs/stm32/STM32F10x_StdPeriph_Driver/stm32f10x_usart.c ****     RCC_APB1PeriphResetCmd(RCC_APB1Periph_UART4, ENABLE);
 16724              		.loc 1 150 0
 16725 004a 4FF40020 		mov	r0, #524288
 16726              	.LVL7:
 16727 004e 0121     		movs	r1, #1
 16728 0050 0C4C     		ldr	r4, .L8+12
 16729 0052 A047     		blx	r4
 151:../../../SDK_embedded/libs/stm32/STM32F10x_StdPeriph_Driver/stm32f10x_usart.c ****     RCC_APB1PeriphResetCmd(RCC_APB1Periph_UART4, DISABLE);
 16730              		.loc 1 151 0
 16731 0054 4FF40020 		mov	r0, #524288
 16732              	.L7:
 16733 0058 0021     		movs	r1, #0
 16734 005a A047     		blx	r4
 16735 005c 10BD     		pop	{r4, pc}
 16736              	.LVL8:
 16737              	.L6:
 152:../../../SDK_embedded/libs/stm32/STM32F10x_StdPeriph_Driver/stm32f10x_usart.c ****   }    
 153:../../../SDK_embedded/libs/stm32/STM32F10x_StdPeriph_Driver/stm32f10x_usart.c ****   else
 154:../../../SDK_embedded/libs/stm32/STM32F10x_StdPeriph_Driver/stm32f10x_usart.c ****   {
 155:../../../SDK_embedded/libs/stm32/STM32F10x_StdPeriph_Driver/stm32f10x_usart.c ****     if (USARTx == UART5)
 16738              		.loc 1 155 0
 16739 005e 0C49     		ldr	r1, .L8+24
 16740 0060 8842     		cmp	r0, r1
 16741 0062 08D1     		bne	.L1
 156:../../../SDK_embedded/libs/stm32/STM32F10x_StdPeriph_Driver/stm32f10x_usart.c ****     { 
 157:../../../SDK_embedded/libs/stm32/STM32F10x_StdPeriph_Driver/stm32f10x_usart.c ****       RCC_APB1PeriphResetCmd(RCC_APB1Periph_UART5, ENABLE);
 16742              		.loc 1 157 0
 16743 0064 4FF48010 		mov	r0, #1048576
 16744              	.LVL9:
 16745 0068 0121     		movs	r1, #1
 16746 006a 064C     		ldr	r4, .L8+12
 16747 006c A047     		blx	r4
 158:../../../SDK_embedded/libs/stm32/STM32F10x_StdPeriph_Driver/stm32f10x_usart.c ****       RCC_APB1PeriphResetCmd(RCC_APB1Periph_UART5, DISABLE);
 16748              		.loc 1 158 0
 16749 006e 4FF48010 		mov	r0, #1048576
 16750 0072 0021     		movs	r1, #0
 16751 0074 A047     		blx	r4
 16752              	.L1:
 16753 0076 10BD     		pop	{r4, pc}
 16754              	.L9:
 16755              		.align	2
 16756              	.L8:
 16757 0078 00380140 		.word	1073821696
 16758 007c 00000000 		.word	RCC_APB2PeriphResetCmd
 16759 0080 00440040 		.word	1073759232
 16760 0084 00000000 		.word	RCC_APB1PeriphResetCmd
 16761 0088 00480040 		.word	1073760256
 16762 008c 004C0040 		.word	1073761280
 16763 0090 00500040 		.word	1073762304
 16764              		.cfi_endproc
 16765              	.LFE29:
 16767              		.section	.text.USART_Init,"ax",%progbits
 16768              		.align	1
 16769              		.global	USART_Init
 16770              		.thumb
 16771              		.thumb_func
 16773              	USART_Init:
 16774              	.LFB30:
 159:../../../SDK_embedded/libs/stm32/STM32F10x_StdPeriph_Driver/stm32f10x_usart.c ****     }
 160:../../../SDK_embedded/libs/stm32/STM32F10x_StdPeriph_Driver/stm32f10x_usart.c ****   }
 161:../../../SDK_embedded/libs/stm32/STM32F10x_StdPeriph_Driver/stm32f10x_usart.c **** }
 162:../../../SDK_embedded/libs/stm32/STM32F10x_StdPeriph_Driver/stm32f10x_usart.c **** 
 163:../../../SDK_embedded/libs/stm32/STM32F10x_StdPeriph_Driver/stm32f10x_usart.c **** /**
 164:../../../SDK_embedded/libs/stm32/STM32F10x_StdPeriph_Driver/stm32f10x_usart.c ****   * @brief  Initializes the USARTx peripheral according to the specified
 165:../../../SDK_embedded/libs/stm32/STM32F10x_StdPeriph_Driver/stm32f10x_usart.c ****   *   parameters in the USART_InitStruct .
 166:../../../SDK_embedded/libs/stm32/STM32F10x_StdPeriph_Driver/stm32f10x_usart.c ****   * @param  USARTx: Select the USART or the UART peripheral. 
 167:../../../SDK_embedded/libs/stm32/STM32F10x_StdPeriph_Driver/stm32f10x_usart.c ****   *   This parameter can be one of the following values:
 168:../../../SDK_embedded/libs/stm32/STM32F10x_StdPeriph_Driver/stm32f10x_usart.c ****   *   USART1, USART2, USART3, UART4 or UART5.
 169:../../../SDK_embedded/libs/stm32/STM32F10x_StdPeriph_Driver/stm32f10x_usart.c ****   * @param  USART_InitStruct: pointer to a USART_InitTypeDef structure
 170:../../../SDK_embedded/libs/stm32/STM32F10x_StdPeriph_Driver/stm32f10x_usart.c ****   *   that contains the configuration information for the specified USART peripheral.
 171:../../../SDK_embedded/libs/stm32/STM32F10x_StdPeriph_Driver/stm32f10x_usart.c ****   * @retval None
 172:../../../SDK_embedded/libs/stm32/STM32F10x_StdPeriph_Driver/stm32f10x_usart.c ****   */
 173:../../../SDK_embedded/libs/stm32/STM32F10x_StdPeriph_Driver/stm32f10x_usart.c **** void USART_Init(USART_TypeDef* USARTx, USART_InitTypeDef* USART_InitStruct)
 174:../../../SDK_embedded/libs/stm32/STM32F10x_StdPeriph_Driver/stm32f10x_usart.c **** {
 16775              		.loc 1 174 0
 16776              		.cfi_startproc
 16777              		@ args = 0, pretend = 0, frame = 24
 16778              		@ frame_needed = 0, uses_anonymous_args = 0
 16779              	.LVL10:
 16780 0000 30B5     		push	{r4, r5, lr}
 16781              	.LCFI1:
 16782              		.cfi_def_cfa_offset 12
 16783              		.cfi_offset 14, -4
 16784              		.cfi_offset 5, -8
 16785              		.cfi_offset 4, -12
 175:../../../SDK_embedded/libs/stm32/STM32F10x_StdPeriph_Driver/stm32f10x_usart.c ****   uint32_t tmpreg = 0x00, apbclock = 0x00;
 176:../../../SDK_embedded/libs/stm32/STM32F10x_StdPeriph_Driver/stm32f10x_usart.c ****   uint32_t integerdivider = 0x00;
 177:../../../SDK_embedded/libs/stm32/STM32F10x_StdPeriph_Driver/stm32f10x_usart.c ****   uint32_t fractionaldivider = 0x00;
 178:../../../SDK_embedded/libs/stm32/STM32F10x_StdPeriph_Driver/stm32f10x_usart.c ****   uint32_t usartxbase = 0;
 179:../../../SDK_embedded/libs/stm32/STM32F10x_StdPeriph_Driver/stm32f10x_usart.c ****   RCC_ClocksTypeDef RCC_ClocksStatus;
 180:../../../SDK_embedded/libs/stm32/STM32F10x_StdPeriph_Driver/stm32f10x_usart.c ****   /* Check the parameters */
 181:../../../SDK_embedded/libs/stm32/STM32F10x_StdPeriph_Driver/stm32f10x_usart.c ****   assert_param(IS_USART_ALL_PERIPH(USARTx));
 182:../../../SDK_embedded/libs/stm32/STM32F10x_StdPeriph_Driver/stm32f10x_usart.c ****   assert_param(IS_USART_BAUDRATE(USART_InitStruct->USART_BaudRate));  
 183:../../../SDK_embedded/libs/stm32/STM32F10x_StdPeriph_Driver/stm32f10x_usart.c ****   assert_param(IS_USART_WORD_LENGTH(USART_InitStruct->USART_WordLength));
 184:../../../SDK_embedded/libs/stm32/STM32F10x_StdPeriph_Driver/stm32f10x_usart.c ****   assert_param(IS_USART_STOPBITS(USART_InitStruct->USART_StopBits));
 185:../../../SDK_embedded/libs/stm32/STM32F10x_StdPeriph_Driver/stm32f10x_usart.c ****   assert_param(IS_USART_PARITY(USART_InitStruct->USART_Parity));
 186:../../../SDK_embedded/libs/stm32/STM32F10x_StdPeriph_Driver/stm32f10x_usart.c ****   assert_param(IS_USART_MODE(USART_InitStruct->USART_Mode));
 187:../../../SDK_embedded/libs/stm32/STM32F10x_StdPeriph_Driver/stm32f10x_usart.c ****   assert_param(IS_USART_HARDWARE_FLOW_CONTROL(USART_InitStruct->USART_HardwareFlowControl));
 188:../../../SDK_embedded/libs/stm32/STM32F10x_StdPeriph_Driver/stm32f10x_usart.c ****   /* The hardware flow control is available only for USART1, USART2 and USART3 */
 189:../../../SDK_embedded/libs/stm32/STM32F10x_StdPeriph_Driver/stm32f10x_usart.c ****   if (USART_InitStruct->USART_HardwareFlowControl != USART_HardwareFlowControl_None)
 190:../../../SDK_embedded/libs/stm32/STM32F10x_StdPeriph_Driver/stm32f10x_usart.c ****   {
 191:../../../SDK_embedded/libs/stm32/STM32F10x_StdPeriph_Driver/stm32f10x_usart.c ****     assert_param(IS_USART_123_PERIPH(USARTx));
 192:../../../SDK_embedded/libs/stm32/STM32F10x_StdPeriph_Driver/stm32f10x_usart.c ****   }
 193:../../../SDK_embedded/libs/stm32/STM32F10x_StdPeriph_Driver/stm32f10x_usart.c **** 
 194:../../../SDK_embedded/libs/stm32/STM32F10x_StdPeriph_Driver/stm32f10x_usart.c ****   usartxbase = (uint32_t)USARTx;
 195:../../../SDK_embedded/libs/stm32/STM32F10x_StdPeriph_Driver/stm32f10x_usart.c **** 
 196:../../../SDK_embedded/libs/stm32/STM32F10x_StdPeriph_Driver/stm32f10x_usart.c **** /*---------------------------- USART CR2 Configuration -----------------------*/
 197:../../../SDK_embedded/libs/stm32/STM32F10x_StdPeriph_Driver/stm32f10x_usart.c ****   tmpreg = USARTx->CR2;
 16786              		.loc 1 197 0
 16787 0002 B0F810E0 		ldrh	lr, [r0, #16]
 16788              	.LVL11:
 174:../../../SDK_embedded/libs/stm32/STM32F10x_StdPeriph_Driver/stm32f10x_usart.c **** {
 16789              		.loc 1 174 0
 16790 0006 0D46     		mov	r5, r1
 198:../../../SDK_embedded/libs/stm32/STM32F10x_StdPeriph_Driver/stm32f10x_usart.c ****   /* Clear STOP[13:12] bits */
 199:../../../SDK_embedded/libs/stm32/STM32F10x_StdPeriph_Driver/stm32f10x_usart.c ****   tmpreg &= CR2_STOP_CLEAR_Mask;
 16791              		.loc 1 199 0
 16792 0008 2EF44053 		bic	r3, lr, #12288
 174:../../../SDK_embedded/libs/stm32/STM32F10x_StdPeriph_Driver/stm32f10x_usart.c **** {
 16793              		.loc 1 174 0
 16794 000c 0446     		mov	r4, r0
 16795              		.loc 1 199 0
 16796 000e 1A04     		lsls	r2, r3, #16
 200:../../../SDK_embedded/libs/stm32/STM32F10x_StdPeriph_Driver/stm32f10x_usart.c ****   /* Configure the USART Stop Bits, Clock, CPOL, CPHA and LastBit ------------*/
 201:../../../SDK_embedded/libs/stm32/STM32F10x_StdPeriph_Driver/stm32f10x_usart.c ****   /* Set STOP[13:12] bits according to USART_StopBits value */
 202:../../../SDK_embedded/libs/stm32/STM32F10x_StdPeriph_Driver/stm32f10x_usart.c ****   tmpreg |= (uint32_t)USART_InitStruct->USART_StopBits;
 16797              		.loc 1 202 0
 16798 0010 E888     		ldrh	r0, [r5, #6]
 16799              	.LVL12:
 199:../../../SDK_embedded/libs/stm32/STM32F10x_StdPeriph_Driver/stm32f10x_usart.c ****   tmpreg &= CR2_STOP_CLEAR_Mask;
 16800              		.loc 1 199 0
 16801 0012 110C     		lsrs	r1, r2, #16
 16802              	.LVL13:
 203:../../../SDK_embedded/libs/stm32/STM32F10x_StdPeriph_Driver/stm32f10x_usart.c ****   
 204:../../../SDK_embedded/libs/stm32/STM32F10x_StdPeriph_Driver/stm32f10x_usart.c ****   /* Write to USART CR2 */
 205:../../../SDK_embedded/libs/stm32/STM32F10x_StdPeriph_Driver/stm32f10x_usart.c ****   USARTx->CR2 = (uint16_t)tmpreg;
 16803              		.loc 1 205 0
 16804 0014 41EA000C 		orr	ip, r1, r0
 16805 0018 A4F810C0 		strh	ip, [r4, #16]	@ movhi
 206:../../../SDK_embedded/libs/stm32/STM32F10x_StdPeriph_Driver/stm32f10x_usart.c **** 
 207:../../../SDK_embedded/libs/stm32/STM32F10x_StdPeriph_Driver/stm32f10x_usart.c **** /*---------------------------- USART CR1 Configuration -----------------------*/
 208:../../../SDK_embedded/libs/stm32/STM32F10x_StdPeriph_Driver/stm32f10x_usart.c ****   tmpreg = USARTx->CR1;
 16806              		.loc 1 208 0
 16807 001c B4F80CE0 		ldrh	lr, [r4, #12]
 16808              	.LVL14:
 209:../../../SDK_embedded/libs/stm32/STM32F10x_StdPeriph_Driver/stm32f10x_usart.c ****   /* Clear M, PCE, PS, TE and RE bits */
 210:../../../SDK_embedded/libs/stm32/STM32F10x_StdPeriph_Driver/stm32f10x_usart.c ****   tmpreg &= CR1_CLEAR_Mask;
 211:../../../SDK_embedded/libs/stm32/STM32F10x_StdPeriph_Driver/stm32f10x_usart.c ****   /* Configure the USART Word Length, Parity and mode ----------------------- */
 212:../../../SDK_embedded/libs/stm32/STM32F10x_StdPeriph_Driver/stm32f10x_usart.c ****   /* Set the M bits according to USART_WordLength value */
 213:../../../SDK_embedded/libs/stm32/STM32F10x_StdPeriph_Driver/stm32f10x_usart.c ****   /* Set PCE and PS bits according to USART_Parity value */
 214:../../../SDK_embedded/libs/stm32/STM32F10x_StdPeriph_Driver/stm32f10x_usart.c ****   /* Set TE and RE bits according to USART_Mode value */
 215:../../../SDK_embedded/libs/stm32/STM32F10x_StdPeriph_Driver/stm32f10x_usart.c ****   tmpreg |= (uint32_t)USART_InitStruct->USART_WordLength | USART_InitStruct->USART_Parity |
 16809              		.loc 1 215 0
 16810 0020 2989     		ldrh	r1, [r5, #8]
 16811 0022 B5F804C0 		ldrh	ip, [r5, #4]
 210:../../../SDK_embedded/libs/stm32/STM32F10x_StdPeriph_Driver/stm32f10x_usart.c ****   tmpreg &= CR1_CLEAR_Mask;
 16812              		.loc 1 210 0
 16813 0026 2EF4B053 		bic	r3, lr, #5632
 16814              		.loc 1 215 0
 16815 002a B5F80AE0 		ldrh	lr, [r5, #10]
 16816              	.LVL15:
 210:../../../SDK_embedded/libs/stm32/STM32F10x_StdPeriph_Driver/stm32f10x_usart.c ****   tmpreg &= CR1_CLEAR_Mask;
 16817              		.loc 1 210 0
 16818 002e 23F00C02 		bic	r2, r3, #12
 16819              		.loc 1 215 0
 16820 0032 41EA0C03 		orr	r3, r1, ip
 210:../../../SDK_embedded/libs/stm32/STM32F10x_StdPeriph_Driver/stm32f10x_usart.c ****   tmpreg &= CR1_CLEAR_Mask;
 16821              		.loc 1 210 0
 16822 0036 1004     		lsls	r0, r2, #16
 16823              		.loc 1 215 0
 16824 0038 43EA0E02 		orr	r2, r3, lr
 210:../../../SDK_embedded/libs/stm32/STM32F10x_StdPeriph_Driver/stm32f10x_usart.c ****   tmpreg &= CR1_CLEAR_Mask;
 16825              		.loc 1 210 0
 16826 003c 000C     		lsrs	r0, r0, #16
 16827              	.LVL16:
 16828              		.loc 1 215 0
 16829 003e 1FFA82FC 		uxth	ip, r2
 216:../../../SDK_embedded/libs/stm32/STM32F10x_StdPeriph_Driver/stm32f10x_usart.c ****             USART_InitStruct->USART_Mode;
 217:../../../SDK_embedded/libs/stm32/STM32F10x_StdPeriph_Driver/stm32f10x_usart.c ****   /* Write to USART CR1 */
 218:../../../SDK_embedded/libs/stm32/STM32F10x_StdPeriph_Driver/stm32f10x_usart.c ****   USARTx->CR1 = (uint16_t)tmpreg;
 16830              		.loc 1 218 0
 16831 0042 4CEA0001 		orr	r1, ip, r0
 16832 0046 A181     		strh	r1, [r4, #12]	@ movhi
 219:../../../SDK_embedded/libs/stm32/STM32F10x_StdPeriph_Driver/stm32f10x_usart.c **** 
 220:../../../SDK_embedded/libs/stm32/STM32F10x_StdPeriph_Driver/stm32f10x_usart.c **** /*---------------------------- USART CR3 Configuration -----------------------*/  
 221:../../../SDK_embedded/libs/stm32/STM32F10x_StdPeriph_Driver/stm32f10x_usart.c ****   tmpreg = USARTx->CR3;
 16833              		.loc 1 221 0
 16834 0048 B4F814E0 		ldrh	lr, [r4, #20]
 16835              	.LVL17:
 222:../../../SDK_embedded/libs/stm32/STM32F10x_StdPeriph_Driver/stm32f10x_usart.c ****   /* Clear CTSE and RTSE bits */
 223:../../../SDK_embedded/libs/stm32/STM32F10x_StdPeriph_Driver/stm32f10x_usart.c ****   tmpreg &= CR3_CLEAR_Mask;
 224:../../../SDK_embedded/libs/stm32/STM32F10x_StdPeriph_Driver/stm32f10x_usart.c ****   /* Configure the USART HFC -------------------------------------------------*/
 225:../../../SDK_embedded/libs/stm32/STM32F10x_StdPeriph_Driver/stm32f10x_usart.c ****   /* Set CTSE and RTSE bits according to USART_HardwareFlowControl value */
 226:../../../SDK_embedded/libs/stm32/STM32F10x_StdPeriph_Driver/stm32f10x_usart.c ****   tmpreg |= USART_InitStruct->USART_HardwareFlowControl;
 16836              		.loc 1 226 0
 16837 004c B5F80CC0 		ldrh	ip, [r5, #12]
 223:../../../SDK_embedded/libs/stm32/STM32F10x_StdPeriph_Driver/stm32f10x_usart.c ****   tmpreg &= CR3_CLEAR_Mask;
 16838              		.loc 1 223 0
 16839 0050 2EF44073 		bic	r3, lr, #768
 16840 0054 1A04     		lsls	r2, r3, #16
 16841 0056 100C     		lsrs	r0, r2, #16
 16842              	.LVL18:
 174:../../../SDK_embedded/libs/stm32/STM32F10x_StdPeriph_Driver/stm32f10x_usart.c **** {
 16843              		.loc 1 174 0
 16844 0058 87B0     		sub	sp, sp, #28
 16845              	.LCFI2:
 16846              		.cfi_def_cfa_offset 40
 227:../../../SDK_embedded/libs/stm32/STM32F10x_StdPeriph_Driver/stm32f10x_usart.c ****   /* Write to USART CR3 */
 228:../../../SDK_embedded/libs/stm32/STM32F10x_StdPeriph_Driver/stm32f10x_usart.c ****   USARTx->CR3 = (uint16_t)tmpreg;
 16847              		.loc 1 228 0
 16848 005a 40EA0C01 		orr	r1, r0, ip
 16849 005e A182     		strh	r1, [r4, #20]	@ movhi
 229:../../../SDK_embedded/libs/stm32/STM32F10x_StdPeriph_Driver/stm32f10x_usart.c **** 
 230:../../../SDK_embedded/libs/stm32/STM32F10x_StdPeriph_Driver/stm32f10x_usart.c **** /*---------------------------- USART BRR Configuration -----------------------*/
 231:../../../SDK_embedded/libs/stm32/STM32F10x_StdPeriph_Driver/stm32f10x_usart.c ****   /* Configure the USART Baud Rate -------------------------------------------*/
 232:../../../SDK_embedded/libs/stm32/STM32F10x_StdPeriph_Driver/stm32f10x_usart.c ****   RCC_GetClocksFreq(&RCC_ClocksStatus);
 16850              		.loc 1 232 0
 16851 0060 01A8     		add	r0, sp, #4
 16852              	.LVL19:
 16853 0062 1B4B     		ldr	r3, .L19
 16854 0064 9847     		blx	r3
 16855              	.LVL20:
 233:../../../SDK_embedded/libs/stm32/STM32F10x_StdPeriph_Driver/stm32f10x_usart.c ****   if (usartxbase == USART1_BASE)
 16856              		.loc 1 233 0
 16857 0066 1B4B     		ldr	r3, .L19+4
 234:../../../SDK_embedded/libs/stm32/STM32F10x_StdPeriph_Driver/stm32f10x_usart.c ****   {
 235:../../../SDK_embedded/libs/stm32/STM32F10x_StdPeriph_Driver/stm32f10x_usart.c ****     apbclock = RCC_ClocksStatus.PCLK2_Frequency;
 236:../../../SDK_embedded/libs/stm32/STM32F10x_StdPeriph_Driver/stm32f10x_usart.c ****   }
 237:../../../SDK_embedded/libs/stm32/STM32F10x_StdPeriph_Driver/stm32f10x_usart.c ****   else
 238:../../../SDK_embedded/libs/stm32/STM32F10x_StdPeriph_Driver/stm32f10x_usart.c ****   {
 239:../../../SDK_embedded/libs/stm32/STM32F10x_StdPeriph_Driver/stm32f10x_usart.c ****     apbclock = RCC_ClocksStatus.PCLK1_Frequency;
 240:../../../SDK_embedded/libs/stm32/STM32F10x_StdPeriph_Driver/stm32f10x_usart.c ****   }
 241:../../../SDK_embedded/libs/stm32/STM32F10x_StdPeriph_Driver/stm32f10x_usart.c ****   
 242:../../../SDK_embedded/libs/stm32/STM32F10x_StdPeriph_Driver/stm32f10x_usart.c ****   /* Determine the integer part */
 243:../../../SDK_embedded/libs/stm32/STM32F10x_StdPeriph_Driver/stm32f10x_usart.c ****   if ((USARTx->CR1 & CR1_OVER8_Set) != 0)
 16858              		.loc 1 243 0
 16859 0068 A089     		ldrh	r0, [r4, #12]
 233:../../../SDK_embedded/libs/stm32/STM32F10x_StdPeriph_Driver/stm32f10x_usart.c ****   if (usartxbase == USART1_BASE)
 16860              		.loc 1 233 0
 16861 006a 9C42     		cmp	r4, r3
 16862              		.loc 1 243 0
 16863 006c 02B2     		sxth	r2, r0
 235:../../../SDK_embedded/libs/stm32/STM32F10x_StdPeriph_Driver/stm32f10x_usart.c ****     apbclock = RCC_ClocksStatus.PCLK2_Frequency;
 16864              		.loc 1 235 0
 16865 006e 0CBF     		ite	eq
 16866 0070 049B     		ldreq	r3, [sp, #16]
 16867              	.LVL21:
 239:../../../SDK_embedded/libs/stm32/STM32F10x_StdPeriph_Driver/stm32f10x_usart.c ****     apbclock = RCC_ClocksStatus.PCLK1_Frequency;
 16868              		.loc 1 239 0
 16869 0072 039B     		ldrne	r3, [sp, #12]
 16870              	.LVL22:
 16871              		.loc 1 243 0
 16872 0074 002A     		cmp	r2, #0
 16873 0076 4FF01901 		mov	r1, #25
 16874 007a 2A68     		ldr	r2, [r5, #0]
 16875 007c 02DA     		bge	.L13
 244:../../../SDK_embedded/libs/stm32/STM32F10x_StdPeriph_Driver/stm32f10x_usart.c ****   {
 245:../../../SDK_embedded/libs/stm32/STM32F10x_StdPeriph_Driver/stm32f10x_usart.c ****     /* Integer part computing in case Oversampling mode is 8 Samples */
 246:../../../SDK_embedded/libs/stm32/STM32F10x_StdPeriph_Driver/stm32f10x_usart.c ****     integerdivider = ((25 * apbclock) / (2 * (USART_InitStruct->USART_BaudRate)));    
 16876              		.loc 1 246 0
 16877 007e 5943     		muls	r1, r3, r1
 16878 0080 5200     		lsls	r2, r2, #1
 16879 0082 01E0     		b	.L17
 16880              	.L13:
 247:../../../SDK_embedded/libs/stm32/STM32F10x_StdPeriph_Driver/stm32f10x_usart.c ****   }
 248:../../../SDK_embedded/libs/stm32/STM32F10x_StdPeriph_Driver/stm32f10x_usart.c ****   else /* if ((USARTx->CR1 & CR1_OVER8_Set) == 0) */
 249:../../../SDK_embedded/libs/stm32/STM32F10x_StdPeriph_Driver/stm32f10x_usart.c ****   {
 250:../../../SDK_embedded/libs/stm32/STM32F10x_StdPeriph_Driver/stm32f10x_usart.c ****     /* Integer part computing in case Oversampling mode is 16 Samples */
 251:../../../SDK_embedded/libs/stm32/STM32F10x_StdPeriph_Driver/stm32f10x_usart.c ****     integerdivider = ((25 * apbclock) / (4 * (USART_InitStruct->USART_BaudRate)));    
 16881              		.loc 1 251 0
 16882 0084 5943     		muls	r1, r3, r1
 16883 0086 9200     		lsls	r2, r2, #2
 16884              	.LVL23:
 16885              	.L17:
 252:../../../SDK_embedded/libs/stm32/STM32F10x_StdPeriph_Driver/stm32f10x_usart.c ****   }
 253:../../../SDK_embedded/libs/stm32/STM32F10x_StdPeriph_Driver/stm32f10x_usart.c ****   tmpreg = (integerdivider / 100) << 4;
 16886              		.loc 1 253 0
 16887 0088 6423     		movs	r3, #100
 16888              	.LVL24:
 251:../../../SDK_embedded/libs/stm32/STM32F10x_StdPeriph_Driver/stm32f10x_usart.c ****     integerdivider = ((25 * apbclock) / (4 * (USART_InitStruct->USART_BaudRate)));    
 16889              		.loc 1 251 0
 16890 008a B1FBF2F1 		udiv	r1, r1, r2
 16891              	.LVL25:
 16892              		.loc 1 253 0
 16893 008e B1FBF3F2 		udiv	r2, r1, r3
 16894 0092 1201     		lsls	r2, r2, #4
 16895              	.LVL26:
 254:../../../SDK_embedded/libs/stm32/STM32F10x_StdPeriph_Driver/stm32f10x_usart.c **** 
 255:../../../SDK_embedded/libs/stm32/STM32F10x_StdPeriph_Driver/stm32f10x_usart.c ****   /* Determine the fractional part */
 256:../../../SDK_embedded/libs/stm32/STM32F10x_StdPeriph_Driver/stm32f10x_usart.c ****   fractionaldivider = integerdivider - (100 * (tmpreg >> 4));
 16896              		.loc 1 256 0
 16897 0094 1009     		lsrs	r0, r2, #4
 16898 0096 03FB1011 		mls	r1, r3, r0, r1
 16899              	.LVL27:
 257:../../../SDK_embedded/libs/stm32/STM32F10x_StdPeriph_Driver/stm32f10x_usart.c **** 
 258:../../../SDK_embedded/libs/stm32/STM32F10x_StdPeriph_Driver/stm32f10x_usart.c ****   /* Implement the fractional part in the register */
 259:../../../SDK_embedded/libs/stm32/STM32F10x_StdPeriph_Driver/stm32f10x_usart.c ****   if ((USARTx->CR1 & CR1_OVER8_Set) != 0)
 16900              		.loc 1 259 0
 16901 009a A089     		ldrh	r0, [r4, #12]
 16902 009c 0FFA80FC 		sxth	ip, r0
 16903 00a0 BCF1000F 		cmp	ip, #0
 16904 00a4 06DA     		bge	.L15
 260:../../../SDK_embedded/libs/stm32/STM32F10x_StdPeriph_Driver/stm32f10x_usart.c ****   {
 261:../../../SDK_embedded/libs/stm32/STM32F10x_StdPeriph_Driver/stm32f10x_usart.c ****     tmpreg |= ((((fractionaldivider * 8) + 50) / 100)) & ((uint8_t)0x07);
 16905              		.loc 1 261 0
 16906 00a6 C900     		lsls	r1, r1, #3
 16907              	.LVL28:
 16908 00a8 3231     		adds	r1, r1, #50
 16909 00aa B1FBF3F3 		udiv	r3, r1, r3
 16910 00ae 03F00703 		and	r3, r3, #7
 16911 00b2 05E0     		b	.L18
 16912              	.LVL29:
 16913              	.L15:
 262:../../../SDK_embedded/libs/stm32/STM32F10x_StdPeriph_Driver/stm32f10x_usart.c ****   }
 263:../../../SDK_embedded/libs/stm32/STM32F10x_StdPeriph_Driver/stm32f10x_usart.c ****   else /* if ((USARTx->CR1 & CR1_OVER8_Set) == 0) */
 264:../../../SDK_embedded/libs/stm32/STM32F10x_StdPeriph_Driver/stm32f10x_usart.c ****   {
 265:../../../SDK_embedded/libs/stm32/STM32F10x_StdPeriph_Driver/stm32f10x_usart.c ****     tmpreg |= ((((fractionaldivider * 16) + 50) / 100)) & ((uint8_t)0x0F);
 16914              		.loc 1 265 0
 16915 00b4 0801     		lsls	r0, r1, #4
 16916 00b6 3230     		adds	r0, r0, #50
 16917 00b8 B0FBF3FE 		udiv	lr, r0, r3
 16918 00bc 0EF00F03 		and	r3, lr, #15
 16919              	.LVL30:
 16920              	.L18:
 16921 00c0 43EA0202 		orr	r2, r3, r2
 16922              	.LVL31:
 266:../../../SDK_embedded/libs/stm32/STM32F10x_StdPeriph_Driver/stm32f10x_usart.c ****   }
 267:../../../SDK_embedded/libs/stm32/STM32F10x_StdPeriph_Driver/stm32f10x_usart.c ****   
 268:../../../SDK_embedded/libs/stm32/STM32F10x_StdPeriph_Driver/stm32f10x_usart.c ****   /* Write to USART BRR */
 269:../../../SDK_embedded/libs/stm32/STM32F10x_StdPeriph_Driver/stm32f10x_usart.c ****   USARTx->BRR = (uint16_t)tmpreg;
 16923              		.loc 1 269 0
 16924 00c4 1FFA82FC 		uxth	ip, r2
 16925 00c8 A4F808C0 		strh	ip, [r4, #8]	@ movhi
 270:../../../SDK_embedded/libs/stm32/STM32F10x_StdPeriph_Driver/stm32f10x_usart.c **** }
 16926              		.loc 1 270 0
 16927 00cc 07B0     		add	sp, sp, #28
 16928 00ce 30BD     		pop	{r4, r5, pc}
 16929              	.L20:
 16930              		.align	2
 16931              	.L19:
 16932 00d0 00000000 		.word	RCC_GetClocksFreq
 16933 00d4 00380140 		.word	1073821696
 16934              		.cfi_endproc
 16935              	.LFE30:
 16937              		.section	.text.USART_StructInit,"ax",%progbits
 16938              		.align	1
 16939              		.global	USART_StructInit
 16940              		.thumb
 16941              		.thumb_func
 16943              	USART_StructInit:
 16944              	.LFB31:
 271:../../../SDK_embedded/libs/stm32/STM32F10x_StdPeriph_Driver/stm32f10x_usart.c **** 
 272:../../../SDK_embedded/libs/stm32/STM32F10x_StdPeriph_Driver/stm32f10x_usart.c **** /**
 273:../../../SDK_embedded/libs/stm32/STM32F10x_StdPeriph_Driver/stm32f10x_usart.c ****   * @brief  Fills each USART_InitStruct member with its default value.
 274:../../../SDK_embedded/libs/stm32/STM32F10x_StdPeriph_Driver/stm32f10x_usart.c ****   * @param  USART_InitStruct: pointer to a USART_InitTypeDef structure
 275:../../../SDK_embedded/libs/stm32/STM32F10x_StdPeriph_Driver/stm32f10x_usart.c ****   *   which will be initialized.
 276:../../../SDK_embedded/libs/stm32/STM32F10x_StdPeriph_Driver/stm32f10x_usart.c ****   * @retval None
 277:../../../SDK_embedded/libs/stm32/STM32F10x_StdPeriph_Driver/stm32f10x_usart.c ****   */
 278:../../../SDK_embedded/libs/stm32/STM32F10x_StdPeriph_Driver/stm32f10x_usart.c **** void USART_StructInit(USART_InitTypeDef* USART_InitStruct)
 279:../../../SDK_embedded/libs/stm32/STM32F10x_StdPeriph_Driver/stm32f10x_usart.c **** {
 16945              		.loc 1 279 0
 16946              		.cfi_startproc
 16947              		@ args = 0, pretend = 0, frame = 0
 16948              		@ frame_needed = 0, uses_anonymous_args = 0
 16949              		@ link register save eliminated.
 16950              	.LVL32:
 280:../../../SDK_embedded/libs/stm32/STM32F10x_StdPeriph_Driver/stm32f10x_usart.c ****   /* USART_InitStruct members default value */
 281:../../../SDK_embedded/libs/stm32/STM32F10x_StdPeriph_Driver/stm32f10x_usart.c ****   USART_InitStruct->USART_BaudRate = 9600;
 282:../../../SDK_embedded/libs/stm32/STM32F10x_StdPeriph_Driver/stm32f10x_usart.c ****   USART_InitStruct->USART_WordLength = USART_WordLength_8b;
 16951              		.loc 1 282 0
 16952 0000 0023     		movs	r3, #0
 281:../../../SDK_embedded/libs/stm32/STM32F10x_StdPeriph_Driver/stm32f10x_usart.c ****   USART_InitStruct->USART_BaudRate = 9600;
 16953              		.loc 1 281 0
 16954 0002 4FF41651 		mov	r1, #9600
 283:../../../SDK_embedded/libs/stm32/STM32F10x_StdPeriph_Driver/stm32f10x_usart.c ****   USART_InitStruct->USART_StopBits = USART_StopBits_1;
 284:../../../SDK_embedded/libs/stm32/STM32F10x_StdPeriph_Driver/stm32f10x_usart.c ****   USART_InitStruct->USART_Parity = USART_Parity_No ;
 285:../../../SDK_embedded/libs/stm32/STM32F10x_StdPeriph_Driver/stm32f10x_usart.c ****   USART_InitStruct->USART_Mode = USART_Mode_Rx | USART_Mode_Tx;
 16955              		.loc 1 285 0
 16956 0006 0C22     		movs	r2, #12
 281:../../../SDK_embedded/libs/stm32/STM32F10x_StdPeriph_Driver/stm32f10x_usart.c ****   USART_InitStruct->USART_BaudRate = 9600;
 16957              		.loc 1 281 0
 16958 0008 0160     		str	r1, [r0, #0]
 282:../../../SDK_embedded/libs/stm32/STM32F10x_StdPeriph_Driver/stm32f10x_usart.c ****   USART_InitStruct->USART_WordLength = USART_WordLength_8b;
 16959              		.loc 1 282 0
 16960 000a 8380     		strh	r3, [r0, #4]	@ movhi
 283:../../../SDK_embedded/libs/stm32/STM32F10x_StdPeriph_Driver/stm32f10x_usart.c ****   USART_InitStruct->USART_StopBits = USART_StopBits_1;
 16961              		.loc 1 283 0
 16962 000c C380     		strh	r3, [r0, #6]	@ movhi
 284:../../../SDK_embedded/libs/stm32/STM32F10x_StdPeriph_Driver/stm32f10x_usart.c ****   USART_InitStruct->USART_Parity = USART_Parity_No ;
 16963              		.loc 1 284 0
 16964 000e 0381     		strh	r3, [r0, #8]	@ movhi
 16965              		.loc 1 285 0
 16966 0010 4281     		strh	r2, [r0, #10]	@ movhi
 286:../../../SDK_embedded/libs/stm32/STM32F10x_StdPeriph_Driver/stm32f10x_usart.c ****   USART_InitStruct->USART_HardwareFlowControl = USART_HardwareFlowControl_None;  
 16967              		.loc 1 286 0
 16968 0012 8381     		strh	r3, [r0, #12]	@ movhi
 287:../../../SDK_embedded/libs/stm32/STM32F10x_StdPeriph_Driver/stm32f10x_usart.c **** }
 16969              		.loc 1 287 0
 16970 0014 7047     		bx	lr
 16971              		.cfi_endproc
 16972              	.LFE31:
 16974              		.section	.text.USART_ClockInit,"ax",%progbits
 16975              		.align	1
 16976              		.global	USART_ClockInit
 16977              		.thumb
 16978              		.thumb_func
 16980              	USART_ClockInit:
 16981              	.LFB32:
 288:../../../SDK_embedded/libs/stm32/STM32F10x_StdPeriph_Driver/stm32f10x_usart.c **** 
 289:../../../SDK_embedded/libs/stm32/STM32F10x_StdPeriph_Driver/stm32f10x_usart.c **** /**
 290:../../../SDK_embedded/libs/stm32/STM32F10x_StdPeriph_Driver/stm32f10x_usart.c ****   * @brief  Initializes the USARTx peripheral Clock according to the 
 291:../../../SDK_embedded/libs/stm32/STM32F10x_StdPeriph_Driver/stm32f10x_usart.c ****   *   specified parameters in the USART_ClockInitStruct .
 292:../../../SDK_embedded/libs/stm32/STM32F10x_StdPeriph_Driver/stm32f10x_usart.c ****   * @param  USARTx: where x can be 1, 2, 3 to select the USART peripheral.
 293:../../../SDK_embedded/libs/stm32/STM32F10x_StdPeriph_Driver/stm32f10x_usart.c ****   * @param  USART_ClockInitStruct: pointer to a USART_ClockInitTypeDef
 294:../../../SDK_embedded/libs/stm32/STM32F10x_StdPeriph_Driver/stm32f10x_usart.c ****   *   structure that contains the configuration information for the specified 
 295:../../../SDK_embedded/libs/stm32/STM32F10x_StdPeriph_Driver/stm32f10x_usart.c ****   *   USART peripheral.  
 296:../../../SDK_embedded/libs/stm32/STM32F10x_StdPeriph_Driver/stm32f10x_usart.c ****   * @note The Smart Card mode is not available for UART4 and UART5.
 297:../../../SDK_embedded/libs/stm32/STM32F10x_StdPeriph_Driver/stm32f10x_usart.c ****   * @retval None
 298:../../../SDK_embedded/libs/stm32/STM32F10x_StdPeriph_Driver/stm32f10x_usart.c ****   */
 299:../../../SDK_embedded/libs/stm32/STM32F10x_StdPeriph_Driver/stm32f10x_usart.c **** void USART_ClockInit(USART_TypeDef* USARTx, USART_ClockInitTypeDef* USART_ClockInitStruct)
 300:../../../SDK_embedded/libs/stm32/STM32F10x_StdPeriph_Driver/stm32f10x_usart.c **** {
 16982              		.loc 1 300 0
 16983              		.cfi_startproc
 16984              		@ args = 0, pretend = 0, frame = 0
 16985              		@ frame_needed = 0, uses_anonymous_args = 0
 16986              	.LVL33:
 301:../../../SDK_embedded/libs/stm32/STM32F10x_StdPeriph_Driver/stm32f10x_usart.c ****   uint32_t tmpreg = 0x00;
 302:../../../SDK_embedded/libs/stm32/STM32F10x_StdPeriph_Driver/stm32f10x_usart.c ****   /* Check the parameters */
 303:../../../SDK_embedded/libs/stm32/STM32F10x_StdPeriph_Driver/stm32f10x_usart.c ****   assert_param(IS_USART_123_PERIPH(USARTx));
 304:../../../SDK_embedded/libs/stm32/STM32F10x_StdPeriph_Driver/stm32f10x_usart.c ****   assert_param(IS_USART_CLOCK(USART_ClockInitStruct->USART_Clock));
 305:../../../SDK_embedded/libs/stm32/STM32F10x_StdPeriph_Driver/stm32f10x_usart.c ****   assert_param(IS_USART_CPOL(USART_ClockInitStruct->USART_CPOL));
 306:../../../SDK_embedded/libs/stm32/STM32F10x_StdPeriph_Driver/stm32f10x_usart.c ****   assert_param(IS_USART_CPHA(USART_ClockInitStruct->USART_CPHA));
 307:../../../SDK_embedded/libs/stm32/STM32F10x_StdPeriph_Driver/stm32f10x_usart.c ****   assert_param(IS_USART_LASTBIT(USART_ClockInitStruct->USART_LastBit));
 308:../../../SDK_embedded/libs/stm32/STM32F10x_StdPeriph_Driver/stm32f10x_usart.c ****   
 309:../../../SDK_embedded/libs/stm32/STM32F10x_StdPeriph_Driver/stm32f10x_usart.c **** /*---------------------------- USART CR2 Configuration -----------------------*/
 310:../../../SDK_embedded/libs/stm32/STM32F10x_StdPeriph_Driver/stm32f10x_usart.c ****   tmpreg = USARTx->CR2;
 16987              		.loc 1 310 0
 16988 0000 B0F810C0 		ldrh	ip, [r0, #16]
 16989              	.LVL34:
 300:../../../SDK_embedded/libs/stm32/STM32F10x_StdPeriph_Driver/stm32f10x_usart.c **** {
 16990              		.loc 1 300 0
 16991 0004 10B5     		push	{r4, lr}
 16992              	.LCFI3:
 16993              		.cfi_def_cfa_offset 8
 16994              		.cfi_offset 14, -4
 16995              		.cfi_offset 4, -8
 311:../../../SDK_embedded/libs/stm32/STM32F10x_StdPeriph_Driver/stm32f10x_usart.c ****   /* Clear CLKEN, CPOL, CPHA and LBCL bits */
 312:../../../SDK_embedded/libs/stm32/STM32F10x_StdPeriph_Driver/stm32f10x_usart.c ****   tmpreg &= CR2_CLOCK_CLEAR_Mask;
 16996              		.loc 1 312 0
 16997 0006 2CF47062 		bic	r2, ip, #3840
 313:../../../SDK_embedded/libs/stm32/STM32F10x_StdPeriph_Driver/stm32f10x_usart.c ****   /* Configure the USART Clock, CPOL, CPHA and LastBit ------------*/
 314:../../../SDK_embedded/libs/stm32/STM32F10x_StdPeriph_Driver/stm32f10x_usart.c ****   /* Set CLKEN bit according to USART_Clock value */
 315:../../../SDK_embedded/libs/stm32/STM32F10x_StdPeriph_Driver/stm32f10x_usart.c ****   /* Set CPOL bit according to USART_CPOL value */
 316:../../../SDK_embedded/libs/stm32/STM32F10x_StdPeriph_Driver/stm32f10x_usart.c ****   /* Set CPHA bit according to USART_CPHA value */
 317:../../../SDK_embedded/libs/stm32/STM32F10x_StdPeriph_Driver/stm32f10x_usart.c ****   /* Set LBCL bit according to USART_LastBit value */
 318:../../../SDK_embedded/libs/stm32/STM32F10x_StdPeriph_Driver/stm32f10x_usart.c ****   tmpreg |= (uint32_t)USART_ClockInitStruct->USART_Clock | USART_ClockInitStruct->USART_CPOL | 
 319:../../../SDK_embedded/libs/stm32/STM32F10x_StdPeriph_Driver/stm32f10x_usart.c ****                  USART_ClockInitStruct->USART_CPHA | USART_ClockInitStruct->USART_LastBit;
 16998              		.loc 1 319 0
 16999 000a 4C88     		ldrh	r4, [r1, #2]
 312:../../../SDK_embedded/libs/stm32/STM32F10x_StdPeriph_Driver/stm32f10x_usart.c ****   tmpreg &= CR2_CLOCK_CLEAR_Mask;
 17000              		.loc 1 312 0
 17001 000c 1304     		lsls	r3, r2, #16
 17002              		.loc 1 319 0
 17003 000e 0A88     		ldrh	r2, [r1, #0]
 312:../../../SDK_embedded/libs/stm32/STM32F10x_StdPeriph_Driver/stm32f10x_usart.c ****   tmpreg &= CR2_CLOCK_CLEAR_Mask;
 17004              		.loc 1 312 0
 17005 0010 1B0C     		lsrs	r3, r3, #16
 17006              	.LVL35:
 17007              		.loc 1 319 0
 17008 0012 44EA020C 		orr	ip, r4, r2
 17009 0016 8C88     		ldrh	r4, [r1, #4]
 17010 0018 CA88     		ldrh	r2, [r1, #6]
 17011 001a 4CEA040C 		orr	ip, ip, r4
 17012 001e 4CEA0201 		orr	r1, ip, r2
 17013              	.LVL36:
 17014 0022 8AB2     		uxth	r2, r1
 320:../../../SDK_embedded/libs/stm32/STM32F10x_StdPeriph_Driver/stm32f10x_usart.c ****   /* Write to USART CR2 */
 321:../../../SDK_embedded/libs/stm32/STM32F10x_StdPeriph_Driver/stm32f10x_usart.c ****   USARTx->CR2 = (uint16_t)tmpreg;
 17015              		.loc 1 321 0
 17016 0024 42EA0303 		orr	r3, r2, r3
 17017 0028 0382     		strh	r3, [r0, #16]	@ movhi
 322:../../../SDK_embedded/libs/stm32/STM32F10x_StdPeriph_Driver/stm32f10x_usart.c **** }
 17018              		.loc 1 322 0
 17019 002a 10BD     		pop	{r4, pc}
 17020              		.cfi_endproc
 17021              	.LFE32:
 17023              		.section	.text.USART_ClockStructInit,"ax",%progbits
 17024              		.align	1
 17025              		.global	USART_ClockStructInit
 17026              		.thumb
 17027              		.thumb_func
 17029              	USART_ClockStructInit:
 17030              	.LFB33:
 323:../../../SDK_embedded/libs/stm32/STM32F10x_StdPeriph_Driver/stm32f10x_usart.c **** 
 324:../../../SDK_embedded/libs/stm32/STM32F10x_StdPeriph_Driver/stm32f10x_usart.c **** /**
 325:../../../SDK_embedded/libs/stm32/STM32F10x_StdPeriph_Driver/stm32f10x_usart.c ****   * @brief  Fills each USART_ClockInitStruct member with its default value.
 326:../../../SDK_embedded/libs/stm32/STM32F10x_StdPeriph_Driver/stm32f10x_usart.c ****   * @param  USART_ClockInitStruct: pointer to a USART_ClockInitTypeDef
 327:../../../SDK_embedded/libs/stm32/STM32F10x_StdPeriph_Driver/stm32f10x_usart.c ****   *   structure which will be initialized.
 328:../../../SDK_embedded/libs/stm32/STM32F10x_StdPeriph_Driver/stm32f10x_usart.c ****   * @retval None
 329:../../../SDK_embedded/libs/stm32/STM32F10x_StdPeriph_Driver/stm32f10x_usart.c ****   */
 330:../../../SDK_embedded/libs/stm32/STM32F10x_StdPeriph_Driver/stm32f10x_usart.c **** void USART_ClockStructInit(USART_ClockInitTypeDef* USART_ClockInitStruct)
 331:../../../SDK_embedded/libs/stm32/STM32F10x_StdPeriph_Driver/stm32f10x_usart.c **** {
 17031              		.loc 1 331 0
 17032              		.cfi_startproc
 17033              		@ args = 0, pretend = 0, frame = 0
 17034              		@ frame_needed = 0, uses_anonymous_args = 0
 17035              		@ link register save eliminated.
 17036              	.LVL37:
 332:../../../SDK_embedded/libs/stm32/STM32F10x_StdPeriph_Driver/stm32f10x_usart.c ****   /* USART_ClockInitStruct members default value */
 333:../../../SDK_embedded/libs/stm32/STM32F10x_StdPeriph_Driver/stm32f10x_usart.c ****   USART_ClockInitStruct->USART_Clock = USART_Clock_Disable;
 17037              		.loc 1 333 0
 17038 0000 0023     		movs	r3, #0
 17039 0002 0380     		strh	r3, [r0, #0]	@ movhi
 334:../../../SDK_embedded/libs/stm32/STM32F10x_StdPeriph_Driver/stm32f10x_usart.c ****   USART_ClockInitStruct->USART_CPOL = USART_CPOL_Low;
 17040              		.loc 1 334 0
 17041 0004 4380     		strh	r3, [r0, #2]	@ movhi
 335:../../../SDK_embedded/libs/stm32/STM32F10x_StdPeriph_Driver/stm32f10x_usart.c ****   USART_ClockInitStruct->USART_CPHA = USART_CPHA_1Edge;
 17042              		.loc 1 335 0
 17043 0006 8380     		strh	r3, [r0, #4]	@ movhi
 336:../../../SDK_embedded/libs/stm32/STM32F10x_StdPeriph_Driver/stm32f10x_usart.c ****   USART_ClockInitStruct->USART_LastBit = USART_LastBit_Disable;
 17044              		.loc 1 336 0
 17045 0008 C380     		strh	r3, [r0, #6]	@ movhi
 337:../../../SDK_embedded/libs/stm32/STM32F10x_StdPeriph_Driver/stm32f10x_usart.c **** }
 17046              		.loc 1 337 0
 17047 000a 7047     		bx	lr
 17048              		.cfi_endproc
 17049              	.LFE33:
 17051              		.section	.text.USART_Cmd,"ax",%progbits
 17052              		.align	1
 17053              		.global	USART_Cmd
 17054              		.thumb
 17055              		.thumb_func
 17057              	USART_Cmd:
 17058              	.LFB34:
 338:../../../SDK_embedded/libs/stm32/STM32F10x_StdPeriph_Driver/stm32f10x_usart.c **** 
 339:../../../SDK_embedded/libs/stm32/STM32F10x_StdPeriph_Driver/stm32f10x_usart.c **** /**
 340:../../../SDK_embedded/libs/stm32/STM32F10x_StdPeriph_Driver/stm32f10x_usart.c ****   * @brief  Enables or disables the specified USART peripheral.
 341:../../../SDK_embedded/libs/stm32/STM32F10x_StdPeriph_Driver/stm32f10x_usart.c ****   * @param  USARTx: Select the USART or the UART peripheral. 
 342:../../../SDK_embedded/libs/stm32/STM32F10x_StdPeriph_Driver/stm32f10x_usart.c ****   *   This parameter can be one of the following values:
 343:../../../SDK_embedded/libs/stm32/STM32F10x_StdPeriph_Driver/stm32f10x_usart.c ****   *   USART1, USART2, USART3, UART4 or UART5.
 344:../../../SDK_embedded/libs/stm32/STM32F10x_StdPeriph_Driver/stm32f10x_usart.c ****   * @param  NewState: new state of the USARTx peripheral.
 345:../../../SDK_embedded/libs/stm32/STM32F10x_StdPeriph_Driver/stm32f10x_usart.c ****   *   This parameter can be: ENABLE or DISABLE.
 346:../../../SDK_embedded/libs/stm32/STM32F10x_StdPeriph_Driver/stm32f10x_usart.c ****   * @retval None
 347:../../../SDK_embedded/libs/stm32/STM32F10x_StdPeriph_Driver/stm32f10x_usart.c ****   */
 348:../../../SDK_embedded/libs/stm32/STM32F10x_StdPeriph_Driver/stm32f10x_usart.c **** void USART_Cmd(USART_TypeDef* USARTx, FunctionalState NewState)
 349:../../../SDK_embedded/libs/stm32/STM32F10x_StdPeriph_Driver/stm32f10x_usart.c **** {
 17059              		.loc 1 349 0
 17060              		.cfi_startproc
 17061              		@ args = 0, pretend = 0, frame = 0
 17062              		@ frame_needed = 0, uses_anonymous_args = 0
 17063              		@ link register save eliminated.
 17064              	.LVL38:
 350:../../../SDK_embedded/libs/stm32/STM32F10x_StdPeriph_Driver/stm32f10x_usart.c ****   /* Check the parameters */
 351:../../../SDK_embedded/libs/stm32/STM32F10x_StdPeriph_Driver/stm32f10x_usart.c ****   assert_param(IS_USART_ALL_PERIPH(USARTx));
 352:../../../SDK_embedded/libs/stm32/STM32F10x_StdPeriph_Driver/stm32f10x_usart.c ****   assert_param(IS_FUNCTIONAL_STATE(NewState));
 353:../../../SDK_embedded/libs/stm32/STM32F10x_StdPeriph_Driver/stm32f10x_usart.c ****   
 354:../../../SDK_embedded/libs/stm32/STM32F10x_StdPeriph_Driver/stm32f10x_usart.c ****   if (NewState != DISABLE)
 17065              		.loc 1 354 0
 17066 0000 21B1     		cbz	r1, .L25
 355:../../../SDK_embedded/libs/stm32/STM32F10x_StdPeriph_Driver/stm32f10x_usart.c ****   {
 356:../../../SDK_embedded/libs/stm32/STM32F10x_StdPeriph_Driver/stm32f10x_usart.c ****     /* Enable the selected USART by setting the UE bit in the CR1 register */
 357:../../../SDK_embedded/libs/stm32/STM32F10x_StdPeriph_Driver/stm32f10x_usart.c ****     USARTx->CR1 |= CR1_UE_Set;
 17067              		.loc 1 357 0
 17068 0002 8189     		ldrh	r1, [r0, #12]
 17069              	.LVL39:
 17070 0004 8BB2     		uxth	r3, r1
 17071 0006 43F40053 		orr	r3, r3, #8192
 17072 000a 05E0     		b	.L27
 17073              	.LVL40:
 17074              	.L25:
 358:../../../SDK_embedded/libs/stm32/STM32F10x_StdPeriph_Driver/stm32f10x_usart.c ****   }
 359:../../../SDK_embedded/libs/stm32/STM32F10x_StdPeriph_Driver/stm32f10x_usart.c ****   else
 360:../../../SDK_embedded/libs/stm32/STM32F10x_StdPeriph_Driver/stm32f10x_usart.c ****   {
 361:../../../SDK_embedded/libs/stm32/STM32F10x_StdPeriph_Driver/stm32f10x_usart.c ****     /* Disable the selected USART by clearing the UE bit in the CR1 register */
 362:../../../SDK_embedded/libs/stm32/STM32F10x_StdPeriph_Driver/stm32f10x_usart.c ****     USARTx->CR1 &= CR1_UE_Reset;
 17075              		.loc 1 362 0
 17076 000c B0F80CC0 		ldrh	ip, [r0, #12]
 17077 0010 2CF40053 		bic	r3, ip, #8192
 17078 0014 1A04     		lsls	r2, r3, #16
 17079 0016 130C     		lsrs	r3, r2, #16
 17080              	.LVL41:
 17081              	.L27:
 17082 0018 8381     		strh	r3, [r0, #12]	@ movhi
 17083 001a 7047     		bx	lr
 17084              		.cfi_endproc
 17085              	.LFE34:
 17087              		.section	.text.USART_ITConfig,"ax",%progbits
 17088              		.align	1
 17089              		.global	USART_ITConfig
 17090              		.thumb
 17091              		.thumb_func
 17093              	USART_ITConfig:
 17094              	.LFB35:
 363:../../../SDK_embedded/libs/stm32/STM32F10x_StdPeriph_Driver/stm32f10x_usart.c ****   }
 364:../../../SDK_embedded/libs/stm32/STM32F10x_StdPeriph_Driver/stm32f10x_usart.c **** }
 365:../../../SDK_embedded/libs/stm32/STM32F10x_StdPeriph_Driver/stm32f10x_usart.c **** 
 366:../../../SDK_embedded/libs/stm32/STM32F10x_StdPeriph_Driver/stm32f10x_usart.c **** /**
 367:../../../SDK_embedded/libs/stm32/STM32F10x_StdPeriph_Driver/stm32f10x_usart.c ****   * @brief  Enables or disables the specified USART interrupts.
 368:../../../SDK_embedded/libs/stm32/STM32F10x_StdPeriph_Driver/stm32f10x_usart.c ****   * @param  USARTx: Select the USART or the UART peripheral. 
 369:../../../SDK_embedded/libs/stm32/STM32F10x_StdPeriph_Driver/stm32f10x_usart.c ****   *   This parameter can be one of the following values:
 370:../../../SDK_embedded/libs/stm32/STM32F10x_StdPeriph_Driver/stm32f10x_usart.c ****   *   USART1, USART2, USART3, UART4 or UART5.
 371:../../../SDK_embedded/libs/stm32/STM32F10x_StdPeriph_Driver/stm32f10x_usart.c ****   * @param  USART_IT: specifies the USART interrupt sources to be enabled or disabled.
 372:../../../SDK_embedded/libs/stm32/STM32F10x_StdPeriph_Driver/stm32f10x_usart.c ****   *   This parameter can be one of the following values:
 373:../../../SDK_embedded/libs/stm32/STM32F10x_StdPeriph_Driver/stm32f10x_usart.c ****   *     @arg USART_IT_CTS:  CTS change interrupt (not available for UART4 and UART5)
 374:../../../SDK_embedded/libs/stm32/STM32F10x_StdPeriph_Driver/stm32f10x_usart.c ****   *     @arg USART_IT_LBD:  LIN Break detection interrupt
 375:../../../SDK_embedded/libs/stm32/STM32F10x_StdPeriph_Driver/stm32f10x_usart.c ****   *     @arg USART_IT_TXE:  Tansmit Data Register empty interrupt
 376:../../../SDK_embedded/libs/stm32/STM32F10x_StdPeriph_Driver/stm32f10x_usart.c ****   *     @arg USART_IT_TC:   Transmission complete interrupt
 377:../../../SDK_embedded/libs/stm32/STM32F10x_StdPeriph_Driver/stm32f10x_usart.c ****   *     @arg USART_IT_RXNE: Receive Data register not empty interrupt
 378:../../../SDK_embedded/libs/stm32/STM32F10x_StdPeriph_Driver/stm32f10x_usart.c ****   *     @arg USART_IT_IDLE: Idle line detection interrupt
 379:../../../SDK_embedded/libs/stm32/STM32F10x_StdPeriph_Driver/stm32f10x_usart.c ****   *     @arg USART_IT_PE:   Parity Error interrupt
 380:../../../SDK_embedded/libs/stm32/STM32F10x_StdPeriph_Driver/stm32f10x_usart.c ****   *     @arg USART_IT_ERR:  Error interrupt(Frame error, noise error, overrun error)
 381:../../../SDK_embedded/libs/stm32/STM32F10x_StdPeriph_Driver/stm32f10x_usart.c ****   * @param  NewState: new state of the specified USARTx interrupts.
 382:../../../SDK_embedded/libs/stm32/STM32F10x_StdPeriph_Driver/stm32f10x_usart.c ****   *   This parameter can be: ENABLE or DISABLE.
 383:../../../SDK_embedded/libs/stm32/STM32F10x_StdPeriph_Driver/stm32f10x_usart.c ****   * @retval None
 384:../../../SDK_embedded/libs/stm32/STM32F10x_StdPeriph_Driver/stm32f10x_usart.c ****   */
 385:../../../SDK_embedded/libs/stm32/STM32F10x_StdPeriph_Driver/stm32f10x_usart.c **** void USART_ITConfig(USART_TypeDef* USARTx, uint16_t USART_IT, FunctionalState NewState)
 386:../../../SDK_embedded/libs/stm32/STM32F10x_StdPeriph_Driver/stm32f10x_usart.c **** {
 17095              		.loc 1 386 0
 17096              		.cfi_startproc
 17097              		@ args = 0, pretend = 0, frame = 0
 17098              		@ frame_needed = 0, uses_anonymous_args = 0
 17099              	.LVL42:
 387:../../../SDK_embedded/libs/stm32/STM32F10x_StdPeriph_Driver/stm32f10x_usart.c ****   uint32_t usartreg = 0x00, itpos = 0x00, itmask = 0x00;
 388:../../../SDK_embedded/libs/stm32/STM32F10x_StdPeriph_Driver/stm32f10x_usart.c ****   uint32_t usartxbase = 0x00;
 389:../../../SDK_embedded/libs/stm32/STM32F10x_StdPeriph_Driver/stm32f10x_usart.c ****   /* Check the parameters */
 390:../../../SDK_embedded/libs/stm32/STM32F10x_StdPeriph_Driver/stm32f10x_usart.c ****   assert_param(IS_USART_ALL_PERIPH(USARTx));
 391:../../../SDK_embedded/libs/stm32/STM32F10x_StdPeriph_Driver/stm32f10x_usart.c ****   assert_param(IS_USART_CONFIG_IT(USART_IT));
 392:../../../SDK_embedded/libs/stm32/STM32F10x_StdPeriph_Driver/stm32f10x_usart.c ****   assert_param(IS_FUNCTIONAL_STATE(NewState));
 393:../../../SDK_embedded/libs/stm32/STM32F10x_StdPeriph_Driver/stm32f10x_usart.c ****   /* The CTS interrupt is not available for UART4 and UART5 */
 394:../../../SDK_embedded/libs/stm32/STM32F10x_StdPeriph_Driver/stm32f10x_usart.c ****   if (USART_IT == USART_IT_CTS)
 395:../../../SDK_embedded/libs/stm32/STM32F10x_StdPeriph_Driver/stm32f10x_usart.c ****   {
 396:../../../SDK_embedded/libs/stm32/STM32F10x_StdPeriph_Driver/stm32f10x_usart.c ****     assert_param(IS_USART_123_PERIPH(USARTx));
 397:../../../SDK_embedded/libs/stm32/STM32F10x_StdPeriph_Driver/stm32f10x_usart.c ****   }   
 398:../../../SDK_embedded/libs/stm32/STM32F10x_StdPeriph_Driver/stm32f10x_usart.c ****   
 399:../../../SDK_embedded/libs/stm32/STM32F10x_StdPeriph_Driver/stm32f10x_usart.c ****   usartxbase = (uint32_t)USARTx;
 400:../../../SDK_embedded/libs/stm32/STM32F10x_StdPeriph_Driver/stm32f10x_usart.c **** 
 401:../../../SDK_embedded/libs/stm32/STM32F10x_StdPeriph_Driver/stm32f10x_usart.c ****   /* Get the USART register index */
 402:../../../SDK_embedded/libs/stm32/STM32F10x_StdPeriph_Driver/stm32f10x_usart.c ****   usartreg = (((uint8_t)USART_IT) >> 0x05);
 17100              		.loc 1 402 0
 17101 0000 C1F34213 		ubfx	r3, r1, #5, #3
 17102              	.LVL43:
 386:../../../SDK_embedded/libs/stm32/STM32F10x_StdPeriph_Driver/stm32f10x_usart.c **** {
 17103              		.loc 1 386 0
 17104 0004 10B5     		push	{r4, lr}
 17105              	.LCFI4:
 17106              		.cfi_def_cfa_offset 8
 17107              		.cfi_offset 14, -4
 17108              		.cfi_offset 4, -8
 403:../../../SDK_embedded/libs/stm32/STM32F10x_StdPeriph_Driver/stm32f10x_usart.c **** 
 404:../../../SDK_embedded/libs/stm32/STM32F10x_StdPeriph_Driver/stm32f10x_usart.c ****   /* Get the interrupt position */
 405:../../../SDK_embedded/libs/stm32/STM32F10x_StdPeriph_Driver/stm32f10x_usart.c ****   itpos = USART_IT & IT_Mask;
 17109              		.loc 1 405 0
 17110 0006 01F01F01 		and	r1, r1, #31
 17111              	.LVL44:
 406:../../../SDK_embedded/libs/stm32/STM32F10x_StdPeriph_Driver/stm32f10x_usart.c ****   itmask = (((uint32_t)0x01) << itpos);
 17112              		.loc 1 406 0
 17113 000a 0124     		movs	r4, #1
 17114 000c 14FA01F1 		lsls	r1, r4, r1
 17115              	.LVL45:
 407:../../../SDK_embedded/libs/stm32/STM32F10x_StdPeriph_Driver/stm32f10x_usart.c ****     
 408:../../../SDK_embedded/libs/stm32/STM32F10x_StdPeriph_Driver/stm32f10x_usart.c ****   if (usartreg == 0x01) /* The IT is in CR1 register */
 17116              		.loc 1 408 0
 17117 0010 A342     		cmp	r3, r4
 17118 0012 01D1     		bne	.L29
 17119              	.LVL46:
 409:../../../SDK_embedded/libs/stm32/STM32F10x_StdPeriph_Driver/stm32f10x_usart.c ****   {
 410:../../../SDK_embedded/libs/stm32/STM32F10x_StdPeriph_Driver/stm32f10x_usart.c ****     usartxbase += 0x0C;
 17120              		.loc 1 410 0
 17121 0014 0C30     		adds	r0, r0, #12
 17122              	.LVL47:
 17123 0016 04E0     		b	.L30
 17124              	.LVL48:
 17125              	.L29:
 411:../../../SDK_embedded/libs/stm32/STM32F10x_StdPeriph_Driver/stm32f10x_usart.c ****   }
 412:../../../SDK_embedded/libs/stm32/STM32F10x_StdPeriph_Driver/stm32f10x_usart.c ****   else if (usartreg == 0x02) /* The IT is in CR2 register */
 17126              		.loc 1 412 0
 17127 0018 022B     		cmp	r3, #2
 17128 001a 01D1     		bne	.L31
 413:../../../SDK_embedded/libs/stm32/STM32F10x_StdPeriph_Driver/stm32f10x_usart.c ****   {
 414:../../../SDK_embedded/libs/stm32/STM32F10x_StdPeriph_Driver/stm32f10x_usart.c ****     usartxbase += 0x10;
 17129              		.loc 1 414 0
 17130 001c 1030     		adds	r0, r0, #16
 17131              	.LVL49:
 17132 001e 00E0     		b	.L30
 17133              	.LVL50:
 17134              	.L31:
 415:../../../SDK_embedded/libs/stm32/STM32F10x_StdPeriph_Driver/stm32f10x_usart.c ****   }
 416:../../../SDK_embedded/libs/stm32/STM32F10x_StdPeriph_Driver/stm32f10x_usart.c ****   else /* The IT is in CR3 register */
 417:../../../SDK_embedded/libs/stm32/STM32F10x_StdPeriph_Driver/stm32f10x_usart.c ****   {
 418:../../../SDK_embedded/libs/stm32/STM32F10x_StdPeriph_Driver/stm32f10x_usart.c ****     usartxbase += 0x14; 
 17135              		.loc 1 418 0
 17136 0020 1430     		adds	r0, r0, #20
 17137              	.LVL51:
 17138              	.L30:
 419:../../../SDK_embedded/libs/stm32/STM32F10x_StdPeriph_Driver/stm32f10x_usart.c ****   }
 420:../../../SDK_embedded/libs/stm32/STM32F10x_StdPeriph_Driver/stm32f10x_usart.c ****   if (NewState != DISABLE)
 17139              		.loc 1 420 0
 17140 0022 1AB1     		cbz	r2, .L32
 421:../../../SDK_embedded/libs/stm32/STM32F10x_StdPeriph_Driver/stm32f10x_usart.c ****   {
 422:../../../SDK_embedded/libs/stm32/STM32F10x_StdPeriph_Driver/stm32f10x_usart.c ****     *(__IO uint32_t*)usartxbase  |= itmask;
 17141              		.loc 1 422 0
 17142 0024 0368     		ldr	r3, [r0, #0]
 17143              	.LVL52:
 17144 0026 43EA0101 		orr	r1, r3, r1
 17145              	.LVL53:
 17146 002a 02E0     		b	.L34
 17147              	.LVL54:
 17148              	.L32:
 423:../../../SDK_embedded/libs/stm32/STM32F10x_StdPeriph_Driver/stm32f10x_usart.c ****   }
 424:../../../SDK_embedded/libs/stm32/STM32F10x_StdPeriph_Driver/stm32f10x_usart.c ****   else
 425:../../../SDK_embedded/libs/stm32/STM32F10x_StdPeriph_Driver/stm32f10x_usart.c ****   {
 426:../../../SDK_embedded/libs/stm32/STM32F10x_StdPeriph_Driver/stm32f10x_usart.c ****     *(__IO uint32_t*)usartxbase &= ~itmask;
 17149              		.loc 1 426 0
 17150 002c 0268     		ldr	r2, [r0, #0]
 17151              	.LVL55:
 17152 002e 22EA0101 		bic	r1, r2, r1
 17153              	.LVL56:
 17154              	.L34:
 17155 0032 0160     		str	r1, [r0, #0]
 17156 0034 10BD     		pop	{r4, pc}
 17157              		.cfi_endproc
 17158              	.LFE35:
 17160              		.section	.text.USART_DMACmd,"ax",%progbits
 17161              		.align	1
 17162              		.global	USART_DMACmd
 17163              		.thumb
 17164              		.thumb_func
 17166              	USART_DMACmd:
 17167              	.LFB36:
 427:../../../SDK_embedded/libs/stm32/STM32F10x_StdPeriph_Driver/stm32f10x_usart.c ****   }
 428:../../../SDK_embedded/libs/stm32/STM32F10x_StdPeriph_Driver/stm32f10x_usart.c **** }
 429:../../../SDK_embedded/libs/stm32/STM32F10x_StdPeriph_Driver/stm32f10x_usart.c **** 
 430:../../../SDK_embedded/libs/stm32/STM32F10x_StdPeriph_Driver/stm32f10x_usart.c **** /**
 431:../../../SDK_embedded/libs/stm32/STM32F10x_StdPeriph_Driver/stm32f10x_usart.c ****   * @brief  Enables or disables the USARTs DMA interface.
 432:../../../SDK_embedded/libs/stm32/STM32F10x_StdPeriph_Driver/stm32f10x_usart.c ****   * @param  USARTx: Select the USART or the UART peripheral. 
 433:../../../SDK_embedded/libs/stm32/STM32F10x_StdPeriph_Driver/stm32f10x_usart.c ****   *   This parameter can be one of the following values:
 434:../../../SDK_embedded/libs/stm32/STM32F10x_StdPeriph_Driver/stm32f10x_usart.c ****   *   USART1, USART2, USART3 or UART4.  
 435:../../../SDK_embedded/libs/stm32/STM32F10x_StdPeriph_Driver/stm32f10x_usart.c ****   * @param  USART_DMAReq: specifies the DMA request.
 436:../../../SDK_embedded/libs/stm32/STM32F10x_StdPeriph_Driver/stm32f10x_usart.c ****   *   This parameter can be any combination of the following values:
 437:../../../SDK_embedded/libs/stm32/STM32F10x_StdPeriph_Driver/stm32f10x_usart.c ****   *     @arg USART_DMAReq_Tx: USART DMA transmit request
 438:../../../SDK_embedded/libs/stm32/STM32F10x_StdPeriph_Driver/stm32f10x_usart.c ****   *     @arg USART_DMAReq_Rx: USART DMA receive request
 439:../../../SDK_embedded/libs/stm32/STM32F10x_StdPeriph_Driver/stm32f10x_usart.c ****   * @param  NewState: new state of the DMA Request sources.
 440:../../../SDK_embedded/libs/stm32/STM32F10x_StdPeriph_Driver/stm32f10x_usart.c ****   *   This parameter can be: ENABLE or DISABLE.
 441:../../../SDK_embedded/libs/stm32/STM32F10x_StdPeriph_Driver/stm32f10x_usart.c ****   * @note The DMA mode is not available for UART5.  
 442:../../../SDK_embedded/libs/stm32/STM32F10x_StdPeriph_Driver/stm32f10x_usart.c ****   * @retval None
 443:../../../SDK_embedded/libs/stm32/STM32F10x_StdPeriph_Driver/stm32f10x_usart.c ****   */
 444:../../../SDK_embedded/libs/stm32/STM32F10x_StdPeriph_Driver/stm32f10x_usart.c **** void USART_DMACmd(USART_TypeDef* USARTx, uint16_t USART_DMAReq, FunctionalState NewState)
 445:../../../SDK_embedded/libs/stm32/STM32F10x_StdPeriph_Driver/stm32f10x_usart.c **** {
 17168              		.loc 1 445 0
 17169              		.cfi_startproc
 17170              		@ args = 0, pretend = 0, frame = 0
 17171              		@ frame_needed = 0, uses_anonymous_args = 0
 17172              		@ link register save eliminated.
 17173              	.LVL57:
 446:../../../SDK_embedded/libs/stm32/STM32F10x_StdPeriph_Driver/stm32f10x_usart.c ****   /* Check the parameters */
 447:../../../SDK_embedded/libs/stm32/STM32F10x_StdPeriph_Driver/stm32f10x_usart.c ****   assert_param(IS_USART_1234_PERIPH(USARTx));
 448:../../../SDK_embedded/libs/stm32/STM32F10x_StdPeriph_Driver/stm32f10x_usart.c ****   assert_param(IS_USART_DMAREQ(USART_DMAReq));  
 449:../../../SDK_embedded/libs/stm32/STM32F10x_StdPeriph_Driver/stm32f10x_usart.c ****   assert_param(IS_FUNCTIONAL_STATE(NewState)); 
 450:../../../SDK_embedded/libs/stm32/STM32F10x_StdPeriph_Driver/stm32f10x_usart.c ****   if (NewState != DISABLE)
 17174              		.loc 1 450 0
 17175 0000 1AB1     		cbz	r2, .L36
 451:../../../SDK_embedded/libs/stm32/STM32F10x_StdPeriph_Driver/stm32f10x_usart.c ****   {
 452:../../../SDK_embedded/libs/stm32/STM32F10x_StdPeriph_Driver/stm32f10x_usart.c ****     /* Enable the DMA transfer for selected requests by setting the DMAT and/or
 453:../../../SDK_embedded/libs/stm32/STM32F10x_StdPeriph_Driver/stm32f10x_usart.c ****        DMAR bits in the USART CR3 register */
 454:../../../SDK_embedded/libs/stm32/STM32F10x_StdPeriph_Driver/stm32f10x_usart.c ****     USARTx->CR3 |= USART_DMAReq;
 17176              		.loc 1 454 0
 17177 0002 828A     		ldrh	r2, [r0, #20]
 17178              	.LVL58:
 17179 0004 93B2     		uxth	r3, r2
 17180 0006 1943     		orrs	r1, r1, r3
 17181              	.LVL59:
 17182 0008 04E0     		b	.L38
 17183              	.LVL60:
 17184              	.L36:
 455:../../../SDK_embedded/libs/stm32/STM32F10x_StdPeriph_Driver/stm32f10x_usart.c ****   }
 456:../../../SDK_embedded/libs/stm32/STM32F10x_StdPeriph_Driver/stm32f10x_usart.c ****   else
 457:../../../SDK_embedded/libs/stm32/STM32F10x_StdPeriph_Driver/stm32f10x_usart.c ****   {
 458:../../../SDK_embedded/libs/stm32/STM32F10x_StdPeriph_Driver/stm32f10x_usart.c ****     /* Disable the DMA transfer for selected requests by clearing the DMAT and/or
 459:../../../SDK_embedded/libs/stm32/STM32F10x_StdPeriph_Driver/stm32f10x_usart.c ****        DMAR bits in the USART CR3 register */
 460:../../../SDK_embedded/libs/stm32/STM32F10x_StdPeriph_Driver/stm32f10x_usart.c ****     USARTx->CR3 &= (uint16_t)~USART_DMAReq;
 17185              		.loc 1 460 0
 17186 000a 838A     		ldrh	r3, [r0, #20]
 17187 000c 1FFA83FC 		uxth	ip, r3
 17188 0010 2CEA0101 		bic	r1, ip, r1
 17189              	.LVL61:
 17190              	.L38:
 17191 0014 8182     		strh	r1, [r0, #20]	@ movhi
 17192 0016 7047     		bx	lr
 17193              		.cfi_endproc
 17194              	.LFE36:
 17196              		.section	.text.USART_SetAddress,"ax",%progbits
 17197              		.align	1
 17198              		.global	USART_SetAddress
 17199              		.thumb
 17200              		.thumb_func
 17202              	USART_SetAddress:
 17203              	.LFB37:
 461:../../../SDK_embedded/libs/stm32/STM32F10x_StdPeriph_Driver/stm32f10x_usart.c ****   }
 462:../../../SDK_embedded/libs/stm32/STM32F10x_StdPeriph_Driver/stm32f10x_usart.c **** }
 463:../../../SDK_embedded/libs/stm32/STM32F10x_StdPeriph_Driver/stm32f10x_usart.c **** 
 464:../../../SDK_embedded/libs/stm32/STM32F10x_StdPeriph_Driver/stm32f10x_usart.c **** /**
 465:../../../SDK_embedded/libs/stm32/STM32F10x_StdPeriph_Driver/stm32f10x_usart.c ****   * @brief  Sets the address of the USART node.
 466:../../../SDK_embedded/libs/stm32/STM32F10x_StdPeriph_Driver/stm32f10x_usart.c ****   * @param  USARTx: Select the USART or the UART peripheral. 
 467:../../../SDK_embedded/libs/stm32/STM32F10x_StdPeriph_Driver/stm32f10x_usart.c ****   *   This parameter can be one of the following values:
 468:../../../SDK_embedded/libs/stm32/STM32F10x_StdPeriph_Driver/stm32f10x_usart.c ****   *   USART1, USART2, USART3, UART4 or UART5.
 469:../../../SDK_embedded/libs/stm32/STM32F10x_StdPeriph_Driver/stm32f10x_usart.c ****   * @param  USART_Address: Indicates the address of the USART node.
 470:../../../SDK_embedded/libs/stm32/STM32F10x_StdPeriph_Driver/stm32f10x_usart.c ****   * @retval None
 471:../../../SDK_embedded/libs/stm32/STM32F10x_StdPeriph_Driver/stm32f10x_usart.c ****   */
 472:../../../SDK_embedded/libs/stm32/STM32F10x_StdPeriph_Driver/stm32f10x_usart.c **** void USART_SetAddress(USART_TypeDef* USARTx, uint8_t USART_Address)
 473:../../../SDK_embedded/libs/stm32/STM32F10x_StdPeriph_Driver/stm32f10x_usart.c **** {
 17204              		.loc 1 473 0
 17205              		.cfi_startproc
 17206              		@ args = 0, pretend = 0, frame = 0
 17207              		@ frame_needed = 0, uses_anonymous_args = 0
 17208              		@ link register save eliminated.
 17209              	.LVL62:
 474:../../../SDK_embedded/libs/stm32/STM32F10x_StdPeriph_Driver/stm32f10x_usart.c ****   /* Check the parameters */
 475:../../../SDK_embedded/libs/stm32/STM32F10x_StdPeriph_Driver/stm32f10x_usart.c ****   assert_param(IS_USART_ALL_PERIPH(USARTx));
 476:../../../SDK_embedded/libs/stm32/STM32F10x_StdPeriph_Driver/stm32f10x_usart.c ****   assert_param(IS_USART_ADDRESS(USART_Address)); 
 477:../../../SDK_embedded/libs/stm32/STM32F10x_StdPeriph_Driver/stm32f10x_usart.c ****     
 478:../../../SDK_embedded/libs/stm32/STM32F10x_StdPeriph_Driver/stm32f10x_usart.c ****   /* Clear the USART address */
 479:../../../SDK_embedded/libs/stm32/STM32F10x_StdPeriph_Driver/stm32f10x_usart.c ****   USARTx->CR2 &= CR2_Address_Mask;
 17210              		.loc 1 479 0
 17211 0000 B0F810C0 		ldrh	ip, [r0, #16]
 17212 0004 2CF00F03 		bic	r3, ip, #15
 17213 0008 1A04     		lsls	r2, r3, #16
 17214 000a 130C     		lsrs	r3, r2, #16
 17215 000c 0382     		strh	r3, [r0, #16]	@ movhi
 480:../../../SDK_embedded/libs/stm32/STM32F10x_StdPeriph_Driver/stm32f10x_usart.c ****   /* Set the USART address node */
 481:../../../SDK_embedded/libs/stm32/STM32F10x_StdPeriph_Driver/stm32f10x_usart.c ****   USARTx->CR2 |= USART_Address;
 17216              		.loc 1 481 0
 17217 000e 028A     		ldrh	r2, [r0, #16]
 17218 0010 93B2     		uxth	r3, r2
 17219 0012 1943     		orrs	r1, r1, r3
 17220              	.LVL63:
 17221 0014 0182     		strh	r1, [r0, #16]	@ movhi
 482:../../../SDK_embedded/libs/stm32/STM32F10x_StdPeriph_Driver/stm32f10x_usart.c **** }
 17222              		.loc 1 482 0
 17223 0016 7047     		bx	lr
 17224              		.cfi_endproc
 17225              	.LFE37:
 17227              		.section	.text.USART_WakeUpConfig,"ax",%progbits
 17228              		.align	1
 17229              		.global	USART_WakeUpConfig
 17230              		.thumb
 17231              		.thumb_func
 17233              	USART_WakeUpConfig:
 17234              	.LFB38:
 483:../../../SDK_embedded/libs/stm32/STM32F10x_StdPeriph_Driver/stm32f10x_usart.c **** 
 484:../../../SDK_embedded/libs/stm32/STM32F10x_StdPeriph_Driver/stm32f10x_usart.c **** /**
 485:../../../SDK_embedded/libs/stm32/STM32F10x_StdPeriph_Driver/stm32f10x_usart.c ****   * @brief  Selects the USART WakeUp method.
 486:../../../SDK_embedded/libs/stm32/STM32F10x_StdPeriph_Driver/stm32f10x_usart.c ****   * @param  USARTx: Select the USART or the UART peripheral. 
 487:../../../SDK_embedded/libs/stm32/STM32F10x_StdPeriph_Driver/stm32f10x_usart.c ****   *   This parameter can be one of the following values:
 488:../../../SDK_embedded/libs/stm32/STM32F10x_StdPeriph_Driver/stm32f10x_usart.c ****   *   USART1, USART2, USART3, UART4 or UART5.
 489:../../../SDK_embedded/libs/stm32/STM32F10x_StdPeriph_Driver/stm32f10x_usart.c ****   * @param  USART_WakeUp: specifies the USART wakeup method.
 490:../../../SDK_embedded/libs/stm32/STM32F10x_StdPeriph_Driver/stm32f10x_usart.c ****   *   This parameter can be one of the following values:
 491:../../../SDK_embedded/libs/stm32/STM32F10x_StdPeriph_Driver/stm32f10x_usart.c ****   *     @arg USART_WakeUp_IdleLine: WakeUp by an idle line detection
 492:../../../SDK_embedded/libs/stm32/STM32F10x_StdPeriph_Driver/stm32f10x_usart.c ****   *     @arg USART_WakeUp_AddressMark: WakeUp by an address mark
 493:../../../SDK_embedded/libs/stm32/STM32F10x_StdPeriph_Driver/stm32f10x_usart.c ****   * @retval None
 494:../../../SDK_embedded/libs/stm32/STM32F10x_StdPeriph_Driver/stm32f10x_usart.c ****   */
 495:../../../SDK_embedded/libs/stm32/STM32F10x_StdPeriph_Driver/stm32f10x_usart.c **** void USART_WakeUpConfig(USART_TypeDef* USARTx, uint16_t USART_WakeUp)
 496:../../../SDK_embedded/libs/stm32/STM32F10x_StdPeriph_Driver/stm32f10x_usart.c **** {
 17235              		.loc 1 496 0
 17236              		.cfi_startproc
 17237              		@ args = 0, pretend = 0, frame = 0
 17238              		@ frame_needed = 0, uses_anonymous_args = 0
 17239              		@ link register save eliminated.
 17240              	.LVL64:
 497:../../../SDK_embedded/libs/stm32/STM32F10x_StdPeriph_Driver/stm32f10x_usart.c ****   /* Check the parameters */
 498:../../../SDK_embedded/libs/stm32/STM32F10x_StdPeriph_Driver/stm32f10x_usart.c ****   assert_param(IS_USART_ALL_PERIPH(USARTx));
 499:../../../SDK_embedded/libs/stm32/STM32F10x_StdPeriph_Driver/stm32f10x_usart.c ****   assert_param(IS_USART_WAKEUP(USART_WakeUp));
 500:../../../SDK_embedded/libs/stm32/STM32F10x_StdPeriph_Driver/stm32f10x_usart.c ****   
 501:../../../SDK_embedded/libs/stm32/STM32F10x_StdPeriph_Driver/stm32f10x_usart.c ****   USARTx->CR1 &= CR1_WAKE_Mask;
 17241              		.loc 1 501 0
 17242 0000 B0F80CC0 		ldrh	ip, [r0, #12]
 17243 0004 2CF40063 		bic	r3, ip, #2048
 17244 0008 1A04     		lsls	r2, r3, #16
 17245 000a 130C     		lsrs	r3, r2, #16
 17246 000c 8381     		strh	r3, [r0, #12]	@ movhi
 502:../../../SDK_embedded/libs/stm32/STM32F10x_StdPeriph_Driver/stm32f10x_usart.c ****   USARTx->CR1 |= USART_WakeUp;
 17247              		.loc 1 502 0
 17248 000e 8289     		ldrh	r2, [r0, #12]
 17249 0010 93B2     		uxth	r3, r2
 17250 0012 1943     		orrs	r1, r1, r3
 17251              	.LVL65:
 17252 0014 8181     		strh	r1, [r0, #12]	@ movhi
 503:../../../SDK_embedded/libs/stm32/STM32F10x_StdPeriph_Driver/stm32f10x_usart.c **** }
 17253              		.loc 1 503 0
 17254 0016 7047     		bx	lr
 17255              		.cfi_endproc
 17256              	.LFE38:
 17258              		.section	.text.USART_ReceiverWakeUpCmd,"ax",%progbits
 17259              		.align	1
 17260              		.global	USART_ReceiverWakeUpCmd
 17261              		.thumb
 17262              		.thumb_func
 17264              	USART_ReceiverWakeUpCmd:
 17265              	.LFB39:
 504:../../../SDK_embedded/libs/stm32/STM32F10x_StdPeriph_Driver/stm32f10x_usart.c **** 
 505:../../../SDK_embedded/libs/stm32/STM32F10x_StdPeriph_Driver/stm32f10x_usart.c **** /**
 506:../../../SDK_embedded/libs/stm32/STM32F10x_StdPeriph_Driver/stm32f10x_usart.c ****   * @brief  Determines if the USART is in mute mode or not.
 507:../../../SDK_embedded/libs/stm32/STM32F10x_StdPeriph_Driver/stm32f10x_usart.c ****   * @param  USARTx: Select the USART or the UART peripheral. 
 508:../../../SDK_embedded/libs/stm32/STM32F10x_StdPeriph_Driver/stm32f10x_usart.c ****   *   This parameter can be one of the following values:
 509:../../../SDK_embedded/libs/stm32/STM32F10x_StdPeriph_Driver/stm32f10x_usart.c ****   *   USART1, USART2, USART3, UART4 or UART5.
 510:../../../SDK_embedded/libs/stm32/STM32F10x_StdPeriph_Driver/stm32f10x_usart.c ****   * @param  NewState: new state of the USART mute mode.
 511:../../../SDK_embedded/libs/stm32/STM32F10x_StdPeriph_Driver/stm32f10x_usart.c ****   *   This parameter can be: ENABLE or DISABLE.
 512:../../../SDK_embedded/libs/stm32/STM32F10x_StdPeriph_Driver/stm32f10x_usart.c ****   * @retval None
 513:../../../SDK_embedded/libs/stm32/STM32F10x_StdPeriph_Driver/stm32f10x_usart.c ****   */
 514:../../../SDK_embedded/libs/stm32/STM32F10x_StdPeriph_Driver/stm32f10x_usart.c **** void USART_ReceiverWakeUpCmd(USART_TypeDef* USARTx, FunctionalState NewState)
 515:../../../SDK_embedded/libs/stm32/STM32F10x_StdPeriph_Driver/stm32f10x_usart.c **** {
 17266              		.loc 1 515 0
 17267              		.cfi_startproc
 17268              		@ args = 0, pretend = 0, frame = 0
 17269              		@ frame_needed = 0, uses_anonymous_args = 0
 17270              		@ link register save eliminated.
 17271              	.LVL66:
 516:../../../SDK_embedded/libs/stm32/STM32F10x_StdPeriph_Driver/stm32f10x_usart.c ****   /* Check the parameters */
 517:../../../SDK_embedded/libs/stm32/STM32F10x_StdPeriph_Driver/stm32f10x_usart.c ****   assert_param(IS_USART_ALL_PERIPH(USARTx));
 518:../../../SDK_embedded/libs/stm32/STM32F10x_StdPeriph_Driver/stm32f10x_usart.c ****   assert_param(IS_FUNCTIONAL_STATE(NewState)); 
 519:../../../SDK_embedded/libs/stm32/STM32F10x_StdPeriph_Driver/stm32f10x_usart.c ****   
 520:../../../SDK_embedded/libs/stm32/STM32F10x_StdPeriph_Driver/stm32f10x_usart.c ****   if (NewState != DISABLE)
 17272              		.loc 1 520 0
 17273 0000 21B1     		cbz	r1, .L42
 521:../../../SDK_embedded/libs/stm32/STM32F10x_StdPeriph_Driver/stm32f10x_usart.c ****   {
 522:../../../SDK_embedded/libs/stm32/STM32F10x_StdPeriph_Driver/stm32f10x_usart.c ****     /* Enable the USART mute mode  by setting the RWU bit in the CR1 register */
 523:../../../SDK_embedded/libs/stm32/STM32F10x_StdPeriph_Driver/stm32f10x_usart.c ****     USARTx->CR1 |= CR1_RWU_Set;
 17274              		.loc 1 523 0
 17275 0002 8189     		ldrh	r1, [r0, #12]
 17276              	.LVL67:
 17277 0004 8BB2     		uxth	r3, r1
 17278 0006 43F00203 		orr	r3, r3, #2
 17279 000a 05E0     		b	.L44
 17280              	.LVL68:
 17281              	.L42:
 524:../../../SDK_embedded/libs/stm32/STM32F10x_StdPeriph_Driver/stm32f10x_usart.c ****   }
 525:../../../SDK_embedded/libs/stm32/STM32F10x_StdPeriph_Driver/stm32f10x_usart.c ****   else
 526:../../../SDK_embedded/libs/stm32/STM32F10x_StdPeriph_Driver/stm32f10x_usart.c ****   {
 527:../../../SDK_embedded/libs/stm32/STM32F10x_StdPeriph_Driver/stm32f10x_usart.c ****     /* Disable the USART mute mode by clearing the RWU bit in the CR1 register */
 528:../../../SDK_embedded/libs/stm32/STM32F10x_StdPeriph_Driver/stm32f10x_usart.c ****     USARTx->CR1 &= CR1_RWU_Reset;
 17282              		.loc 1 528 0
 17283 000c B0F80CC0 		ldrh	ip, [r0, #12]
 17284 0010 2CF00203 		bic	r3, ip, #2
 17285 0014 1A04     		lsls	r2, r3, #16
 17286 0016 130C     		lsrs	r3, r2, #16
 17287              	.LVL69:
 17288              	.L44:
 17289 0018 8381     		strh	r3, [r0, #12]	@ movhi
 17290 001a 7047     		bx	lr
 17291              		.cfi_endproc
 17292              	.LFE39:
 17294              		.section	.text.USART_LINBreakDetectLengthConfig,"ax",%progbits
 17295              		.align	1
 17296              		.global	USART_LINBreakDetectLengthConfig
 17297              		.thumb
 17298              		.thumb_func
 17300              	USART_LINBreakDetectLengthConfig:
 17301              	.LFB40:
 529:../../../SDK_embedded/libs/stm32/STM32F10x_StdPeriph_Driver/stm32f10x_usart.c ****   }
 530:../../../SDK_embedded/libs/stm32/STM32F10x_StdPeriph_Driver/stm32f10x_usart.c **** }
 531:../../../SDK_embedded/libs/stm32/STM32F10x_StdPeriph_Driver/stm32f10x_usart.c **** 
 532:../../../SDK_embedded/libs/stm32/STM32F10x_StdPeriph_Driver/stm32f10x_usart.c **** /**
 533:../../../SDK_embedded/libs/stm32/STM32F10x_StdPeriph_Driver/stm32f10x_usart.c ****   * @brief  Sets the USART LIN Break detection length.
 534:../../../SDK_embedded/libs/stm32/STM32F10x_StdPeriph_Driver/stm32f10x_usart.c ****   * @param  USARTx: Select the USART or the UART peripheral. 
 535:../../../SDK_embedded/libs/stm32/STM32F10x_StdPeriph_Driver/stm32f10x_usart.c ****   *   This parameter can be one of the following values:
 536:../../../SDK_embedded/libs/stm32/STM32F10x_StdPeriph_Driver/stm32f10x_usart.c ****   *   USART1, USART2, USART3, UART4 or UART5.
 537:../../../SDK_embedded/libs/stm32/STM32F10x_StdPeriph_Driver/stm32f10x_usart.c ****   * @param  USART_LINBreakDetectLength: specifies the LIN break detection length.
 538:../../../SDK_embedded/libs/stm32/STM32F10x_StdPeriph_Driver/stm32f10x_usart.c ****   *   This parameter can be one of the following values:
 539:../../../SDK_embedded/libs/stm32/STM32F10x_StdPeriph_Driver/stm32f10x_usart.c ****   *     @arg USART_LINBreakDetectLength_10b: 10-bit break detection
 540:../../../SDK_embedded/libs/stm32/STM32F10x_StdPeriph_Driver/stm32f10x_usart.c ****   *     @arg USART_LINBreakDetectLength_11b: 11-bit break detection
 541:../../../SDK_embedded/libs/stm32/STM32F10x_StdPeriph_Driver/stm32f10x_usart.c ****   * @retval None
 542:../../../SDK_embedded/libs/stm32/STM32F10x_StdPeriph_Driver/stm32f10x_usart.c ****   */
 543:../../../SDK_embedded/libs/stm32/STM32F10x_StdPeriph_Driver/stm32f10x_usart.c **** void USART_LINBreakDetectLengthConfig(USART_TypeDef* USARTx, uint16_t USART_LINBreakDetectLength)
 544:../../../SDK_embedded/libs/stm32/STM32F10x_StdPeriph_Driver/stm32f10x_usart.c **** {
 17302              		.loc 1 544 0
 17303              		.cfi_startproc
 17304              		@ args = 0, pretend = 0, frame = 0
 17305              		@ frame_needed = 0, uses_anonymous_args = 0
 17306              		@ link register save eliminated.
 17307              	.LVL70:
 545:../../../SDK_embedded/libs/stm32/STM32F10x_StdPeriph_Driver/stm32f10x_usart.c ****   /* Check the parameters */
 546:../../../SDK_embedded/libs/stm32/STM32F10x_StdPeriph_Driver/stm32f10x_usart.c ****   assert_param(IS_USART_ALL_PERIPH(USARTx));
 547:../../../SDK_embedded/libs/stm32/STM32F10x_StdPeriph_Driver/stm32f10x_usart.c ****   assert_param(IS_USART_LIN_BREAK_DETECT_LENGTH(USART_LINBreakDetectLength));
 548:../../../SDK_embedded/libs/stm32/STM32F10x_StdPeriph_Driver/stm32f10x_usart.c ****   
 549:../../../SDK_embedded/libs/stm32/STM32F10x_StdPeriph_Driver/stm32f10x_usart.c ****   USARTx->CR2 &= CR2_LBDL_Mask;
 17308              		.loc 1 549 0
 17309 0000 B0F810C0 		ldrh	ip, [r0, #16]
 17310 0004 2CF02003 		bic	r3, ip, #32
 17311 0008 1A04     		lsls	r2, r3, #16
 17312 000a 130C     		lsrs	r3, r2, #16
 17313 000c 0382     		strh	r3, [r0, #16]	@ movhi
 550:../../../SDK_embedded/libs/stm32/STM32F10x_StdPeriph_Driver/stm32f10x_usart.c ****   USARTx->CR2 |= USART_LINBreakDetectLength;  
 17314              		.loc 1 550 0
 17315 000e 028A     		ldrh	r2, [r0, #16]
 17316 0010 93B2     		uxth	r3, r2
 17317 0012 1943     		orrs	r1, r1, r3
 17318              	.LVL71:
 17319 0014 0182     		strh	r1, [r0, #16]	@ movhi
 551:../../../SDK_embedded/libs/stm32/STM32F10x_StdPeriph_Driver/stm32f10x_usart.c **** }
 17320              		.loc 1 551 0
 17321 0016 7047     		bx	lr
 17322              		.cfi_endproc
 17323              	.LFE40:
 17325              		.section	.text.USART_LINCmd,"ax",%progbits
 17326              		.align	1
 17327              		.global	USART_LINCmd
 17328              		.thumb
 17329              		.thumb_func
 17331              	USART_LINCmd:
 17332              	.LFB41:
 552:../../../SDK_embedded/libs/stm32/STM32F10x_StdPeriph_Driver/stm32f10x_usart.c **** 
 553:../../../SDK_embedded/libs/stm32/STM32F10x_StdPeriph_Driver/stm32f10x_usart.c **** /**
 554:../../../SDK_embedded/libs/stm32/STM32F10x_StdPeriph_Driver/stm32f10x_usart.c ****   * @brief  Enables or disables the USARTs LIN mode.
 555:../../../SDK_embedded/libs/stm32/STM32F10x_StdPeriph_Driver/stm32f10x_usart.c ****   * @param  USARTx: Select the USART or the UART peripheral. 
 556:../../../SDK_embedded/libs/stm32/STM32F10x_StdPeriph_Driver/stm32f10x_usart.c ****   *   This parameter can be one of the following values:
 557:../../../SDK_embedded/libs/stm32/STM32F10x_StdPeriph_Driver/stm32f10x_usart.c ****   *   USART1, USART2, USART3, UART4 or UART5.
 558:../../../SDK_embedded/libs/stm32/STM32F10x_StdPeriph_Driver/stm32f10x_usart.c ****   * @param  NewState: new state of the USART LIN mode.
 559:../../../SDK_embedded/libs/stm32/STM32F10x_StdPeriph_Driver/stm32f10x_usart.c ****   *   This parameter can be: ENABLE or DISABLE.
 560:../../../SDK_embedded/libs/stm32/STM32F10x_StdPeriph_Driver/stm32f10x_usart.c ****   * @retval None
 561:../../../SDK_embedded/libs/stm32/STM32F10x_StdPeriph_Driver/stm32f10x_usart.c ****   */
 562:../../../SDK_embedded/libs/stm32/STM32F10x_StdPeriph_Driver/stm32f10x_usart.c **** void USART_LINCmd(USART_TypeDef* USARTx, FunctionalState NewState)
 563:../../../SDK_embedded/libs/stm32/STM32F10x_StdPeriph_Driver/stm32f10x_usart.c **** {
 17333              		.loc 1 563 0
 17334              		.cfi_startproc
 17335              		@ args = 0, pretend = 0, frame = 0
 17336              		@ frame_needed = 0, uses_anonymous_args = 0
 17337              		@ link register save eliminated.
 17338              	.LVL72:
 564:../../../SDK_embedded/libs/stm32/STM32F10x_StdPeriph_Driver/stm32f10x_usart.c ****   /* Check the parameters */
 565:../../../SDK_embedded/libs/stm32/STM32F10x_StdPeriph_Driver/stm32f10x_usart.c ****   assert_param(IS_USART_ALL_PERIPH(USARTx));
 566:../../../SDK_embedded/libs/stm32/STM32F10x_StdPeriph_Driver/stm32f10x_usart.c ****   assert_param(IS_FUNCTIONAL_STATE(NewState));
 567:../../../SDK_embedded/libs/stm32/STM32F10x_StdPeriph_Driver/stm32f10x_usart.c ****   
 568:../../../SDK_embedded/libs/stm32/STM32F10x_StdPeriph_Driver/stm32f10x_usart.c ****   if (NewState != DISABLE)
 17339              		.loc 1 568 0
 17340 0000 21B1     		cbz	r1, .L47
 569:../../../SDK_embedded/libs/stm32/STM32F10x_StdPeriph_Driver/stm32f10x_usart.c ****   {
 570:../../../SDK_embedded/libs/stm32/STM32F10x_StdPeriph_Driver/stm32f10x_usart.c ****     /* Enable the LIN mode by setting the LINEN bit in the CR2 register */
 571:../../../SDK_embedded/libs/stm32/STM32F10x_StdPeriph_Driver/stm32f10x_usart.c ****     USARTx->CR2 |= CR2_LINEN_Set;
 17341              		.loc 1 571 0
 17342 0002 018A     		ldrh	r1, [r0, #16]
 17343              	.LVL73:
 17344 0004 8BB2     		uxth	r3, r1
 17345 0006 43F48043 		orr	r3, r3, #16384
 17346 000a 05E0     		b	.L49
 17347              	.LVL74:
 17348              	.L47:
 572:../../../SDK_embedded/libs/stm32/STM32F10x_StdPeriph_Driver/stm32f10x_usart.c ****   }
 573:../../../SDK_embedded/libs/stm32/STM32F10x_StdPeriph_Driver/stm32f10x_usart.c ****   else
 574:../../../SDK_embedded/libs/stm32/STM32F10x_StdPeriph_Driver/stm32f10x_usart.c ****   {
 575:../../../SDK_embedded/libs/stm32/STM32F10x_StdPeriph_Driver/stm32f10x_usart.c ****     /* Disable the LIN mode by clearing the LINEN bit in the CR2 register */
 576:../../../SDK_embedded/libs/stm32/STM32F10x_StdPeriph_Driver/stm32f10x_usart.c ****     USARTx->CR2 &= CR2_LINEN_Reset;
 17349              		.loc 1 576 0
 17350 000c B0F810C0 		ldrh	ip, [r0, #16]
 17351 0010 2CF48043 		bic	r3, ip, #16384
 17352 0014 1A04     		lsls	r2, r3, #16
 17353 0016 130C     		lsrs	r3, r2, #16
 17354              	.LVL75:
 17355              	.L49:
 17356 0018 0382     		strh	r3, [r0, #16]	@ movhi
 17357 001a 7047     		bx	lr
 17358              		.cfi_endproc
 17359              	.LFE41:
 17361              		.section	.text.USART_SendData,"ax",%progbits
 17362              		.align	1
 17363              		.global	USART_SendData
 17364              		.thumb
 17365              		.thumb_func
 17367              	USART_SendData:
 17368              	.LFB42:
 577:../../../SDK_embedded/libs/stm32/STM32F10x_StdPeriph_Driver/stm32f10x_usart.c ****   }
 578:../../../SDK_embedded/libs/stm32/STM32F10x_StdPeriph_Driver/stm32f10x_usart.c **** }
 579:../../../SDK_embedded/libs/stm32/STM32F10x_StdPeriph_Driver/stm32f10x_usart.c **** 
 580:../../../SDK_embedded/libs/stm32/STM32F10x_StdPeriph_Driver/stm32f10x_usart.c **** /**
 581:../../../SDK_embedded/libs/stm32/STM32F10x_StdPeriph_Driver/stm32f10x_usart.c ****   * @brief  Transmits single data through the USARTx peripheral.
 582:../../../SDK_embedded/libs/stm32/STM32F10x_StdPeriph_Driver/stm32f10x_usart.c ****   * @param  USARTx: Select the USART or the UART peripheral. 
 583:../../../SDK_embedded/libs/stm32/STM32F10x_StdPeriph_Driver/stm32f10x_usart.c ****   *   This parameter can be one of the following values:
 584:../../../SDK_embedded/libs/stm32/STM32F10x_StdPeriph_Driver/stm32f10x_usart.c ****   *   USART1, USART2, USART3, UART4 or UART5.
 585:../../../SDK_embedded/libs/stm32/STM32F10x_StdPeriph_Driver/stm32f10x_usart.c ****   * @param  Data: the data to transmit.
 586:../../../SDK_embedded/libs/stm32/STM32F10x_StdPeriph_Driver/stm32f10x_usart.c ****   * @retval None
 587:../../../SDK_embedded/libs/stm32/STM32F10x_StdPeriph_Driver/stm32f10x_usart.c ****   */
 588:../../../SDK_embedded/libs/stm32/STM32F10x_StdPeriph_Driver/stm32f10x_usart.c **** void USART_SendData(USART_TypeDef* USARTx, uint16_t Data)
 589:../../../SDK_embedded/libs/stm32/STM32F10x_StdPeriph_Driver/stm32f10x_usart.c **** {
 17369              		.loc 1 589 0
 17370              		.cfi_startproc
 17371              		@ args = 0, pretend = 0, frame = 0
 17372              		@ frame_needed = 0, uses_anonymous_args = 0
 17373              		@ link register save eliminated.
 17374              	.LVL76:
 590:../../../SDK_embedded/libs/stm32/STM32F10x_StdPeriph_Driver/stm32f10x_usart.c ****   /* Check the parameters */
 591:../../../SDK_embedded/libs/stm32/STM32F10x_StdPeriph_Driver/stm32f10x_usart.c ****   assert_param(IS_USART_ALL_PERIPH(USARTx));
 592:../../../SDK_embedded/libs/stm32/STM32F10x_StdPeriph_Driver/stm32f10x_usart.c ****   assert_param(IS_USART_DATA(Data)); 
 593:../../../SDK_embedded/libs/stm32/STM32F10x_StdPeriph_Driver/stm32f10x_usart.c ****     
 594:../../../SDK_embedded/libs/stm32/STM32F10x_StdPeriph_Driver/stm32f10x_usart.c ****   /* Transmit Data */
 595:../../../SDK_embedded/libs/stm32/STM32F10x_StdPeriph_Driver/stm32f10x_usart.c ****   USARTx->DR = (Data & (uint16_t)0x01FF);
 17375              		.loc 1 595 0
 17376 0000 CA05     		lsls	r2, r1, #23
 17377 0002 D10D     		lsrs	r1, r2, #23
 17378              	.LVL77:
 17379 0004 8180     		strh	r1, [r0, #4]	@ movhi
 596:../../../SDK_embedded/libs/stm32/STM32F10x_StdPeriph_Driver/stm32f10x_usart.c **** }
 17380              		.loc 1 596 0
 17381 0006 7047     		bx	lr
 17382              		.cfi_endproc
 17383              	.LFE42:
 17385              		.section	.text.USART_ReceiveData,"ax",%progbits
 17386              		.align	1
 17387              		.global	USART_ReceiveData
 17388              		.thumb
 17389              		.thumb_func
 17391              	USART_ReceiveData:
 17392              	.LFB43:
 597:../../../SDK_embedded/libs/stm32/STM32F10x_StdPeriph_Driver/stm32f10x_usart.c **** 
 598:../../../SDK_embedded/libs/stm32/STM32F10x_StdPeriph_Driver/stm32f10x_usart.c **** /**
 599:../../../SDK_embedded/libs/stm32/STM32F10x_StdPeriph_Driver/stm32f10x_usart.c ****   * @brief  Returns the most recent received data by the USARTx peripheral.
 600:../../../SDK_embedded/libs/stm32/STM32F10x_StdPeriph_Driver/stm32f10x_usart.c ****   * @param  USARTx: Select the USART or the UART peripheral. 
 601:../../../SDK_embedded/libs/stm32/STM32F10x_StdPeriph_Driver/stm32f10x_usart.c ****   *   This parameter can be one of the following values:
 602:../../../SDK_embedded/libs/stm32/STM32F10x_StdPeriph_Driver/stm32f10x_usart.c ****   *   USART1, USART2, USART3, UART4 or UART5.
 603:../../../SDK_embedded/libs/stm32/STM32F10x_StdPeriph_Driver/stm32f10x_usart.c ****   * @retval The received data.
 604:../../../SDK_embedded/libs/stm32/STM32F10x_StdPeriph_Driver/stm32f10x_usart.c ****   */
 605:../../../SDK_embedded/libs/stm32/STM32F10x_StdPeriph_Driver/stm32f10x_usart.c **** uint16_t USART_ReceiveData(USART_TypeDef* USARTx)
 606:../../../SDK_embedded/libs/stm32/STM32F10x_StdPeriph_Driver/stm32f10x_usart.c **** {
 17393              		.loc 1 606 0
 17394              		.cfi_startproc
 17395              		@ args = 0, pretend = 0, frame = 0
 17396              		@ frame_needed = 0, uses_anonymous_args = 0
 17397              		@ link register save eliminated.
 17398              	.LVL78:
 607:../../../SDK_embedded/libs/stm32/STM32F10x_StdPeriph_Driver/stm32f10x_usart.c ****   /* Check the parameters */
 608:../../../SDK_embedded/libs/stm32/STM32F10x_StdPeriph_Driver/stm32f10x_usart.c ****   assert_param(IS_USART_ALL_PERIPH(USARTx));
 609:../../../SDK_embedded/libs/stm32/STM32F10x_StdPeriph_Driver/stm32f10x_usart.c ****   
 610:../../../SDK_embedded/libs/stm32/STM32F10x_StdPeriph_Driver/stm32f10x_usart.c ****   /* Receive Data */
 611:../../../SDK_embedded/libs/stm32/STM32F10x_StdPeriph_Driver/stm32f10x_usart.c ****   return (uint16_t)(USARTx->DR & (uint16_t)0x01FF);
 17399              		.loc 1 611 0
 17400 0000 8188     		ldrh	r1, [r0, #4]
 17401 0002 C805     		lsls	r0, r1, #23
 17402              	.LVL79:
 17403 0004 C00D     		lsrs	r0, r0, #23
 612:../../../SDK_embedded/libs/stm32/STM32F10x_StdPeriph_Driver/stm32f10x_usart.c **** }
 17404              		.loc 1 612 0
 17405 0006 7047     		bx	lr
 17406              		.cfi_endproc
 17407              	.LFE43:
 17409              		.section	.text.USART_SendBreak,"ax",%progbits
 17410              		.align	1
 17411              		.global	USART_SendBreak
 17412              		.thumb
 17413              		.thumb_func
 17415              	USART_SendBreak:
 17416              	.LFB44:
 613:../../../SDK_embedded/libs/stm32/STM32F10x_StdPeriph_Driver/stm32f10x_usart.c **** 
 614:../../../SDK_embedded/libs/stm32/STM32F10x_StdPeriph_Driver/stm32f10x_usart.c **** /**
 615:../../../SDK_embedded/libs/stm32/STM32F10x_StdPeriph_Driver/stm32f10x_usart.c ****   * @brief  Transmits break characters.
 616:../../../SDK_embedded/libs/stm32/STM32F10x_StdPeriph_Driver/stm32f10x_usart.c ****   * @param  USARTx: Select the USART or the UART peripheral. 
 617:../../../SDK_embedded/libs/stm32/STM32F10x_StdPeriph_Driver/stm32f10x_usart.c ****   *   This parameter can be one of the following values:
 618:../../../SDK_embedded/libs/stm32/STM32F10x_StdPeriph_Driver/stm32f10x_usart.c ****   *   USART1, USART2, USART3, UART4 or UART5.
 619:../../../SDK_embedded/libs/stm32/STM32F10x_StdPeriph_Driver/stm32f10x_usart.c ****   * @retval None
 620:../../../SDK_embedded/libs/stm32/STM32F10x_StdPeriph_Driver/stm32f10x_usart.c ****   */
 621:../../../SDK_embedded/libs/stm32/STM32F10x_StdPeriph_Driver/stm32f10x_usart.c **** void USART_SendBreak(USART_TypeDef* USARTx)
 622:../../../SDK_embedded/libs/stm32/STM32F10x_StdPeriph_Driver/stm32f10x_usart.c **** {
 17417              		.loc 1 622 0
 17418              		.cfi_startproc
 17419              		@ args = 0, pretend = 0, frame = 0
 17420              		@ frame_needed = 0, uses_anonymous_args = 0
 17421              		@ link register save eliminated.
 17422              	.LVL80:
 623:../../../SDK_embedded/libs/stm32/STM32F10x_StdPeriph_Driver/stm32f10x_usart.c ****   /* Check the parameters */
 624:../../../SDK_embedded/libs/stm32/STM32F10x_StdPeriph_Driver/stm32f10x_usart.c ****   assert_param(IS_USART_ALL_PERIPH(USARTx));
 625:../../../SDK_embedded/libs/stm32/STM32F10x_StdPeriph_Driver/stm32f10x_usart.c ****   
 626:../../../SDK_embedded/libs/stm32/STM32F10x_StdPeriph_Driver/stm32f10x_usart.c ****   /* Send break characters */
 627:../../../SDK_embedded/libs/stm32/STM32F10x_StdPeriph_Driver/stm32f10x_usart.c ****   USARTx->CR1 |= CR1_SBK_Set;
 17423              		.loc 1 627 0
 17424 0000 8289     		ldrh	r2, [r0, #12]
 17425 0002 91B2     		uxth	r1, r2
 17426 0004 41F00103 		orr	r3, r1, #1
 17427 0008 8381     		strh	r3, [r0, #12]	@ movhi
 628:../../../SDK_embedded/libs/stm32/STM32F10x_StdPeriph_Driver/stm32f10x_usart.c **** }
 17428              		.loc 1 628 0
 17429 000a 7047     		bx	lr
 17430              		.cfi_endproc
 17431              	.LFE44:
 17433              		.section	.text.USART_SetGuardTime,"ax",%progbits
 17434              		.align	1
 17435              		.global	USART_SetGuardTime
 17436              		.thumb
 17437              		.thumb_func
 17439              	USART_SetGuardTime:
 17440              	.LFB45:
 629:../../../SDK_embedded/libs/stm32/STM32F10x_StdPeriph_Driver/stm32f10x_usart.c **** 
 630:../../../SDK_embedded/libs/stm32/STM32F10x_StdPeriph_Driver/stm32f10x_usart.c **** /**
 631:../../../SDK_embedded/libs/stm32/STM32F10x_StdPeriph_Driver/stm32f10x_usart.c ****   * @brief  Sets the specified USART guard time.
 632:../../../SDK_embedded/libs/stm32/STM32F10x_StdPeriph_Driver/stm32f10x_usart.c ****   * @param  USARTx: where x can be 1, 2 or 3 to select the USART peripheral.
 633:../../../SDK_embedded/libs/stm32/STM32F10x_StdPeriph_Driver/stm32f10x_usart.c ****   * @param  USART_GuardTime: specifies the guard time.
 634:../../../SDK_embedded/libs/stm32/STM32F10x_StdPeriph_Driver/stm32f10x_usart.c ****   * @note The guard time bits are not available for UART4 and UART5.   
 635:../../../SDK_embedded/libs/stm32/STM32F10x_StdPeriph_Driver/stm32f10x_usart.c ****   * @retval None
 636:../../../SDK_embedded/libs/stm32/STM32F10x_StdPeriph_Driver/stm32f10x_usart.c ****   */
 637:../../../SDK_embedded/libs/stm32/STM32F10x_StdPeriph_Driver/stm32f10x_usart.c **** void USART_SetGuardTime(USART_TypeDef* USARTx, uint8_t USART_GuardTime)
 638:../../../SDK_embedded/libs/stm32/STM32F10x_StdPeriph_Driver/stm32f10x_usart.c **** {    
 17441              		.loc 1 638 0
 17442              		.cfi_startproc
 17443              		@ args = 0, pretend = 0, frame = 0
 17444              		@ frame_needed = 0, uses_anonymous_args = 0
 17445              		@ link register save eliminated.
 17446              	.LVL81:
 639:../../../SDK_embedded/libs/stm32/STM32F10x_StdPeriph_Driver/stm32f10x_usart.c ****   /* Check the parameters */
 640:../../../SDK_embedded/libs/stm32/STM32F10x_StdPeriph_Driver/stm32f10x_usart.c ****   assert_param(IS_USART_123_PERIPH(USARTx));
 641:../../../SDK_embedded/libs/stm32/STM32F10x_StdPeriph_Driver/stm32f10x_usart.c ****   
 642:../../../SDK_embedded/libs/stm32/STM32F10x_StdPeriph_Driver/stm32f10x_usart.c ****   /* Clear the USART Guard time */
 643:../../../SDK_embedded/libs/stm32/STM32F10x_StdPeriph_Driver/stm32f10x_usart.c ****   USARTx->GTPR &= GTPR_LSB_Mask;
 17447              		.loc 1 643 0
 17448 0000 038B     		ldrh	r3, [r0, #24]
 17449 0002 5FFA83FC 		uxtb	ip, r3
 17450 0006 A0F818C0 		strh	ip, [r0, #24]	@ movhi
 644:../../../SDK_embedded/libs/stm32/STM32F10x_StdPeriph_Driver/stm32f10x_usart.c ****   /* Set the USART guard time */
 645:../../../SDK_embedded/libs/stm32/STM32F10x_StdPeriph_Driver/stm32f10x_usart.c ****   USARTx->GTPR |= (uint16_t)((uint16_t)USART_GuardTime << 0x08);
 17451              		.loc 1 645 0
 17452 000a 028B     		ldrh	r2, [r0, #24]
 17453 000c 93B2     		uxth	r3, r2
 17454 000e 43EA0121 		orr	r1, r3, r1, lsl #8
 17455              	.LVL82:
 17456 0012 0183     		strh	r1, [r0, #24]	@ movhi
 646:../../../SDK_embedded/libs/stm32/STM32F10x_StdPeriph_Driver/stm32f10x_usart.c **** }
 17457              		.loc 1 646 0
 17458 0014 7047     		bx	lr
 17459              		.cfi_endproc
 17460              	.LFE45:
 17462              		.section	.text.USART_SetPrescaler,"ax",%progbits
 17463              		.align	1
 17464              		.global	USART_SetPrescaler
 17465              		.thumb
 17466              		.thumb_func
 17468              	USART_SetPrescaler:
 17469              	.LFB46:
 647:../../../SDK_embedded/libs/stm32/STM32F10x_StdPeriph_Driver/stm32f10x_usart.c **** 
 648:../../../SDK_embedded/libs/stm32/STM32F10x_StdPeriph_Driver/stm32f10x_usart.c **** /**
 649:../../../SDK_embedded/libs/stm32/STM32F10x_StdPeriph_Driver/stm32f10x_usart.c ****   * @brief  Sets the system clock prescaler.
 650:../../../SDK_embedded/libs/stm32/STM32F10x_StdPeriph_Driver/stm32f10x_usart.c ****   * @param  USARTx: Select the USART or the UART peripheral. 
 651:../../../SDK_embedded/libs/stm32/STM32F10x_StdPeriph_Driver/stm32f10x_usart.c ****   *   This parameter can be one of the following values:
 652:../../../SDK_embedded/libs/stm32/STM32F10x_StdPeriph_Driver/stm32f10x_usart.c ****   *   USART1, USART2, USART3, UART4 or UART5.
 653:../../../SDK_embedded/libs/stm32/STM32F10x_StdPeriph_Driver/stm32f10x_usart.c ****   * @param  USART_Prescaler: specifies the prescaler clock.  
 654:../../../SDK_embedded/libs/stm32/STM32F10x_StdPeriph_Driver/stm32f10x_usart.c ****   * @note   The function is used for IrDA mode with UART4 and UART5.
 655:../../../SDK_embedded/libs/stm32/STM32F10x_StdPeriph_Driver/stm32f10x_usart.c ****   * @retval None
 656:../../../SDK_embedded/libs/stm32/STM32F10x_StdPeriph_Driver/stm32f10x_usart.c ****   */
 657:../../../SDK_embedded/libs/stm32/STM32F10x_StdPeriph_Driver/stm32f10x_usart.c **** void USART_SetPrescaler(USART_TypeDef* USARTx, uint8_t USART_Prescaler)
 658:../../../SDK_embedded/libs/stm32/STM32F10x_StdPeriph_Driver/stm32f10x_usart.c **** { 
 17470              		.loc 1 658 0
 17471              		.cfi_startproc
 17472              		@ args = 0, pretend = 0, frame = 0
 17473              		@ frame_needed = 0, uses_anonymous_args = 0
 17474              		@ link register save eliminated.
 17475              	.LVL83:
 659:../../../SDK_embedded/libs/stm32/STM32F10x_StdPeriph_Driver/stm32f10x_usart.c ****   /* Check the parameters */
 660:../../../SDK_embedded/libs/stm32/STM32F10x_StdPeriph_Driver/stm32f10x_usart.c ****   assert_param(IS_USART_ALL_PERIPH(USARTx));
 661:../../../SDK_embedded/libs/stm32/STM32F10x_StdPeriph_Driver/stm32f10x_usart.c ****   
 662:../../../SDK_embedded/libs/stm32/STM32F10x_StdPeriph_Driver/stm32f10x_usart.c ****   /* Clear the USART prescaler */
 663:../../../SDK_embedded/libs/stm32/STM32F10x_StdPeriph_Driver/stm32f10x_usart.c ****   USARTx->GTPR &= GTPR_MSB_Mask;
 17476              		.loc 1 663 0
 17477 0000 038B     		ldrh	r3, [r0, #24]
 17478 0002 03F47F4C 		and	ip, r3, #65280
 17479 0006 A0F818C0 		strh	ip, [r0, #24]	@ movhi
 664:../../../SDK_embedded/libs/stm32/STM32F10x_StdPeriph_Driver/stm32f10x_usart.c ****   /* Set the USART prescaler */
 665:../../../SDK_embedded/libs/stm32/STM32F10x_StdPeriph_Driver/stm32f10x_usart.c ****   USARTx->GTPR |= USART_Prescaler;
 17480              		.loc 1 665 0
 17481 000a 028B     		ldrh	r2, [r0, #24]
 17482 000c 93B2     		uxth	r3, r2
 17483 000e 1943     		orrs	r1, r1, r3
 17484              	.LVL84:
 17485 0010 0183     		strh	r1, [r0, #24]	@ movhi
 666:../../../SDK_embedded/libs/stm32/STM32F10x_StdPeriph_Driver/stm32f10x_usart.c **** }
 17486              		.loc 1 666 0
 17487 0012 7047     		bx	lr
 17488              		.cfi_endproc
 17489              	.LFE46:
 17491              		.section	.text.USART_SmartCardCmd,"ax",%progbits
 17492              		.align	1
 17493              		.global	USART_SmartCardCmd
 17494              		.thumb
 17495              		.thumb_func
 17497              	USART_SmartCardCmd:
 17498              	.LFB47:
 667:../../../SDK_embedded/libs/stm32/STM32F10x_StdPeriph_Driver/stm32f10x_usart.c **** 
 668:../../../SDK_embedded/libs/stm32/STM32F10x_StdPeriph_Driver/stm32f10x_usart.c **** /**
 669:../../../SDK_embedded/libs/stm32/STM32F10x_StdPeriph_Driver/stm32f10x_usart.c ****   * @brief  Enables or disables the USARTs Smart Card mode.
 670:../../../SDK_embedded/libs/stm32/STM32F10x_StdPeriph_Driver/stm32f10x_usart.c ****   * @param  USARTx: where x can be 1, 2 or 3 to select the USART peripheral.
 671:../../../SDK_embedded/libs/stm32/STM32F10x_StdPeriph_Driver/stm32f10x_usart.c ****   * @param  NewState: new state of the Smart Card mode.
 672:../../../SDK_embedded/libs/stm32/STM32F10x_StdPeriph_Driver/stm32f10x_usart.c ****   *   This parameter can be: ENABLE or DISABLE.     
 673:../../../SDK_embedded/libs/stm32/STM32F10x_StdPeriph_Driver/stm32f10x_usart.c ****   * @note The Smart Card mode is not available for UART4 and UART5. 
 674:../../../SDK_embedded/libs/stm32/STM32F10x_StdPeriph_Driver/stm32f10x_usart.c ****   * @retval None
 675:../../../SDK_embedded/libs/stm32/STM32F10x_StdPeriph_Driver/stm32f10x_usart.c ****   */
 676:../../../SDK_embedded/libs/stm32/STM32F10x_StdPeriph_Driver/stm32f10x_usart.c **** void USART_SmartCardCmd(USART_TypeDef* USARTx, FunctionalState NewState)
 677:../../../SDK_embedded/libs/stm32/STM32F10x_StdPeriph_Driver/stm32f10x_usart.c **** {
 17499              		.loc 1 677 0
 17500              		.cfi_startproc
 17501              		@ args = 0, pretend = 0, frame = 0
 17502              		@ frame_needed = 0, uses_anonymous_args = 0
 17503              		@ link register save eliminated.
 17504              	.LVL85:
 678:../../../SDK_embedded/libs/stm32/STM32F10x_StdPeriph_Driver/stm32f10x_usart.c ****   /* Check the parameters */
 679:../../../SDK_embedded/libs/stm32/STM32F10x_StdPeriph_Driver/stm32f10x_usart.c ****   assert_param(IS_USART_123_PERIPH(USARTx));
 680:../../../SDK_embedded/libs/stm32/STM32F10x_StdPeriph_Driver/stm32f10x_usart.c ****   assert_param(IS_FUNCTIONAL_STATE(NewState));
 681:../../../SDK_embedded/libs/stm32/STM32F10x_StdPeriph_Driver/stm32f10x_usart.c ****   if (NewState != DISABLE)
 17505              		.loc 1 681 0
 17506 0000 21B1     		cbz	r1, .L56
 682:../../../SDK_embedded/libs/stm32/STM32F10x_StdPeriph_Driver/stm32f10x_usart.c ****   {
 683:../../../SDK_embedded/libs/stm32/STM32F10x_StdPeriph_Driver/stm32f10x_usart.c ****     /* Enable the SC mode by setting the SCEN bit in the CR3 register */
 684:../../../SDK_embedded/libs/stm32/STM32F10x_StdPeriph_Driver/stm32f10x_usart.c ****     USARTx->CR3 |= CR3_SCEN_Set;
 17507              		.loc 1 684 0
 17508 0002 818A     		ldrh	r1, [r0, #20]
 17509              	.LVL86:
 17510 0004 8BB2     		uxth	r3, r1
 17511 0006 43F02003 		orr	r3, r3, #32
 17512 000a 05E0     		b	.L58
 17513              	.LVL87:
 17514              	.L56:
 685:../../../SDK_embedded/libs/stm32/STM32F10x_StdPeriph_Driver/stm32f10x_usart.c ****   }
 686:../../../SDK_embedded/libs/stm32/STM32F10x_StdPeriph_Driver/stm32f10x_usart.c ****   else
 687:../../../SDK_embedded/libs/stm32/STM32F10x_StdPeriph_Driver/stm32f10x_usart.c ****   {
 688:../../../SDK_embedded/libs/stm32/STM32F10x_StdPeriph_Driver/stm32f10x_usart.c ****     /* Disable the SC mode by clearing the SCEN bit in the CR3 register */
 689:../../../SDK_embedded/libs/stm32/STM32F10x_StdPeriph_Driver/stm32f10x_usart.c ****     USARTx->CR3 &= CR3_SCEN_Reset;
 17515              		.loc 1 689 0
 17516 000c B0F814C0 		ldrh	ip, [r0, #20]
 17517 0010 2CF02003 		bic	r3, ip, #32
 17518 0014 1A04     		lsls	r2, r3, #16
 17519 0016 130C     		lsrs	r3, r2, #16
 17520              	.LVL88:
 17521              	.L58:
 17522 0018 8382     		strh	r3, [r0, #20]	@ movhi
 17523 001a 7047     		bx	lr
 17524              		.cfi_endproc
 17525              	.LFE47:
 17527              		.section	.text.USART_SmartCardNACKCmd,"ax",%progbits
 17528              		.align	1
 17529              		.global	USART_SmartCardNACKCmd
 17530              		.thumb
 17531              		.thumb_func
 17533              	USART_SmartCardNACKCmd:
 17534              	.LFB48:
 690:../../../SDK_embedded/libs/stm32/STM32F10x_StdPeriph_Driver/stm32f10x_usart.c ****   }
 691:../../../SDK_embedded/libs/stm32/STM32F10x_StdPeriph_Driver/stm32f10x_usart.c **** }
 692:../../../SDK_embedded/libs/stm32/STM32F10x_StdPeriph_Driver/stm32f10x_usart.c **** 
 693:../../../SDK_embedded/libs/stm32/STM32F10x_StdPeriph_Driver/stm32f10x_usart.c **** /**
 694:../../../SDK_embedded/libs/stm32/STM32F10x_StdPeriph_Driver/stm32f10x_usart.c ****   * @brief  Enables or disables NACK transmission.
 695:../../../SDK_embedded/libs/stm32/STM32F10x_StdPeriph_Driver/stm32f10x_usart.c ****   * @param  USARTx: where x can be 1, 2 or 3 to select the USART peripheral. 
 696:../../../SDK_embedded/libs/stm32/STM32F10x_StdPeriph_Driver/stm32f10x_usart.c ****   * @param  NewState: new state of the NACK transmission.
 697:../../../SDK_embedded/libs/stm32/STM32F10x_StdPeriph_Driver/stm32f10x_usart.c ****   *   This parameter can be: ENABLE or DISABLE.  
 698:../../../SDK_embedded/libs/stm32/STM32F10x_StdPeriph_Driver/stm32f10x_usart.c ****   * @note The Smart Card mode is not available for UART4 and UART5.
 699:../../../SDK_embedded/libs/stm32/STM32F10x_StdPeriph_Driver/stm32f10x_usart.c ****   * @retval None
 700:../../../SDK_embedded/libs/stm32/STM32F10x_StdPeriph_Driver/stm32f10x_usart.c ****   */
 701:../../../SDK_embedded/libs/stm32/STM32F10x_StdPeriph_Driver/stm32f10x_usart.c **** void USART_SmartCardNACKCmd(USART_TypeDef* USARTx, FunctionalState NewState)
 702:../../../SDK_embedded/libs/stm32/STM32F10x_StdPeriph_Driver/stm32f10x_usart.c **** {
 17535              		.loc 1 702 0
 17536              		.cfi_startproc
 17537              		@ args = 0, pretend = 0, frame = 0
 17538              		@ frame_needed = 0, uses_anonymous_args = 0
 17539              		@ link register save eliminated.
 17540              	.LVL89:
 703:../../../SDK_embedded/libs/stm32/STM32F10x_StdPeriph_Driver/stm32f10x_usart.c ****   /* Check the parameters */
 704:../../../SDK_embedded/libs/stm32/STM32F10x_StdPeriph_Driver/stm32f10x_usart.c ****   assert_param(IS_USART_123_PERIPH(USARTx));  
 705:../../../SDK_embedded/libs/stm32/STM32F10x_StdPeriph_Driver/stm32f10x_usart.c ****   assert_param(IS_FUNCTIONAL_STATE(NewState));
 706:../../../SDK_embedded/libs/stm32/STM32F10x_StdPeriph_Driver/stm32f10x_usart.c ****   if (NewState != DISABLE)
 17541              		.loc 1 706 0
 17542 0000 21B1     		cbz	r1, .L60
 707:../../../SDK_embedded/libs/stm32/STM32F10x_StdPeriph_Driver/stm32f10x_usart.c ****   {
 708:../../../SDK_embedded/libs/stm32/STM32F10x_StdPeriph_Driver/stm32f10x_usart.c ****     /* Enable the NACK transmission by setting the NACK bit in the CR3 register */
 709:../../../SDK_embedded/libs/stm32/STM32F10x_StdPeriph_Driver/stm32f10x_usart.c ****     USARTx->CR3 |= CR3_NACK_Set;
 17543              		.loc 1 709 0
 17544 0002 818A     		ldrh	r1, [r0, #20]
 17545              	.LVL90:
 17546 0004 8BB2     		uxth	r3, r1
 17547 0006 43F01003 		orr	r3, r3, #16
 17548 000a 05E0     		b	.L62
 17549              	.LVL91:
 17550              	.L60:
 710:../../../SDK_embedded/libs/stm32/STM32F10x_StdPeriph_Driver/stm32f10x_usart.c ****   }
 711:../../../SDK_embedded/libs/stm32/STM32F10x_StdPeriph_Driver/stm32f10x_usart.c ****   else
 712:../../../SDK_embedded/libs/stm32/STM32F10x_StdPeriph_Driver/stm32f10x_usart.c ****   {
 713:../../../SDK_embedded/libs/stm32/STM32F10x_StdPeriph_Driver/stm32f10x_usart.c ****     /* Disable the NACK transmission by clearing the NACK bit in the CR3 register */
 714:../../../SDK_embedded/libs/stm32/STM32F10x_StdPeriph_Driver/stm32f10x_usart.c ****     USARTx->CR3 &= CR3_NACK_Reset;
 17551              		.loc 1 714 0
 17552 000c B0F814C0 		ldrh	ip, [r0, #20]
 17553 0010 2CF01003 		bic	r3, ip, #16
 17554 0014 1A04     		lsls	r2, r3, #16
 17555 0016 130C     		lsrs	r3, r2, #16
 17556              	.LVL92:
 17557              	.L62:
 17558 0018 8382     		strh	r3, [r0, #20]	@ movhi
 17559 001a 7047     		bx	lr
 17560              		.cfi_endproc
 17561              	.LFE48:
 17563              		.section	.text.USART_HalfDuplexCmd,"ax",%progbits
 17564              		.align	1
 17565              		.global	USART_HalfDuplexCmd
 17566              		.thumb
 17567              		.thumb_func
 17569              	USART_HalfDuplexCmd:
 17570              	.LFB49:
 715:../../../SDK_embedded/libs/stm32/STM32F10x_StdPeriph_Driver/stm32f10x_usart.c ****   }
 716:../../../SDK_embedded/libs/stm32/STM32F10x_StdPeriph_Driver/stm32f10x_usart.c **** }
 717:../../../SDK_embedded/libs/stm32/STM32F10x_StdPeriph_Driver/stm32f10x_usart.c **** 
 718:../../../SDK_embedded/libs/stm32/STM32F10x_StdPeriph_Driver/stm32f10x_usart.c **** /**
 719:../../../SDK_embedded/libs/stm32/STM32F10x_StdPeriph_Driver/stm32f10x_usart.c ****   * @brief  Enables or disables the USARTs Half Duplex communication.
 720:../../../SDK_embedded/libs/stm32/STM32F10x_StdPeriph_Driver/stm32f10x_usart.c ****   * @param  USARTx: Select the USART or the UART peripheral. 
 721:../../../SDK_embedded/libs/stm32/STM32F10x_StdPeriph_Driver/stm32f10x_usart.c ****   *   This parameter can be one of the following values:
 722:../../../SDK_embedded/libs/stm32/STM32F10x_StdPeriph_Driver/stm32f10x_usart.c ****   *   USART1, USART2, USART3, UART4 or UART5.
 723:../../../SDK_embedded/libs/stm32/STM32F10x_StdPeriph_Driver/stm32f10x_usart.c ****   * @param  NewState: new state of the USART Communication.
 724:../../../SDK_embedded/libs/stm32/STM32F10x_StdPeriph_Driver/stm32f10x_usart.c ****   *   This parameter can be: ENABLE or DISABLE.
 725:../../../SDK_embedded/libs/stm32/STM32F10x_StdPeriph_Driver/stm32f10x_usart.c ****   * @retval None
 726:../../../SDK_embedded/libs/stm32/STM32F10x_StdPeriph_Driver/stm32f10x_usart.c ****   */
 727:../../../SDK_embedded/libs/stm32/STM32F10x_StdPeriph_Driver/stm32f10x_usart.c **** void USART_HalfDuplexCmd(USART_TypeDef* USARTx, FunctionalState NewState)
 728:../../../SDK_embedded/libs/stm32/STM32F10x_StdPeriph_Driver/stm32f10x_usart.c **** {
 17571              		.loc 1 728 0
 17572              		.cfi_startproc
 17573              		@ args = 0, pretend = 0, frame = 0
 17574              		@ frame_needed = 0, uses_anonymous_args = 0
 17575              		@ link register save eliminated.
 17576              	.LVL93:
 729:../../../SDK_embedded/libs/stm32/STM32F10x_StdPeriph_Driver/stm32f10x_usart.c ****   /* Check the parameters */
 730:../../../SDK_embedded/libs/stm32/STM32F10x_StdPeriph_Driver/stm32f10x_usart.c ****   assert_param(IS_USART_ALL_PERIPH(USARTx));
 731:../../../SDK_embedded/libs/stm32/STM32F10x_StdPeriph_Driver/stm32f10x_usart.c ****   assert_param(IS_FUNCTIONAL_STATE(NewState));
 732:../../../SDK_embedded/libs/stm32/STM32F10x_StdPeriph_Driver/stm32f10x_usart.c ****   
 733:../../../SDK_embedded/libs/stm32/STM32F10x_StdPeriph_Driver/stm32f10x_usart.c ****   if (NewState != DISABLE)
 17577              		.loc 1 733 0
 17578 0000 21B1     		cbz	r1, .L64
 734:../../../SDK_embedded/libs/stm32/STM32F10x_StdPeriph_Driver/stm32f10x_usart.c ****   {
 735:../../../SDK_embedded/libs/stm32/STM32F10x_StdPeriph_Driver/stm32f10x_usart.c ****     /* Enable the Half-Duplex mode by setting the HDSEL bit in the CR3 register */
 736:../../../SDK_embedded/libs/stm32/STM32F10x_StdPeriph_Driver/stm32f10x_usart.c ****     USARTx->CR3 |= CR3_HDSEL_Set;
 17579              		.loc 1 736 0
 17580 0002 818A     		ldrh	r1, [r0, #20]
 17581              	.LVL94:
 17582 0004 8BB2     		uxth	r3, r1
 17583 0006 43F00803 		orr	r3, r3, #8
 17584 000a 05E0     		b	.L66
 17585              	.LVL95:
 17586              	.L64:
 737:../../../SDK_embedded/libs/stm32/STM32F10x_StdPeriph_Driver/stm32f10x_usart.c ****   }
 738:../../../SDK_embedded/libs/stm32/STM32F10x_StdPeriph_Driver/stm32f10x_usart.c ****   else
 739:../../../SDK_embedded/libs/stm32/STM32F10x_StdPeriph_Driver/stm32f10x_usart.c ****   {
 740:../../../SDK_embedded/libs/stm32/STM32F10x_StdPeriph_Driver/stm32f10x_usart.c ****     /* Disable the Half-Duplex mode by clearing the HDSEL bit in the CR3 register */
 741:../../../SDK_embedded/libs/stm32/STM32F10x_StdPeriph_Driver/stm32f10x_usart.c ****     USARTx->CR3 &= CR3_HDSEL_Reset;
 17587              		.loc 1 741 0
 17588 000c B0F814C0 		ldrh	ip, [r0, #20]
 17589 0010 2CF00803 		bic	r3, ip, #8
 17590 0014 1A04     		lsls	r2, r3, #16
 17591 0016 130C     		lsrs	r3, r2, #16
 17592              	.LVL96:
 17593              	.L66:
 17594 0018 8382     		strh	r3, [r0, #20]	@ movhi
 17595 001a 7047     		bx	lr
 17596              		.cfi_endproc
 17597              	.LFE49:
 17599              		.section	.text.USART_OverSampling8Cmd,"ax",%progbits
 17600              		.align	1
 17601              		.global	USART_OverSampling8Cmd
 17602              		.thumb
 17603              		.thumb_func
 17605              	USART_OverSampling8Cmd:
 17606              	.LFB50:
 742:../../../SDK_embedded/libs/stm32/STM32F10x_StdPeriph_Driver/stm32f10x_usart.c ****   }
 743:../../../SDK_embedded/libs/stm32/STM32F10x_StdPeriph_Driver/stm32f10x_usart.c **** }
 744:../../../SDK_embedded/libs/stm32/STM32F10x_StdPeriph_Driver/stm32f10x_usart.c **** 
 745:../../../SDK_embedded/libs/stm32/STM32F10x_StdPeriph_Driver/stm32f10x_usart.c **** 
 746:../../../SDK_embedded/libs/stm32/STM32F10x_StdPeriph_Driver/stm32f10x_usart.c **** /**
 747:../../../SDK_embedded/libs/stm32/STM32F10x_StdPeriph_Driver/stm32f10x_usart.c ****   * @brief  Enables or disables the USART's 8x oversampling mode.
 748:../../../SDK_embedded/libs/stm32/STM32F10x_StdPeriph_Driver/stm32f10x_usart.c ****   * @param  USARTx: Select the USART or the UART peripheral.
 749:../../../SDK_embedded/libs/stm32/STM32F10x_StdPeriph_Driver/stm32f10x_usart.c ****   *   This parameter can be one of the following values:
 750:../../../SDK_embedded/libs/stm32/STM32F10x_StdPeriph_Driver/stm32f10x_usart.c ****   *   USART1, USART2, USART3, UART4 or UART5.
 751:../../../SDK_embedded/libs/stm32/STM32F10x_StdPeriph_Driver/stm32f10x_usart.c ****   * @param  NewState: new state of the USART one bit sampling methode.
 752:../../../SDK_embedded/libs/stm32/STM32F10x_StdPeriph_Driver/stm32f10x_usart.c ****   *   This parameter can be: ENABLE or DISABLE.
 753:../../../SDK_embedded/libs/stm32/STM32F10x_StdPeriph_Driver/stm32f10x_usart.c ****   * @note
 754:../../../SDK_embedded/libs/stm32/STM32F10x_StdPeriph_Driver/stm32f10x_usart.c ****   *     This function has to be called before calling USART_Init()
 755:../../../SDK_embedded/libs/stm32/STM32F10x_StdPeriph_Driver/stm32f10x_usart.c ****   *     function in order to have correct baudrate Divider value.   
 756:../../../SDK_embedded/libs/stm32/STM32F10x_StdPeriph_Driver/stm32f10x_usart.c ****   * @retval None
 757:../../../SDK_embedded/libs/stm32/STM32F10x_StdPeriph_Driver/stm32f10x_usart.c ****   */
 758:../../../SDK_embedded/libs/stm32/STM32F10x_StdPeriph_Driver/stm32f10x_usart.c **** void USART_OverSampling8Cmd(USART_TypeDef* USARTx, FunctionalState NewState)
 759:../../../SDK_embedded/libs/stm32/STM32F10x_StdPeriph_Driver/stm32f10x_usart.c **** {
 17607              		.loc 1 759 0
 17608              		.cfi_startproc
 17609              		@ args = 0, pretend = 0, frame = 0
 17610              		@ frame_needed = 0, uses_anonymous_args = 0
 17611              		@ link register save eliminated.
 17612              	.LVL97:
 760:../../../SDK_embedded/libs/stm32/STM32F10x_StdPeriph_Driver/stm32f10x_usart.c ****   /* Check the parameters */
 761:../../../SDK_embedded/libs/stm32/STM32F10x_StdPeriph_Driver/stm32f10x_usart.c ****   assert_param(IS_USART_ALL_PERIPH(USARTx));
 762:../../../SDK_embedded/libs/stm32/STM32F10x_StdPeriph_Driver/stm32f10x_usart.c ****   assert_param(IS_FUNCTIONAL_STATE(NewState));
 763:../../../SDK_embedded/libs/stm32/STM32F10x_StdPeriph_Driver/stm32f10x_usart.c ****   
 764:../../../SDK_embedded/libs/stm32/STM32F10x_StdPeriph_Driver/stm32f10x_usart.c ****   if (NewState != DISABLE)
 17613              		.loc 1 764 0
 17614 0000 31B1     		cbz	r1, .L68
 765:../../../SDK_embedded/libs/stm32/STM32F10x_StdPeriph_Driver/stm32f10x_usart.c ****   {
 766:../../../SDK_embedded/libs/stm32/STM32F10x_StdPeriph_Driver/stm32f10x_usart.c ****     /* Enable the 8x Oversampling mode by setting the OVER8 bit in the CR1 register */
 767:../../../SDK_embedded/libs/stm32/STM32F10x_StdPeriph_Driver/stm32f10x_usart.c ****     USARTx->CR1 |= CR1_OVER8_Set;
 17615              		.loc 1 767 0
 17616 0002 8289     		ldrh	r2, [r0, #12]
 17617 0004 6FEA4241 		mvn	r1, r2, lsl #17
 17618              	.LVL98:
 17619 0008 6FEA5143 		mvn	r3, r1, lsr #17
 17620 000c 9BB2     		uxth	r3, r3
 17621 000e 02E0     		b	.L70
 17622              	.LVL99:
 17623              	.L68:
 768:../../../SDK_embedded/libs/stm32/STM32F10x_StdPeriph_Driver/stm32f10x_usart.c ****   }
 769:../../../SDK_embedded/libs/stm32/STM32F10x_StdPeriph_Driver/stm32f10x_usart.c ****   else
 770:../../../SDK_embedded/libs/stm32/STM32F10x_StdPeriph_Driver/stm32f10x_usart.c ****   {
 771:../../../SDK_embedded/libs/stm32/STM32F10x_StdPeriph_Driver/stm32f10x_usart.c ****     /* Disable the 8x Oversampling mode by clearing the OVER8 bit in the CR1 register */
 772:../../../SDK_embedded/libs/stm32/STM32F10x_StdPeriph_Driver/stm32f10x_usart.c ****     USARTx->CR1 &= CR1_OVER8_Reset;
 17624              		.loc 1 772 0
 17625 0010 8189     		ldrh	r1, [r0, #12]
 17626              	.LVL100:
 17627 0012 4B04     		lsls	r3, r1, #17
 17628 0014 5B0C     		lsrs	r3, r3, #17
 17629              	.L70:
 17630 0016 8381     		strh	r3, [r0, #12]	@ movhi
 17631 0018 7047     		bx	lr
 17632              		.cfi_endproc
 17633              	.LFE50:
 17635              		.section	.text.USART_OneBitMethodCmd,"ax",%progbits
 17636              		.align	1
 17637              		.global	USART_OneBitMethodCmd
 17638              		.thumb
 17639              		.thumb_func
 17641              	USART_OneBitMethodCmd:
 17642              	.LFB51:
 773:../../../SDK_embedded/libs/stm32/STM32F10x_StdPeriph_Driver/stm32f10x_usart.c ****   }
 774:../../../SDK_embedded/libs/stm32/STM32F10x_StdPeriph_Driver/stm32f10x_usart.c **** }
 775:../../../SDK_embedded/libs/stm32/STM32F10x_StdPeriph_Driver/stm32f10x_usart.c **** 
 776:../../../SDK_embedded/libs/stm32/STM32F10x_StdPeriph_Driver/stm32f10x_usart.c **** /**
 777:../../../SDK_embedded/libs/stm32/STM32F10x_StdPeriph_Driver/stm32f10x_usart.c ****   * @brief  Enables or disables the USART's one bit sampling methode.
 778:../../../SDK_embedded/libs/stm32/STM32F10x_StdPeriph_Driver/stm32f10x_usart.c ****   * @param  USARTx: Select the USART or the UART peripheral.
 779:../../../SDK_embedded/libs/stm32/STM32F10x_StdPeriph_Driver/stm32f10x_usart.c ****   *   This parameter can be one of the following values:
 780:../../../SDK_embedded/libs/stm32/STM32F10x_StdPeriph_Driver/stm32f10x_usart.c ****   *   USART1, USART2, USART3, UART4 or UART5.
 781:../../../SDK_embedded/libs/stm32/STM32F10x_StdPeriph_Driver/stm32f10x_usart.c ****   * @param  NewState: new state of the USART one bit sampling methode.
 782:../../../SDK_embedded/libs/stm32/STM32F10x_StdPeriph_Driver/stm32f10x_usart.c ****   *   This parameter can be: ENABLE or DISABLE.
 783:../../../SDK_embedded/libs/stm32/STM32F10x_StdPeriph_Driver/stm32f10x_usart.c ****   * @retval None
 784:../../../SDK_embedded/libs/stm32/STM32F10x_StdPeriph_Driver/stm32f10x_usart.c ****   */
 785:../../../SDK_embedded/libs/stm32/STM32F10x_StdPeriph_Driver/stm32f10x_usart.c **** void USART_OneBitMethodCmd(USART_TypeDef* USARTx, FunctionalState NewState)
 786:../../../SDK_embedded/libs/stm32/STM32F10x_StdPeriph_Driver/stm32f10x_usart.c **** {
 17643              		.loc 1 786 0
 17644              		.cfi_startproc
 17645              		@ args = 0, pretend = 0, frame = 0
 17646              		@ frame_needed = 0, uses_anonymous_args = 0
 17647              		@ link register save eliminated.
 17648              	.LVL101:
 787:../../../SDK_embedded/libs/stm32/STM32F10x_StdPeriph_Driver/stm32f10x_usart.c ****   /* Check the parameters */
 788:../../../SDK_embedded/libs/stm32/STM32F10x_StdPeriph_Driver/stm32f10x_usart.c ****   assert_param(IS_USART_ALL_PERIPH(USARTx));
 789:../../../SDK_embedded/libs/stm32/STM32F10x_StdPeriph_Driver/stm32f10x_usart.c ****   assert_param(IS_FUNCTIONAL_STATE(NewState));
 790:../../../SDK_embedded/libs/stm32/STM32F10x_StdPeriph_Driver/stm32f10x_usart.c ****   
 791:../../../SDK_embedded/libs/stm32/STM32F10x_StdPeriph_Driver/stm32f10x_usart.c ****   if (NewState != DISABLE)
 17649              		.loc 1 791 0
 17650 0000 21B1     		cbz	r1, .L72
 792:../../../SDK_embedded/libs/stm32/STM32F10x_StdPeriph_Driver/stm32f10x_usart.c ****   {
 793:../../../SDK_embedded/libs/stm32/STM32F10x_StdPeriph_Driver/stm32f10x_usart.c ****     /* Enable the one bit method by setting the ONEBITE bit in the CR3 register */
 794:../../../SDK_embedded/libs/stm32/STM32F10x_StdPeriph_Driver/stm32f10x_usart.c ****     USARTx->CR3 |= CR3_ONEBITE_Set;
 17651              		.loc 1 794 0
 17652 0002 818A     		ldrh	r1, [r0, #20]
 17653              	.LVL102:
 17654 0004 8BB2     		uxth	r3, r1
 17655 0006 43F40063 		orr	r3, r3, #2048
 17656 000a 05E0     		b	.L74
 17657              	.LVL103:
 17658              	.L72:
 795:../../../SDK_embedded/libs/stm32/STM32F10x_StdPeriph_Driver/stm32f10x_usart.c ****   }
 796:../../../SDK_embedded/libs/stm32/STM32F10x_StdPeriph_Driver/stm32f10x_usart.c ****   else
 797:../../../SDK_embedded/libs/stm32/STM32F10x_StdPeriph_Driver/stm32f10x_usart.c ****   {
 798:../../../SDK_embedded/libs/stm32/STM32F10x_StdPeriph_Driver/stm32f10x_usart.c ****     /* Disable tthe one bit method by clearing the ONEBITE bit in the CR3 register */
 799:../../../SDK_embedded/libs/stm32/STM32F10x_StdPeriph_Driver/stm32f10x_usart.c ****     USARTx->CR3 &= CR3_ONEBITE_Reset;
 17659              		.loc 1 799 0
 17660 000c B0F814C0 		ldrh	ip, [r0, #20]
 17661 0010 2CF40063 		bic	r3, ip, #2048
 17662 0014 1A04     		lsls	r2, r3, #16
 17663 0016 130C     		lsrs	r3, r2, #16
 17664              	.LVL104:
 17665              	.L74:
 17666 0018 8382     		strh	r3, [r0, #20]	@ movhi
 17667 001a 7047     		bx	lr
 17668              		.cfi_endproc
 17669              	.LFE51:
 17671              		.section	.text.USART_IrDAConfig,"ax",%progbits
 17672              		.align	1
 17673              		.global	USART_IrDAConfig
 17674              		.thumb
 17675              		.thumb_func
 17677              	USART_IrDAConfig:
 17678              	.LFB52:
 800:../../../SDK_embedded/libs/stm32/STM32F10x_StdPeriph_Driver/stm32f10x_usart.c ****   }
 801:../../../SDK_embedded/libs/stm32/STM32F10x_StdPeriph_Driver/stm32f10x_usart.c **** }
 802:../../../SDK_embedded/libs/stm32/STM32F10x_StdPeriph_Driver/stm32f10x_usart.c **** 
 803:../../../SDK_embedded/libs/stm32/STM32F10x_StdPeriph_Driver/stm32f10x_usart.c **** /**
 804:../../../SDK_embedded/libs/stm32/STM32F10x_StdPeriph_Driver/stm32f10x_usart.c ****   * @brief  Configures the USARTs IrDA interface.
 805:../../../SDK_embedded/libs/stm32/STM32F10x_StdPeriph_Driver/stm32f10x_usart.c ****   * @param  USARTx: Select the USART or the UART peripheral. 
 806:../../../SDK_embedded/libs/stm32/STM32F10x_StdPeriph_Driver/stm32f10x_usart.c ****   *   This parameter can be one of the following values:
 807:../../../SDK_embedded/libs/stm32/STM32F10x_StdPeriph_Driver/stm32f10x_usart.c ****   *   USART1, USART2, USART3, UART4 or UART5.
 808:../../../SDK_embedded/libs/stm32/STM32F10x_StdPeriph_Driver/stm32f10x_usart.c ****   * @param  USART_IrDAMode: specifies the IrDA mode.
 809:../../../SDK_embedded/libs/stm32/STM32F10x_StdPeriph_Driver/stm32f10x_usart.c ****   *   This parameter can be one of the following values:
 810:../../../SDK_embedded/libs/stm32/STM32F10x_StdPeriph_Driver/stm32f10x_usart.c ****   *     @arg USART_IrDAMode_LowPower
 811:../../../SDK_embedded/libs/stm32/STM32F10x_StdPeriph_Driver/stm32f10x_usart.c ****   *     @arg USART_IrDAMode_Normal
 812:../../../SDK_embedded/libs/stm32/STM32F10x_StdPeriph_Driver/stm32f10x_usart.c ****   * @retval None
 813:../../../SDK_embedded/libs/stm32/STM32F10x_StdPeriph_Driver/stm32f10x_usart.c ****   */
 814:../../../SDK_embedded/libs/stm32/STM32F10x_StdPeriph_Driver/stm32f10x_usart.c **** void USART_IrDAConfig(USART_TypeDef* USARTx, uint16_t USART_IrDAMode)
 815:../../../SDK_embedded/libs/stm32/STM32F10x_StdPeriph_Driver/stm32f10x_usart.c **** {
 17679              		.loc 1 815 0
 17680              		.cfi_startproc
 17681              		@ args = 0, pretend = 0, frame = 0
 17682              		@ frame_needed = 0, uses_anonymous_args = 0
 17683              		@ link register save eliminated.
 17684              	.LVL105:
 816:../../../SDK_embedded/libs/stm32/STM32F10x_StdPeriph_Driver/stm32f10x_usart.c ****   /* Check the parameters */
 817:../../../SDK_embedded/libs/stm32/STM32F10x_StdPeriph_Driver/stm32f10x_usart.c ****   assert_param(IS_USART_ALL_PERIPH(USARTx));
 818:../../../SDK_embedded/libs/stm32/STM32F10x_StdPeriph_Driver/stm32f10x_usart.c ****   assert_param(IS_USART_IRDA_MODE(USART_IrDAMode));
 819:../../../SDK_embedded/libs/stm32/STM32F10x_StdPeriph_Driver/stm32f10x_usart.c ****     
 820:../../../SDK_embedded/libs/stm32/STM32F10x_StdPeriph_Driver/stm32f10x_usart.c ****   USARTx->CR3 &= CR3_IRLP_Mask;
 17685              		.loc 1 820 0
 17686 0000 B0F814C0 		ldrh	ip, [r0, #20]
 17687 0004 2CF00403 		bic	r3, ip, #4
 17688 0008 1A04     		lsls	r2, r3, #16
 17689 000a 130C     		lsrs	r3, r2, #16
 17690 000c 8382     		strh	r3, [r0, #20]	@ movhi
 821:../../../SDK_embedded/libs/stm32/STM32F10x_StdPeriph_Driver/stm32f10x_usart.c ****   USARTx->CR3 |= USART_IrDAMode;
 17691              		.loc 1 821 0
 17692 000e 828A     		ldrh	r2, [r0, #20]
 17693 0010 93B2     		uxth	r3, r2
 17694 0012 1943     		orrs	r1, r1, r3
 17695              	.LVL106:
 17696 0014 8182     		strh	r1, [r0, #20]	@ movhi
 822:../../../SDK_embedded/libs/stm32/STM32F10x_StdPeriph_Driver/stm32f10x_usart.c **** }
 17697              		.loc 1 822 0
 17698 0016 7047     		bx	lr
 17699              		.cfi_endproc
 17700              	.LFE52:
 17702              		.section	.text.USART_IrDACmd,"ax",%progbits
 17703              		.align	1
 17704              		.global	USART_IrDACmd
 17705              		.thumb
 17706              		.thumb_func
 17708              	USART_IrDACmd:
 17709              	.LFB53:
 823:../../../SDK_embedded/libs/stm32/STM32F10x_StdPeriph_Driver/stm32f10x_usart.c **** 
 824:../../../SDK_embedded/libs/stm32/STM32F10x_StdPeriph_Driver/stm32f10x_usart.c **** /**
 825:../../../SDK_embedded/libs/stm32/STM32F10x_StdPeriph_Driver/stm32f10x_usart.c ****   * @brief  Enables or disables the USARTs IrDA interface.
 826:../../../SDK_embedded/libs/stm32/STM32F10x_StdPeriph_Driver/stm32f10x_usart.c ****   * @param  USARTx: Select the USART or the UART peripheral. 
 827:../../../SDK_embedded/libs/stm32/STM32F10x_StdPeriph_Driver/stm32f10x_usart.c ****   *   This parameter can be one of the following values:
 828:../../../SDK_embedded/libs/stm32/STM32F10x_StdPeriph_Driver/stm32f10x_usart.c ****   *   USART1, USART2, USART3, UART4 or UART5.
 829:../../../SDK_embedded/libs/stm32/STM32F10x_StdPeriph_Driver/stm32f10x_usart.c ****   * @param  NewState: new state of the IrDA mode.
 830:../../../SDK_embedded/libs/stm32/STM32F10x_StdPeriph_Driver/stm32f10x_usart.c ****   *   This parameter can be: ENABLE or DISABLE.
 831:../../../SDK_embedded/libs/stm32/STM32F10x_StdPeriph_Driver/stm32f10x_usart.c ****   * @retval None
 832:../../../SDK_embedded/libs/stm32/STM32F10x_StdPeriph_Driver/stm32f10x_usart.c ****   */
 833:../../../SDK_embedded/libs/stm32/STM32F10x_StdPeriph_Driver/stm32f10x_usart.c **** void USART_IrDACmd(USART_TypeDef* USARTx, FunctionalState NewState)
 834:../../../SDK_embedded/libs/stm32/STM32F10x_StdPeriph_Driver/stm32f10x_usart.c **** {
 17710              		.loc 1 834 0
 17711              		.cfi_startproc
 17712              		@ args = 0, pretend = 0, frame = 0
 17713              		@ frame_needed = 0, uses_anonymous_args = 0
 17714              		@ link register save eliminated.
 17715              	.LVL107:
 835:../../../SDK_embedded/libs/stm32/STM32F10x_StdPeriph_Driver/stm32f10x_usart.c ****   /* Check the parameters */
 836:../../../SDK_embedded/libs/stm32/STM32F10x_StdPeriph_Driver/stm32f10x_usart.c ****   assert_param(IS_USART_ALL_PERIPH(USARTx));
 837:../../../SDK_embedded/libs/stm32/STM32F10x_StdPeriph_Driver/stm32f10x_usart.c ****   assert_param(IS_FUNCTIONAL_STATE(NewState));
 838:../../../SDK_embedded/libs/stm32/STM32F10x_StdPeriph_Driver/stm32f10x_usart.c ****     
 839:../../../SDK_embedded/libs/stm32/STM32F10x_StdPeriph_Driver/stm32f10x_usart.c ****   if (NewState != DISABLE)
 17716              		.loc 1 839 0
 17717 0000 21B1     		cbz	r1, .L77
 840:../../../SDK_embedded/libs/stm32/STM32F10x_StdPeriph_Driver/stm32f10x_usart.c ****   {
 841:../../../SDK_embedded/libs/stm32/STM32F10x_StdPeriph_Driver/stm32f10x_usart.c ****     /* Enable the IrDA mode by setting the IREN bit in the CR3 register */
 842:../../../SDK_embedded/libs/stm32/STM32F10x_StdPeriph_Driver/stm32f10x_usart.c ****     USARTx->CR3 |= CR3_IREN_Set;
 17718              		.loc 1 842 0
 17719 0002 818A     		ldrh	r1, [r0, #20]
 17720              	.LVL108:
 17721 0004 8BB2     		uxth	r3, r1
 17722 0006 43F00203 		orr	r3, r3, #2
 17723 000a 05E0     		b	.L79
 17724              	.LVL109:
 17725              	.L77:
 843:../../../SDK_embedded/libs/stm32/STM32F10x_StdPeriph_Driver/stm32f10x_usart.c ****   }
 844:../../../SDK_embedded/libs/stm32/STM32F10x_StdPeriph_Driver/stm32f10x_usart.c ****   else
 845:../../../SDK_embedded/libs/stm32/STM32F10x_StdPeriph_Driver/stm32f10x_usart.c ****   {
 846:../../../SDK_embedded/libs/stm32/STM32F10x_StdPeriph_Driver/stm32f10x_usart.c ****     /* Disable the IrDA mode by clearing the IREN bit in the CR3 register */
 847:../../../SDK_embedded/libs/stm32/STM32F10x_StdPeriph_Driver/stm32f10x_usart.c ****     USARTx->CR3 &= CR3_IREN_Reset;
 17726              		.loc 1 847 0
 17727 000c B0F814C0 		ldrh	ip, [r0, #20]
 17728 0010 2CF00203 		bic	r3, ip, #2
 17729 0014 1A04     		lsls	r2, r3, #16
 17730 0016 130C     		lsrs	r3, r2, #16
 17731              	.LVL110:
 17732              	.L79:
 17733 0018 8382     		strh	r3, [r0, #20]	@ movhi
 17734 001a 7047     		bx	lr
 17735              		.cfi_endproc
 17736              	.LFE53:
 17738              		.section	.text.USART_GetFlagStatus,"ax",%progbits
 17739              		.align	1
 17740              		.global	USART_GetFlagStatus
 17741              		.thumb
 17742              		.thumb_func
 17744              	USART_GetFlagStatus:
 17745              	.LFB54:
 848:../../../SDK_embedded/libs/stm32/STM32F10x_StdPeriph_Driver/stm32f10x_usart.c ****   }
 849:../../../SDK_embedded/libs/stm32/STM32F10x_StdPeriph_Driver/stm32f10x_usart.c **** }
 850:../../../SDK_embedded/libs/stm32/STM32F10x_StdPeriph_Driver/stm32f10x_usart.c **** 
 851:../../../SDK_embedded/libs/stm32/STM32F10x_StdPeriph_Driver/stm32f10x_usart.c **** /**
 852:../../../SDK_embedded/libs/stm32/STM32F10x_StdPeriph_Driver/stm32f10x_usart.c ****   * @brief  Checks whether the specified USART flag is set or not.
 853:../../../SDK_embedded/libs/stm32/STM32F10x_StdPeriph_Driver/stm32f10x_usart.c ****   * @param  USARTx: Select the USART or the UART peripheral. 
 854:../../../SDK_embedded/libs/stm32/STM32F10x_StdPeriph_Driver/stm32f10x_usart.c ****   *   This parameter can be one of the following values:
 855:../../../SDK_embedded/libs/stm32/STM32F10x_StdPeriph_Driver/stm32f10x_usart.c ****   *   USART1, USART2, USART3, UART4 or UART5.
 856:../../../SDK_embedded/libs/stm32/STM32F10x_StdPeriph_Driver/stm32f10x_usart.c ****   * @param  USART_FLAG: specifies the flag to check.
 857:../../../SDK_embedded/libs/stm32/STM32F10x_StdPeriph_Driver/stm32f10x_usart.c ****   *   This parameter can be one of the following values:
 858:../../../SDK_embedded/libs/stm32/STM32F10x_StdPeriph_Driver/stm32f10x_usart.c ****   *     @arg USART_FLAG_CTS:  CTS Change flag (not available for UART4 and UART5)
 859:../../../SDK_embedded/libs/stm32/STM32F10x_StdPeriph_Driver/stm32f10x_usart.c ****   *     @arg USART_FLAG_LBD:  LIN Break detection flag
 860:../../../SDK_embedded/libs/stm32/STM32F10x_StdPeriph_Driver/stm32f10x_usart.c ****   *     @arg USART_FLAG_TXE:  Transmit data register empty flag
 861:../../../SDK_embedded/libs/stm32/STM32F10x_StdPeriph_Driver/stm32f10x_usart.c ****   *     @arg USART_FLAG_TC:   Transmission Complete flag
 862:../../../SDK_embedded/libs/stm32/STM32F10x_StdPeriph_Driver/stm32f10x_usart.c ****   *     @arg USART_FLAG_RXNE: Receive data register not empty flag
 863:../../../SDK_embedded/libs/stm32/STM32F10x_StdPeriph_Driver/stm32f10x_usart.c ****   *     @arg USART_FLAG_IDLE: Idle Line detection flag
 864:../../../SDK_embedded/libs/stm32/STM32F10x_StdPeriph_Driver/stm32f10x_usart.c ****   *     @arg USART_FLAG_ORE:  OverRun Error flag
 865:../../../SDK_embedded/libs/stm32/STM32F10x_StdPeriph_Driver/stm32f10x_usart.c ****   *     @arg USART_FLAG_NE:   Noise Error flag
 866:../../../SDK_embedded/libs/stm32/STM32F10x_StdPeriph_Driver/stm32f10x_usart.c ****   *     @arg USART_FLAG_FE:   Framing Error flag
 867:../../../SDK_embedded/libs/stm32/STM32F10x_StdPeriph_Driver/stm32f10x_usart.c ****   *     @arg USART_FLAG_PE:   Parity Error flag
 868:../../../SDK_embedded/libs/stm32/STM32F10x_StdPeriph_Driver/stm32f10x_usart.c ****   * @retval The new state of USART_FLAG (SET or RESET).
 869:../../../SDK_embedded/libs/stm32/STM32F10x_StdPeriph_Driver/stm32f10x_usart.c ****   */
 870:../../../SDK_embedded/libs/stm32/STM32F10x_StdPeriph_Driver/stm32f10x_usart.c **** FlagStatus USART_GetFlagStatus(USART_TypeDef* USARTx, uint16_t USART_FLAG)
 871:../../../SDK_embedded/libs/stm32/STM32F10x_StdPeriph_Driver/stm32f10x_usart.c **** {
 17746              		.loc 1 871 0
 17747              		.cfi_startproc
 17748              		@ args = 0, pretend = 0, frame = 0
 17749              		@ frame_needed = 0, uses_anonymous_args = 0
 17750              		@ link register save eliminated.
 17751              	.LVL111:
 872:../../../SDK_embedded/libs/stm32/STM32F10x_StdPeriph_Driver/stm32f10x_usart.c ****   FlagStatus bitstatus = RESET;
 873:../../../SDK_embedded/libs/stm32/STM32F10x_StdPeriph_Driver/stm32f10x_usart.c ****   /* Check the parameters */
 874:../../../SDK_embedded/libs/stm32/STM32F10x_StdPeriph_Driver/stm32f10x_usart.c ****   assert_param(IS_USART_ALL_PERIPH(USARTx));
 875:../../../SDK_embedded/libs/stm32/STM32F10x_StdPeriph_Driver/stm32f10x_usart.c ****   assert_param(IS_USART_FLAG(USART_FLAG));
 876:../../../SDK_embedded/libs/stm32/STM32F10x_StdPeriph_Driver/stm32f10x_usart.c ****   /* The CTS flag is not available for UART4 and UART5 */
 877:../../../SDK_embedded/libs/stm32/STM32F10x_StdPeriph_Driver/stm32f10x_usart.c ****   if (USART_FLAG == USART_FLAG_CTS)
 878:../../../SDK_embedded/libs/stm32/STM32F10x_StdPeriph_Driver/stm32f10x_usart.c ****   {
 879:../../../SDK_embedded/libs/stm32/STM32F10x_StdPeriph_Driver/stm32f10x_usart.c ****     assert_param(IS_USART_123_PERIPH(USARTx));
 880:../../../SDK_embedded/libs/stm32/STM32F10x_StdPeriph_Driver/stm32f10x_usart.c ****   }  
 881:../../../SDK_embedded/libs/stm32/STM32F10x_StdPeriph_Driver/stm32f10x_usart.c ****   
 882:../../../SDK_embedded/libs/stm32/STM32F10x_StdPeriph_Driver/stm32f10x_usart.c ****   if ((USARTx->SR & USART_FLAG) != (uint16_t)RESET)
 17752              		.loc 1 882 0
 17753 0000 0388     		ldrh	r3, [r0, #0]
 17754              	.LVL112:
 883:../../../SDK_embedded/libs/stm32/STM32F10x_StdPeriph_Driver/stm32f10x_usart.c ****   {
 884:../../../SDK_embedded/libs/stm32/STM32F10x_StdPeriph_Driver/stm32f10x_usart.c ****     bitstatus = SET;
 17755              		.loc 1 884 0
 17756 0002 1942     		tst	r1, r3
 882:../../../SDK_embedded/libs/stm32/STM32F10x_StdPeriph_Driver/stm32f10x_usart.c ****   if ((USARTx->SR & USART_FLAG) != (uint16_t)RESET)
 17757              		.loc 1 882 0
 17758 0004 0CBF     		ite	eq
 17759 0006 0020     		moveq	r0, #0
 17760 0008 0120     		movne	r0, #1
 17761              	.LVL113:
 885:../../../SDK_embedded/libs/stm32/STM32F10x_StdPeriph_Driver/stm32f10x_usart.c ****   }
 886:../../../SDK_embedded/libs/stm32/STM32F10x_StdPeriph_Driver/stm32f10x_usart.c ****   else
 887:../../../SDK_embedded/libs/stm32/STM32F10x_StdPeriph_Driver/stm32f10x_usart.c ****   {
 888:../../../SDK_embedded/libs/stm32/STM32F10x_StdPeriph_Driver/stm32f10x_usart.c ****     bitstatus = RESET;
 889:../../../SDK_embedded/libs/stm32/STM32F10x_StdPeriph_Driver/stm32f10x_usart.c ****   }
 890:../../../SDK_embedded/libs/stm32/STM32F10x_StdPeriph_Driver/stm32f10x_usart.c ****   return bitstatus;
 891:../../../SDK_embedded/libs/stm32/STM32F10x_StdPeriph_Driver/stm32f10x_usart.c **** }
 17762              		.loc 1 891 0
 17763 000a 7047     		bx	lr
 17764              		.cfi_endproc
 17765              	.LFE54:
 17767              		.section	.text.USART_ClearFlag,"ax",%progbits
 17768              		.align	1
 17769              		.global	USART_ClearFlag
 17770              		.thumb
 17771              		.thumb_func
 17773              	USART_ClearFlag:
 17774              	.LFB55:
 892:../../../SDK_embedded/libs/stm32/STM32F10x_StdPeriph_Driver/stm32f10x_usart.c **** 
 893:../../../SDK_embedded/libs/stm32/STM32F10x_StdPeriph_Driver/stm32f10x_usart.c **** /**
 894:../../../SDK_embedded/libs/stm32/STM32F10x_StdPeriph_Driver/stm32f10x_usart.c ****   * @brief  Clears the USARTx's pending flags.
 895:../../../SDK_embedded/libs/stm32/STM32F10x_StdPeriph_Driver/stm32f10x_usart.c ****   * @param  USARTx: Select the USART or the UART peripheral. 
 896:../../../SDK_embedded/libs/stm32/STM32F10x_StdPeriph_Driver/stm32f10x_usart.c ****   *   This parameter can be one of the following values:
 897:../../../SDK_embedded/libs/stm32/STM32F10x_StdPeriph_Driver/stm32f10x_usart.c ****   *   USART1, USART2, USART3, UART4 or UART5.
 898:../../../SDK_embedded/libs/stm32/STM32F10x_StdPeriph_Driver/stm32f10x_usart.c ****   * @param  USART_FLAG: specifies the flag to clear.
 899:../../../SDK_embedded/libs/stm32/STM32F10x_StdPeriph_Driver/stm32f10x_usart.c ****   *   This parameter can be any combination of the following values:
 900:../../../SDK_embedded/libs/stm32/STM32F10x_StdPeriph_Driver/stm32f10x_usart.c ****   *     @arg USART_FLAG_CTS:  CTS Change flag (not available for UART4 and UART5).
 901:../../../SDK_embedded/libs/stm32/STM32F10x_StdPeriph_Driver/stm32f10x_usart.c ****   *     @arg USART_FLAG_LBD:  LIN Break detection flag.
 902:../../../SDK_embedded/libs/stm32/STM32F10x_StdPeriph_Driver/stm32f10x_usart.c ****   *     @arg USART_FLAG_TC:   Transmission Complete flag.
 903:../../../SDK_embedded/libs/stm32/STM32F10x_StdPeriph_Driver/stm32f10x_usart.c ****   *     @arg USART_FLAG_RXNE: Receive data register not empty flag.
 904:../../../SDK_embedded/libs/stm32/STM32F10x_StdPeriph_Driver/stm32f10x_usart.c ****   *   
 905:../../../SDK_embedded/libs/stm32/STM32F10x_StdPeriph_Driver/stm32f10x_usart.c ****   * @note
 906:../../../SDK_embedded/libs/stm32/STM32F10x_StdPeriph_Driver/stm32f10x_usart.c ****   *   - PE (Parity error), FE (Framing error), NE (Noise error), ORE (OverRun 
 907:../../../SDK_embedded/libs/stm32/STM32F10x_StdPeriph_Driver/stm32f10x_usart.c ****   *     error) and IDLE (Idle line detected) flags are cleared by software 
 908:../../../SDK_embedded/libs/stm32/STM32F10x_StdPeriph_Driver/stm32f10x_usart.c ****   *     sequence: a read operation to USART_SR register (USART_GetFlagStatus()) 
 909:../../../SDK_embedded/libs/stm32/STM32F10x_StdPeriph_Driver/stm32f10x_usart.c ****   *     followed by a read operation to USART_DR register (USART_ReceiveData()).
 910:../../../SDK_embedded/libs/stm32/STM32F10x_StdPeriph_Driver/stm32f10x_usart.c ****   *   - RXNE flag can be also cleared by a read to the USART_DR register 
 911:../../../SDK_embedded/libs/stm32/STM32F10x_StdPeriph_Driver/stm32f10x_usart.c ****   *     (USART_ReceiveData()).
 912:../../../SDK_embedded/libs/stm32/STM32F10x_StdPeriph_Driver/stm32f10x_usart.c ****   *   - TC flag can be also cleared by software sequence: a read operation to 
 913:../../../SDK_embedded/libs/stm32/STM32F10x_StdPeriph_Driver/stm32f10x_usart.c ****   *     USART_SR register (USART_GetFlagStatus()) followed by a write operation
 914:../../../SDK_embedded/libs/stm32/STM32F10x_StdPeriph_Driver/stm32f10x_usart.c ****   *     to USART_DR register (USART_SendData()).
 915:../../../SDK_embedded/libs/stm32/STM32F10x_StdPeriph_Driver/stm32f10x_usart.c ****   *   - TXE flag is cleared only by a write to the USART_DR register 
 916:../../../SDK_embedded/libs/stm32/STM32F10x_StdPeriph_Driver/stm32f10x_usart.c ****   *     (USART_SendData()).
 917:../../../SDK_embedded/libs/stm32/STM32F10x_StdPeriph_Driver/stm32f10x_usart.c ****   * @retval None
 918:../../../SDK_embedded/libs/stm32/STM32F10x_StdPeriph_Driver/stm32f10x_usart.c ****   */
 919:../../../SDK_embedded/libs/stm32/STM32F10x_StdPeriph_Driver/stm32f10x_usart.c **** void USART_ClearFlag(USART_TypeDef* USARTx, uint16_t USART_FLAG)
 920:../../../SDK_embedded/libs/stm32/STM32F10x_StdPeriph_Driver/stm32f10x_usart.c **** {
 17775              		.loc 1 920 0
 17776              		.cfi_startproc
 17777              		@ args = 0, pretend = 0, frame = 0
 17778              		@ frame_needed = 0, uses_anonymous_args = 0
 17779              		@ link register save eliminated.
 17780              	.LVL114:
 921:../../../SDK_embedded/libs/stm32/STM32F10x_StdPeriph_Driver/stm32f10x_usart.c ****   /* Check the parameters */
 922:../../../SDK_embedded/libs/stm32/STM32F10x_StdPeriph_Driver/stm32f10x_usart.c ****   assert_param(IS_USART_ALL_PERIPH(USARTx));
 923:../../../SDK_embedded/libs/stm32/STM32F10x_StdPeriph_Driver/stm32f10x_usart.c ****   assert_param(IS_USART_CLEAR_FLAG(USART_FLAG));
 924:../../../SDK_embedded/libs/stm32/STM32F10x_StdPeriph_Driver/stm32f10x_usart.c ****   /* The CTS flag is not available for UART4 and UART5 */
 925:../../../SDK_embedded/libs/stm32/STM32F10x_StdPeriph_Driver/stm32f10x_usart.c ****   if ((USART_FLAG & USART_FLAG_CTS) == USART_FLAG_CTS)
 926:../../../SDK_embedded/libs/stm32/STM32F10x_StdPeriph_Driver/stm32f10x_usart.c ****   {
 927:../../../SDK_embedded/libs/stm32/STM32F10x_StdPeriph_Driver/stm32f10x_usart.c ****     assert_param(IS_USART_123_PERIPH(USARTx));
 928:../../../SDK_embedded/libs/stm32/STM32F10x_StdPeriph_Driver/stm32f10x_usart.c ****   } 
 929:../../../SDK_embedded/libs/stm32/STM32F10x_StdPeriph_Driver/stm32f10x_usart.c ****    
 930:../../../SDK_embedded/libs/stm32/STM32F10x_StdPeriph_Driver/stm32f10x_usart.c ****   USARTx->SR = (uint16_t)~USART_FLAG;
 17781              		.loc 1 930 0
 17782 0000 CA43     		mvns	r2, r1
 17783 0002 91B2     		uxth	r1, r2
 17784              	.LVL115:
 17785 0004 0180     		strh	r1, [r0, #0]	@ movhi
 931:../../../SDK_embedded/libs/stm32/STM32F10x_StdPeriph_Driver/stm32f10x_usart.c **** }
 17786              		.loc 1 931 0
 17787 0006 7047     		bx	lr
 17788              		.cfi_endproc
 17789              	.LFE55:
 17791              		.section	.text.USART_GetITStatus,"ax",%progbits
 17792              		.align	1
 17793              		.global	USART_GetITStatus
 17794              		.thumb
 17795              		.thumb_func
 17797              	USART_GetITStatus:
 17798              	.LFB56:
 932:../../../SDK_embedded/libs/stm32/STM32F10x_StdPeriph_Driver/stm32f10x_usart.c **** 
 933:../../../SDK_embedded/libs/stm32/STM32F10x_StdPeriph_Driver/stm32f10x_usart.c **** /**
 934:../../../SDK_embedded/libs/stm32/STM32F10x_StdPeriph_Driver/stm32f10x_usart.c ****   * @brief  Checks whether the specified USART interrupt has occurred or not.
 935:../../../SDK_embedded/libs/stm32/STM32F10x_StdPeriph_Driver/stm32f10x_usart.c ****   * @param  USARTx: Select the USART or the UART peripheral. 
 936:../../../SDK_embedded/libs/stm32/STM32F10x_StdPeriph_Driver/stm32f10x_usart.c ****   *   This parameter can be one of the following values:
 937:../../../SDK_embedded/libs/stm32/STM32F10x_StdPeriph_Driver/stm32f10x_usart.c ****   *   USART1, USART2, USART3, UART4 or UART5.
 938:../../../SDK_embedded/libs/stm32/STM32F10x_StdPeriph_Driver/stm32f10x_usart.c ****   * @param  USART_IT: specifies the USART interrupt source to check.
 939:../../../SDK_embedded/libs/stm32/STM32F10x_StdPeriph_Driver/stm32f10x_usart.c ****   *   This parameter can be one of the following values:
 940:../../../SDK_embedded/libs/stm32/STM32F10x_StdPeriph_Driver/stm32f10x_usart.c ****   *     @arg USART_IT_CTS:  CTS change interrupt (not available for UART4 and UART5)
 941:../../../SDK_embedded/libs/stm32/STM32F10x_StdPeriph_Driver/stm32f10x_usart.c ****   *     @arg USART_IT_LBD:  LIN Break detection interrupt
 942:../../../SDK_embedded/libs/stm32/STM32F10x_StdPeriph_Driver/stm32f10x_usart.c ****   *     @arg USART_IT_TXE:  Tansmit Data Register empty interrupt
 943:../../../SDK_embedded/libs/stm32/STM32F10x_StdPeriph_Driver/stm32f10x_usart.c ****   *     @arg USART_IT_TC:   Transmission complete interrupt
 944:../../../SDK_embedded/libs/stm32/STM32F10x_StdPeriph_Driver/stm32f10x_usart.c ****   *     @arg USART_IT_RXNE: Receive Data register not empty interrupt
 945:../../../SDK_embedded/libs/stm32/STM32F10x_StdPeriph_Driver/stm32f10x_usart.c ****   *     @arg USART_IT_IDLE: Idle line detection interrupt
 946:../../../SDK_embedded/libs/stm32/STM32F10x_StdPeriph_Driver/stm32f10x_usart.c ****   *     @arg USART_IT_ORE:  OverRun Error interrupt
 947:../../../SDK_embedded/libs/stm32/STM32F10x_StdPeriph_Driver/stm32f10x_usart.c ****   *     @arg USART_IT_NE:   Noise Error interrupt
 948:../../../SDK_embedded/libs/stm32/STM32F10x_StdPeriph_Driver/stm32f10x_usart.c ****   *     @arg USART_IT_FE:   Framing Error interrupt
 949:../../../SDK_embedded/libs/stm32/STM32F10x_StdPeriph_Driver/stm32f10x_usart.c ****   *     @arg USART_IT_PE:   Parity Error interrupt
 950:../../../SDK_embedded/libs/stm32/STM32F10x_StdPeriph_Driver/stm32f10x_usart.c ****   * @retval The new state of USART_IT (SET or RESET).
 951:../../../SDK_embedded/libs/stm32/STM32F10x_StdPeriph_Driver/stm32f10x_usart.c ****   */
 952:../../../SDK_embedded/libs/stm32/STM32F10x_StdPeriph_Driver/stm32f10x_usart.c **** ITStatus USART_GetITStatus(USART_TypeDef* USARTx, uint16_t USART_IT)
 953:../../../SDK_embedded/libs/stm32/STM32F10x_StdPeriph_Driver/stm32f10x_usart.c **** {
 17799              		.loc 1 953 0
 17800              		.cfi_startproc
 17801              		@ args = 0, pretend = 0, frame = 0
 17802              		@ frame_needed = 0, uses_anonymous_args = 0
 17803              	.LVL116:
 17804 0000 10B5     		push	{r4, lr}
 17805              	.LCFI5:
 17806              		.cfi_def_cfa_offset 8
 17807              		.cfi_offset 14, -4
 17808              		.cfi_offset 4, -8
 954:../../../SDK_embedded/libs/stm32/STM32F10x_StdPeriph_Driver/stm32f10x_usart.c ****   uint32_t bitpos = 0x00, itmask = 0x00, usartreg = 0x00;
 955:../../../SDK_embedded/libs/stm32/STM32F10x_StdPeriph_Driver/stm32f10x_usart.c ****   ITStatus bitstatus = RESET;
 956:../../../SDK_embedded/libs/stm32/STM32F10x_StdPeriph_Driver/stm32f10x_usart.c ****   /* Check the parameters */
 957:../../../SDK_embedded/libs/stm32/STM32F10x_StdPeriph_Driver/stm32f10x_usart.c ****   assert_param(IS_USART_ALL_PERIPH(USARTx));
 958:../../../SDK_embedded/libs/stm32/STM32F10x_StdPeriph_Driver/stm32f10x_usart.c ****   assert_param(IS_USART_GET_IT(USART_IT));
 959:../../../SDK_embedded/libs/stm32/STM32F10x_StdPeriph_Driver/stm32f10x_usart.c ****   /* The CTS interrupt is not available for UART4 and UART5 */ 
 960:../../../SDK_embedded/libs/stm32/STM32F10x_StdPeriph_Driver/stm32f10x_usart.c ****   if (USART_IT == USART_IT_CTS)
 961:../../../SDK_embedded/libs/stm32/STM32F10x_StdPeriph_Driver/stm32f10x_usart.c ****   {
 962:../../../SDK_embedded/libs/stm32/STM32F10x_StdPeriph_Driver/stm32f10x_usart.c ****     assert_param(IS_USART_123_PERIPH(USARTx));
 963:../../../SDK_embedded/libs/stm32/STM32F10x_StdPeriph_Driver/stm32f10x_usart.c ****   }   
 964:../../../SDK_embedded/libs/stm32/STM32F10x_StdPeriph_Driver/stm32f10x_usart.c ****   
 965:../../../SDK_embedded/libs/stm32/STM32F10x_StdPeriph_Driver/stm32f10x_usart.c ****   /* Get the USART register index */
 966:../../../SDK_embedded/libs/stm32/STM32F10x_StdPeriph_Driver/stm32f10x_usart.c ****   usartreg = (((uint8_t)USART_IT) >> 0x05);
 967:../../../SDK_embedded/libs/stm32/STM32F10x_StdPeriph_Driver/stm32f10x_usart.c ****   /* Get the interrupt position */
 968:../../../SDK_embedded/libs/stm32/STM32F10x_StdPeriph_Driver/stm32f10x_usart.c ****   itmask = USART_IT & IT_Mask;
 17809              		.loc 1 968 0
 17810 0002 01F01F03 		and	r3, r1, #31
 969:../../../SDK_embedded/libs/stm32/STM32F10x_StdPeriph_Driver/stm32f10x_usart.c ****   itmask = (uint32_t)0x01 << itmask;
 17811              		.loc 1 969 0
 17812 0006 0122     		movs	r2, #1
 966:../../../SDK_embedded/libs/stm32/STM32F10x_StdPeriph_Driver/stm32f10x_usart.c ****   usartreg = (((uint8_t)USART_IT) >> 0x05);
 17813              		.loc 1 966 0
 17814 0008 C1F34214 		ubfx	r4, r1, #5, #3
 17815              	.LVL117:
 17816              		.loc 1 969 0
 17817 000c 9A40     		lsls	r2, r2, r3
 17818              	.LVL118:
 970:../../../SDK_embedded/libs/stm32/STM32F10x_StdPeriph_Driver/stm32f10x_usart.c ****   
 971:../../../SDK_embedded/libs/stm32/STM32F10x_StdPeriph_Driver/stm32f10x_usart.c ****   if (usartreg == 0x01) /* The IT  is in CR1 register */
 17819              		.loc 1 971 0
 17820 000e 012C     		cmp	r4, #1
 972:../../../SDK_embedded/libs/stm32/STM32F10x_StdPeriph_Driver/stm32f10x_usart.c ****   {
 973:../../../SDK_embedded/libs/stm32/STM32F10x_StdPeriph_Driver/stm32f10x_usart.c ****     itmask &= USARTx->CR1;
 17821              		.loc 1 973 0
 17822 0010 08BF     		it	eq
 17823 0012 8389     		ldrheq	r3, [r0, #12]
 971:../../../SDK_embedded/libs/stm32/STM32F10x_StdPeriph_Driver/stm32f10x_usart.c ****   if (usartreg == 0x01) /* The IT  is in CR1 register */
 17824              		.loc 1 971 0
 17825 0014 03D0     		beq	.L86
 974:../../../SDK_embedded/libs/stm32/STM32F10x_StdPeriph_Driver/stm32f10x_usart.c ****   }
 975:../../../SDK_embedded/libs/stm32/STM32F10x_StdPeriph_Driver/stm32f10x_usart.c ****   else if (usartreg == 0x02) /* The IT  is in CR2 register */
 17826              		.loc 1 975 0
 17827 0016 022C     		cmp	r4, #2
 976:../../../SDK_embedded/libs/stm32/STM32F10x_StdPeriph_Driver/stm32f10x_usart.c ****   {
 977:../../../SDK_embedded/libs/stm32/STM32F10x_StdPeriph_Driver/stm32f10x_usart.c ****     itmask &= USARTx->CR2;
 17828              		.loc 1 977 0
 17829 0018 0CBF     		ite	eq
 17830 001a 038A     		ldrheq	r3, [r0, #16]
 978:../../../SDK_embedded/libs/stm32/STM32F10x_StdPeriph_Driver/stm32f10x_usart.c ****   }
 979:../../../SDK_embedded/libs/stm32/STM32F10x_StdPeriph_Driver/stm32f10x_usart.c ****   else /* The IT  is in CR3 register */
 980:../../../SDK_embedded/libs/stm32/STM32F10x_StdPeriph_Driver/stm32f10x_usart.c ****   {
 981:../../../SDK_embedded/libs/stm32/STM32F10x_StdPeriph_Driver/stm32f10x_usart.c ****     itmask &= USARTx->CR3;
 17831              		.loc 1 981 0
 17832 001c 838A     		ldrhne	r3, [r0, #20]
 17833              	.L86:
 17834 001e 9BB2     		uxth	r3, r3
 17835 0020 02EA0303 		and	r3, r2, r3
 17836              	.LVL119:
 982:../../../SDK_embedded/libs/stm32/STM32F10x_StdPeriph_Driver/stm32f10x_usart.c ****   }
 983:../../../SDK_embedded/libs/stm32/STM32F10x_StdPeriph_Driver/stm32f10x_usart.c ****   
 984:../../../SDK_embedded/libs/stm32/STM32F10x_StdPeriph_Driver/stm32f10x_usart.c ****   bitpos = USART_IT >> 0x08;
 17837              		.loc 1 984 0
 17838 0024 090A     		lsrs	r1, r1, #8
 17839              	.LVL120:
 985:../../../SDK_embedded/libs/stm32/STM32F10x_StdPeriph_Driver/stm32f10x_usart.c ****   bitpos = (uint32_t)0x01 << bitpos;
 17840              		.loc 1 985 0
 17841 0026 0122     		movs	r2, #1
 17842 0028 12FA01F1 		lsls	r1, r2, r1
 17843              	.LVL121:
 986:../../../SDK_embedded/libs/stm32/STM32F10x_StdPeriph_Driver/stm32f10x_usart.c ****   bitpos &= USARTx->SR;
 17844              		.loc 1 986 0
 17845 002c B0F800C0 		ldrh	ip, [r0, #0]
 17846 0030 1FFA8CF0 		uxth	r0, ip
 17847              	.LVL122:
 987:../../../SDK_embedded/libs/stm32/STM32F10x_StdPeriph_Driver/stm32f10x_usart.c ****   if ((itmask != (uint16_t)RESET)&&(bitpos != (uint16_t)RESET))
 17848              		.loc 1 987 0
 17849 0034 0142     		tst	r1, r0
 17850 0036 0CBF     		ite	eq
 17851 0038 0020     		moveq	r0, #0
 17852 003a 0120     		movne	r0, #1
 17853              	.LVL123:
 986:../../../SDK_embedded/libs/stm32/STM32F10x_StdPeriph_Driver/stm32f10x_usart.c ****   bitpos &= USARTx->SR;
 17854              		.loc 1 986 0
 17855 003c 002B     		cmp	r3, #0
 17856 003e 0CBF     		ite	eq
 17857 0040 0020     		moveq	r0, #0
 17858 0042 00F00100 		andne	r0, r0, #1
 988:../../../SDK_embedded/libs/stm32/STM32F10x_StdPeriph_Driver/stm32f10x_usart.c ****   {
 989:../../../SDK_embedded/libs/stm32/STM32F10x_StdPeriph_Driver/stm32f10x_usart.c ****     bitstatus = SET;
 990:../../../SDK_embedded/libs/stm32/STM32F10x_StdPeriph_Driver/stm32f10x_usart.c ****   }
 991:../../../SDK_embedded/libs/stm32/STM32F10x_StdPeriph_Driver/stm32f10x_usart.c ****   else
 992:../../../SDK_embedded/libs/stm32/STM32F10x_StdPeriph_Driver/stm32f10x_usart.c ****   {
 993:../../../SDK_embedded/libs/stm32/STM32F10x_StdPeriph_Driver/stm32f10x_usart.c ****     bitstatus = RESET;
 994:../../../SDK_embedded/libs/stm32/STM32F10x_StdPeriph_Driver/stm32f10x_usart.c ****   }
 995:../../../SDK_embedded/libs/stm32/STM32F10x_StdPeriph_Driver/stm32f10x_usart.c ****   
 996:../../../SDK_embedded/libs/stm32/STM32F10x_StdPeriph_Driver/stm32f10x_usart.c ****   return bitstatus;  
 997:../../../SDK_embedded/libs/stm32/STM32F10x_StdPeriph_Driver/stm32f10x_usart.c **** }
 17859              		.loc 1 997 0
 17860 0046 10BD     		pop	{r4, pc}
 17861              		.cfi_endproc
 17862              	.LFE56:
 17864              		.section	.text.USART_ClearITPendingBit,"ax",%progbits
 17865              		.align	1
 17866              		.global	USART_ClearITPendingBit
 17867              		.thumb
 17868              		.thumb_func
 17870              	USART_ClearITPendingBit:
 17871              	.LFB57:
 998:../../../SDK_embedded/libs/stm32/STM32F10x_StdPeriph_Driver/stm32f10x_usart.c **** 
 999:../../../SDK_embedded/libs/stm32/STM32F10x_StdPeriph_Driver/stm32f10x_usart.c **** /**
1000:../../../SDK_embedded/libs/stm32/STM32F10x_StdPeriph_Driver/stm32f10x_usart.c ****   * @brief  Clears the USARTxs interrupt pending bits.
1001:../../../SDK_embedded/libs/stm32/STM32F10x_StdPeriph_Driver/stm32f10x_usart.c ****   * @param  USARTx: Select the USART or the UART peripheral. 
1002:../../../SDK_embedded/libs/stm32/STM32F10x_StdPeriph_Driver/stm32f10x_usart.c ****   *   This parameter can be one of the following values:
1003:../../../SDK_embedded/libs/stm32/STM32F10x_StdPeriph_Driver/stm32f10x_usart.c ****   *   USART1, USART2, USART3, UART4 or UART5.
1004:../../../SDK_embedded/libs/stm32/STM32F10x_StdPeriph_Driver/stm32f10x_usart.c ****   * @param  USART_IT: specifies the interrupt pending bit to clear.
1005:../../../SDK_embedded/libs/stm32/STM32F10x_StdPeriph_Driver/stm32f10x_usart.c ****   *   This parameter can be one of the following values:
1006:../../../SDK_embedded/libs/stm32/STM32F10x_StdPeriph_Driver/stm32f10x_usart.c ****   *     @arg USART_IT_CTS:  CTS change interrupt (not available for UART4 and UART5)
1007:../../../SDK_embedded/libs/stm32/STM32F10x_StdPeriph_Driver/stm32f10x_usart.c ****   *     @arg USART_IT_LBD:  LIN Break detection interrupt
1008:../../../SDK_embedded/libs/stm32/STM32F10x_StdPeriph_Driver/stm32f10x_usart.c ****   *     @arg USART_IT_TC:   Transmission complete interrupt. 
1009:../../../SDK_embedded/libs/stm32/STM32F10x_StdPeriph_Driver/stm32f10x_usart.c ****   *     @arg USART_IT_RXNE: Receive Data register not empty interrupt.
1010:../../../SDK_embedded/libs/stm32/STM32F10x_StdPeriph_Driver/stm32f10x_usart.c ****   *   
1011:../../../SDK_embedded/libs/stm32/STM32F10x_StdPeriph_Driver/stm32f10x_usart.c ****   * @note
1012:../../../SDK_embedded/libs/stm32/STM32F10x_StdPeriph_Driver/stm32f10x_usart.c ****   *   - PE (Parity error), FE (Framing error), NE (Noise error), ORE (OverRun 
1013:../../../SDK_embedded/libs/stm32/STM32F10x_StdPeriph_Driver/stm32f10x_usart.c ****   *     error) and IDLE (Idle line detected) pending bits are cleared by 
1014:../../../SDK_embedded/libs/stm32/STM32F10x_StdPeriph_Driver/stm32f10x_usart.c ****   *     software sequence: a read operation to USART_SR register 
1015:../../../SDK_embedded/libs/stm32/STM32F10x_StdPeriph_Driver/stm32f10x_usart.c ****   *     (USART_GetITStatus()) followed by a read operation to USART_DR register 
1016:../../../SDK_embedded/libs/stm32/STM32F10x_StdPeriph_Driver/stm32f10x_usart.c ****   *     (USART_ReceiveData()).
1017:../../../SDK_embedded/libs/stm32/STM32F10x_StdPeriph_Driver/stm32f10x_usart.c ****   *   - RXNE pending bit can be also cleared by a read to the USART_DR register 
1018:../../../SDK_embedded/libs/stm32/STM32F10x_StdPeriph_Driver/stm32f10x_usart.c ****   *     (USART_ReceiveData()).
1019:../../../SDK_embedded/libs/stm32/STM32F10x_StdPeriph_Driver/stm32f10x_usart.c ****   *   - TC pending bit can be also cleared by software sequence: a read 
1020:../../../SDK_embedded/libs/stm32/STM32F10x_StdPeriph_Driver/stm32f10x_usart.c ****   *     operation to USART_SR register (USART_GetITStatus()) followed by a write 
1021:../../../SDK_embedded/libs/stm32/STM32F10x_StdPeriph_Driver/stm32f10x_usart.c ****   *     operation to USART_DR register (USART_SendData()).
1022:../../../SDK_embedded/libs/stm32/STM32F10x_StdPeriph_Driver/stm32f10x_usart.c ****   *   - TXE pending bit is cleared only by a write to the USART_DR register 
1023:../../../SDK_embedded/libs/stm32/STM32F10x_StdPeriph_Driver/stm32f10x_usart.c ****   *     (USART_SendData()).
1024:../../../SDK_embedded/libs/stm32/STM32F10x_StdPeriph_Driver/stm32f10x_usart.c ****   * @retval None
1025:../../../SDK_embedded/libs/stm32/STM32F10x_StdPeriph_Driver/stm32f10x_usart.c ****   */
1026:../../../SDK_embedded/libs/stm32/STM32F10x_StdPeriph_Driver/stm32f10x_usart.c **** void USART_ClearITPendingBit(USART_TypeDef* USARTx, uint16_t USART_IT)
1027:../../../SDK_embedded/libs/stm32/STM32F10x_StdPeriph_Driver/stm32f10x_usart.c **** {
 17872              		.loc 1 1027 0
 17873              		.cfi_startproc
 17874              		@ args = 0, pretend = 0, frame = 0
 17875              		@ frame_needed = 0, uses_anonymous_args = 0
 17876              		@ link register save eliminated.
 17877              	.LVL124:
1028:../../../SDK_embedded/libs/stm32/STM32F10x_StdPeriph_Driver/stm32f10x_usart.c ****   uint16_t bitpos = 0x00, itmask = 0x00;
1029:../../../SDK_embedded/libs/stm32/STM32F10x_StdPeriph_Driver/stm32f10x_usart.c ****   /* Check the parameters */
1030:../../../SDK_embedded/libs/stm32/STM32F10x_StdPeriph_Driver/stm32f10x_usart.c ****   assert_param(IS_USART_ALL_PERIPH(USARTx));
1031:../../../SDK_embedded/libs/stm32/STM32F10x_StdPeriph_Driver/stm32f10x_usart.c ****   assert_param(IS_USART_CLEAR_IT(USART_IT));
1032:../../../SDK_embedded/libs/stm32/STM32F10x_StdPeriph_Driver/stm32f10x_usart.c ****   /* The CTS interrupt is not available for UART4 and UART5 */
1033:../../../SDK_embedded/libs/stm32/STM32F10x_StdPeriph_Driver/stm32f10x_usart.c ****   if (USART_IT == USART_IT_CTS)
1034:../../../SDK_embedded/libs/stm32/STM32F10x_StdPeriph_Driver/stm32f10x_usart.c ****   {
1035:../../../SDK_embedded/libs/stm32/STM32F10x_StdPeriph_Driver/stm32f10x_usart.c ****     assert_param(IS_USART_123_PERIPH(USARTx));
1036:../../../SDK_embedded/libs/stm32/STM32F10x_StdPeriph_Driver/stm32f10x_usart.c ****   }   
1037:../../../SDK_embedded/libs/stm32/STM32F10x_StdPeriph_Driver/stm32f10x_usart.c ****   
1038:../../../SDK_embedded/libs/stm32/STM32F10x_StdPeriph_Driver/stm32f10x_usart.c ****   bitpos = USART_IT >> 0x08;
1039:../../../SDK_embedded/libs/stm32/STM32F10x_StdPeriph_Driver/stm32f10x_usart.c ****   itmask = ((uint16_t)0x01 << (uint16_t)bitpos);
 17878              		.loc 1 1039 0
 17879 0000 090A     		lsrs	r1, r1, #8
 17880              	.LVL125:
 17881 0002 0123     		movs	r3, #1
 17882 0004 13FA01F2 		lsls	r2, r3, r1
1040:../../../SDK_embedded/libs/stm32/STM32F10x_StdPeriph_Driver/stm32f10x_usart.c ****   USARTx->SR = (uint16_t)~itmask;
 17883              		.loc 1 1040 0
 17884 0008 D143     		mvns	r1, r2
 17885 000a 8BB2     		uxth	r3, r1
 17886 000c 0380     		strh	r3, [r0, #0]	@ movhi
1041:../../../SDK_embedded/libs/stm32/STM32F10x_StdPeriph_Driver/stm32f10x_usart.c **** }
 17887              		.loc 1 1041 0
 17888 000e 7047     		bx	lr
 17889              		.cfi_endproc
 17890              	.LFE57:
 17892              		.text
 17893              	.Letext0: