   1              		.syntax unified
   2              		.cpu cortex-m3
   3              		.fpu softvfp
   4              		.eabi_attribute 20, 1
   5              		.eabi_attribute 21, 1
   6              		.eabi_attribute 23, 3
   7              		.eabi_attribute 24, 1
   8              		.eabi_attribute 25, 1
   9              		.eabi_attribute 26, 1
  10              		.eabi_attribute 30, 4
  11              		.eabi_attribute 18, 4
  12              		.thumb
  13              		.file	"stm32f10x_rcc.c"
  23              	.Ltext0:
 16416              		.align	1
 16417              		.global	RCC_DeInit
 16418              		.thumb
 16419              		.thumb_func
 16421              	RCC_DeInit:
 16422              	.LFB29:
   1:../../../SDK_embedded/libs/stm32/STM32F10x_StdPeriph_Driver/stm32f10x_rcc.c **** /**
   2:../../../SDK_embedded/libs/stm32/STM32F10x_StdPeriph_Driver/stm32f10x_rcc.c ****   ******************************************************************************
   3:../../../SDK_embedded/libs/stm32/STM32F10x_StdPeriph_Driver/stm32f10x_rcc.c ****   * @file    stm32f10x_rcc.c
   4:../../../SDK_embedded/libs/stm32/STM32F10x_StdPeriph_Driver/stm32f10x_rcc.c ****   * @author  MCD Application Team
   5:../../../SDK_embedded/libs/stm32/STM32F10x_StdPeriph_Driver/stm32f10x_rcc.c ****   * @version V3.3.0
   6:../../../SDK_embedded/libs/stm32/STM32F10x_StdPeriph_Driver/stm32f10x_rcc.c ****   * @date    04/16/2010
   7:../../../SDK_embedded/libs/stm32/STM32F10x_StdPeriph_Driver/stm32f10x_rcc.c ****   * @brief   This file provides all the RCC firmware functions.
   8:../../../SDK_embedded/libs/stm32/STM32F10x_StdPeriph_Driver/stm32f10x_rcc.c ****   ******************************************************************************
   9:../../../SDK_embedded/libs/stm32/STM32F10x_StdPeriph_Driver/stm32f10x_rcc.c ****   * @copy
  10:../../../SDK_embedded/libs/stm32/STM32F10x_StdPeriph_Driver/stm32f10x_rcc.c ****   *
  11:../../../SDK_embedded/libs/stm32/STM32F10x_StdPeriph_Driver/stm32f10x_rcc.c ****   * THE PRESENT FIRMWARE WHICH IS FOR GUIDANCE ONLY AIMS AT PROVIDING CUSTOMERS
  12:../../../SDK_embedded/libs/stm32/STM32F10x_StdPeriph_Driver/stm32f10x_rcc.c ****   * WITH CODING INFORMATION REGARDING THEIR PRODUCTS IN ORDER FOR THEM TO SAVE
  13:../../../SDK_embedded/libs/stm32/STM32F10x_StdPeriph_Driver/stm32f10x_rcc.c ****   * TIME. AS A RESULT, STMICROELECTRONICS SHALL NOT BE HELD LIABLE FOR ANY
  14:../../../SDK_embedded/libs/stm32/STM32F10x_StdPeriph_Driver/stm32f10x_rcc.c ****   * DIRECT, INDIRECT OR CONSEQUENTIAL DAMAGES WITH RESPECT TO ANY CLAIMS ARISING
  15:../../../SDK_embedded/libs/stm32/STM32F10x_StdPeriph_Driver/stm32f10x_rcc.c ****   * FROM THE CONTENT OF SUCH FIRMWARE AND/OR THE USE MADE BY CUSTOMERS OF THE
  16:../../../SDK_embedded/libs/stm32/STM32F10x_StdPeriph_Driver/stm32f10x_rcc.c ****   * CODING INFORMATION CONTAINED HEREIN IN CONNECTION WITH THEIR PRODUCTS.
  17:../../../SDK_embedded/libs/stm32/STM32F10x_StdPeriph_Driver/stm32f10x_rcc.c ****   *
  18:../../../SDK_embedded/libs/stm32/STM32F10x_StdPeriph_Driver/stm32f10x_rcc.c ****   * <h2><center>&copy; COPYRIGHT 2010 STMicroelectronics</center></h2>
  19:../../../SDK_embedded/libs/stm32/STM32F10x_StdPeriph_Driver/stm32f10x_rcc.c ****   */ 
  20:../../../SDK_embedded/libs/stm32/STM32F10x_StdPeriph_Driver/stm32f10x_rcc.c **** 
  21:../../../SDK_embedded/libs/stm32/STM32F10x_StdPeriph_Driver/stm32f10x_rcc.c **** /* Includes ------------------------------------------------------------------*/
  22:../../../SDK_embedded/libs/stm32/STM32F10x_StdPeriph_Driver/stm32f10x_rcc.c **** #include "stm32f10x_rcc.h"
  23:../../../SDK_embedded/libs/stm32/STM32F10x_StdPeriph_Driver/stm32f10x_rcc.c **** 
  24:../../../SDK_embedded/libs/stm32/STM32F10x_StdPeriph_Driver/stm32f10x_rcc.c **** /** @addtogroup STM32F10x_StdPeriph_Driver
  25:../../../SDK_embedded/libs/stm32/STM32F10x_StdPeriph_Driver/stm32f10x_rcc.c ****   * @{
  26:../../../SDK_embedded/libs/stm32/STM32F10x_StdPeriph_Driver/stm32f10x_rcc.c ****   */
  27:../../../SDK_embedded/libs/stm32/STM32F10x_StdPeriph_Driver/stm32f10x_rcc.c **** 
  28:../../../SDK_embedded/libs/stm32/STM32F10x_StdPeriph_Driver/stm32f10x_rcc.c **** /** @defgroup RCC 
  29:../../../SDK_embedded/libs/stm32/STM32F10x_StdPeriph_Driver/stm32f10x_rcc.c ****   * @brief RCC driver modules
  30:../../../SDK_embedded/libs/stm32/STM32F10x_StdPeriph_Driver/stm32f10x_rcc.c ****   * @{
  31:../../../SDK_embedded/libs/stm32/STM32F10x_StdPeriph_Driver/stm32f10x_rcc.c ****   */ 
  32:../../../SDK_embedded/libs/stm32/STM32F10x_StdPeriph_Driver/stm32f10x_rcc.c **** 
  33:../../../SDK_embedded/libs/stm32/STM32F10x_StdPeriph_Driver/stm32f10x_rcc.c **** /** @defgroup RCC_Private_TypesDefinitions
  34:../../../SDK_embedded/libs/stm32/STM32F10x_StdPeriph_Driver/stm32f10x_rcc.c ****   * @{
  35:../../../SDK_embedded/libs/stm32/STM32F10x_StdPeriph_Driver/stm32f10x_rcc.c ****   */
  36:../../../SDK_embedded/libs/stm32/STM32F10x_StdPeriph_Driver/stm32f10x_rcc.c **** 
  37:../../../SDK_embedded/libs/stm32/STM32F10x_StdPeriph_Driver/stm32f10x_rcc.c **** /**
  38:../../../SDK_embedded/libs/stm32/STM32F10x_StdPeriph_Driver/stm32f10x_rcc.c ****   * @}
  39:../../../SDK_embedded/libs/stm32/STM32F10x_StdPeriph_Driver/stm32f10x_rcc.c ****   */
  40:../../../SDK_embedded/libs/stm32/STM32F10x_StdPeriph_Driver/stm32f10x_rcc.c **** 
  41:../../../SDK_embedded/libs/stm32/STM32F10x_StdPeriph_Driver/stm32f10x_rcc.c **** /** @defgroup RCC_Private_Defines
  42:../../../SDK_embedded/libs/stm32/STM32F10x_StdPeriph_Driver/stm32f10x_rcc.c ****   * @{
  43:../../../SDK_embedded/libs/stm32/STM32F10x_StdPeriph_Driver/stm32f10x_rcc.c ****   */
  44:../../../SDK_embedded/libs/stm32/STM32F10x_StdPeriph_Driver/stm32f10x_rcc.c **** 
  45:../../../SDK_embedded/libs/stm32/STM32F10x_StdPeriph_Driver/stm32f10x_rcc.c **** /* ------------ RCC registers bit address in the alias region ----------- */
  46:../../../SDK_embedded/libs/stm32/STM32F10x_StdPeriph_Driver/stm32f10x_rcc.c **** #define RCC_OFFSET                (RCC_BASE - PERIPH_BASE)
  47:../../../SDK_embedded/libs/stm32/STM32F10x_StdPeriph_Driver/stm32f10x_rcc.c **** 
  48:../../../SDK_embedded/libs/stm32/STM32F10x_StdPeriph_Driver/stm32f10x_rcc.c **** /* --- CR Register ---*/
  49:../../../SDK_embedded/libs/stm32/STM32F10x_StdPeriph_Driver/stm32f10x_rcc.c **** 
  50:../../../SDK_embedded/libs/stm32/STM32F10x_StdPeriph_Driver/stm32f10x_rcc.c **** /* Alias word address of HSION bit */
  51:../../../SDK_embedded/libs/stm32/STM32F10x_StdPeriph_Driver/stm32f10x_rcc.c **** #define CR_OFFSET                 (RCC_OFFSET + 0x00)
  52:../../../SDK_embedded/libs/stm32/STM32F10x_StdPeriph_Driver/stm32f10x_rcc.c **** #define HSION_BitNumber           0x00
  53:../../../SDK_embedded/libs/stm32/STM32F10x_StdPeriph_Driver/stm32f10x_rcc.c **** #define CR_HSION_BB               (PERIPH_BB_BASE + (CR_OFFSET * 32) + (HSION_BitNumber * 4))
  54:../../../SDK_embedded/libs/stm32/STM32F10x_StdPeriph_Driver/stm32f10x_rcc.c **** 
  55:../../../SDK_embedded/libs/stm32/STM32F10x_StdPeriph_Driver/stm32f10x_rcc.c **** /* Alias word address of PLLON bit */
  56:../../../SDK_embedded/libs/stm32/STM32F10x_StdPeriph_Driver/stm32f10x_rcc.c **** #define PLLON_BitNumber           0x18
  57:../../../SDK_embedded/libs/stm32/STM32F10x_StdPeriph_Driver/stm32f10x_rcc.c **** #define CR_PLLON_BB               (PERIPH_BB_BASE + (CR_OFFSET * 32) + (PLLON_BitNumber * 4))
  58:../../../SDK_embedded/libs/stm32/STM32F10x_StdPeriph_Driver/stm32f10x_rcc.c **** 
  59:../../../SDK_embedded/libs/stm32/STM32F10x_StdPeriph_Driver/stm32f10x_rcc.c **** #ifdef STM32F10X_CL
  60:../../../SDK_embedded/libs/stm32/STM32F10x_StdPeriph_Driver/stm32f10x_rcc.c ****  /* Alias word address of PLL2ON bit */
  61:../../../SDK_embedded/libs/stm32/STM32F10x_StdPeriph_Driver/stm32f10x_rcc.c ****  #define PLL2ON_BitNumber          0x1A
  62:../../../SDK_embedded/libs/stm32/STM32F10x_StdPeriph_Driver/stm32f10x_rcc.c ****  #define CR_PLL2ON_BB              (PERIPH_BB_BASE + (CR_OFFSET * 32) + (PLL2ON_BitNumber * 4))
  63:../../../SDK_embedded/libs/stm32/STM32F10x_StdPeriph_Driver/stm32f10x_rcc.c **** 
  64:../../../SDK_embedded/libs/stm32/STM32F10x_StdPeriph_Driver/stm32f10x_rcc.c ****  /* Alias word address of PLL3ON bit */
  65:../../../SDK_embedded/libs/stm32/STM32F10x_StdPeriph_Driver/stm32f10x_rcc.c ****  #define PLL3ON_BitNumber          0x1C
  66:../../../SDK_embedded/libs/stm32/STM32F10x_StdPeriph_Driver/stm32f10x_rcc.c ****  #define CR_PLL3ON_BB              (PERIPH_BB_BASE + (CR_OFFSET * 32) + (PLL3ON_BitNumber * 4))
  67:../../../SDK_embedded/libs/stm32/STM32F10x_StdPeriph_Driver/stm32f10x_rcc.c **** #endif /* STM32F10X_CL */ 
  68:../../../SDK_embedded/libs/stm32/STM32F10x_StdPeriph_Driver/stm32f10x_rcc.c **** 
  69:../../../SDK_embedded/libs/stm32/STM32F10x_StdPeriph_Driver/stm32f10x_rcc.c **** /* Alias word address of CSSON bit */
  70:../../../SDK_embedded/libs/stm32/STM32F10x_StdPeriph_Driver/stm32f10x_rcc.c **** #define CSSON_BitNumber           0x13
  71:../../../SDK_embedded/libs/stm32/STM32F10x_StdPeriph_Driver/stm32f10x_rcc.c **** #define CR_CSSON_BB               (PERIPH_BB_BASE + (CR_OFFSET * 32) + (CSSON_BitNumber * 4))
  72:../../../SDK_embedded/libs/stm32/STM32F10x_StdPeriph_Driver/stm32f10x_rcc.c **** 
  73:../../../SDK_embedded/libs/stm32/STM32F10x_StdPeriph_Driver/stm32f10x_rcc.c **** /* --- CFGR Register ---*/
  74:../../../SDK_embedded/libs/stm32/STM32F10x_StdPeriph_Driver/stm32f10x_rcc.c **** 
  75:../../../SDK_embedded/libs/stm32/STM32F10x_StdPeriph_Driver/stm32f10x_rcc.c **** /* Alias word address of USBPRE bit */
  76:../../../SDK_embedded/libs/stm32/STM32F10x_StdPeriph_Driver/stm32f10x_rcc.c **** #define CFGR_OFFSET               (RCC_OFFSET + 0x04)
  77:../../../SDK_embedded/libs/stm32/STM32F10x_StdPeriph_Driver/stm32f10x_rcc.c **** 
  78:../../../SDK_embedded/libs/stm32/STM32F10x_StdPeriph_Driver/stm32f10x_rcc.c **** #ifndef STM32F10X_CL
  79:../../../SDK_embedded/libs/stm32/STM32F10x_StdPeriph_Driver/stm32f10x_rcc.c ****  #define USBPRE_BitNumber          0x16
  80:../../../SDK_embedded/libs/stm32/STM32F10x_StdPeriph_Driver/stm32f10x_rcc.c ****  #define CFGR_USBPRE_BB            (PERIPH_BB_BASE + (CFGR_OFFSET * 32) + (USBPRE_BitNumber * 4))
  81:../../../SDK_embedded/libs/stm32/STM32F10x_StdPeriph_Driver/stm32f10x_rcc.c **** #else
  82:../../../SDK_embedded/libs/stm32/STM32F10x_StdPeriph_Driver/stm32f10x_rcc.c ****  #define OTGFSPRE_BitNumber        0x16
  83:../../../SDK_embedded/libs/stm32/STM32F10x_StdPeriph_Driver/stm32f10x_rcc.c ****  #define CFGR_OTGFSPRE_BB          (PERIPH_BB_BASE + (CFGR_OFFSET * 32) + (OTGFSPRE_BitNumber * 4))
  84:../../../SDK_embedded/libs/stm32/STM32F10x_StdPeriph_Driver/stm32f10x_rcc.c **** #endif /* STM32F10X_CL */ 
  85:../../../SDK_embedded/libs/stm32/STM32F10x_StdPeriph_Driver/stm32f10x_rcc.c **** 
  86:../../../SDK_embedded/libs/stm32/STM32F10x_StdPeriph_Driver/stm32f10x_rcc.c **** /* --- BDCR Register ---*/
  87:../../../SDK_embedded/libs/stm32/STM32F10x_StdPeriph_Driver/stm32f10x_rcc.c **** 
  88:../../../SDK_embedded/libs/stm32/STM32F10x_StdPeriph_Driver/stm32f10x_rcc.c **** /* Alias word address of RTCEN bit */
  89:../../../SDK_embedded/libs/stm32/STM32F10x_StdPeriph_Driver/stm32f10x_rcc.c **** #define BDCR_OFFSET               (RCC_OFFSET + 0x20)
  90:../../../SDK_embedded/libs/stm32/STM32F10x_StdPeriph_Driver/stm32f10x_rcc.c **** #define RTCEN_BitNumber           0x0F
  91:../../../SDK_embedded/libs/stm32/STM32F10x_StdPeriph_Driver/stm32f10x_rcc.c **** #define BDCR_RTCEN_BB             (PERIPH_BB_BASE + (BDCR_OFFSET * 32) + (RTCEN_BitNumber * 4))
  92:../../../SDK_embedded/libs/stm32/STM32F10x_StdPeriph_Driver/stm32f10x_rcc.c **** 
  93:../../../SDK_embedded/libs/stm32/STM32F10x_StdPeriph_Driver/stm32f10x_rcc.c **** /* Alias word address of BDRST bit */
  94:../../../SDK_embedded/libs/stm32/STM32F10x_StdPeriph_Driver/stm32f10x_rcc.c **** #define BDRST_BitNumber           0x10
  95:../../../SDK_embedded/libs/stm32/STM32F10x_StdPeriph_Driver/stm32f10x_rcc.c **** #define BDCR_BDRST_BB             (PERIPH_BB_BASE + (BDCR_OFFSET * 32) + (BDRST_BitNumber * 4))
  96:../../../SDK_embedded/libs/stm32/STM32F10x_StdPeriph_Driver/stm32f10x_rcc.c **** 
  97:../../../SDK_embedded/libs/stm32/STM32F10x_StdPeriph_Driver/stm32f10x_rcc.c **** /* --- CSR Register ---*/
  98:../../../SDK_embedded/libs/stm32/STM32F10x_StdPeriph_Driver/stm32f10x_rcc.c **** 
  99:../../../SDK_embedded/libs/stm32/STM32F10x_StdPeriph_Driver/stm32f10x_rcc.c **** /* Alias word address of LSION bit */
 100:../../../SDK_embedded/libs/stm32/STM32F10x_StdPeriph_Driver/stm32f10x_rcc.c **** #define CSR_OFFSET                (RCC_OFFSET + 0x24)
 101:../../../SDK_embedded/libs/stm32/STM32F10x_StdPeriph_Driver/stm32f10x_rcc.c **** #define LSION_BitNumber           0x00
 102:../../../SDK_embedded/libs/stm32/STM32F10x_StdPeriph_Driver/stm32f10x_rcc.c **** #define CSR_LSION_BB              (PERIPH_BB_BASE + (CSR_OFFSET * 32) + (LSION_BitNumber * 4))
 103:../../../SDK_embedded/libs/stm32/STM32F10x_StdPeriph_Driver/stm32f10x_rcc.c **** 
 104:../../../SDK_embedded/libs/stm32/STM32F10x_StdPeriph_Driver/stm32f10x_rcc.c **** #ifdef STM32F10X_CL
 105:../../../SDK_embedded/libs/stm32/STM32F10x_StdPeriph_Driver/stm32f10x_rcc.c **** /* --- CFGR2 Register ---*/
 106:../../../SDK_embedded/libs/stm32/STM32F10x_StdPeriph_Driver/stm32f10x_rcc.c **** 
 107:../../../SDK_embedded/libs/stm32/STM32F10x_StdPeriph_Driver/stm32f10x_rcc.c ****  /* Alias word address of I2S2SRC bit */
 108:../../../SDK_embedded/libs/stm32/STM32F10x_StdPeriph_Driver/stm32f10x_rcc.c ****  #define CFGR2_OFFSET              (RCC_OFFSET + 0x2C)
 109:../../../SDK_embedded/libs/stm32/STM32F10x_StdPeriph_Driver/stm32f10x_rcc.c ****  #define I2S2SRC_BitNumber         0x11
 110:../../../SDK_embedded/libs/stm32/STM32F10x_StdPeriph_Driver/stm32f10x_rcc.c ****  #define CFGR2_I2S2SRC_BB          (PERIPH_BB_BASE + (CFGR2_OFFSET * 32) + (I2S2SRC_BitNumber * 4))
 111:../../../SDK_embedded/libs/stm32/STM32F10x_StdPeriph_Driver/stm32f10x_rcc.c **** 
 112:../../../SDK_embedded/libs/stm32/STM32F10x_StdPeriph_Driver/stm32f10x_rcc.c ****  /* Alias word address of I2S3SRC bit */
 113:../../../SDK_embedded/libs/stm32/STM32F10x_StdPeriph_Driver/stm32f10x_rcc.c ****  #define I2S3SRC_BitNumber         0x12
 114:../../../SDK_embedded/libs/stm32/STM32F10x_StdPeriph_Driver/stm32f10x_rcc.c ****  #define CFGR2_I2S3SRC_BB          (PERIPH_BB_BASE + (CFGR2_OFFSET * 32) + (I2S3SRC_BitNumber * 4))
 115:../../../SDK_embedded/libs/stm32/STM32F10x_StdPeriph_Driver/stm32f10x_rcc.c **** #endif /* STM32F10X_CL */
 116:../../../SDK_embedded/libs/stm32/STM32F10x_StdPeriph_Driver/stm32f10x_rcc.c **** 
 117:../../../SDK_embedded/libs/stm32/STM32F10x_StdPeriph_Driver/stm32f10x_rcc.c **** /* ---------------------- RCC registers bit mask ------------------------ */
 118:../../../SDK_embedded/libs/stm32/STM32F10x_StdPeriph_Driver/stm32f10x_rcc.c **** 
 119:../../../SDK_embedded/libs/stm32/STM32F10x_StdPeriph_Driver/stm32f10x_rcc.c **** /* CR register bit mask */
 120:../../../SDK_embedded/libs/stm32/STM32F10x_StdPeriph_Driver/stm32f10x_rcc.c **** #define CR_HSEBYP_Reset           ((uint32_t)0xFFFBFFFF)
 121:../../../SDK_embedded/libs/stm32/STM32F10x_StdPeriph_Driver/stm32f10x_rcc.c **** #define CR_HSEBYP_Set             ((uint32_t)0x00040000)
 122:../../../SDK_embedded/libs/stm32/STM32F10x_StdPeriph_Driver/stm32f10x_rcc.c **** #define CR_HSEON_Reset            ((uint32_t)0xFFFEFFFF)
 123:../../../SDK_embedded/libs/stm32/STM32F10x_StdPeriph_Driver/stm32f10x_rcc.c **** #define CR_HSEON_Set              ((uint32_t)0x00010000)
 124:../../../SDK_embedded/libs/stm32/STM32F10x_StdPeriph_Driver/stm32f10x_rcc.c **** #define CR_HSITRIM_Mask           ((uint32_t)0xFFFFFF07)
 125:../../../SDK_embedded/libs/stm32/STM32F10x_StdPeriph_Driver/stm32f10x_rcc.c **** 
 126:../../../SDK_embedded/libs/stm32/STM32F10x_StdPeriph_Driver/stm32f10x_rcc.c **** /* CFGR register bit mask */
 127:../../../SDK_embedded/libs/stm32/STM32F10x_StdPeriph_Driver/stm32f10x_rcc.c **** #if defined (STM32F10X_LD_VL) || defined (STM32F10X_MD_VL) || defined (STM32F10X_CL) 
 128:../../../SDK_embedded/libs/stm32/STM32F10x_StdPeriph_Driver/stm32f10x_rcc.c ****  #define CFGR_PLL_Mask            ((uint32_t)0xFFC2FFFF)
 129:../../../SDK_embedded/libs/stm32/STM32F10x_StdPeriph_Driver/stm32f10x_rcc.c **** #else
 130:../../../SDK_embedded/libs/stm32/STM32F10x_StdPeriph_Driver/stm32f10x_rcc.c ****  #define CFGR_PLL_Mask            ((uint32_t)0xFFC0FFFF)
 131:../../../SDK_embedded/libs/stm32/STM32F10x_StdPeriph_Driver/stm32f10x_rcc.c **** #endif /* STM32F10X_CL */ 
 132:../../../SDK_embedded/libs/stm32/STM32F10x_StdPeriph_Driver/stm32f10x_rcc.c **** 
 133:../../../SDK_embedded/libs/stm32/STM32F10x_StdPeriph_Driver/stm32f10x_rcc.c **** #define CFGR_PLLMull_Mask         ((uint32_t)0x003C0000)
 134:../../../SDK_embedded/libs/stm32/STM32F10x_StdPeriph_Driver/stm32f10x_rcc.c **** #define CFGR_PLLSRC_Mask          ((uint32_t)0x00010000)
 135:../../../SDK_embedded/libs/stm32/STM32F10x_StdPeriph_Driver/stm32f10x_rcc.c **** #define CFGR_PLLXTPRE_Mask        ((uint32_t)0x00020000)
 136:../../../SDK_embedded/libs/stm32/STM32F10x_StdPeriph_Driver/stm32f10x_rcc.c **** #define CFGR_SWS_Mask             ((uint32_t)0x0000000C)
 137:../../../SDK_embedded/libs/stm32/STM32F10x_StdPeriph_Driver/stm32f10x_rcc.c **** #define CFGR_SW_Mask              ((uint32_t)0xFFFFFFFC)
 138:../../../SDK_embedded/libs/stm32/STM32F10x_StdPeriph_Driver/stm32f10x_rcc.c **** #define CFGR_HPRE_Reset_Mask      ((uint32_t)0xFFFFFF0F)
 139:../../../SDK_embedded/libs/stm32/STM32F10x_StdPeriph_Driver/stm32f10x_rcc.c **** #define CFGR_HPRE_Set_Mask        ((uint32_t)0x000000F0)
 140:../../../SDK_embedded/libs/stm32/STM32F10x_StdPeriph_Driver/stm32f10x_rcc.c **** #define CFGR_PPRE1_Reset_Mask     ((uint32_t)0xFFFFF8FF)
 141:../../../SDK_embedded/libs/stm32/STM32F10x_StdPeriph_Driver/stm32f10x_rcc.c **** #define CFGR_PPRE1_Set_Mask       ((uint32_t)0x00000700)
 142:../../../SDK_embedded/libs/stm32/STM32F10x_StdPeriph_Driver/stm32f10x_rcc.c **** #define CFGR_PPRE2_Reset_Mask     ((uint32_t)0xFFFFC7FF)
 143:../../../SDK_embedded/libs/stm32/STM32F10x_StdPeriph_Driver/stm32f10x_rcc.c **** #define CFGR_PPRE2_Set_Mask       ((uint32_t)0x00003800)
 144:../../../SDK_embedded/libs/stm32/STM32F10x_StdPeriph_Driver/stm32f10x_rcc.c **** #define CFGR_ADCPRE_Reset_Mask    ((uint32_t)0xFFFF3FFF)
 145:../../../SDK_embedded/libs/stm32/STM32F10x_StdPeriph_Driver/stm32f10x_rcc.c **** #define CFGR_ADCPRE_Set_Mask      ((uint32_t)0x0000C000)
 146:../../../SDK_embedded/libs/stm32/STM32F10x_StdPeriph_Driver/stm32f10x_rcc.c **** 
 147:../../../SDK_embedded/libs/stm32/STM32F10x_StdPeriph_Driver/stm32f10x_rcc.c **** /* CSR register bit mask */
 148:../../../SDK_embedded/libs/stm32/STM32F10x_StdPeriph_Driver/stm32f10x_rcc.c **** #define CSR_RMVF_Set              ((uint32_t)0x01000000)
 149:../../../SDK_embedded/libs/stm32/STM32F10x_StdPeriph_Driver/stm32f10x_rcc.c **** 
 150:../../../SDK_embedded/libs/stm32/STM32F10x_StdPeriph_Driver/stm32f10x_rcc.c **** #if defined (STM32F10X_LD_VL) || defined (STM32F10X_MD_VL) || defined (STM32F10X_CL) 
 151:../../../SDK_embedded/libs/stm32/STM32F10x_StdPeriph_Driver/stm32f10x_rcc.c **** /* CFGR2 register bit mask */
 152:../../../SDK_embedded/libs/stm32/STM32F10x_StdPeriph_Driver/stm32f10x_rcc.c ****  #define CFGR2_PREDIV1SRC         ((uint32_t)0x00010000)
 153:../../../SDK_embedded/libs/stm32/STM32F10x_StdPeriph_Driver/stm32f10x_rcc.c ****  #define CFGR2_PREDIV1            ((uint32_t)0x0000000F)
 154:../../../SDK_embedded/libs/stm32/STM32F10x_StdPeriph_Driver/stm32f10x_rcc.c **** #endif
 155:../../../SDK_embedded/libs/stm32/STM32F10x_StdPeriph_Driver/stm32f10x_rcc.c **** #ifdef STM32F10X_CL
 156:../../../SDK_embedded/libs/stm32/STM32F10x_StdPeriph_Driver/stm32f10x_rcc.c ****  #define CFGR2_PREDIV2            ((uint32_t)0x000000F0)
 157:../../../SDK_embedded/libs/stm32/STM32F10x_StdPeriph_Driver/stm32f10x_rcc.c ****  #define CFGR2_PLL2MUL            ((uint32_t)0x00000F00)
 158:../../../SDK_embedded/libs/stm32/STM32F10x_StdPeriph_Driver/stm32f10x_rcc.c ****  #define CFGR2_PLL3MUL            ((uint32_t)0x0000F000)
 159:../../../SDK_embedded/libs/stm32/STM32F10x_StdPeriph_Driver/stm32f10x_rcc.c **** #endif /* STM32F10X_CL */ 
 160:../../../SDK_embedded/libs/stm32/STM32F10x_StdPeriph_Driver/stm32f10x_rcc.c **** 
 161:../../../SDK_embedded/libs/stm32/STM32F10x_StdPeriph_Driver/stm32f10x_rcc.c **** /* RCC Flag Mask */
 162:../../../SDK_embedded/libs/stm32/STM32F10x_StdPeriph_Driver/stm32f10x_rcc.c **** #define FLAG_Mask                 ((uint8_t)0x1F)
 163:../../../SDK_embedded/libs/stm32/STM32F10x_StdPeriph_Driver/stm32f10x_rcc.c **** 
 164:../../../SDK_embedded/libs/stm32/STM32F10x_StdPeriph_Driver/stm32f10x_rcc.c **** #ifndef HSI_Value
 165:../../../SDK_embedded/libs/stm32/STM32F10x_StdPeriph_Driver/stm32f10x_rcc.c **** /* Typical Value of the HSI in Hz */
 166:../../../SDK_embedded/libs/stm32/STM32F10x_StdPeriph_Driver/stm32f10x_rcc.c ****  #define HSI_Value                 ((uint32_t)8000000)
 167:../../../SDK_embedded/libs/stm32/STM32F10x_StdPeriph_Driver/stm32f10x_rcc.c **** #endif /* HSI_Value */
 168:../../../SDK_embedded/libs/stm32/STM32F10x_StdPeriph_Driver/stm32f10x_rcc.c **** 
 169:../../../SDK_embedded/libs/stm32/STM32F10x_StdPeriph_Driver/stm32f10x_rcc.c **** /* CIR register byte 2 (Bits[15:8]) base address */
 170:../../../SDK_embedded/libs/stm32/STM32F10x_StdPeriph_Driver/stm32f10x_rcc.c **** #define CIR_BYTE2_ADDRESS         ((uint32_t)0x40021009)
 171:../../../SDK_embedded/libs/stm32/STM32F10x_StdPeriph_Driver/stm32f10x_rcc.c **** 
 172:../../../SDK_embedded/libs/stm32/STM32F10x_StdPeriph_Driver/stm32f10x_rcc.c **** /* CIR register byte 3 (Bits[23:16]) base address */
 173:../../../SDK_embedded/libs/stm32/STM32F10x_StdPeriph_Driver/stm32f10x_rcc.c **** #define CIR_BYTE3_ADDRESS         ((uint32_t)0x4002100A)
 174:../../../SDK_embedded/libs/stm32/STM32F10x_StdPeriph_Driver/stm32f10x_rcc.c **** 
 175:../../../SDK_embedded/libs/stm32/STM32F10x_StdPeriph_Driver/stm32f10x_rcc.c **** /* CFGR register byte 4 (Bits[31:24]) base address */
 176:../../../SDK_embedded/libs/stm32/STM32F10x_StdPeriph_Driver/stm32f10x_rcc.c **** #define CFGR_BYTE4_ADDRESS        ((uint32_t)0x40021007)
 177:../../../SDK_embedded/libs/stm32/STM32F10x_StdPeriph_Driver/stm32f10x_rcc.c **** 
 178:../../../SDK_embedded/libs/stm32/STM32F10x_StdPeriph_Driver/stm32f10x_rcc.c **** /* BDCR register base address */
 179:../../../SDK_embedded/libs/stm32/STM32F10x_StdPeriph_Driver/stm32f10x_rcc.c **** #define BDCR_ADDRESS              (PERIPH_BASE + BDCR_OFFSET)
 180:../../../SDK_embedded/libs/stm32/STM32F10x_StdPeriph_Driver/stm32f10x_rcc.c **** 
 181:../../../SDK_embedded/libs/stm32/STM32F10x_StdPeriph_Driver/stm32f10x_rcc.c **** #ifndef HSEStartUp_TimeOut
 182:../../../SDK_embedded/libs/stm32/STM32F10x_StdPeriph_Driver/stm32f10x_rcc.c **** /* Time out for HSE start up */
 183:../../../SDK_embedded/libs/stm32/STM32F10x_StdPeriph_Driver/stm32f10x_rcc.c ****  #define HSEStartUp_TimeOut        ((uint16_t)0x0500)
 184:../../../SDK_embedded/libs/stm32/STM32F10x_StdPeriph_Driver/stm32f10x_rcc.c **** #endif /* HSEStartUp_TimeOut */
 185:../../../SDK_embedded/libs/stm32/STM32F10x_StdPeriph_Driver/stm32f10x_rcc.c **** 
 186:../../../SDK_embedded/libs/stm32/STM32F10x_StdPeriph_Driver/stm32f10x_rcc.c **** /**
 187:../../../SDK_embedded/libs/stm32/STM32F10x_StdPeriph_Driver/stm32f10x_rcc.c ****   * @}
 188:../../../SDK_embedded/libs/stm32/STM32F10x_StdPeriph_Driver/stm32f10x_rcc.c ****   */ 
 189:../../../SDK_embedded/libs/stm32/STM32F10x_StdPeriph_Driver/stm32f10x_rcc.c **** 
 190:../../../SDK_embedded/libs/stm32/STM32F10x_StdPeriph_Driver/stm32f10x_rcc.c **** /** @defgroup RCC_Private_Macros
 191:../../../SDK_embedded/libs/stm32/STM32F10x_StdPeriph_Driver/stm32f10x_rcc.c ****   * @{
 192:../../../SDK_embedded/libs/stm32/STM32F10x_StdPeriph_Driver/stm32f10x_rcc.c ****   */ 
 193:../../../SDK_embedded/libs/stm32/STM32F10x_StdPeriph_Driver/stm32f10x_rcc.c **** 
 194:../../../SDK_embedded/libs/stm32/STM32F10x_StdPeriph_Driver/stm32f10x_rcc.c **** /**
 195:../../../SDK_embedded/libs/stm32/STM32F10x_StdPeriph_Driver/stm32f10x_rcc.c ****   * @}
 196:../../../SDK_embedded/libs/stm32/STM32F10x_StdPeriph_Driver/stm32f10x_rcc.c ****   */ 
 197:../../../SDK_embedded/libs/stm32/STM32F10x_StdPeriph_Driver/stm32f10x_rcc.c **** 
 198:../../../SDK_embedded/libs/stm32/STM32F10x_StdPeriph_Driver/stm32f10x_rcc.c **** /** @defgroup RCC_Private_Variables
 199:../../../SDK_embedded/libs/stm32/STM32F10x_StdPeriph_Driver/stm32f10x_rcc.c ****   * @{
 200:../../../SDK_embedded/libs/stm32/STM32F10x_StdPeriph_Driver/stm32f10x_rcc.c ****   */ 
 201:../../../SDK_embedded/libs/stm32/STM32F10x_StdPeriph_Driver/stm32f10x_rcc.c **** 
 202:../../../SDK_embedded/libs/stm32/STM32F10x_StdPeriph_Driver/stm32f10x_rcc.c **** static __I uint8_t APBAHBPrescTable[16] = {0, 0, 0, 0, 1, 2, 3, 4, 1, 2, 3, 4, 6, 7, 8, 9};
 203:../../../SDK_embedded/libs/stm32/STM32F10x_StdPeriph_Driver/stm32f10x_rcc.c **** static __I uint8_t ADCPrescTable[4] = {2, 4, 6, 8};
 204:../../../SDK_embedded/libs/stm32/STM32F10x_StdPeriph_Driver/stm32f10x_rcc.c **** 
 205:../../../SDK_embedded/libs/stm32/STM32F10x_StdPeriph_Driver/stm32f10x_rcc.c **** /**
 206:../../../SDK_embedded/libs/stm32/STM32F10x_StdPeriph_Driver/stm32f10x_rcc.c ****   * @}
 207:../../../SDK_embedded/libs/stm32/STM32F10x_StdPeriph_Driver/stm32f10x_rcc.c ****   */
 208:../../../SDK_embedded/libs/stm32/STM32F10x_StdPeriph_Driver/stm32f10x_rcc.c **** 
 209:../../../SDK_embedded/libs/stm32/STM32F10x_StdPeriph_Driver/stm32f10x_rcc.c **** /** @defgroup RCC_Private_FunctionPrototypes
 210:../../../SDK_embedded/libs/stm32/STM32F10x_StdPeriph_Driver/stm32f10x_rcc.c ****   * @{
 211:../../../SDK_embedded/libs/stm32/STM32F10x_StdPeriph_Driver/stm32f10x_rcc.c ****   */
 212:../../../SDK_embedded/libs/stm32/STM32F10x_StdPeriph_Driver/stm32f10x_rcc.c **** 
 213:../../../SDK_embedded/libs/stm32/STM32F10x_StdPeriph_Driver/stm32f10x_rcc.c **** /**
 214:../../../SDK_embedded/libs/stm32/STM32F10x_StdPeriph_Driver/stm32f10x_rcc.c ****   * @}
 215:../../../SDK_embedded/libs/stm32/STM32F10x_StdPeriph_Driver/stm32f10x_rcc.c ****   */
 216:../../../SDK_embedded/libs/stm32/STM32F10x_StdPeriph_Driver/stm32f10x_rcc.c **** 
 217:../../../SDK_embedded/libs/stm32/STM32F10x_StdPeriph_Driver/stm32f10x_rcc.c **** /** @defgroup RCC_Private_Functions
 218:../../../SDK_embedded/libs/stm32/STM32F10x_StdPeriph_Driver/stm32f10x_rcc.c ****   * @{
 219:../../../SDK_embedded/libs/stm32/STM32F10x_StdPeriph_Driver/stm32f10x_rcc.c ****   */
 220:../../../SDK_embedded/libs/stm32/STM32F10x_StdPeriph_Driver/stm32f10x_rcc.c **** 
 221:../../../SDK_embedded/libs/stm32/STM32F10x_StdPeriph_Driver/stm32f10x_rcc.c **** /**
 222:../../../SDK_embedded/libs/stm32/STM32F10x_StdPeriph_Driver/stm32f10x_rcc.c ****   * @brief  Resets the RCC clock configuration to the default reset state.
 223:../../../SDK_embedded/libs/stm32/STM32F10x_StdPeriph_Driver/stm32f10x_rcc.c ****   * @param  None
 224:../../../SDK_embedded/libs/stm32/STM32F10x_StdPeriph_Driver/stm32f10x_rcc.c ****   * @retval None
 225:../../../SDK_embedded/libs/stm32/STM32F10x_StdPeriph_Driver/stm32f10x_rcc.c ****   */
 226:../../../SDK_embedded/libs/stm32/STM32F10x_StdPeriph_Driver/stm32f10x_rcc.c **** void RCC_DeInit(void)
 227:../../../SDK_embedded/libs/stm32/STM32F10x_StdPeriph_Driver/stm32f10x_rcc.c **** {
 16423              		.loc 1 227 0
 16424              		.cfi_startproc
 16425              		@ args = 0, pretend = 0, frame = 0
 16426              		@ frame_needed = 0, uses_anonymous_args = 0
 16427              		@ link register save eliminated.
 228:../../../SDK_embedded/libs/stm32/STM32F10x_StdPeriph_Driver/stm32f10x_rcc.c ****   /* Set HSION bit */
 229:../../../SDK_embedded/libs/stm32/STM32F10x_StdPeriph_Driver/stm32f10x_rcc.c ****   RCC->CR |= (uint32_t)0x00000001;
 16428              		.loc 1 229 0
 16429 0000 0D4B     		ldr	r3, .L2
 16430 0002 1A68     		ldr	r2, [r3, #0]
 16431 0004 42F00100 		orr	r0, r2, #1
 16432 0008 1860     		str	r0, [r3, #0]
 230:../../../SDK_embedded/libs/stm32/STM32F10x_StdPeriph_Driver/stm32f10x_rcc.c **** 
 231:../../../SDK_embedded/libs/stm32/STM32F10x_StdPeriph_Driver/stm32f10x_rcc.c ****   /* Reset SW, HPRE, PPRE1, PPRE2, ADCPRE and MCO bits */
 232:../../../SDK_embedded/libs/stm32/STM32F10x_StdPeriph_Driver/stm32f10x_rcc.c **** #ifndef STM32F10X_CL
 233:../../../SDK_embedded/libs/stm32/STM32F10x_StdPeriph_Driver/stm32f10x_rcc.c ****   RCC->CFGR &= (uint32_t)0xF8FF0000;
 16433              		.loc 1 233 0
 16434 000a 5968     		ldr	r1, [r3, #4]
 16435 000c 0B4A     		ldr	r2, .L2+4
 16436 000e 01EA0200 		and	r0, r1, r2
 16437 0012 5860     		str	r0, [r3, #4]
 234:../../../SDK_embedded/libs/stm32/STM32F10x_StdPeriph_Driver/stm32f10x_rcc.c **** #else
 235:../../../SDK_embedded/libs/stm32/STM32F10x_StdPeriph_Driver/stm32f10x_rcc.c ****   RCC->CFGR &= (uint32_t)0xF0FF0000;
 236:../../../SDK_embedded/libs/stm32/STM32F10x_StdPeriph_Driver/stm32f10x_rcc.c **** #endif /* STM32F10X_CL */   
 237:../../../SDK_embedded/libs/stm32/STM32F10x_StdPeriph_Driver/stm32f10x_rcc.c ****   
 238:../../../SDK_embedded/libs/stm32/STM32F10x_StdPeriph_Driver/stm32f10x_rcc.c ****   /* Reset HSEON, CSSON and PLLON bits */
 239:../../../SDK_embedded/libs/stm32/STM32F10x_StdPeriph_Driver/stm32f10x_rcc.c ****   RCC->CR &= (uint32_t)0xFEF6FFFF;
 16438              		.loc 1 239 0
 16439 0014 1A68     		ldr	r2, [r3, #0]
 16440 0016 22F0847C 		bic	ip, r2, #17301504
 16441 001a 2CF48031 		bic	r1, ip, #65536
 16442 001e 1960     		str	r1, [r3, #0]
 240:../../../SDK_embedded/libs/stm32/STM32F10x_StdPeriph_Driver/stm32f10x_rcc.c **** 
 241:../../../SDK_embedded/libs/stm32/STM32F10x_StdPeriph_Driver/stm32f10x_rcc.c ****   /* Reset HSEBYP bit */
 242:../../../SDK_embedded/libs/stm32/STM32F10x_StdPeriph_Driver/stm32f10x_rcc.c ****   RCC->CR &= (uint32_t)0xFFFBFFFF;
 16443              		.loc 1 242 0
 16444 0020 1868     		ldr	r0, [r3, #0]
 16445 0022 20F48022 		bic	r2, r0, #262144
 16446 0026 1A60     		str	r2, [r3, #0]
 243:../../../SDK_embedded/libs/stm32/STM32F10x_StdPeriph_Driver/stm32f10x_rcc.c **** 
 244:../../../SDK_embedded/libs/stm32/STM32F10x_StdPeriph_Driver/stm32f10x_rcc.c ****   /* Reset PLLSRC, PLLXTPRE, PLLMUL and USBPRE/OTGFSPRE bits */
 245:../../../SDK_embedded/libs/stm32/STM32F10x_StdPeriph_Driver/stm32f10x_rcc.c ****   RCC->CFGR &= (uint32_t)0xFF80FFFF;
 16447              		.loc 1 245 0
 16448 0028 5968     		ldr	r1, [r3, #4]
 246:../../../SDK_embedded/libs/stm32/STM32F10x_StdPeriph_Driver/stm32f10x_rcc.c **** 
 247:../../../SDK_embedded/libs/stm32/STM32F10x_StdPeriph_Driver/stm32f10x_rcc.c **** #ifdef STM32F10X_CL
 248:../../../SDK_embedded/libs/stm32/STM32F10x_StdPeriph_Driver/stm32f10x_rcc.c ****   /* Reset PLL2ON and PLL3ON bits */
 249:../../../SDK_embedded/libs/stm32/STM32F10x_StdPeriph_Driver/stm32f10x_rcc.c ****   RCC->CR &= (uint32_t)0xEBFFFFFF;
 250:../../../SDK_embedded/libs/stm32/STM32F10x_StdPeriph_Driver/stm32f10x_rcc.c **** 
 251:../../../SDK_embedded/libs/stm32/STM32F10x_StdPeriph_Driver/stm32f10x_rcc.c ****   /* Disable all interrupts and clear pending bits  */
 252:../../../SDK_embedded/libs/stm32/STM32F10x_StdPeriph_Driver/stm32f10x_rcc.c ****   RCC->CIR = 0x00FF0000;
 253:../../../SDK_embedded/libs/stm32/STM32F10x_StdPeriph_Driver/stm32f10x_rcc.c **** 
 254:../../../SDK_embedded/libs/stm32/STM32F10x_StdPeriph_Driver/stm32f10x_rcc.c ****   /* Reset CFGR2 register */
 255:../../../SDK_embedded/libs/stm32/STM32F10x_StdPeriph_Driver/stm32f10x_rcc.c ****   RCC->CFGR2 = 0x00000000;
 256:../../../SDK_embedded/libs/stm32/STM32F10x_StdPeriph_Driver/stm32f10x_rcc.c **** #elif defined (STM32F10X_LD_VL) || defined (STM32F10X_MD_VL) 
 257:../../../SDK_embedded/libs/stm32/STM32F10x_StdPeriph_Driver/stm32f10x_rcc.c ****   /* Disable all interrupts and clear pending bits  */
 258:../../../SDK_embedded/libs/stm32/STM32F10x_StdPeriph_Driver/stm32f10x_rcc.c ****   RCC->CIR = 0x009F0000;
 259:../../../SDK_embedded/libs/stm32/STM32F10x_StdPeriph_Driver/stm32f10x_rcc.c **** 
 260:../../../SDK_embedded/libs/stm32/STM32F10x_StdPeriph_Driver/stm32f10x_rcc.c ****   /* Reset CFGR2 register */
 261:../../../SDK_embedded/libs/stm32/STM32F10x_StdPeriph_Driver/stm32f10x_rcc.c ****   RCC->CFGR2 = 0x00000000;      
 262:../../../SDK_embedded/libs/stm32/STM32F10x_StdPeriph_Driver/stm32f10x_rcc.c **** #else
 263:../../../SDK_embedded/libs/stm32/STM32F10x_StdPeriph_Driver/stm32f10x_rcc.c ****   /* Disable all interrupts and clear pending bits  */
 264:../../../SDK_embedded/libs/stm32/STM32F10x_StdPeriph_Driver/stm32f10x_rcc.c ****   RCC->CIR = 0x009F0000;
 16449              		.loc 1 264 0
 16450 002a 4FF41F02 		mov	r2, #10420224
 245:../../../SDK_embedded/libs/stm32/STM32F10x_StdPeriph_Driver/stm32f10x_rcc.c ****   RCC->CFGR &= (uint32_t)0xFF80FFFF;
 16451              		.loc 1 245 0
 16452 002e 21F4FE00 		bic	r0, r1, #8323072
 16453 0032 5860     		str	r0, [r3, #4]
 16454              		.loc 1 264 0
 16455 0034 9A60     		str	r2, [r3, #8]
 265:../../../SDK_embedded/libs/stm32/STM32F10x_StdPeriph_Driver/stm32f10x_rcc.c **** #endif /* STM32F10X_CL */
 266:../../../SDK_embedded/libs/stm32/STM32F10x_StdPeriph_Driver/stm32f10x_rcc.c **** 
 267:../../../SDK_embedded/libs/stm32/STM32F10x_StdPeriph_Driver/stm32f10x_rcc.c **** }
 16456              		.loc 1 267 0
 16457 0036 7047     		bx	lr
 16458              	.L3:
 16459              		.align	2
 16460              	.L2:
 16461 0038 00100240 		.word	1073876992
 16462 003c 0000FFF8 		.word	-117506048
 16463              		.cfi_endproc
 16464              	.LFE29:
 16466              		.section	.text.RCC_HSEConfig,"ax",%progbits
 16467              		.align	1
 16468              		.global	RCC_HSEConfig
 16469              		.thumb
 16470              		.thumb_func
 16472              	RCC_HSEConfig:
 16473              	.LFB30:
 268:../../../SDK_embedded/libs/stm32/STM32F10x_StdPeriph_Driver/stm32f10x_rcc.c **** 
 269:../../../SDK_embedded/libs/stm32/STM32F10x_StdPeriph_Driver/stm32f10x_rcc.c **** /**
 270:../../../SDK_embedded/libs/stm32/STM32F10x_StdPeriph_Driver/stm32f10x_rcc.c ****   * @brief  Configures the External High Speed oscillator (HSE).
 271:../../../SDK_embedded/libs/stm32/STM32F10x_StdPeriph_Driver/stm32f10x_rcc.c ****   * @note   HSE can not be stopped if it is used directly or through the PLL as system clock.
 272:../../../SDK_embedded/libs/stm32/STM32F10x_StdPeriph_Driver/stm32f10x_rcc.c ****   * @param  RCC_HSE: specifies the new state of the HSE.
 273:../../../SDK_embedded/libs/stm32/STM32F10x_StdPeriph_Driver/stm32f10x_rcc.c ****   *   This parameter can be one of the following values:
 274:../../../SDK_embedded/libs/stm32/STM32F10x_StdPeriph_Driver/stm32f10x_rcc.c ****   *     @arg RCC_HSE_OFF: HSE oscillator OFF
 275:../../../SDK_embedded/libs/stm32/STM32F10x_StdPeriph_Driver/stm32f10x_rcc.c ****   *     @arg RCC_HSE_ON: HSE oscillator ON
 276:../../../SDK_embedded/libs/stm32/STM32F10x_StdPeriph_Driver/stm32f10x_rcc.c ****   *     @arg RCC_HSE_Bypass: HSE oscillator bypassed with external clock
 277:../../../SDK_embedded/libs/stm32/STM32F10x_StdPeriph_Driver/stm32f10x_rcc.c ****   * @retval None
 278:../../../SDK_embedded/libs/stm32/STM32F10x_StdPeriph_Driver/stm32f10x_rcc.c ****   */
 279:../../../SDK_embedded/libs/stm32/STM32F10x_StdPeriph_Driver/stm32f10x_rcc.c **** void RCC_HSEConfig(uint32_t RCC_HSE)
 280:../../../SDK_embedded/libs/stm32/STM32F10x_StdPeriph_Driver/stm32f10x_rcc.c **** {
 16474              		.loc 1 280 0
 16475              		.cfi_startproc
 16476              		@ args = 0, pretend = 0, frame = 0
 16477              		@ frame_needed = 0, uses_anonymous_args = 0
 16478              		@ link register save eliminated.
 16479              	.LVL0:
 281:../../../SDK_embedded/libs/stm32/STM32F10x_StdPeriph_Driver/stm32f10x_rcc.c ****   /* Check the parameters */
 282:../../../SDK_embedded/libs/stm32/STM32F10x_StdPeriph_Driver/stm32f10x_rcc.c ****   assert_param(IS_RCC_HSE(RCC_HSE));
 283:../../../SDK_embedded/libs/stm32/STM32F10x_StdPeriph_Driver/stm32f10x_rcc.c ****   /* Reset HSEON and HSEBYP bits before configuring the HSE ------------------*/
 284:../../../SDK_embedded/libs/stm32/STM32F10x_StdPeriph_Driver/stm32f10x_rcc.c ****   /* Reset HSEON bit */
 285:../../../SDK_embedded/libs/stm32/STM32F10x_StdPeriph_Driver/stm32f10x_rcc.c ****   RCC->CR &= CR_HSEON_Reset;
 16480              		.loc 1 285 0
 16481 0000 0C4B     		ldr	r3, .L9
 286:../../../SDK_embedded/libs/stm32/STM32F10x_StdPeriph_Driver/stm32f10x_rcc.c ****   /* Reset HSEBYP bit */
 287:../../../SDK_embedded/libs/stm32/STM32F10x_StdPeriph_Driver/stm32f10x_rcc.c ****   RCC->CR &= CR_HSEBYP_Reset;
 288:../../../SDK_embedded/libs/stm32/STM32F10x_StdPeriph_Driver/stm32f10x_rcc.c ****   /* Configure HSE (RCC_HSE_OFF is already covered by the code section above) */
 289:../../../SDK_embedded/libs/stm32/STM32F10x_StdPeriph_Driver/stm32f10x_rcc.c ****   switch(RCC_HSE)
 16482              		.loc 1 289 0
 16483 0002 B0F5803F 		cmp	r0, #65536
 285:../../../SDK_embedded/libs/stm32/STM32F10x_StdPeriph_Driver/stm32f10x_rcc.c ****   RCC->CR &= CR_HSEON_Reset;
 16484              		.loc 1 285 0
 16485 0006 1968     		ldr	r1, [r3, #0]
 16486 0008 21F48032 		bic	r2, r1, #65536
 16487 000c 1A60     		str	r2, [r3, #0]
 287:../../../SDK_embedded/libs/stm32/STM32F10x_StdPeriph_Driver/stm32f10x_rcc.c ****   RCC->CR &= CR_HSEBYP_Reset;
 16488              		.loc 1 287 0
 16489 000e 1968     		ldr	r1, [r3, #0]
 16490 0010 21F48022 		bic	r2, r1, #262144
 16491 0014 1A60     		str	r2, [r3, #0]
 16492              		.loc 1 289 0
 16493 0016 03D0     		beq	.L6
 16494 0018 B0F5802F 		cmp	r0, #262144
 16495 001c 09D1     		bne	.L4
 16496 001e 04E0     		b	.L8
 16497              	.L6:
 290:../../../SDK_embedded/libs/stm32/STM32F10x_StdPeriph_Driver/stm32f10x_rcc.c ****   {
 291:../../../SDK_embedded/libs/stm32/STM32F10x_StdPeriph_Driver/stm32f10x_rcc.c ****     case RCC_HSE_ON:
 292:../../../SDK_embedded/libs/stm32/STM32F10x_StdPeriph_Driver/stm32f10x_rcc.c ****       /* Set HSEON bit */
 293:../../../SDK_embedded/libs/stm32/STM32F10x_StdPeriph_Driver/stm32f10x_rcc.c ****       RCC->CR |= CR_HSEON_Set;
 16498              		.loc 1 293 0
 16499 0020 1A68     		ldr	r2, [r3, #0]
 16500 0022 42F48030 		orr	r0, r2, #65536
 16501              	.LVL1:
 16502 0026 1860     		str	r0, [r3, #0]
 294:../../../SDK_embedded/libs/stm32/STM32F10x_StdPeriph_Driver/stm32f10x_rcc.c ****       break;
 16503              		.loc 1 294 0
 16504 0028 7047     		bx	lr
 16505              	.LVL2:
 16506              	.L8:
 295:../../../SDK_embedded/libs/stm32/STM32F10x_StdPeriph_Driver/stm32f10x_rcc.c ****       
 296:../../../SDK_embedded/libs/stm32/STM32F10x_StdPeriph_Driver/stm32f10x_rcc.c ****     case RCC_HSE_Bypass:
 297:../../../SDK_embedded/libs/stm32/STM32F10x_StdPeriph_Driver/stm32f10x_rcc.c ****       /* Set HSEBYP and HSEON bits */
 298:../../../SDK_embedded/libs/stm32/STM32F10x_StdPeriph_Driver/stm32f10x_rcc.c ****       RCC->CR |= CR_HSEBYP_Set | CR_HSEON_Set;
 16507              		.loc 1 298 0
 16508 002a 1868     		ldr	r0, [r3, #0]
 16509              	.LVL3:
 16510 002c 40F4A021 		orr	r1, r0, #327680
 16511 0030 1960     		str	r1, [r3, #0]
 16512              	.L4:
 16513 0032 7047     		bx	lr
 16514              	.L10:
 16515              		.align	2
 16516              	.L9:
 16517 0034 00100240 		.word	1073876992
 16518              		.cfi_endproc
 16519              	.LFE30:
 16521              		.section	.text.RCC_AdjustHSICalibrationValue,"ax",%progbits
 16522              		.align	1
 16523              		.global	RCC_AdjustHSICalibrationValue
 16524              		.thumb
 16525              		.thumb_func
 16527              	RCC_AdjustHSICalibrationValue:
 16528              	.LFB32:
 299:../../../SDK_embedded/libs/stm32/STM32F10x_StdPeriph_Driver/stm32f10x_rcc.c ****       break;
 300:../../../SDK_embedded/libs/stm32/STM32F10x_StdPeriph_Driver/stm32f10x_rcc.c ****       
 301:../../../SDK_embedded/libs/stm32/STM32F10x_StdPeriph_Driver/stm32f10x_rcc.c ****     default:
 302:../../../SDK_embedded/libs/stm32/STM32F10x_StdPeriph_Driver/stm32f10x_rcc.c ****       break;
 303:../../../SDK_embedded/libs/stm32/STM32F10x_StdPeriph_Driver/stm32f10x_rcc.c ****   }
 304:../../../SDK_embedded/libs/stm32/STM32F10x_StdPeriph_Driver/stm32f10x_rcc.c **** }
 305:../../../SDK_embedded/libs/stm32/STM32F10x_StdPeriph_Driver/stm32f10x_rcc.c **** 
 306:../../../SDK_embedded/libs/stm32/STM32F10x_StdPeriph_Driver/stm32f10x_rcc.c **** /**
 307:../../../SDK_embedded/libs/stm32/STM32F10x_StdPeriph_Driver/stm32f10x_rcc.c ****   * @brief  Waits for HSE start-up.
 308:../../../SDK_embedded/libs/stm32/STM32F10x_StdPeriph_Driver/stm32f10x_rcc.c ****   * @param  None
 309:../../../SDK_embedded/libs/stm32/STM32F10x_StdPeriph_Driver/stm32f10x_rcc.c ****   * @retval An ErrorStatus enumuration value:
 310:../../../SDK_embedded/libs/stm32/STM32F10x_StdPeriph_Driver/stm32f10x_rcc.c ****   * - SUCCESS: HSE oscillator is stable and ready to use
 311:../../../SDK_embedded/libs/stm32/STM32F10x_StdPeriph_Driver/stm32f10x_rcc.c ****   * - ERROR: HSE oscillator not yet ready
 312:../../../SDK_embedded/libs/stm32/STM32F10x_StdPeriph_Driver/stm32f10x_rcc.c ****   */
 313:../../../SDK_embedded/libs/stm32/STM32F10x_StdPeriph_Driver/stm32f10x_rcc.c **** ErrorStatus RCC_WaitForHSEStartUp(void)
 314:../../../SDK_embedded/libs/stm32/STM32F10x_StdPeriph_Driver/stm32f10x_rcc.c **** {
 315:../../../SDK_embedded/libs/stm32/STM32F10x_StdPeriph_Driver/stm32f10x_rcc.c ****   __IO uint32_t StartUpCounter = 0;
 316:../../../SDK_embedded/libs/stm32/STM32F10x_StdPeriph_Driver/stm32f10x_rcc.c ****   ErrorStatus status = ERROR;
 317:../../../SDK_embedded/libs/stm32/STM32F10x_StdPeriph_Driver/stm32f10x_rcc.c ****   FlagStatus HSEStatus = RESET;
 318:../../../SDK_embedded/libs/stm32/STM32F10x_StdPeriph_Driver/stm32f10x_rcc.c ****   
 319:../../../SDK_embedded/libs/stm32/STM32F10x_StdPeriph_Driver/stm32f10x_rcc.c ****   /* Wait till HSE is ready and if Time out is reached exit */
 320:../../../SDK_embedded/libs/stm32/STM32F10x_StdPeriph_Driver/stm32f10x_rcc.c ****   do
 321:../../../SDK_embedded/libs/stm32/STM32F10x_StdPeriph_Driver/stm32f10x_rcc.c ****   {
 322:../../../SDK_embedded/libs/stm32/STM32F10x_StdPeriph_Driver/stm32f10x_rcc.c ****     HSEStatus = RCC_GetFlagStatus(RCC_FLAG_HSERDY);
 323:../../../SDK_embedded/libs/stm32/STM32F10x_StdPeriph_Driver/stm32f10x_rcc.c ****     StartUpCounter++;  
 324:../../../SDK_embedded/libs/stm32/STM32F10x_StdPeriph_Driver/stm32f10x_rcc.c ****   } while((StartUpCounter != HSEStartUp_TimeOut) && (HSEStatus == RESET));
 325:../../../SDK_embedded/libs/stm32/STM32F10x_StdPeriph_Driver/stm32f10x_rcc.c ****   
 326:../../../SDK_embedded/libs/stm32/STM32F10x_StdPeriph_Driver/stm32f10x_rcc.c ****   if (RCC_GetFlagStatus(RCC_FLAG_HSERDY) != RESET)
 327:../../../SDK_embedded/libs/stm32/STM32F10x_StdPeriph_Driver/stm32f10x_rcc.c ****   {
 328:../../../SDK_embedded/libs/stm32/STM32F10x_StdPeriph_Driver/stm32f10x_rcc.c ****     status = SUCCESS;
 329:../../../SDK_embedded/libs/stm32/STM32F10x_StdPeriph_Driver/stm32f10x_rcc.c ****   }
 330:../../../SDK_embedded/libs/stm32/STM32F10x_StdPeriph_Driver/stm32f10x_rcc.c ****   else
 331:../../../SDK_embedded/libs/stm32/STM32F10x_StdPeriph_Driver/stm32f10x_rcc.c ****   {
 332:../../../SDK_embedded/libs/stm32/STM32F10x_StdPeriph_Driver/stm32f10x_rcc.c ****     status = ERROR;
 333:../../../SDK_embedded/libs/stm32/STM32F10x_StdPeriph_Driver/stm32f10x_rcc.c ****   }  
 334:../../../SDK_embedded/libs/stm32/STM32F10x_StdPeriph_Driver/stm32f10x_rcc.c ****   return (status);
 335:../../../SDK_embedded/libs/stm32/STM32F10x_StdPeriph_Driver/stm32f10x_rcc.c **** }
 336:../../../SDK_embedded/libs/stm32/STM32F10x_StdPeriph_Driver/stm32f10x_rcc.c **** 
 337:../../../SDK_embedded/libs/stm32/STM32F10x_StdPeriph_Driver/stm32f10x_rcc.c **** /**
 338:../../../SDK_embedded/libs/stm32/STM32F10x_StdPeriph_Driver/stm32f10x_rcc.c ****   * @brief  Adjusts the Internal High Speed oscillator (HSI) calibration value.
 339:../../../SDK_embedded/libs/stm32/STM32F10x_StdPeriph_Driver/stm32f10x_rcc.c ****   * @param  HSICalibrationValue: specifies the calibration trimming value.
 340:../../../SDK_embedded/libs/stm32/STM32F10x_StdPeriph_Driver/stm32f10x_rcc.c ****   *   This parameter must be a number between 0 and 0x1F.
 341:../../../SDK_embedded/libs/stm32/STM32F10x_StdPeriph_Driver/stm32f10x_rcc.c ****   * @retval None
 342:../../../SDK_embedded/libs/stm32/STM32F10x_StdPeriph_Driver/stm32f10x_rcc.c ****   */
 343:../../../SDK_embedded/libs/stm32/STM32F10x_StdPeriph_Driver/stm32f10x_rcc.c **** void RCC_AdjustHSICalibrationValue(uint8_t HSICalibrationValue)
 344:../../../SDK_embedded/libs/stm32/STM32F10x_StdPeriph_Driver/stm32f10x_rcc.c **** {
 16529              		.loc 1 344 0
 16530              		.cfi_startproc
 16531              		@ args = 0, pretend = 0, frame = 0
 16532              		@ frame_needed = 0, uses_anonymous_args = 0
 16533              		@ link register save eliminated.
 16534              	.LVL4:
 345:../../../SDK_embedded/libs/stm32/STM32F10x_StdPeriph_Driver/stm32f10x_rcc.c ****   uint32_t tmpreg = 0;
 346:../../../SDK_embedded/libs/stm32/STM32F10x_StdPeriph_Driver/stm32f10x_rcc.c ****   /* Check the parameters */
 347:../../../SDK_embedded/libs/stm32/STM32F10x_StdPeriph_Driver/stm32f10x_rcc.c ****   assert_param(IS_RCC_CALIBRATION_VALUE(HSICalibrationValue));
 348:../../../SDK_embedded/libs/stm32/STM32F10x_StdPeriph_Driver/stm32f10x_rcc.c ****   tmpreg = RCC->CR;
 16535              		.loc 1 348 0
 16536 0000 034B     		ldr	r3, .L12
 16537 0002 1968     		ldr	r1, [r3, #0]
 16538              	.LVL5:
 349:../../../SDK_embedded/libs/stm32/STM32F10x_StdPeriph_Driver/stm32f10x_rcc.c ****   /* Clear HSITRIM[4:0] bits */
 350:../../../SDK_embedded/libs/stm32/STM32F10x_StdPeriph_Driver/stm32f10x_rcc.c ****   tmpreg &= CR_HSITRIM_Mask;
 16539              		.loc 1 350 0
 16540 0004 21F0F802 		bic	r2, r1, #248
 16541              	.LVL6:
 351:../../../SDK_embedded/libs/stm32/STM32F10x_StdPeriph_Driver/stm32f10x_rcc.c ****   /* Set the HSITRIM[4:0] bits according to HSICalibrationValue value */
 352:../../../SDK_embedded/libs/stm32/STM32F10x_StdPeriph_Driver/stm32f10x_rcc.c ****   tmpreg |= (uint32_t)HSICalibrationValue << 3;
 16542              		.loc 1 352 0
 16543 0008 42EAC000 		orr	r0, r2, r0, lsl #3
 16544              	.LVL7:
 353:../../../SDK_embedded/libs/stm32/STM32F10x_StdPeriph_Driver/stm32f10x_rcc.c ****   /* Store the new value */
 354:../../../SDK_embedded/libs/stm32/STM32F10x_StdPeriph_Driver/stm32f10x_rcc.c ****   RCC->CR = tmpreg;
 16545              		.loc 1 354 0
 16546 000c 1860     		str	r0, [r3, #0]
 355:../../../SDK_embedded/libs/stm32/STM32F10x_StdPeriph_Driver/stm32f10x_rcc.c **** }
 16547              		.loc 1 355 0
 16548 000e 7047     		bx	lr
 16549              	.L13:
 16550              		.align	2
 16551              	.L12:
 16552 0010 00100240 		.word	1073876992
 16553              		.cfi_endproc
 16554              	.LFE32:
 16556              		.section	.text.RCC_HSICmd,"ax",%progbits
 16557              		.align	1
 16558              		.global	RCC_HSICmd
 16559              		.thumb
 16560              		.thumb_func
 16562              	RCC_HSICmd:
 16563              	.LFB33:
 356:../../../SDK_embedded/libs/stm32/STM32F10x_StdPeriph_Driver/stm32f10x_rcc.c **** 
 357:../../../SDK_embedded/libs/stm32/STM32F10x_StdPeriph_Driver/stm32f10x_rcc.c **** /**
 358:../../../SDK_embedded/libs/stm32/STM32F10x_StdPeriph_Driver/stm32f10x_rcc.c ****   * @brief  Enables or disables the Internal High Speed oscillator (HSI).
 359:../../../SDK_embedded/libs/stm32/STM32F10x_StdPeriph_Driver/stm32f10x_rcc.c ****   * @note   HSI can not be stopped if it is used directly or through the PLL as system clock.
 360:../../../SDK_embedded/libs/stm32/STM32F10x_StdPeriph_Driver/stm32f10x_rcc.c ****   * @param  NewState: new state of the HSI. This parameter can be: ENABLE or DISABLE.
 361:../../../SDK_embedded/libs/stm32/STM32F10x_StdPeriph_Driver/stm32f10x_rcc.c ****   * @retval None
 362:../../../SDK_embedded/libs/stm32/STM32F10x_StdPeriph_Driver/stm32f10x_rcc.c ****   */
 363:../../../SDK_embedded/libs/stm32/STM32F10x_StdPeriph_Driver/stm32f10x_rcc.c **** void RCC_HSICmd(FunctionalState NewState)
 364:../../../SDK_embedded/libs/stm32/STM32F10x_StdPeriph_Driver/stm32f10x_rcc.c **** {
 16564              		.loc 1 364 0
 16565              		.cfi_startproc
 16566              		@ args = 0, pretend = 0, frame = 0
 16567              		@ frame_needed = 0, uses_anonymous_args = 0
 16568              		@ link register save eliminated.
 16569              	.LVL8:
 365:../../../SDK_embedded/libs/stm32/STM32F10x_StdPeriph_Driver/stm32f10x_rcc.c ****   /* Check the parameters */
 366:../../../SDK_embedded/libs/stm32/STM32F10x_StdPeriph_Driver/stm32f10x_rcc.c ****   assert_param(IS_FUNCTIONAL_STATE(NewState));
 367:../../../SDK_embedded/libs/stm32/STM32F10x_StdPeriph_Driver/stm32f10x_rcc.c ****   *(__IO uint32_t *) CR_HSION_BB = (uint32_t)NewState;
 16570              		.loc 1 367 0
 16571 0000 014B     		ldr	r3, .L15
 16572 0002 1860     		str	r0, [r3, #0]
 368:../../../SDK_embedded/libs/stm32/STM32F10x_StdPeriph_Driver/stm32f10x_rcc.c **** }
 16573              		.loc 1 368 0
 16574 0004 7047     		bx	lr
 16575              	.L16:
 16576 0006 00BF     		.align	2
 16577              	.L15:
 16578 0008 00004242 		.word	1111621632
 16579              		.cfi_endproc
 16580              	.LFE33:
 16582              		.section	.text.RCC_PLLConfig,"ax",%progbits
 16583              		.align	1
 16584              		.global	RCC_PLLConfig
 16585              		.thumb
 16586              		.thumb_func
 16588              	RCC_PLLConfig:
 16589              	.LFB34:
 369:../../../SDK_embedded/libs/stm32/STM32F10x_StdPeriph_Driver/stm32f10x_rcc.c **** 
 370:../../../SDK_embedded/libs/stm32/STM32F10x_StdPeriph_Driver/stm32f10x_rcc.c **** /**
 371:../../../SDK_embedded/libs/stm32/STM32F10x_StdPeriph_Driver/stm32f10x_rcc.c ****   * @brief  Configures the PLL clock source and multiplication factor.
 372:../../../SDK_embedded/libs/stm32/STM32F10x_StdPeriph_Driver/stm32f10x_rcc.c ****   * @note   This function must be used only when the PLL is disabled.
 373:../../../SDK_embedded/libs/stm32/STM32F10x_StdPeriph_Driver/stm32f10x_rcc.c ****   * @param  RCC_PLLSource: specifies the PLL entry clock source.
 374:../../../SDK_embedded/libs/stm32/STM32F10x_StdPeriph_Driver/stm32f10x_rcc.c ****   *   For @b STM32_Connectivity_line_devices or @b STM32_Value_line_devices, 
 375:../../../SDK_embedded/libs/stm32/STM32F10x_StdPeriph_Driver/stm32f10x_rcc.c ****   *   this parameter can be one of the following values:
 376:../../../SDK_embedded/libs/stm32/STM32F10x_StdPeriph_Driver/stm32f10x_rcc.c ****   *     @arg RCC_PLLSource_HSI_Div2: HSI oscillator clock divided by 2 selected as PLL clock entry
 377:../../../SDK_embedded/libs/stm32/STM32F10x_StdPeriph_Driver/stm32f10x_rcc.c ****   *     @arg RCC_PLLSource_PREDIV1: PREDIV1 clock selected as PLL clock entry
 378:../../../SDK_embedded/libs/stm32/STM32F10x_StdPeriph_Driver/stm32f10x_rcc.c ****   *   For @b other_STM32_devices, this parameter can be one of the following values:
 379:../../../SDK_embedded/libs/stm32/STM32F10x_StdPeriph_Driver/stm32f10x_rcc.c ****   *     @arg RCC_PLLSource_HSI_Div2: HSI oscillator clock divided by 2 selected as PLL clock entry
 380:../../../SDK_embedded/libs/stm32/STM32F10x_StdPeriph_Driver/stm32f10x_rcc.c ****   *     @arg RCC_PLLSource_HSE_Div1: HSE oscillator clock selected as PLL clock entry
 381:../../../SDK_embedded/libs/stm32/STM32F10x_StdPeriph_Driver/stm32f10x_rcc.c ****   *     @arg RCC_PLLSource_HSE_Div2: HSE oscillator clock divided by 2 selected as PLL clock entry 
 382:../../../SDK_embedded/libs/stm32/STM32F10x_StdPeriph_Driver/stm32f10x_rcc.c ****   * @param  RCC_PLLMul: specifies the PLL multiplication factor.
 383:../../../SDK_embedded/libs/stm32/STM32F10x_StdPeriph_Driver/stm32f10x_rcc.c ****   *   For @b STM32_Connectivity_line_devices, this parameter can be RCC_PLLMul_x where x:{[4,9], 6_
 384:../../../SDK_embedded/libs/stm32/STM32F10x_StdPeriph_Driver/stm32f10x_rcc.c ****   *   For @b other_STM32_devices, this parameter can be RCC_PLLMul_x where x:[2,16]  
 385:../../../SDK_embedded/libs/stm32/STM32F10x_StdPeriph_Driver/stm32f10x_rcc.c ****   * @retval None
 386:../../../SDK_embedded/libs/stm32/STM32F10x_StdPeriph_Driver/stm32f10x_rcc.c ****   */
 387:../../../SDK_embedded/libs/stm32/STM32F10x_StdPeriph_Driver/stm32f10x_rcc.c **** void RCC_PLLConfig(uint32_t RCC_PLLSource, uint32_t RCC_PLLMul)
 388:../../../SDK_embedded/libs/stm32/STM32F10x_StdPeriph_Driver/stm32f10x_rcc.c **** {
 16590              		.loc 1 388 0
 16591              		.cfi_startproc
 16592              		@ args = 0, pretend = 0, frame = 0
 16593              		@ frame_needed = 0, uses_anonymous_args = 0
 16594              		@ link register save eliminated.
 16595              	.LVL9:
 389:../../../SDK_embedded/libs/stm32/STM32F10x_StdPeriph_Driver/stm32f10x_rcc.c ****   uint32_t tmpreg = 0;
 390:../../../SDK_embedded/libs/stm32/STM32F10x_StdPeriph_Driver/stm32f10x_rcc.c **** 
 391:../../../SDK_embedded/libs/stm32/STM32F10x_StdPeriph_Driver/stm32f10x_rcc.c ****   /* Check the parameters */
 392:../../../SDK_embedded/libs/stm32/STM32F10x_StdPeriph_Driver/stm32f10x_rcc.c ****   assert_param(IS_RCC_PLL_SOURCE(RCC_PLLSource));
 393:../../../SDK_embedded/libs/stm32/STM32F10x_StdPeriph_Driver/stm32f10x_rcc.c ****   assert_param(IS_RCC_PLL_MUL(RCC_PLLMul));
 394:../../../SDK_embedded/libs/stm32/STM32F10x_StdPeriph_Driver/stm32f10x_rcc.c **** 
 395:../../../SDK_embedded/libs/stm32/STM32F10x_StdPeriph_Driver/stm32f10x_rcc.c ****   tmpreg = RCC->CFGR;
 16596              		.loc 1 395 0
 16597 0000 044B     		ldr	r3, .L18
 16598 0002 5A68     		ldr	r2, [r3, #4]
 16599              	.LVL10:
 396:../../../SDK_embedded/libs/stm32/STM32F10x_StdPeriph_Driver/stm32f10x_rcc.c ****   /* Clear PLLSRC, PLLXTPRE and PLLMUL[3:0] bits */
 397:../../../SDK_embedded/libs/stm32/STM32F10x_StdPeriph_Driver/stm32f10x_rcc.c ****   tmpreg &= CFGR_PLL_Mask;
 16600              		.loc 1 397 0
 16601 0004 22F47C1C 		bic	ip, r2, #4128768
 398:../../../SDK_embedded/libs/stm32/STM32F10x_StdPeriph_Driver/stm32f10x_rcc.c ****   /* Set the PLL configuration bits */
 399:../../../SDK_embedded/libs/stm32/STM32F10x_StdPeriph_Driver/stm32f10x_rcc.c ****   tmpreg |= RCC_PLLSource | RCC_PLLMul;
 16602              		.loc 1 399 0
 16603 0008 40EA0C02 		orr	r2, r0, ip
 16604              	.LVL11:
 16605 000c 42EA0100 		orr	r0, r2, r1
 16606              	.LVL12:
 400:../../../SDK_embedded/libs/stm32/STM32F10x_StdPeriph_Driver/stm32f10x_rcc.c ****   /* Store the new value */
 401:../../../SDK_embedded/libs/stm32/STM32F10x_StdPeriph_Driver/stm32f10x_rcc.c ****   RCC->CFGR = tmpreg;
 16607              		.loc 1 401 0
 16608 0010 5860     		str	r0, [r3, #4]
 402:../../../SDK_embedded/libs/stm32/STM32F10x_StdPeriph_Driver/stm32f10x_rcc.c **** }
 16609              		.loc 1 402 0
 16610 0012 7047     		bx	lr
 16611              	.L19:
 16612              		.align	2
 16613              	.L18:
 16614 0014 00100240 		.word	1073876992
 16615              		.cfi_endproc
 16616              	.LFE34:
 16618              		.section	.text.RCC_PLLCmd,"ax",%progbits
 16619              		.align	1
 16620              		.global	RCC_PLLCmd
 16621              		.thumb
 16622              		.thumb_func
 16624              	RCC_PLLCmd:
 16625              	.LFB35:
 403:../../../SDK_embedded/libs/stm32/STM32F10x_StdPeriph_Driver/stm32f10x_rcc.c **** 
 404:../../../SDK_embedded/libs/stm32/STM32F10x_StdPeriph_Driver/stm32f10x_rcc.c **** /**
 405:../../../SDK_embedded/libs/stm32/STM32F10x_StdPeriph_Driver/stm32f10x_rcc.c ****   * @brief  Enables or disables the PLL.
 406:../../../SDK_embedded/libs/stm32/STM32F10x_StdPeriph_Driver/stm32f10x_rcc.c ****   * @note   The PLL can not be disabled if it is used as system clock.
 407:../../../SDK_embedded/libs/stm32/STM32F10x_StdPeriph_Driver/stm32f10x_rcc.c ****   * @param  NewState: new state of the PLL. This parameter can be: ENABLE or DISABLE.
 408:../../../SDK_embedded/libs/stm32/STM32F10x_StdPeriph_Driver/stm32f10x_rcc.c ****   * @retval None
 409:../../../SDK_embedded/libs/stm32/STM32F10x_StdPeriph_Driver/stm32f10x_rcc.c ****   */
 410:../../../SDK_embedded/libs/stm32/STM32F10x_StdPeriph_Driver/stm32f10x_rcc.c **** void RCC_PLLCmd(FunctionalState NewState)
 411:../../../SDK_embedded/libs/stm32/STM32F10x_StdPeriph_Driver/stm32f10x_rcc.c **** {
 16626              		.loc 1 411 0
 16627              		.cfi_startproc
 16628              		@ args = 0, pretend = 0, frame = 0
 16629              		@ frame_needed = 0, uses_anonymous_args = 0
 16630              		@ link register save eliminated.
 16631              	.LVL13:
 412:../../../SDK_embedded/libs/stm32/STM32F10x_StdPeriph_Driver/stm32f10x_rcc.c ****   /* Check the parameters */
 413:../../../SDK_embedded/libs/stm32/STM32F10x_StdPeriph_Driver/stm32f10x_rcc.c ****   assert_param(IS_FUNCTIONAL_STATE(NewState));
 414:../../../SDK_embedded/libs/stm32/STM32F10x_StdPeriph_Driver/stm32f10x_rcc.c **** 
 415:../../../SDK_embedded/libs/stm32/STM32F10x_StdPeriph_Driver/stm32f10x_rcc.c ****   *(__IO uint32_t *) CR_PLLON_BB = (uint32_t)NewState;
 16632              		.loc 1 415 0
 16633 0000 014B     		ldr	r3, .L21
 16634 0002 1860     		str	r0, [r3, #0]
 416:../../../SDK_embedded/libs/stm32/STM32F10x_StdPeriph_Driver/stm32f10x_rcc.c **** }
 16635              		.loc 1 416 0
 16636 0004 7047     		bx	lr
 16637              	.L22:
 16638 0006 00BF     		.align	2
 16639              	.L21:
 16640 0008 60004242 		.word	1111621728
 16641              		.cfi_endproc
 16642              	.LFE35:
 16644              		.section	.text.RCC_SYSCLKConfig,"ax",%progbits
 16645              		.align	1
 16646              		.global	RCC_SYSCLKConfig
 16647              		.thumb
 16648              		.thumb_func
 16650              	RCC_SYSCLKConfig:
 16651              	.LFB36:
 417:../../../SDK_embedded/libs/stm32/STM32F10x_StdPeriph_Driver/stm32f10x_rcc.c **** 
 418:../../../SDK_embedded/libs/stm32/STM32F10x_StdPeriph_Driver/stm32f10x_rcc.c **** #if defined (STM32F10X_LD_VL) || defined (STM32F10X_MD_VL) || defined (STM32F10X_CL)
 419:../../../SDK_embedded/libs/stm32/STM32F10x_StdPeriph_Driver/stm32f10x_rcc.c **** /**
 420:../../../SDK_embedded/libs/stm32/STM32F10x_StdPeriph_Driver/stm32f10x_rcc.c ****   * @brief  Configures the PREDIV1 division factor.
 421:../../../SDK_embedded/libs/stm32/STM32F10x_StdPeriph_Driver/stm32f10x_rcc.c ****   * @note 
 422:../../../SDK_embedded/libs/stm32/STM32F10x_StdPeriph_Driver/stm32f10x_rcc.c ****   *   - This function must be used only when the PLL is disabled.
 423:../../../SDK_embedded/libs/stm32/STM32F10x_StdPeriph_Driver/stm32f10x_rcc.c ****   *   - This function applies only to STM32 Connectivity line and Value line 
 424:../../../SDK_embedded/libs/stm32/STM32F10x_StdPeriph_Driver/stm32f10x_rcc.c ****   *     devices.
 425:../../../SDK_embedded/libs/stm32/STM32F10x_StdPeriph_Driver/stm32f10x_rcc.c ****   * @param  RCC_PREDIV1_Source: specifies the PREDIV1 clock source.
 426:../../../SDK_embedded/libs/stm32/STM32F10x_StdPeriph_Driver/stm32f10x_rcc.c ****   *   This parameter can be one of the following values:
 427:../../../SDK_embedded/libs/stm32/STM32F10x_StdPeriph_Driver/stm32f10x_rcc.c ****   *     @arg RCC_PREDIV1_Source_HSE: HSE selected as PREDIV1 clock
 428:../../../SDK_embedded/libs/stm32/STM32F10x_StdPeriph_Driver/stm32f10x_rcc.c ****   *     @arg RCC_PREDIV1_Source_PLL2: PLL2 selected as PREDIV1 clock
 429:../../../SDK_embedded/libs/stm32/STM32F10x_StdPeriph_Driver/stm32f10x_rcc.c ****   * @note 
 430:../../../SDK_embedded/libs/stm32/STM32F10x_StdPeriph_Driver/stm32f10x_rcc.c ****   *   For @b STM32_Value_line_devices this parameter is always RCC_PREDIV1_Source_HSE  
 431:../../../SDK_embedded/libs/stm32/STM32F10x_StdPeriph_Driver/stm32f10x_rcc.c ****   * @param  RCC_PREDIV1_Div: specifies the PREDIV1 clock division factor.
 432:../../../SDK_embedded/libs/stm32/STM32F10x_StdPeriph_Driver/stm32f10x_rcc.c ****   *   This parameter can be RCC_PREDIV1_Divx where x:[1,16]
 433:../../../SDK_embedded/libs/stm32/STM32F10x_StdPeriph_Driver/stm32f10x_rcc.c ****   * @retval None
 434:../../../SDK_embedded/libs/stm32/STM32F10x_StdPeriph_Driver/stm32f10x_rcc.c ****   */
 435:../../../SDK_embedded/libs/stm32/STM32F10x_StdPeriph_Driver/stm32f10x_rcc.c **** void RCC_PREDIV1Config(uint32_t RCC_PREDIV1_Source, uint32_t RCC_PREDIV1_Div)
 436:../../../SDK_embedded/libs/stm32/STM32F10x_StdPeriph_Driver/stm32f10x_rcc.c **** {
 437:../../../SDK_embedded/libs/stm32/STM32F10x_StdPeriph_Driver/stm32f10x_rcc.c ****   uint32_t tmpreg = 0;
 438:../../../SDK_embedded/libs/stm32/STM32F10x_StdPeriph_Driver/stm32f10x_rcc.c ****   
 439:../../../SDK_embedded/libs/stm32/STM32F10x_StdPeriph_Driver/stm32f10x_rcc.c ****   /* Check the parameters */
 440:../../../SDK_embedded/libs/stm32/STM32F10x_StdPeriph_Driver/stm32f10x_rcc.c ****   assert_param(IS_RCC_PREDIV1_SOURCE(RCC_PREDIV1_Source));
 441:../../../SDK_embedded/libs/stm32/STM32F10x_StdPeriph_Driver/stm32f10x_rcc.c ****   assert_param(IS_RCC_PREDIV1(RCC_PREDIV1_Div));
 442:../../../SDK_embedded/libs/stm32/STM32F10x_StdPeriph_Driver/stm32f10x_rcc.c **** 
 443:../../../SDK_embedded/libs/stm32/STM32F10x_StdPeriph_Driver/stm32f10x_rcc.c ****   tmpreg = RCC->CFGR2;
 444:../../../SDK_embedded/libs/stm32/STM32F10x_StdPeriph_Driver/stm32f10x_rcc.c ****   /* Clear PREDIV1[3:0] and PREDIV1SRC bits */
 445:../../../SDK_embedded/libs/stm32/STM32F10x_StdPeriph_Driver/stm32f10x_rcc.c ****   tmpreg &= ~(CFGR2_PREDIV1 | CFGR2_PREDIV1SRC);
 446:../../../SDK_embedded/libs/stm32/STM32F10x_StdPeriph_Driver/stm32f10x_rcc.c ****   /* Set the PREDIV1 clock source and division factor */
 447:../../../SDK_embedded/libs/stm32/STM32F10x_StdPeriph_Driver/stm32f10x_rcc.c ****   tmpreg |= RCC_PREDIV1_Source | RCC_PREDIV1_Div ;
 448:../../../SDK_embedded/libs/stm32/STM32F10x_StdPeriph_Driver/stm32f10x_rcc.c ****   /* Store the new value */
 449:../../../SDK_embedded/libs/stm32/STM32F10x_StdPeriph_Driver/stm32f10x_rcc.c ****   RCC->CFGR2 = tmpreg;
 450:../../../SDK_embedded/libs/stm32/STM32F10x_StdPeriph_Driver/stm32f10x_rcc.c **** }
 451:../../../SDK_embedded/libs/stm32/STM32F10x_StdPeriph_Driver/stm32f10x_rcc.c **** #endif
 452:../../../SDK_embedded/libs/stm32/STM32F10x_StdPeriph_Driver/stm32f10x_rcc.c **** 
 453:../../../SDK_embedded/libs/stm32/STM32F10x_StdPeriph_Driver/stm32f10x_rcc.c **** #ifdef STM32F10X_CL
 454:../../../SDK_embedded/libs/stm32/STM32F10x_StdPeriph_Driver/stm32f10x_rcc.c **** /**
 455:../../../SDK_embedded/libs/stm32/STM32F10x_StdPeriph_Driver/stm32f10x_rcc.c ****   * @brief  Configures the PREDIV2 division factor.
 456:../../../SDK_embedded/libs/stm32/STM32F10x_StdPeriph_Driver/stm32f10x_rcc.c ****   * @note 
 457:../../../SDK_embedded/libs/stm32/STM32F10x_StdPeriph_Driver/stm32f10x_rcc.c ****   *   - This function must be used only when both PLL2 and PLL3 are disabled.
 458:../../../SDK_embedded/libs/stm32/STM32F10x_StdPeriph_Driver/stm32f10x_rcc.c ****   *   - This function applies only to STM32 Connectivity line devices.
 459:../../../SDK_embedded/libs/stm32/STM32F10x_StdPeriph_Driver/stm32f10x_rcc.c ****   * @param  RCC_PREDIV2_Div: specifies the PREDIV2 clock division factor.
 460:../../../SDK_embedded/libs/stm32/STM32F10x_StdPeriph_Driver/stm32f10x_rcc.c ****   *   This parameter can be RCC_PREDIV2_Divx where x:[1,16]
 461:../../../SDK_embedded/libs/stm32/STM32F10x_StdPeriph_Driver/stm32f10x_rcc.c ****   * @retval None
 462:../../../SDK_embedded/libs/stm32/STM32F10x_StdPeriph_Driver/stm32f10x_rcc.c ****   */
 463:../../../SDK_embedded/libs/stm32/STM32F10x_StdPeriph_Driver/stm32f10x_rcc.c **** void RCC_PREDIV2Config(uint32_t RCC_PREDIV2_Div)
 464:../../../SDK_embedded/libs/stm32/STM32F10x_StdPeriph_Driver/stm32f10x_rcc.c **** {
 465:../../../SDK_embedded/libs/stm32/STM32F10x_StdPeriph_Driver/stm32f10x_rcc.c ****   uint32_t tmpreg = 0;
 466:../../../SDK_embedded/libs/stm32/STM32F10x_StdPeriph_Driver/stm32f10x_rcc.c **** 
 467:../../../SDK_embedded/libs/stm32/STM32F10x_StdPeriph_Driver/stm32f10x_rcc.c ****   /* Check the parameters */
 468:../../../SDK_embedded/libs/stm32/STM32F10x_StdPeriph_Driver/stm32f10x_rcc.c ****   assert_param(IS_RCC_PREDIV2(RCC_PREDIV2_Div));
 469:../../../SDK_embedded/libs/stm32/STM32F10x_StdPeriph_Driver/stm32f10x_rcc.c **** 
 470:../../../SDK_embedded/libs/stm32/STM32F10x_StdPeriph_Driver/stm32f10x_rcc.c ****   tmpreg = RCC->CFGR2;
 471:../../../SDK_embedded/libs/stm32/STM32F10x_StdPeriph_Driver/stm32f10x_rcc.c ****   /* Clear PREDIV2[3:0] bits */
 472:../../../SDK_embedded/libs/stm32/STM32F10x_StdPeriph_Driver/stm32f10x_rcc.c ****   tmpreg &= ~CFGR2_PREDIV2;
 473:../../../SDK_embedded/libs/stm32/STM32F10x_StdPeriph_Driver/stm32f10x_rcc.c ****   /* Set the PREDIV2 division factor */
 474:../../../SDK_embedded/libs/stm32/STM32F10x_StdPeriph_Driver/stm32f10x_rcc.c ****   tmpreg |= RCC_PREDIV2_Div;
 475:../../../SDK_embedded/libs/stm32/STM32F10x_StdPeriph_Driver/stm32f10x_rcc.c ****   /* Store the new value */
 476:../../../SDK_embedded/libs/stm32/STM32F10x_StdPeriph_Driver/stm32f10x_rcc.c ****   RCC->CFGR2 = tmpreg;
 477:../../../SDK_embedded/libs/stm32/STM32F10x_StdPeriph_Driver/stm32f10x_rcc.c **** }
 478:../../../SDK_embedded/libs/stm32/STM32F10x_StdPeriph_Driver/stm32f10x_rcc.c **** 
 479:../../../SDK_embedded/libs/stm32/STM32F10x_StdPeriph_Driver/stm32f10x_rcc.c **** /**
 480:../../../SDK_embedded/libs/stm32/STM32F10x_StdPeriph_Driver/stm32f10x_rcc.c ****   * @brief  Configures the PLL2 multiplication factor.
 481:../../../SDK_embedded/libs/stm32/STM32F10x_StdPeriph_Driver/stm32f10x_rcc.c ****   * @note
 482:../../../SDK_embedded/libs/stm32/STM32F10x_StdPeriph_Driver/stm32f10x_rcc.c ****   *   - This function must be used only when the PLL2 is disabled.
 483:../../../SDK_embedded/libs/stm32/STM32F10x_StdPeriph_Driver/stm32f10x_rcc.c ****   *   - This function applies only to STM32 Connectivity line devices.
 484:../../../SDK_embedded/libs/stm32/STM32F10x_StdPeriph_Driver/stm32f10x_rcc.c ****   * @param  RCC_PLL2Mul: specifies the PLL2 multiplication factor.
 485:../../../SDK_embedded/libs/stm32/STM32F10x_StdPeriph_Driver/stm32f10x_rcc.c ****   *   This parameter can be RCC_PLL2Mul_x where x:{[8,14], 16, 20}
 486:../../../SDK_embedded/libs/stm32/STM32F10x_StdPeriph_Driver/stm32f10x_rcc.c ****   * @retval None
 487:../../../SDK_embedded/libs/stm32/STM32F10x_StdPeriph_Driver/stm32f10x_rcc.c ****   */
 488:../../../SDK_embedded/libs/stm32/STM32F10x_StdPeriph_Driver/stm32f10x_rcc.c **** void RCC_PLL2Config(uint32_t RCC_PLL2Mul)
 489:../../../SDK_embedded/libs/stm32/STM32F10x_StdPeriph_Driver/stm32f10x_rcc.c **** {
 490:../../../SDK_embedded/libs/stm32/STM32F10x_StdPeriph_Driver/stm32f10x_rcc.c ****   uint32_t tmpreg = 0;
 491:../../../SDK_embedded/libs/stm32/STM32F10x_StdPeriph_Driver/stm32f10x_rcc.c **** 
 492:../../../SDK_embedded/libs/stm32/STM32F10x_StdPeriph_Driver/stm32f10x_rcc.c ****   /* Check the parameters */
 493:../../../SDK_embedded/libs/stm32/STM32F10x_StdPeriph_Driver/stm32f10x_rcc.c ****   assert_param(IS_RCC_PLL2_MUL(RCC_PLL2Mul));
 494:../../../SDK_embedded/libs/stm32/STM32F10x_StdPeriph_Driver/stm32f10x_rcc.c **** 
 495:../../../SDK_embedded/libs/stm32/STM32F10x_StdPeriph_Driver/stm32f10x_rcc.c ****   tmpreg = RCC->CFGR2;
 496:../../../SDK_embedded/libs/stm32/STM32F10x_StdPeriph_Driver/stm32f10x_rcc.c ****   /* Clear PLL2Mul[3:0] bits */
 497:../../../SDK_embedded/libs/stm32/STM32F10x_StdPeriph_Driver/stm32f10x_rcc.c ****   tmpreg &= ~CFGR2_PLL2MUL;
 498:../../../SDK_embedded/libs/stm32/STM32F10x_StdPeriph_Driver/stm32f10x_rcc.c ****   /* Set the PLL2 configuration bits */
 499:../../../SDK_embedded/libs/stm32/STM32F10x_StdPeriph_Driver/stm32f10x_rcc.c ****   tmpreg |= RCC_PLL2Mul;
 500:../../../SDK_embedded/libs/stm32/STM32F10x_StdPeriph_Driver/stm32f10x_rcc.c ****   /* Store the new value */
 501:../../../SDK_embedded/libs/stm32/STM32F10x_StdPeriph_Driver/stm32f10x_rcc.c ****   RCC->CFGR2 = tmpreg;
 502:../../../SDK_embedded/libs/stm32/STM32F10x_StdPeriph_Driver/stm32f10x_rcc.c **** }
 503:../../../SDK_embedded/libs/stm32/STM32F10x_StdPeriph_Driver/stm32f10x_rcc.c **** 
 504:../../../SDK_embedded/libs/stm32/STM32F10x_StdPeriph_Driver/stm32f10x_rcc.c **** 
 505:../../../SDK_embedded/libs/stm32/STM32F10x_StdPeriph_Driver/stm32f10x_rcc.c **** /**
 506:../../../SDK_embedded/libs/stm32/STM32F10x_StdPeriph_Driver/stm32f10x_rcc.c ****   * @brief  Enables or disables the PLL2.
 507:../../../SDK_embedded/libs/stm32/STM32F10x_StdPeriph_Driver/stm32f10x_rcc.c ****   * @note 
 508:../../../SDK_embedded/libs/stm32/STM32F10x_StdPeriph_Driver/stm32f10x_rcc.c ****   *   - The PLL2 can not be disabled if it is used indirectly as system clock
 509:../../../SDK_embedded/libs/stm32/STM32F10x_StdPeriph_Driver/stm32f10x_rcc.c ****   *     (i.e. it is used as PLL clock entry that is used as System clock).
 510:../../../SDK_embedded/libs/stm32/STM32F10x_StdPeriph_Driver/stm32f10x_rcc.c ****   *   - This function applies only to STM32 Connectivity line devices.
 511:../../../SDK_embedded/libs/stm32/STM32F10x_StdPeriph_Driver/stm32f10x_rcc.c ****   * @param  NewState: new state of the PLL2. This parameter can be: ENABLE or DISABLE.
 512:../../../SDK_embedded/libs/stm32/STM32F10x_StdPeriph_Driver/stm32f10x_rcc.c ****   * @retval None
 513:../../../SDK_embedded/libs/stm32/STM32F10x_StdPeriph_Driver/stm32f10x_rcc.c ****   */
 514:../../../SDK_embedded/libs/stm32/STM32F10x_StdPeriph_Driver/stm32f10x_rcc.c **** void RCC_PLL2Cmd(FunctionalState NewState)
 515:../../../SDK_embedded/libs/stm32/STM32F10x_StdPeriph_Driver/stm32f10x_rcc.c **** {
 516:../../../SDK_embedded/libs/stm32/STM32F10x_StdPeriph_Driver/stm32f10x_rcc.c ****   /* Check the parameters */
 517:../../../SDK_embedded/libs/stm32/STM32F10x_StdPeriph_Driver/stm32f10x_rcc.c ****   assert_param(IS_FUNCTIONAL_STATE(NewState));
 518:../../../SDK_embedded/libs/stm32/STM32F10x_StdPeriph_Driver/stm32f10x_rcc.c **** 
 519:../../../SDK_embedded/libs/stm32/STM32F10x_StdPeriph_Driver/stm32f10x_rcc.c ****   *(__IO uint32_t *) CR_PLL2ON_BB = (uint32_t)NewState;
 520:../../../SDK_embedded/libs/stm32/STM32F10x_StdPeriph_Driver/stm32f10x_rcc.c **** }
 521:../../../SDK_embedded/libs/stm32/STM32F10x_StdPeriph_Driver/stm32f10x_rcc.c **** 
 522:../../../SDK_embedded/libs/stm32/STM32F10x_StdPeriph_Driver/stm32f10x_rcc.c **** 
 523:../../../SDK_embedded/libs/stm32/STM32F10x_StdPeriph_Driver/stm32f10x_rcc.c **** /**
 524:../../../SDK_embedded/libs/stm32/STM32F10x_StdPeriph_Driver/stm32f10x_rcc.c ****   * @brief  Configures the PLL3 multiplication factor.
 525:../../../SDK_embedded/libs/stm32/STM32F10x_StdPeriph_Driver/stm32f10x_rcc.c ****   * @note 
 526:../../../SDK_embedded/libs/stm32/STM32F10x_StdPeriph_Driver/stm32f10x_rcc.c ****   *   - This function must be used only when the PLL3 is disabled.
 527:../../../SDK_embedded/libs/stm32/STM32F10x_StdPeriph_Driver/stm32f10x_rcc.c ****   *   - This function applies only to STM32 Connectivity line devices.
 528:../../../SDK_embedded/libs/stm32/STM32F10x_StdPeriph_Driver/stm32f10x_rcc.c ****   * @param  RCC_PLL3Mul: specifies the PLL3 multiplication factor.
 529:../../../SDK_embedded/libs/stm32/STM32F10x_StdPeriph_Driver/stm32f10x_rcc.c ****   *   This parameter can be RCC_PLL3Mul_x where x:{[8,14], 16, 20}
 530:../../../SDK_embedded/libs/stm32/STM32F10x_StdPeriph_Driver/stm32f10x_rcc.c ****   * @retval None
 531:../../../SDK_embedded/libs/stm32/STM32F10x_StdPeriph_Driver/stm32f10x_rcc.c ****   */
 532:../../../SDK_embedded/libs/stm32/STM32F10x_StdPeriph_Driver/stm32f10x_rcc.c **** void RCC_PLL3Config(uint32_t RCC_PLL3Mul)
 533:../../../SDK_embedded/libs/stm32/STM32F10x_StdPeriph_Driver/stm32f10x_rcc.c **** {
 534:../../../SDK_embedded/libs/stm32/STM32F10x_StdPeriph_Driver/stm32f10x_rcc.c ****   uint32_t tmpreg = 0;
 535:../../../SDK_embedded/libs/stm32/STM32F10x_StdPeriph_Driver/stm32f10x_rcc.c **** 
 536:../../../SDK_embedded/libs/stm32/STM32F10x_StdPeriph_Driver/stm32f10x_rcc.c ****   /* Check the parameters */
 537:../../../SDK_embedded/libs/stm32/STM32F10x_StdPeriph_Driver/stm32f10x_rcc.c ****   assert_param(IS_RCC_PLL3_MUL(RCC_PLL3Mul));
 538:../../../SDK_embedded/libs/stm32/STM32F10x_StdPeriph_Driver/stm32f10x_rcc.c **** 
 539:../../../SDK_embedded/libs/stm32/STM32F10x_StdPeriph_Driver/stm32f10x_rcc.c ****   tmpreg = RCC->CFGR2;
 540:../../../SDK_embedded/libs/stm32/STM32F10x_StdPeriph_Driver/stm32f10x_rcc.c ****   /* Clear PLL3Mul[3:0] bits */
 541:../../../SDK_embedded/libs/stm32/STM32F10x_StdPeriph_Driver/stm32f10x_rcc.c ****   tmpreg &= ~CFGR2_PLL3MUL;
 542:../../../SDK_embedded/libs/stm32/STM32F10x_StdPeriph_Driver/stm32f10x_rcc.c ****   /* Set the PLL3 configuration bits */
 543:../../../SDK_embedded/libs/stm32/STM32F10x_StdPeriph_Driver/stm32f10x_rcc.c ****   tmpreg |= RCC_PLL3Mul;
 544:../../../SDK_embedded/libs/stm32/STM32F10x_StdPeriph_Driver/stm32f10x_rcc.c ****   /* Store the new value */
 545:../../../SDK_embedded/libs/stm32/STM32F10x_StdPeriph_Driver/stm32f10x_rcc.c ****   RCC->CFGR2 = tmpreg;
 546:../../../SDK_embedded/libs/stm32/STM32F10x_StdPeriph_Driver/stm32f10x_rcc.c **** }
 547:../../../SDK_embedded/libs/stm32/STM32F10x_StdPeriph_Driver/stm32f10x_rcc.c **** 
 548:../../../SDK_embedded/libs/stm32/STM32F10x_StdPeriph_Driver/stm32f10x_rcc.c **** 
 549:../../../SDK_embedded/libs/stm32/STM32F10x_StdPeriph_Driver/stm32f10x_rcc.c **** /**
 550:../../../SDK_embedded/libs/stm32/STM32F10x_StdPeriph_Driver/stm32f10x_rcc.c ****   * @brief  Enables or disables the PLL3.
 551:../../../SDK_embedded/libs/stm32/STM32F10x_StdPeriph_Driver/stm32f10x_rcc.c ****   * @note   This function applies only to STM32 Connectivity line devices.
 552:../../../SDK_embedded/libs/stm32/STM32F10x_StdPeriph_Driver/stm32f10x_rcc.c ****   * @param  NewState: new state of the PLL3. This parameter can be: ENABLE or DISABLE.
 553:../../../SDK_embedded/libs/stm32/STM32F10x_StdPeriph_Driver/stm32f10x_rcc.c ****   * @retval None
 554:../../../SDK_embedded/libs/stm32/STM32F10x_StdPeriph_Driver/stm32f10x_rcc.c ****   */
 555:../../../SDK_embedded/libs/stm32/STM32F10x_StdPeriph_Driver/stm32f10x_rcc.c **** void RCC_PLL3Cmd(FunctionalState NewState)
 556:../../../SDK_embedded/libs/stm32/STM32F10x_StdPeriph_Driver/stm32f10x_rcc.c **** {
 557:../../../SDK_embedded/libs/stm32/STM32F10x_StdPeriph_Driver/stm32f10x_rcc.c ****   /* Check the parameters */
 558:../../../SDK_embedded/libs/stm32/STM32F10x_StdPeriph_Driver/stm32f10x_rcc.c **** 
 559:../../../SDK_embedded/libs/stm32/STM32F10x_StdPeriph_Driver/stm32f10x_rcc.c ****   assert_param(IS_FUNCTIONAL_STATE(NewState));
 560:../../../SDK_embedded/libs/stm32/STM32F10x_StdPeriph_Driver/stm32f10x_rcc.c ****   *(__IO uint32_t *) CR_PLL3ON_BB = (uint32_t)NewState;
 561:../../../SDK_embedded/libs/stm32/STM32F10x_StdPeriph_Driver/stm32f10x_rcc.c **** }
 562:../../../SDK_embedded/libs/stm32/STM32F10x_StdPeriph_Driver/stm32f10x_rcc.c **** #endif /* STM32F10X_CL */
 563:../../../SDK_embedded/libs/stm32/STM32F10x_StdPeriph_Driver/stm32f10x_rcc.c **** 
 564:../../../SDK_embedded/libs/stm32/STM32F10x_StdPeriph_Driver/stm32f10x_rcc.c **** /**
 565:../../../SDK_embedded/libs/stm32/STM32F10x_StdPeriph_Driver/stm32f10x_rcc.c ****   * @brief  Configures the system clock (SYSCLK).
 566:../../../SDK_embedded/libs/stm32/STM32F10x_StdPeriph_Driver/stm32f10x_rcc.c ****   * @param  RCC_SYSCLKSource: specifies the clock source used as system clock.
 567:../../../SDK_embedded/libs/stm32/STM32F10x_StdPeriph_Driver/stm32f10x_rcc.c ****   *   This parameter can be one of the following values:
 568:../../../SDK_embedded/libs/stm32/STM32F10x_StdPeriph_Driver/stm32f10x_rcc.c ****   *     @arg RCC_SYSCLKSource_HSI: HSI selected as system clock
 569:../../../SDK_embedded/libs/stm32/STM32F10x_StdPeriph_Driver/stm32f10x_rcc.c ****   *     @arg RCC_SYSCLKSource_HSE: HSE selected as system clock
 570:../../../SDK_embedded/libs/stm32/STM32F10x_StdPeriph_Driver/stm32f10x_rcc.c ****   *     @arg RCC_SYSCLKSource_PLLCLK: PLL selected as system clock
 571:../../../SDK_embedded/libs/stm32/STM32F10x_StdPeriph_Driver/stm32f10x_rcc.c ****   * @retval None
 572:../../../SDK_embedded/libs/stm32/STM32F10x_StdPeriph_Driver/stm32f10x_rcc.c ****   */
 573:../../../SDK_embedded/libs/stm32/STM32F10x_StdPeriph_Driver/stm32f10x_rcc.c **** void RCC_SYSCLKConfig(uint32_t RCC_SYSCLKSource)
 574:../../../SDK_embedded/libs/stm32/STM32F10x_StdPeriph_Driver/stm32f10x_rcc.c **** {
 16652              		.loc 1 574 0
 16653              		.cfi_startproc
 16654              		@ args = 0, pretend = 0, frame = 0
 16655              		@ frame_needed = 0, uses_anonymous_args = 0
 16656              		@ link register save eliminated.
 16657              	.LVL14:
 575:../../../SDK_embedded/libs/stm32/STM32F10x_StdPeriph_Driver/stm32f10x_rcc.c ****   uint32_t tmpreg = 0;
 576:../../../SDK_embedded/libs/stm32/STM32F10x_StdPeriph_Driver/stm32f10x_rcc.c ****   /* Check the parameters */
 577:../../../SDK_embedded/libs/stm32/STM32F10x_StdPeriph_Driver/stm32f10x_rcc.c ****   assert_param(IS_RCC_SYSCLK_SOURCE(RCC_SYSCLKSource));
 578:../../../SDK_embedded/libs/stm32/STM32F10x_StdPeriph_Driver/stm32f10x_rcc.c ****   tmpreg = RCC->CFGR;
 16658              		.loc 1 578 0
 16659 0000 034B     		ldr	r3, .L24
 16660 0002 5968     		ldr	r1, [r3, #4]
 16661              	.LVL15:
 579:../../../SDK_embedded/libs/stm32/STM32F10x_StdPeriph_Driver/stm32f10x_rcc.c ****   /* Clear SW[1:0] bits */
 580:../../../SDK_embedded/libs/stm32/STM32F10x_StdPeriph_Driver/stm32f10x_rcc.c ****   tmpreg &= CFGR_SW_Mask;
 16662              		.loc 1 580 0
 16663 0004 21F00302 		bic	r2, r1, #3
 16664              	.LVL16:
 581:../../../SDK_embedded/libs/stm32/STM32F10x_StdPeriph_Driver/stm32f10x_rcc.c ****   /* Set SW[1:0] bits according to RCC_SYSCLKSource value */
 582:../../../SDK_embedded/libs/stm32/STM32F10x_StdPeriph_Driver/stm32f10x_rcc.c ****   tmpreg |= RCC_SYSCLKSource;
 16665              		.loc 1 582 0
 16666 0008 1043     		orrs	r0, r0, r2
 16667              	.LVL17:
 583:../../../SDK_embedded/libs/stm32/STM32F10x_StdPeriph_Driver/stm32f10x_rcc.c ****   /* Store the new value */
 584:../../../SDK_embedded/libs/stm32/STM32F10x_StdPeriph_Driver/stm32f10x_rcc.c ****   RCC->CFGR = tmpreg;
 16668              		.loc 1 584 0
 16669 000a 5860     		str	r0, [r3, #4]
 585:../../../SDK_embedded/libs/stm32/STM32F10x_StdPeriph_Driver/stm32f10x_rcc.c **** }
 16670              		.loc 1 585 0
 16671 000c 7047     		bx	lr
 16672              	.L25:
 16673 000e 00BF     		.align	2
 16674              	.L24:
 16675 0010 00100240 		.word	1073876992
 16676              		.cfi_endproc
 16677              	.LFE36:
 16679              		.section	.text.RCC_GetSYSCLKSource,"ax",%progbits
 16680              		.align	1
 16681              		.global	RCC_GetSYSCLKSource
 16682              		.thumb
 16683              		.thumb_func
 16685              	RCC_GetSYSCLKSource:
 16686              	.LFB37:
 586:../../../SDK_embedded/libs/stm32/STM32F10x_StdPeriph_Driver/stm32f10x_rcc.c **** 
 587:../../../SDK_embedded/libs/stm32/STM32F10x_StdPeriph_Driver/stm32f10x_rcc.c **** /**
 588:../../../SDK_embedded/libs/stm32/STM32F10x_StdPeriph_Driver/stm32f10x_rcc.c ****   * @brief  Returns the clock source used as system clock.
 589:../../../SDK_embedded/libs/stm32/STM32F10x_StdPeriph_Driver/stm32f10x_rcc.c ****   * @param  None
 590:../../../SDK_embedded/libs/stm32/STM32F10x_StdPeriph_Driver/stm32f10x_rcc.c ****   * @retval The clock source used as system clock. The returned value can
 591:../../../SDK_embedded/libs/stm32/STM32F10x_StdPeriph_Driver/stm32f10x_rcc.c ****   *   be one of the following:
 592:../../../SDK_embedded/libs/stm32/STM32F10x_StdPeriph_Driver/stm32f10x_rcc.c ****   *     - 0x00: HSI used as system clock
 593:../../../SDK_embedded/libs/stm32/STM32F10x_StdPeriph_Driver/stm32f10x_rcc.c ****   *     - 0x04: HSE used as system clock
 594:../../../SDK_embedded/libs/stm32/STM32F10x_StdPeriph_Driver/stm32f10x_rcc.c ****   *     - 0x08: PLL used as system clock
 595:../../../SDK_embedded/libs/stm32/STM32F10x_StdPeriph_Driver/stm32f10x_rcc.c ****   */
 596:../../../SDK_embedded/libs/stm32/STM32F10x_StdPeriph_Driver/stm32f10x_rcc.c **** uint8_t RCC_GetSYSCLKSource(void)
 597:../../../SDK_embedded/libs/stm32/STM32F10x_StdPeriph_Driver/stm32f10x_rcc.c **** {
 16687              		.loc 1 597 0
 16688              		.cfi_startproc
 16689              		@ args = 0, pretend = 0, frame = 0
 16690              		@ frame_needed = 0, uses_anonymous_args = 0
 16691              		@ link register save eliminated.
 598:../../../SDK_embedded/libs/stm32/STM32F10x_StdPeriph_Driver/stm32f10x_rcc.c ****   return ((uint8_t)(RCC->CFGR & CFGR_SWS_Mask));
 16692              		.loc 1 598 0
 16693 0000 024B     		ldr	r3, .L27
 16694 0002 5868     		ldr	r0, [r3, #4]
 16695 0004 00F00C00 		and	r0, r0, #12
 599:../../../SDK_embedded/libs/stm32/STM32F10x_StdPeriph_Driver/stm32f10x_rcc.c **** }
 16696              		.loc 1 599 0
 16697 0008 7047     		bx	lr
 16698              	.L28:
 16699 000a 00BF     		.align	2
 16700              	.L27:
 16701 000c 00100240 		.word	1073876992
 16702              		.cfi_endproc
 16703              	.LFE37:
 16705              		.section	.text.RCC_HCLKConfig,"ax",%progbits
 16706              		.align	1
 16707              		.global	RCC_HCLKConfig
 16708              		.thumb
 16709              		.thumb_func
 16711              	RCC_HCLKConfig:
 16712              	.LFB38:
 600:../../../SDK_embedded/libs/stm32/STM32F10x_StdPeriph_Driver/stm32f10x_rcc.c **** 
 601:../../../SDK_embedded/libs/stm32/STM32F10x_StdPeriph_Driver/stm32f10x_rcc.c **** /**
 602:../../../SDK_embedded/libs/stm32/STM32F10x_StdPeriph_Driver/stm32f10x_rcc.c ****   * @brief  Configures the AHB clock (HCLK).
 603:../../../SDK_embedded/libs/stm32/STM32F10x_StdPeriph_Driver/stm32f10x_rcc.c ****   * @param  RCC_SYSCLK: defines the AHB clock divider. This clock is derived from 
 604:../../../SDK_embedded/libs/stm32/STM32F10x_StdPeriph_Driver/stm32f10x_rcc.c ****   *   the system clock (SYSCLK).
 605:../../../SDK_embedded/libs/stm32/STM32F10x_StdPeriph_Driver/stm32f10x_rcc.c ****   *   This parameter can be one of the following values:
 606:../../../SDK_embedded/libs/stm32/STM32F10x_StdPeriph_Driver/stm32f10x_rcc.c ****   *     @arg RCC_SYSCLK_Div1: AHB clock = SYSCLK
 607:../../../SDK_embedded/libs/stm32/STM32F10x_StdPeriph_Driver/stm32f10x_rcc.c ****   *     @arg RCC_SYSCLK_Div2: AHB clock = SYSCLK/2
 608:../../../SDK_embedded/libs/stm32/STM32F10x_StdPeriph_Driver/stm32f10x_rcc.c ****   *     @arg RCC_SYSCLK_Div4: AHB clock = SYSCLK/4
 609:../../../SDK_embedded/libs/stm32/STM32F10x_StdPeriph_Driver/stm32f10x_rcc.c ****   *     @arg RCC_SYSCLK_Div8: AHB clock = SYSCLK/8
 610:../../../SDK_embedded/libs/stm32/STM32F10x_StdPeriph_Driver/stm32f10x_rcc.c ****   *     @arg RCC_SYSCLK_Div16: AHB clock = SYSCLK/16
 611:../../../SDK_embedded/libs/stm32/STM32F10x_StdPeriph_Driver/stm32f10x_rcc.c ****   *     @arg RCC_SYSCLK_Div64: AHB clock = SYSCLK/64
 612:../../../SDK_embedded/libs/stm32/STM32F10x_StdPeriph_Driver/stm32f10x_rcc.c ****   *     @arg RCC_SYSCLK_Div128: AHB clock = SYSCLK/128
 613:../../../SDK_embedded/libs/stm32/STM32F10x_StdPeriph_Driver/stm32f10x_rcc.c ****   *     @arg RCC_SYSCLK_Div256: AHB clock = SYSCLK/256
 614:../../../SDK_embedded/libs/stm32/STM32F10x_StdPeriph_Driver/stm32f10x_rcc.c ****   *     @arg RCC_SYSCLK_Div512: AHB clock = SYSCLK/512
 615:../../../SDK_embedded/libs/stm32/STM32F10x_StdPeriph_Driver/stm32f10x_rcc.c ****   * @retval None
 616:../../../SDK_embedded/libs/stm32/STM32F10x_StdPeriph_Driver/stm32f10x_rcc.c ****   */
 617:../../../SDK_embedded/libs/stm32/STM32F10x_StdPeriph_Driver/stm32f10x_rcc.c **** void RCC_HCLKConfig(uint32_t RCC_SYSCLK)
 618:../../../SDK_embedded/libs/stm32/STM32F10x_StdPeriph_Driver/stm32f10x_rcc.c **** {
 16713              		.loc 1 618 0
 16714              		.cfi_startproc
 16715              		@ args = 0, pretend = 0, frame = 0
 16716              		@ frame_needed = 0, uses_anonymous_args = 0
 16717              		@ link register save eliminated.
 16718              	.LVL18:
 619:../../../SDK_embedded/libs/stm32/STM32F10x_StdPeriph_Driver/stm32f10x_rcc.c ****   uint32_t tmpreg = 0;
 620:../../../SDK_embedded/libs/stm32/STM32F10x_StdPeriph_Driver/stm32f10x_rcc.c ****   /* Check the parameters */
 621:../../../SDK_embedded/libs/stm32/STM32F10x_StdPeriph_Driver/stm32f10x_rcc.c ****   assert_param(IS_RCC_HCLK(RCC_SYSCLK));
 622:../../../SDK_embedded/libs/stm32/STM32F10x_StdPeriph_Driver/stm32f10x_rcc.c ****   tmpreg = RCC->CFGR;
 16719              		.loc 1 622 0
 16720 0000 034B     		ldr	r3, .L30
 16721 0002 5968     		ldr	r1, [r3, #4]
 16722              	.LVL19:
 623:../../../SDK_embedded/libs/stm32/STM32F10x_StdPeriph_Driver/stm32f10x_rcc.c ****   /* Clear HPRE[3:0] bits */
 624:../../../SDK_embedded/libs/stm32/STM32F10x_StdPeriph_Driver/stm32f10x_rcc.c ****   tmpreg &= CFGR_HPRE_Reset_Mask;
 16723              		.loc 1 624 0
 16724 0004 21F0F002 		bic	r2, r1, #240
 16725              	.LVL20:
 625:../../../SDK_embedded/libs/stm32/STM32F10x_StdPeriph_Driver/stm32f10x_rcc.c ****   /* Set HPRE[3:0] bits according to RCC_SYSCLK value */
 626:../../../SDK_embedded/libs/stm32/STM32F10x_StdPeriph_Driver/stm32f10x_rcc.c ****   tmpreg |= RCC_SYSCLK;
 16726              		.loc 1 626 0
 16727 0008 1043     		orrs	r0, r0, r2
 16728              	.LVL21:
 627:../../../SDK_embedded/libs/stm32/STM32F10x_StdPeriph_Driver/stm32f10x_rcc.c ****   /* Store the new value */
 628:../../../SDK_embedded/libs/stm32/STM32F10x_StdPeriph_Driver/stm32f10x_rcc.c ****   RCC->CFGR = tmpreg;
 16729              		.loc 1 628 0
 16730 000a 5860     		str	r0, [r3, #4]
 629:../../../SDK_embedded/libs/stm32/STM32F10x_StdPeriph_Driver/stm32f10x_rcc.c **** }
 16731              		.loc 1 629 0
 16732 000c 7047     		bx	lr
 16733              	.L31:
 16734 000e 00BF     		.align	2
 16735              	.L30:
 16736 0010 00100240 		.word	1073876992
 16737              		.cfi_endproc
 16738              	.LFE38:
 16740              		.section	.text.RCC_PCLK1Config,"ax",%progbits
 16741              		.align	1
 16742              		.global	RCC_PCLK1Config
 16743              		.thumb
 16744              		.thumb_func
 16746              	RCC_PCLK1Config:
 16747              	.LFB39:
 630:../../../SDK_embedded/libs/stm32/STM32F10x_StdPeriph_Driver/stm32f10x_rcc.c **** 
 631:../../../SDK_embedded/libs/stm32/STM32F10x_StdPeriph_Driver/stm32f10x_rcc.c **** /**
 632:../../../SDK_embedded/libs/stm32/STM32F10x_StdPeriph_Driver/stm32f10x_rcc.c ****   * @brief  Configures the Low Speed APB clock (PCLK1).
 633:../../../SDK_embedded/libs/stm32/STM32F10x_StdPeriph_Driver/stm32f10x_rcc.c ****   * @param  RCC_HCLK: defines the APB1 clock divider. This clock is derived from 
 634:../../../SDK_embedded/libs/stm32/STM32F10x_StdPeriph_Driver/stm32f10x_rcc.c ****   *   the AHB clock (HCLK).
 635:../../../SDK_embedded/libs/stm32/STM32F10x_StdPeriph_Driver/stm32f10x_rcc.c ****   *   This parameter can be one of the following values:
 636:../../../SDK_embedded/libs/stm32/STM32F10x_StdPeriph_Driver/stm32f10x_rcc.c ****   *     @arg RCC_HCLK_Div1: APB1 clock = HCLK
 637:../../../SDK_embedded/libs/stm32/STM32F10x_StdPeriph_Driver/stm32f10x_rcc.c ****   *     @arg RCC_HCLK_Div2: APB1 clock = HCLK/2
 638:../../../SDK_embedded/libs/stm32/STM32F10x_StdPeriph_Driver/stm32f10x_rcc.c ****   *     @arg RCC_HCLK_Div4: APB1 clock = HCLK/4
 639:../../../SDK_embedded/libs/stm32/STM32F10x_StdPeriph_Driver/stm32f10x_rcc.c ****   *     @arg RCC_HCLK_Div8: APB1 clock = HCLK/8
 640:../../../SDK_embedded/libs/stm32/STM32F10x_StdPeriph_Driver/stm32f10x_rcc.c ****   *     @arg RCC_HCLK_Div16: APB1 clock = HCLK/16
 641:../../../SDK_embedded/libs/stm32/STM32F10x_StdPeriph_Driver/stm32f10x_rcc.c ****   * @retval None
 642:../../../SDK_embedded/libs/stm32/STM32F10x_StdPeriph_Driver/stm32f10x_rcc.c ****   */
 643:../../../SDK_embedded/libs/stm32/STM32F10x_StdPeriph_Driver/stm32f10x_rcc.c **** void RCC_PCLK1Config(uint32_t RCC_HCLK)
 644:../../../SDK_embedded/libs/stm32/STM32F10x_StdPeriph_Driver/stm32f10x_rcc.c **** {
 16748              		.loc 1 644 0
 16749              		.cfi_startproc
 16750              		@ args = 0, pretend = 0, frame = 0
 16751              		@ frame_needed = 0, uses_anonymous_args = 0
 16752              		@ link register save eliminated.
 16753              	.LVL22:
 645:../../../SDK_embedded/libs/stm32/STM32F10x_StdPeriph_Driver/stm32f10x_rcc.c ****   uint32_t tmpreg = 0;
 646:../../../SDK_embedded/libs/stm32/STM32F10x_StdPeriph_Driver/stm32f10x_rcc.c ****   /* Check the parameters */
 647:../../../SDK_embedded/libs/stm32/STM32F10x_StdPeriph_Driver/stm32f10x_rcc.c ****   assert_param(IS_RCC_PCLK(RCC_HCLK));
 648:../../../SDK_embedded/libs/stm32/STM32F10x_StdPeriph_Driver/stm32f10x_rcc.c ****   tmpreg = RCC->CFGR;
 16754              		.loc 1 648 0
 16755 0000 034B     		ldr	r3, .L33
 16756 0002 5968     		ldr	r1, [r3, #4]
 16757              	.LVL23:
 649:../../../SDK_embedded/libs/stm32/STM32F10x_StdPeriph_Driver/stm32f10x_rcc.c ****   /* Clear PPRE1[2:0] bits */
 650:../../../SDK_embedded/libs/stm32/STM32F10x_StdPeriph_Driver/stm32f10x_rcc.c ****   tmpreg &= CFGR_PPRE1_Reset_Mask;
 16758              		.loc 1 650 0
 16759 0004 21F4E062 		bic	r2, r1, #1792
 16760              	.LVL24:
 651:../../../SDK_embedded/libs/stm32/STM32F10x_StdPeriph_Driver/stm32f10x_rcc.c ****   /* Set PPRE1[2:0] bits according to RCC_HCLK value */
 652:../../../SDK_embedded/libs/stm32/STM32F10x_StdPeriph_Driver/stm32f10x_rcc.c ****   tmpreg |= RCC_HCLK;
 16761              		.loc 1 652 0
 16762 0008 1043     		orrs	r0, r0, r2
 16763              	.LVL25:
 653:../../../SDK_embedded/libs/stm32/STM32F10x_StdPeriph_Driver/stm32f10x_rcc.c ****   /* Store the new value */
 654:../../../SDK_embedded/libs/stm32/STM32F10x_StdPeriph_Driver/stm32f10x_rcc.c ****   RCC->CFGR = tmpreg;
 16764              		.loc 1 654 0
 16765 000a 5860     		str	r0, [r3, #4]
 655:../../../SDK_embedded/libs/stm32/STM32F10x_StdPeriph_Driver/stm32f10x_rcc.c **** }
 16766              		.loc 1 655 0
 16767 000c 7047     		bx	lr
 16768              	.L34:
 16769 000e 00BF     		.align	2
 16770              	.L33:
 16771 0010 00100240 		.word	1073876992
 16772              		.cfi_endproc
 16773              	.LFE39:
 16775              		.section	.text.RCC_PCLK2Config,"ax",%progbits
 16776              		.align	1
 16777              		.global	RCC_PCLK2Config
 16778              		.thumb
 16779              		.thumb_func
 16781              	RCC_PCLK2Config:
 16782              	.LFB40:
 656:../../../SDK_embedded/libs/stm32/STM32F10x_StdPeriph_Driver/stm32f10x_rcc.c **** 
 657:../../../SDK_embedded/libs/stm32/STM32F10x_StdPeriph_Driver/stm32f10x_rcc.c **** /**
 658:../../../SDK_embedded/libs/stm32/STM32F10x_StdPeriph_Driver/stm32f10x_rcc.c ****   * @brief  Configures the High Speed APB clock (PCLK2).
 659:../../../SDK_embedded/libs/stm32/STM32F10x_StdPeriph_Driver/stm32f10x_rcc.c ****   * @param  RCC_HCLK: defines the APB2 clock divider. This clock is derived from 
 660:../../../SDK_embedded/libs/stm32/STM32F10x_StdPeriph_Driver/stm32f10x_rcc.c ****   *   the AHB clock (HCLK).
 661:../../../SDK_embedded/libs/stm32/STM32F10x_StdPeriph_Driver/stm32f10x_rcc.c ****   *   This parameter can be one of the following values:
 662:../../../SDK_embedded/libs/stm32/STM32F10x_StdPeriph_Driver/stm32f10x_rcc.c ****   *     @arg RCC_HCLK_Div1: APB2 clock = HCLK
 663:../../../SDK_embedded/libs/stm32/STM32F10x_StdPeriph_Driver/stm32f10x_rcc.c ****   *     @arg RCC_HCLK_Div2: APB2 clock = HCLK/2
 664:../../../SDK_embedded/libs/stm32/STM32F10x_StdPeriph_Driver/stm32f10x_rcc.c ****   *     @arg RCC_HCLK_Div4: APB2 clock = HCLK/4
 665:../../../SDK_embedded/libs/stm32/STM32F10x_StdPeriph_Driver/stm32f10x_rcc.c ****   *     @arg RCC_HCLK_Div8: APB2 clock = HCLK/8
 666:../../../SDK_embedded/libs/stm32/STM32F10x_StdPeriph_Driver/stm32f10x_rcc.c ****   *     @arg RCC_HCLK_Div16: APB2 clock = HCLK/16
 667:../../../SDK_embedded/libs/stm32/STM32F10x_StdPeriph_Driver/stm32f10x_rcc.c ****   * @retval None
 668:../../../SDK_embedded/libs/stm32/STM32F10x_StdPeriph_Driver/stm32f10x_rcc.c ****   */
 669:../../../SDK_embedded/libs/stm32/STM32F10x_StdPeriph_Driver/stm32f10x_rcc.c **** void RCC_PCLK2Config(uint32_t RCC_HCLK)
 670:../../../SDK_embedded/libs/stm32/STM32F10x_StdPeriph_Driver/stm32f10x_rcc.c **** {
 16783              		.loc 1 670 0
 16784              		.cfi_startproc
 16785              		@ args = 0, pretend = 0, frame = 0
 16786              		@ frame_needed = 0, uses_anonymous_args = 0
 16787              		@ link register save eliminated.
 16788              	.LVL26:
 671:../../../SDK_embedded/libs/stm32/STM32F10x_StdPeriph_Driver/stm32f10x_rcc.c ****   uint32_t tmpreg = 0;
 672:../../../SDK_embedded/libs/stm32/STM32F10x_StdPeriph_Driver/stm32f10x_rcc.c ****   /* Check the parameters */
 673:../../../SDK_embedded/libs/stm32/STM32F10x_StdPeriph_Driver/stm32f10x_rcc.c ****   assert_param(IS_RCC_PCLK(RCC_HCLK));
 674:../../../SDK_embedded/libs/stm32/STM32F10x_StdPeriph_Driver/stm32f10x_rcc.c ****   tmpreg = RCC->CFGR;
 16789              		.loc 1 674 0
 16790 0000 034B     		ldr	r3, .L36
 16791 0002 5968     		ldr	r1, [r3, #4]
 16792              	.LVL27:
 675:../../../SDK_embedded/libs/stm32/STM32F10x_StdPeriph_Driver/stm32f10x_rcc.c ****   /* Clear PPRE2[2:0] bits */
 676:../../../SDK_embedded/libs/stm32/STM32F10x_StdPeriph_Driver/stm32f10x_rcc.c ****   tmpreg &= CFGR_PPRE2_Reset_Mask;
 16793              		.loc 1 676 0
 16794 0004 21F46052 		bic	r2, r1, #14336
 16795              	.LVL28:
 677:../../../SDK_embedded/libs/stm32/STM32F10x_StdPeriph_Driver/stm32f10x_rcc.c ****   /* Set PPRE2[2:0] bits according to RCC_HCLK value */
 678:../../../SDK_embedded/libs/stm32/STM32F10x_StdPeriph_Driver/stm32f10x_rcc.c ****   tmpreg |= RCC_HCLK << 3;
 16796              		.loc 1 678 0
 16797 0008 42EAC000 		orr	r0, r2, r0, lsl #3
 16798              	.LVL29:
 679:../../../SDK_embedded/libs/stm32/STM32F10x_StdPeriph_Driver/stm32f10x_rcc.c ****   /* Store the new value */
 680:../../../SDK_embedded/libs/stm32/STM32F10x_StdPeriph_Driver/stm32f10x_rcc.c ****   RCC->CFGR = tmpreg;
 16799              		.loc 1 680 0
 16800 000c 5860     		str	r0, [r3, #4]
 681:../../../SDK_embedded/libs/stm32/STM32F10x_StdPeriph_Driver/stm32f10x_rcc.c **** }
 16801              		.loc 1 681 0
 16802 000e 7047     		bx	lr
 16803              	.L37:
 16804              		.align	2
 16805              	.L36:
 16806 0010 00100240 		.word	1073876992
 16807              		.cfi_endproc
 16808              	.LFE40:
 16810              		.section	.text.RCC_ITConfig,"ax",%progbits
 16811              		.align	1
 16812              		.global	RCC_ITConfig
 16813              		.thumb
 16814              		.thumb_func
 16816              	RCC_ITConfig:
 16817              	.LFB41:
 682:../../../SDK_embedded/libs/stm32/STM32F10x_StdPeriph_Driver/stm32f10x_rcc.c **** 
 683:../../../SDK_embedded/libs/stm32/STM32F10x_StdPeriph_Driver/stm32f10x_rcc.c **** /**
 684:../../../SDK_embedded/libs/stm32/STM32F10x_StdPeriph_Driver/stm32f10x_rcc.c ****   * @brief  Enables or disables the specified RCC interrupts.
 685:../../../SDK_embedded/libs/stm32/STM32F10x_StdPeriph_Driver/stm32f10x_rcc.c ****   * @param  RCC_IT: specifies the RCC interrupt sources to be enabled or disabled.
 686:../../../SDK_embedded/libs/stm32/STM32F10x_StdPeriph_Driver/stm32f10x_rcc.c ****   * 
 687:../../../SDK_embedded/libs/stm32/STM32F10x_StdPeriph_Driver/stm32f10x_rcc.c ****   *   For @b STM32_Connectivity_line_devices, this parameter can be any combination
 688:../../../SDK_embedded/libs/stm32/STM32F10x_StdPeriph_Driver/stm32f10x_rcc.c ****   *   of the following values        
 689:../../../SDK_embedded/libs/stm32/STM32F10x_StdPeriph_Driver/stm32f10x_rcc.c ****   *     @arg RCC_IT_LSIRDY: LSI ready interrupt
 690:../../../SDK_embedded/libs/stm32/STM32F10x_StdPeriph_Driver/stm32f10x_rcc.c ****   *     @arg RCC_IT_LSERDY: LSE ready interrupt
 691:../../../SDK_embedded/libs/stm32/STM32F10x_StdPeriph_Driver/stm32f10x_rcc.c ****   *     @arg RCC_IT_HSIRDY: HSI ready interrupt
 692:../../../SDK_embedded/libs/stm32/STM32F10x_StdPeriph_Driver/stm32f10x_rcc.c ****   *     @arg RCC_IT_HSERDY: HSE ready interrupt
 693:../../../SDK_embedded/libs/stm32/STM32F10x_StdPeriph_Driver/stm32f10x_rcc.c ****   *     @arg RCC_IT_PLLRDY: PLL ready interrupt
 694:../../../SDK_embedded/libs/stm32/STM32F10x_StdPeriph_Driver/stm32f10x_rcc.c ****   *     @arg RCC_IT_PLL2RDY: PLL2 ready interrupt
 695:../../../SDK_embedded/libs/stm32/STM32F10x_StdPeriph_Driver/stm32f10x_rcc.c ****   *     @arg RCC_IT_PLL3RDY: PLL3 ready interrupt
 696:../../../SDK_embedded/libs/stm32/STM32F10x_StdPeriph_Driver/stm32f10x_rcc.c ****   * 
 697:../../../SDK_embedded/libs/stm32/STM32F10x_StdPeriph_Driver/stm32f10x_rcc.c ****   *   For @b other_STM32_devices, this parameter can be any combination of the 
 698:../../../SDK_embedded/libs/stm32/STM32F10x_StdPeriph_Driver/stm32f10x_rcc.c ****   *   following values        
 699:../../../SDK_embedded/libs/stm32/STM32F10x_StdPeriph_Driver/stm32f10x_rcc.c ****   *     @arg RCC_IT_LSIRDY: LSI ready interrupt
 700:../../../SDK_embedded/libs/stm32/STM32F10x_StdPeriph_Driver/stm32f10x_rcc.c ****   *     @arg RCC_IT_LSERDY: LSE ready interrupt
 701:../../../SDK_embedded/libs/stm32/STM32F10x_StdPeriph_Driver/stm32f10x_rcc.c ****   *     @arg RCC_IT_HSIRDY: HSI ready interrupt
 702:../../../SDK_embedded/libs/stm32/STM32F10x_StdPeriph_Driver/stm32f10x_rcc.c ****   *     @arg RCC_IT_HSERDY: HSE ready interrupt
 703:../../../SDK_embedded/libs/stm32/STM32F10x_StdPeriph_Driver/stm32f10x_rcc.c ****   *     @arg RCC_IT_PLLRDY: PLL ready interrupt
 704:../../../SDK_embedded/libs/stm32/STM32F10x_StdPeriph_Driver/stm32f10x_rcc.c ****   *       
 705:../../../SDK_embedded/libs/stm32/STM32F10x_StdPeriph_Driver/stm32f10x_rcc.c ****   * @param  NewState: new state of the specified RCC interrupts.
 706:../../../SDK_embedded/libs/stm32/STM32F10x_StdPeriph_Driver/stm32f10x_rcc.c ****   *   This parameter can be: ENABLE or DISABLE.
 707:../../../SDK_embedded/libs/stm32/STM32F10x_StdPeriph_Driver/stm32f10x_rcc.c ****   * @retval None
 708:../../../SDK_embedded/libs/stm32/STM32F10x_StdPeriph_Driver/stm32f10x_rcc.c ****   */
 709:../../../SDK_embedded/libs/stm32/STM32F10x_StdPeriph_Driver/stm32f10x_rcc.c **** void RCC_ITConfig(uint8_t RCC_IT, FunctionalState NewState)
 710:../../../SDK_embedded/libs/stm32/STM32F10x_StdPeriph_Driver/stm32f10x_rcc.c **** {
 16818              		.loc 1 710 0
 16819              		.cfi_startproc
 16820              		@ args = 0, pretend = 0, frame = 0
 16821              		@ frame_needed = 0, uses_anonymous_args = 0
 16822              		@ link register save eliminated.
 16823              	.LVL30:
 16824 0000 044B     		ldr	r3, .L42
 711:../../../SDK_embedded/libs/stm32/STM32F10x_StdPeriph_Driver/stm32f10x_rcc.c ****   /* Check the parameters */
 712:../../../SDK_embedded/libs/stm32/STM32F10x_StdPeriph_Driver/stm32f10x_rcc.c ****   assert_param(IS_RCC_IT(RCC_IT));
 713:../../../SDK_embedded/libs/stm32/STM32F10x_StdPeriph_Driver/stm32f10x_rcc.c ****   assert_param(IS_FUNCTIONAL_STATE(NewState));
 714:../../../SDK_embedded/libs/stm32/STM32F10x_StdPeriph_Driver/stm32f10x_rcc.c ****   if (NewState != DISABLE)
 16825              		.loc 1 714 0
 16826 0002 11B1     		cbz	r1, .L39
 715:../../../SDK_embedded/libs/stm32/STM32F10x_StdPeriph_Driver/stm32f10x_rcc.c ****   {
 716:../../../SDK_embedded/libs/stm32/STM32F10x_StdPeriph_Driver/stm32f10x_rcc.c ****     /* Perform Byte access to RCC_CIR bits to enable the selected interrupts */
 717:../../../SDK_embedded/libs/stm32/STM32F10x_StdPeriph_Driver/stm32f10x_rcc.c ****     *(__IO uint8_t *) CIR_BYTE2_ADDRESS |= RCC_IT;
 16827              		.loc 1 717 0
 16828 0004 1A78     		ldrb	r2, [r3, #0]	@ zero_extendqisi2
 16829 0006 1043     		orrs	r0, r0, r2
 16830              	.LVL31:
 16831 0008 02E0     		b	.L41
 16832              	.LVL32:
 16833              	.L39:
 718:../../../SDK_embedded/libs/stm32/STM32F10x_StdPeriph_Driver/stm32f10x_rcc.c ****   }
 719:../../../SDK_embedded/libs/stm32/STM32F10x_StdPeriph_Driver/stm32f10x_rcc.c ****   else
 720:../../../SDK_embedded/libs/stm32/STM32F10x_StdPeriph_Driver/stm32f10x_rcc.c ****   {
 721:../../../SDK_embedded/libs/stm32/STM32F10x_StdPeriph_Driver/stm32f10x_rcc.c ****     /* Perform Byte access to RCC_CIR bits to disable the selected interrupts */
 722:../../../SDK_embedded/libs/stm32/STM32F10x_StdPeriph_Driver/stm32f10x_rcc.c ****     *(__IO uint8_t *) CIR_BYTE2_ADDRESS &= (uint8_t)~RCC_IT;
 16834              		.loc 1 722 0
 16835 000a 1978     		ldrb	r1, [r3, #0]	@ zero_extendqisi2
 16836              	.LVL33:
 16837 000c 21EA0000 		bic	r0, r1, r0
 16838              	.LVL34:
 16839              	.L41:
 16840 0010 1870     		strb	r0, [r3, #0]
 16841 0012 7047     		bx	lr
 16842              	.L43:
 16843              		.align	2
 16844              	.L42:
 16845 0014 09100240 		.word	1073877001
 16846              		.cfi_endproc
 16847              	.LFE41:
 16849              		.section	.text.RCC_USBCLKConfig,"ax",%progbits
 16850              		.align	1
 16851              		.global	RCC_USBCLKConfig
 16852              		.thumb
 16853              		.thumb_func
 16855              	RCC_USBCLKConfig:
 16856              	.LFB42:
 723:../../../SDK_embedded/libs/stm32/STM32F10x_StdPeriph_Driver/stm32f10x_rcc.c ****   }
 724:../../../SDK_embedded/libs/stm32/STM32F10x_StdPeriph_Driver/stm32f10x_rcc.c **** }
 725:../../../SDK_embedded/libs/stm32/STM32F10x_StdPeriph_Driver/stm32f10x_rcc.c **** 
 726:../../../SDK_embedded/libs/stm32/STM32F10x_StdPeriph_Driver/stm32f10x_rcc.c **** #ifndef STM32F10X_CL
 727:../../../SDK_embedded/libs/stm32/STM32F10x_StdPeriph_Driver/stm32f10x_rcc.c **** /**
 728:../../../SDK_embedded/libs/stm32/STM32F10x_StdPeriph_Driver/stm32f10x_rcc.c ****   * @brief  Configures the USB clock (USBCLK).
 729:../../../SDK_embedded/libs/stm32/STM32F10x_StdPeriph_Driver/stm32f10x_rcc.c ****   * @param  RCC_USBCLKSource: specifies the USB clock source. This clock is 
 730:../../../SDK_embedded/libs/stm32/STM32F10x_StdPeriph_Driver/stm32f10x_rcc.c ****   *   derived from the PLL output.
 731:../../../SDK_embedded/libs/stm32/STM32F10x_StdPeriph_Driver/stm32f10x_rcc.c ****   *   This parameter can be one of the following values:
 732:../../../SDK_embedded/libs/stm32/STM32F10x_StdPeriph_Driver/stm32f10x_rcc.c ****   *     @arg RCC_USBCLKSource_PLLCLK_1Div5: PLL clock divided by 1,5 selected as USB 
 733:../../../SDK_embedded/libs/stm32/STM32F10x_StdPeriph_Driver/stm32f10x_rcc.c ****   *                                     clock source
 734:../../../SDK_embedded/libs/stm32/STM32F10x_StdPeriph_Driver/stm32f10x_rcc.c ****   *     @arg RCC_USBCLKSource_PLLCLK_Div1: PLL clock selected as USB clock source
 735:../../../SDK_embedded/libs/stm32/STM32F10x_StdPeriph_Driver/stm32f10x_rcc.c ****   * @retval None
 736:../../../SDK_embedded/libs/stm32/STM32F10x_StdPeriph_Driver/stm32f10x_rcc.c ****   */
 737:../../../SDK_embedded/libs/stm32/STM32F10x_StdPeriph_Driver/stm32f10x_rcc.c **** void RCC_USBCLKConfig(uint32_t RCC_USBCLKSource)
 738:../../../SDK_embedded/libs/stm32/STM32F10x_StdPeriph_Driver/stm32f10x_rcc.c **** {
 16857              		.loc 1 738 0
 16858              		.cfi_startproc
 16859              		@ args = 0, pretend = 0, frame = 0
 16860              		@ frame_needed = 0, uses_anonymous_args = 0
 16861              		@ link register save eliminated.
 16862              	.LVL35:
 739:../../../SDK_embedded/libs/stm32/STM32F10x_StdPeriph_Driver/stm32f10x_rcc.c ****   /* Check the parameters */
 740:../../../SDK_embedded/libs/stm32/STM32F10x_StdPeriph_Driver/stm32f10x_rcc.c ****   assert_param(IS_RCC_USBCLK_SOURCE(RCC_USBCLKSource));
 741:../../../SDK_embedded/libs/stm32/STM32F10x_StdPeriph_Driver/stm32f10x_rcc.c **** 
 742:../../../SDK_embedded/libs/stm32/STM32F10x_StdPeriph_Driver/stm32f10x_rcc.c ****   *(__IO uint32_t *) CFGR_USBPRE_BB = RCC_USBCLKSource;
 16863              		.loc 1 742 0
 16864 0000 014B     		ldr	r3, .L45
 16865 0002 1860     		str	r0, [r3, #0]
 743:../../../SDK_embedded/libs/stm32/STM32F10x_StdPeriph_Driver/stm32f10x_rcc.c **** }
 16866              		.loc 1 743 0
 16867 0004 7047     		bx	lr
 16868              	.L46:
 16869 0006 00BF     		.align	2
 16870              	.L45:
 16871 0008 D8004242 		.word	1111621848
 16872              		.cfi_endproc
 16873              	.LFE42:
 16875              		.section	.text.RCC_ADCCLKConfig,"ax",%progbits
 16876              		.align	1
 16877              		.global	RCC_ADCCLKConfig
 16878              		.thumb
 16879              		.thumb_func
 16881              	RCC_ADCCLKConfig:
 16882              	.LFB43:
 744:../../../SDK_embedded/libs/stm32/STM32F10x_StdPeriph_Driver/stm32f10x_rcc.c **** #else
 745:../../../SDK_embedded/libs/stm32/STM32F10x_StdPeriph_Driver/stm32f10x_rcc.c **** /**
 746:../../../SDK_embedded/libs/stm32/STM32F10x_StdPeriph_Driver/stm32f10x_rcc.c ****   * @brief  Configures the USB OTG FS clock (OTGFSCLK).
 747:../../../SDK_embedded/libs/stm32/STM32F10x_StdPeriph_Driver/stm32f10x_rcc.c ****   *   This function applies only to STM32 Connectivity line devices.
 748:../../../SDK_embedded/libs/stm32/STM32F10x_StdPeriph_Driver/stm32f10x_rcc.c ****   * @param  RCC_OTGFSCLKSource: specifies the USB OTG FS clock source.
 749:../../../SDK_embedded/libs/stm32/STM32F10x_StdPeriph_Driver/stm32f10x_rcc.c ****   *   This clock is derived from the PLL output.
 750:../../../SDK_embedded/libs/stm32/STM32F10x_StdPeriph_Driver/stm32f10x_rcc.c ****   *   This parameter can be one of the following values:
 751:../../../SDK_embedded/libs/stm32/STM32F10x_StdPeriph_Driver/stm32f10x_rcc.c ****   *     @arg  RCC_OTGFSCLKSource_PLLVCO_Div3: PLL VCO clock divided by 2 selected as USB OTG FS clo
 752:../../../SDK_embedded/libs/stm32/STM32F10x_StdPeriph_Driver/stm32f10x_rcc.c ****   *     @arg  RCC_OTGFSCLKSource_PLLVCO_Div2: PLL VCO clock divided by 2 selected as USB OTG FS clo
 753:../../../SDK_embedded/libs/stm32/STM32F10x_StdPeriph_Driver/stm32f10x_rcc.c ****   * @retval None
 754:../../../SDK_embedded/libs/stm32/STM32F10x_StdPeriph_Driver/stm32f10x_rcc.c ****   */
 755:../../../SDK_embedded/libs/stm32/STM32F10x_StdPeriph_Driver/stm32f10x_rcc.c **** void RCC_OTGFSCLKConfig(uint32_t RCC_OTGFSCLKSource)
 756:../../../SDK_embedded/libs/stm32/STM32F10x_StdPeriph_Driver/stm32f10x_rcc.c **** {
 757:../../../SDK_embedded/libs/stm32/STM32F10x_StdPeriph_Driver/stm32f10x_rcc.c ****   /* Check the parameters */
 758:../../../SDK_embedded/libs/stm32/STM32F10x_StdPeriph_Driver/stm32f10x_rcc.c ****   assert_param(IS_RCC_OTGFSCLK_SOURCE(RCC_OTGFSCLKSource));
 759:../../../SDK_embedded/libs/stm32/STM32F10x_StdPeriph_Driver/stm32f10x_rcc.c **** 
 760:../../../SDK_embedded/libs/stm32/STM32F10x_StdPeriph_Driver/stm32f10x_rcc.c ****   *(__IO uint32_t *) CFGR_OTGFSPRE_BB = RCC_OTGFSCLKSource;
 761:../../../SDK_embedded/libs/stm32/STM32F10x_StdPeriph_Driver/stm32f10x_rcc.c **** }
 762:../../../SDK_embedded/libs/stm32/STM32F10x_StdPeriph_Driver/stm32f10x_rcc.c **** #endif /* STM32F10X_CL */ 
 763:../../../SDK_embedded/libs/stm32/STM32F10x_StdPeriph_Driver/stm32f10x_rcc.c **** 
 764:../../../SDK_embedded/libs/stm32/STM32F10x_StdPeriph_Driver/stm32f10x_rcc.c **** /**
 765:../../../SDK_embedded/libs/stm32/STM32F10x_StdPeriph_Driver/stm32f10x_rcc.c ****   * @brief  Configures the ADC clock (ADCCLK).
 766:../../../SDK_embedded/libs/stm32/STM32F10x_StdPeriph_Driver/stm32f10x_rcc.c ****   * @param  RCC_PCLK2: defines the ADC clock divider. This clock is derived from 
 767:../../../SDK_embedded/libs/stm32/STM32F10x_StdPeriph_Driver/stm32f10x_rcc.c ****   *   the APB2 clock (PCLK2).
 768:../../../SDK_embedded/libs/stm32/STM32F10x_StdPeriph_Driver/stm32f10x_rcc.c ****   *   This parameter can be one of the following values:
 769:../../../SDK_embedded/libs/stm32/STM32F10x_StdPeriph_Driver/stm32f10x_rcc.c ****   *     @arg RCC_PCLK2_Div2: ADC clock = PCLK2/2
 770:../../../SDK_embedded/libs/stm32/STM32F10x_StdPeriph_Driver/stm32f10x_rcc.c ****   *     @arg RCC_PCLK2_Div4: ADC clock = PCLK2/4
 771:../../../SDK_embedded/libs/stm32/STM32F10x_StdPeriph_Driver/stm32f10x_rcc.c ****   *     @arg RCC_PCLK2_Div6: ADC clock = PCLK2/6
 772:../../../SDK_embedded/libs/stm32/STM32F10x_StdPeriph_Driver/stm32f10x_rcc.c ****   *     @arg RCC_PCLK2_Div8: ADC clock = PCLK2/8
 773:../../../SDK_embedded/libs/stm32/STM32F10x_StdPeriph_Driver/stm32f10x_rcc.c ****   * @retval None
 774:../../../SDK_embedded/libs/stm32/STM32F10x_StdPeriph_Driver/stm32f10x_rcc.c ****   */
 775:../../../SDK_embedded/libs/stm32/STM32F10x_StdPeriph_Driver/stm32f10x_rcc.c **** void RCC_ADCCLKConfig(uint32_t RCC_PCLK2)
 776:../../../SDK_embedded/libs/stm32/STM32F10x_StdPeriph_Driver/stm32f10x_rcc.c **** {
 16883              		.loc 1 776 0
 16884              		.cfi_startproc
 16885              		@ args = 0, pretend = 0, frame = 0
 16886              		@ frame_needed = 0, uses_anonymous_args = 0
 16887              		@ link register save eliminated.
 16888              	.LVL36:
 777:../../../SDK_embedded/libs/stm32/STM32F10x_StdPeriph_Driver/stm32f10x_rcc.c ****   uint32_t tmpreg = 0;
 778:../../../SDK_embedded/libs/stm32/STM32F10x_StdPeriph_Driver/stm32f10x_rcc.c ****   /* Check the parameters */
 779:../../../SDK_embedded/libs/stm32/STM32F10x_StdPeriph_Driver/stm32f10x_rcc.c ****   assert_param(IS_RCC_ADCCLK(RCC_PCLK2));
 780:../../../SDK_embedded/libs/stm32/STM32F10x_StdPeriph_Driver/stm32f10x_rcc.c ****   tmpreg = RCC->CFGR;
 16889              		.loc 1 780 0
 16890 0000 034B     		ldr	r3, .L48
 16891 0002 5968     		ldr	r1, [r3, #4]
 16892              	.LVL37:
 781:../../../SDK_embedded/libs/stm32/STM32F10x_StdPeriph_Driver/stm32f10x_rcc.c ****   /* Clear ADCPRE[1:0] bits */
 782:../../../SDK_embedded/libs/stm32/STM32F10x_StdPeriph_Driver/stm32f10x_rcc.c ****   tmpreg &= CFGR_ADCPRE_Reset_Mask;
 16893              		.loc 1 782 0
 16894 0004 21F44042 		bic	r2, r1, #49152
 16895              	.LVL38:
 783:../../../SDK_embedded/libs/stm32/STM32F10x_StdPeriph_Driver/stm32f10x_rcc.c ****   /* Set ADCPRE[1:0] bits according to RCC_PCLK2 value */
 784:../../../SDK_embedded/libs/stm32/STM32F10x_StdPeriph_Driver/stm32f10x_rcc.c ****   tmpreg |= RCC_PCLK2;
 16896              		.loc 1 784 0
 16897 0008 1043     		orrs	r0, r0, r2
 16898              	.LVL39:
 785:../../../SDK_embedded/libs/stm32/STM32F10x_StdPeriph_Driver/stm32f10x_rcc.c ****   /* Store the new value */
 786:../../../SDK_embedded/libs/stm32/STM32F10x_StdPeriph_Driver/stm32f10x_rcc.c ****   RCC->CFGR = tmpreg;
 16899              		.loc 1 786 0
 16900 000a 5860     		str	r0, [r3, #4]
 787:../../../SDK_embedded/libs/stm32/STM32F10x_StdPeriph_Driver/stm32f10x_rcc.c **** }
 16901              		.loc 1 787 0
 16902 000c 7047     		bx	lr
 16903              	.L49:
 16904 000e 00BF     		.align	2
 16905              	.L48:
 16906 0010 00100240 		.word	1073876992
 16907              		.cfi_endproc
 16908              	.LFE43:
 16910              		.section	.text.RCC_LSEConfig,"ax",%progbits
 16911              		.align	1
 16912              		.global	RCC_LSEConfig
 16913              		.thumb
 16914              		.thumb_func
 16916              	RCC_LSEConfig:
 16917              	.LFB44:
 788:../../../SDK_embedded/libs/stm32/STM32F10x_StdPeriph_Driver/stm32f10x_rcc.c **** 
 789:../../../SDK_embedded/libs/stm32/STM32F10x_StdPeriph_Driver/stm32f10x_rcc.c **** #ifdef STM32F10X_CL
 790:../../../SDK_embedded/libs/stm32/STM32F10x_StdPeriph_Driver/stm32f10x_rcc.c **** /**
 791:../../../SDK_embedded/libs/stm32/STM32F10x_StdPeriph_Driver/stm32f10x_rcc.c ****   * @brief  Configures the I2S2 clock source(I2S2CLK).
 792:../../../SDK_embedded/libs/stm32/STM32F10x_StdPeriph_Driver/stm32f10x_rcc.c ****   * @note
 793:../../../SDK_embedded/libs/stm32/STM32F10x_StdPeriph_Driver/stm32f10x_rcc.c ****   *   - This function must be called before enabling I2S2 APB clock.
 794:../../../SDK_embedded/libs/stm32/STM32F10x_StdPeriph_Driver/stm32f10x_rcc.c ****   *   - This function applies only to STM32 Connectivity line devices.
 795:../../../SDK_embedded/libs/stm32/STM32F10x_StdPeriph_Driver/stm32f10x_rcc.c ****   * @param  RCC_I2S2CLKSource: specifies the I2S2 clock source.
 796:../../../SDK_embedded/libs/stm32/STM32F10x_StdPeriph_Driver/stm32f10x_rcc.c ****   *   This parameter can be one of the following values:
 797:../../../SDK_embedded/libs/stm32/STM32F10x_StdPeriph_Driver/stm32f10x_rcc.c ****   *     @arg RCC_I2S2CLKSource_SYSCLK: system clock selected as I2S2 clock entry
 798:../../../SDK_embedded/libs/stm32/STM32F10x_StdPeriph_Driver/stm32f10x_rcc.c ****   *     @arg RCC_I2S2CLKSource_PLL3_VCO: PLL3 VCO clock selected as I2S2 clock entry
 799:../../../SDK_embedded/libs/stm32/STM32F10x_StdPeriph_Driver/stm32f10x_rcc.c ****   * @retval None
 800:../../../SDK_embedded/libs/stm32/STM32F10x_StdPeriph_Driver/stm32f10x_rcc.c ****   */
 801:../../../SDK_embedded/libs/stm32/STM32F10x_StdPeriph_Driver/stm32f10x_rcc.c **** void RCC_I2S2CLKConfig(uint32_t RCC_I2S2CLKSource)
 802:../../../SDK_embedded/libs/stm32/STM32F10x_StdPeriph_Driver/stm32f10x_rcc.c **** {
 803:../../../SDK_embedded/libs/stm32/STM32F10x_StdPeriph_Driver/stm32f10x_rcc.c ****   /* Check the parameters */
 804:../../../SDK_embedded/libs/stm32/STM32F10x_StdPeriph_Driver/stm32f10x_rcc.c ****   assert_param(IS_RCC_I2S2CLK_SOURCE(RCC_I2S2CLKSource));
 805:../../../SDK_embedded/libs/stm32/STM32F10x_StdPeriph_Driver/stm32f10x_rcc.c **** 
 806:../../../SDK_embedded/libs/stm32/STM32F10x_StdPeriph_Driver/stm32f10x_rcc.c ****   *(__IO uint32_t *) CFGR2_I2S2SRC_BB = RCC_I2S2CLKSource;
 807:../../../SDK_embedded/libs/stm32/STM32F10x_StdPeriph_Driver/stm32f10x_rcc.c **** }
 808:../../../SDK_embedded/libs/stm32/STM32F10x_StdPeriph_Driver/stm32f10x_rcc.c **** 
 809:../../../SDK_embedded/libs/stm32/STM32F10x_StdPeriph_Driver/stm32f10x_rcc.c **** /**
 810:../../../SDK_embedded/libs/stm32/STM32F10x_StdPeriph_Driver/stm32f10x_rcc.c ****   * @brief  Configures the I2S3 clock source(I2S2CLK).
 811:../../../SDK_embedded/libs/stm32/STM32F10x_StdPeriph_Driver/stm32f10x_rcc.c ****   * @note
 812:../../../SDK_embedded/libs/stm32/STM32F10x_StdPeriph_Driver/stm32f10x_rcc.c ****   *   - This function must be called before enabling I2S3 APB clock.
 813:../../../SDK_embedded/libs/stm32/STM32F10x_StdPeriph_Driver/stm32f10x_rcc.c ****   *   - This function applies only to STM32 Connectivity line devices.
 814:../../../SDK_embedded/libs/stm32/STM32F10x_StdPeriph_Driver/stm32f10x_rcc.c ****   * @param  RCC_I2S3CLKSource: specifies the I2S3 clock source.
 815:../../../SDK_embedded/libs/stm32/STM32F10x_StdPeriph_Driver/stm32f10x_rcc.c ****   *   This parameter can be one of the following values:
 816:../../../SDK_embedded/libs/stm32/STM32F10x_StdPeriph_Driver/stm32f10x_rcc.c ****   *     @arg RCC_I2S3CLKSource_SYSCLK: system clock selected as I2S3 clock entry
 817:../../../SDK_embedded/libs/stm32/STM32F10x_StdPeriph_Driver/stm32f10x_rcc.c ****   *     @arg RCC_I2S3CLKSource_PLL3_VCO: PLL3 VCO clock selected as I2S3 clock entry
 818:../../../SDK_embedded/libs/stm32/STM32F10x_StdPeriph_Driver/stm32f10x_rcc.c ****   * @retval None
 819:../../../SDK_embedded/libs/stm32/STM32F10x_StdPeriph_Driver/stm32f10x_rcc.c ****   */
 820:../../../SDK_embedded/libs/stm32/STM32F10x_StdPeriph_Driver/stm32f10x_rcc.c **** void RCC_I2S3CLKConfig(uint32_t RCC_I2S3CLKSource)
 821:../../../SDK_embedded/libs/stm32/STM32F10x_StdPeriph_Driver/stm32f10x_rcc.c **** {
 822:../../../SDK_embedded/libs/stm32/STM32F10x_StdPeriph_Driver/stm32f10x_rcc.c ****   /* Check the parameters */
 823:../../../SDK_embedded/libs/stm32/STM32F10x_StdPeriph_Driver/stm32f10x_rcc.c ****   assert_param(IS_RCC_I2S3CLK_SOURCE(RCC_I2S3CLKSource));
 824:../../../SDK_embedded/libs/stm32/STM32F10x_StdPeriph_Driver/stm32f10x_rcc.c **** 
 825:../../../SDK_embedded/libs/stm32/STM32F10x_StdPeriph_Driver/stm32f10x_rcc.c ****   *(__IO uint32_t *) CFGR2_I2S3SRC_BB = RCC_I2S3CLKSource;
 826:../../../SDK_embedded/libs/stm32/STM32F10x_StdPeriph_Driver/stm32f10x_rcc.c **** }
 827:../../../SDK_embedded/libs/stm32/STM32F10x_StdPeriph_Driver/stm32f10x_rcc.c **** #endif /* STM32F10X_CL */
 828:../../../SDK_embedded/libs/stm32/STM32F10x_StdPeriph_Driver/stm32f10x_rcc.c **** 
 829:../../../SDK_embedded/libs/stm32/STM32F10x_StdPeriph_Driver/stm32f10x_rcc.c **** /**
 830:../../../SDK_embedded/libs/stm32/STM32F10x_StdPeriph_Driver/stm32f10x_rcc.c ****   * @brief  Configures the External Low Speed oscillator (LSE).
 831:../../../SDK_embedded/libs/stm32/STM32F10x_StdPeriph_Driver/stm32f10x_rcc.c ****   * @param  RCC_LSE: specifies the new state of the LSE.
 832:../../../SDK_embedded/libs/stm32/STM32F10x_StdPeriph_Driver/stm32f10x_rcc.c ****   *   This parameter can be one of the following values:
 833:../../../SDK_embedded/libs/stm32/STM32F10x_StdPeriph_Driver/stm32f10x_rcc.c ****   *     @arg RCC_LSE_OFF: LSE oscillator OFF
 834:../../../SDK_embedded/libs/stm32/STM32F10x_StdPeriph_Driver/stm32f10x_rcc.c ****   *     @arg RCC_LSE_ON: LSE oscillator ON
 835:../../../SDK_embedded/libs/stm32/STM32F10x_StdPeriph_Driver/stm32f10x_rcc.c ****   *     @arg RCC_LSE_Bypass: LSE oscillator bypassed with external clock
 836:../../../SDK_embedded/libs/stm32/STM32F10x_StdPeriph_Driver/stm32f10x_rcc.c ****   * @retval None
 837:../../../SDK_embedded/libs/stm32/STM32F10x_StdPeriph_Driver/stm32f10x_rcc.c ****   */
 838:../../../SDK_embedded/libs/stm32/STM32F10x_StdPeriph_Driver/stm32f10x_rcc.c **** void RCC_LSEConfig(uint8_t RCC_LSE)
 839:../../../SDK_embedded/libs/stm32/STM32F10x_StdPeriph_Driver/stm32f10x_rcc.c **** {
 16918              		.loc 1 839 0
 16919              		.cfi_startproc
 16920              		@ args = 0, pretend = 0, frame = 0
 16921              		@ frame_needed = 0, uses_anonymous_args = 0
 16922              		@ link register save eliminated.
 16923              	.LVL40:
 840:../../../SDK_embedded/libs/stm32/STM32F10x_StdPeriph_Driver/stm32f10x_rcc.c ****   /* Check the parameters */
 841:../../../SDK_embedded/libs/stm32/STM32F10x_StdPeriph_Driver/stm32f10x_rcc.c ****   assert_param(IS_RCC_LSE(RCC_LSE));
 842:../../../SDK_embedded/libs/stm32/STM32F10x_StdPeriph_Driver/stm32f10x_rcc.c ****   /* Reset LSEON and LSEBYP bits before configuring the LSE ------------------*/
 843:../../../SDK_embedded/libs/stm32/STM32F10x_StdPeriph_Driver/stm32f10x_rcc.c ****   /* Reset LSEON bit */
 844:../../../SDK_embedded/libs/stm32/STM32F10x_StdPeriph_Driver/stm32f10x_rcc.c ****   *(__IO uint8_t *) BDCR_ADDRESS = RCC_LSE_OFF;
 16924              		.loc 1 844 0
 16925 0000 064B     		ldr	r3, .L55
 16926 0002 0022     		movs	r2, #0
 845:../../../SDK_embedded/libs/stm32/STM32F10x_StdPeriph_Driver/stm32f10x_rcc.c ****   /* Reset LSEBYP bit */
 846:../../../SDK_embedded/libs/stm32/STM32F10x_StdPeriph_Driver/stm32f10x_rcc.c ****   *(__IO uint8_t *) BDCR_ADDRESS = RCC_LSE_OFF;
 847:../../../SDK_embedded/libs/stm32/STM32F10x_StdPeriph_Driver/stm32f10x_rcc.c ****   /* Configure LSE (RCC_LSE_OFF is already covered by the code section above) */
 848:../../../SDK_embedded/libs/stm32/STM32F10x_StdPeriph_Driver/stm32f10x_rcc.c ****   switch(RCC_LSE)
 16927              		.loc 1 848 0
 16928 0004 0128     		cmp	r0, #1
 844:../../../SDK_embedded/libs/stm32/STM32F10x_StdPeriph_Driver/stm32f10x_rcc.c ****   *(__IO uint8_t *) BDCR_ADDRESS = RCC_LSE_OFF;
 16929              		.loc 1 844 0
 16930 0006 1A70     		strb	r2, [r3, #0]
 846:../../../SDK_embedded/libs/stm32/STM32F10x_StdPeriph_Driver/stm32f10x_rcc.c ****   *(__IO uint8_t *) BDCR_ADDRESS = RCC_LSE_OFF;
 16931              		.loc 1 846 0
 16932 0008 1A70     		strb	r2, [r3, #0]
 16933              		.loc 1 848 0
 16934 000a 02D0     		beq	.L52
 16935 000c 0428     		cmp	r0, #4
 16936 000e 04D1     		bne	.L50
 16937 0010 01E0     		b	.L54
 16938              	.L52:
 849:../../../SDK_embedded/libs/stm32/STM32F10x_StdPeriph_Driver/stm32f10x_rcc.c ****   {
 850:../../../SDK_embedded/libs/stm32/STM32F10x_StdPeriph_Driver/stm32f10x_rcc.c ****     case RCC_LSE_ON:
 851:../../../SDK_embedded/libs/stm32/STM32F10x_StdPeriph_Driver/stm32f10x_rcc.c ****       /* Set LSEON bit */
 852:../../../SDK_embedded/libs/stm32/STM32F10x_StdPeriph_Driver/stm32f10x_rcc.c ****       *(__IO uint8_t *) BDCR_ADDRESS = RCC_LSE_ON;
 16939              		.loc 1 852 0
 16940 0012 1870     		strb	r0, [r3, #0]
 853:../../../SDK_embedded/libs/stm32/STM32F10x_StdPeriph_Driver/stm32f10x_rcc.c ****       break;
 16941              		.loc 1 853 0
 16942 0014 7047     		bx	lr
 16943              	.L54:
 854:../../../SDK_embedded/libs/stm32/STM32F10x_StdPeriph_Driver/stm32f10x_rcc.c ****       
 855:../../../SDK_embedded/libs/stm32/STM32F10x_StdPeriph_Driver/stm32f10x_rcc.c ****     case RCC_LSE_Bypass:
 856:../../../SDK_embedded/libs/stm32/STM32F10x_StdPeriph_Driver/stm32f10x_rcc.c ****       /* Set LSEBYP and LSEON bits */
 857:../../../SDK_embedded/libs/stm32/STM32F10x_StdPeriph_Driver/stm32f10x_rcc.c ****       *(__IO uint8_t *) BDCR_ADDRESS = RCC_LSE_Bypass | RCC_LSE_ON;
 16944              		.loc 1 857 0
 16945 0016 0520     		movs	r0, #5
 16946              	.LVL41:
 16947 0018 1870     		strb	r0, [r3, #0]
 16948              	.L50:
 16949 001a 7047     		bx	lr
 16950              	.L56:
 16951              		.align	2
 16952              	.L55:
 16953 001c 20100240 		.word	1073877024
 16954              		.cfi_endproc
 16955              	.LFE44:
 16957              		.section	.text.RCC_LSICmd,"ax",%progbits
 16958              		.align	1
 16959              		.global	RCC_LSICmd
 16960              		.thumb
 16961              		.thumb_func
 16963              	RCC_LSICmd:
 16964              	.LFB45:
 858:../../../SDK_embedded/libs/stm32/STM32F10x_StdPeriph_Driver/stm32f10x_rcc.c ****       break;            
 859:../../../SDK_embedded/libs/stm32/STM32F10x_StdPeriph_Driver/stm32f10x_rcc.c ****       
 860:../../../SDK_embedded/libs/stm32/STM32F10x_StdPeriph_Driver/stm32f10x_rcc.c ****     default:
 861:../../../SDK_embedded/libs/stm32/STM32F10x_StdPeriph_Driver/stm32f10x_rcc.c ****       break;      
 862:../../../SDK_embedded/libs/stm32/STM32F10x_StdPeriph_Driver/stm32f10x_rcc.c ****   }
 863:../../../SDK_embedded/libs/stm32/STM32F10x_StdPeriph_Driver/stm32f10x_rcc.c **** }
 864:../../../SDK_embedded/libs/stm32/STM32F10x_StdPeriph_Driver/stm32f10x_rcc.c **** 
 865:../../../SDK_embedded/libs/stm32/STM32F10x_StdPeriph_Driver/stm32f10x_rcc.c **** /**
 866:../../../SDK_embedded/libs/stm32/STM32F10x_StdPeriph_Driver/stm32f10x_rcc.c ****   * @brief  Enables or disables the Internal Low Speed oscillator (LSI).
 867:../../../SDK_embedded/libs/stm32/STM32F10x_StdPeriph_Driver/stm32f10x_rcc.c ****   * @note   LSI can not be disabled if the IWDG is running.
 868:../../../SDK_embedded/libs/stm32/STM32F10x_StdPeriph_Driver/stm32f10x_rcc.c ****   * @param  NewState: new state of the LSI. This parameter can be: ENABLE or DISABLE.
 869:../../../SDK_embedded/libs/stm32/STM32F10x_StdPeriph_Driver/stm32f10x_rcc.c ****   * @retval None
 870:../../../SDK_embedded/libs/stm32/STM32F10x_StdPeriph_Driver/stm32f10x_rcc.c ****   */
 871:../../../SDK_embedded/libs/stm32/STM32F10x_StdPeriph_Driver/stm32f10x_rcc.c **** void RCC_LSICmd(FunctionalState NewState)
 872:../../../SDK_embedded/libs/stm32/STM32F10x_StdPeriph_Driver/stm32f10x_rcc.c **** {
 16965              		.loc 1 872 0
 16966              		.cfi_startproc
 16967              		@ args = 0, pretend = 0, frame = 0
 16968              		@ frame_needed = 0, uses_anonymous_args = 0
 16969              		@ link register save eliminated.
 16970              	.LVL42:
 873:../../../SDK_embedded/libs/stm32/STM32F10x_StdPeriph_Driver/stm32f10x_rcc.c ****   /* Check the parameters */
 874:../../../SDK_embedded/libs/stm32/STM32F10x_StdPeriph_Driver/stm32f10x_rcc.c ****   assert_param(IS_FUNCTIONAL_STATE(NewState));
 875:../../../SDK_embedded/libs/stm32/STM32F10x_StdPeriph_Driver/stm32f10x_rcc.c ****   *(__IO uint32_t *) CSR_LSION_BB = (uint32_t)NewState;
 16971              		.loc 1 875 0
 16972 0000 014B     		ldr	r3, .L58
 16973 0002 1860     		str	r0, [r3, #0]
 876:../../../SDK_embedded/libs/stm32/STM32F10x_StdPeriph_Driver/stm32f10x_rcc.c **** }
 16974              		.loc 1 876 0
 16975 0004 7047     		bx	lr
 16976              	.L59:
 16977 0006 00BF     		.align	2
 16978              	.L58:
 16979 0008 80044242 		.word	1111622784
 16980              		.cfi_endproc
 16981              	.LFE45:
 16983              		.section	.text.RCC_RTCCLKConfig,"ax",%progbits
 16984              		.align	1
 16985              		.global	RCC_RTCCLKConfig
 16986              		.thumb
 16987              		.thumb_func
 16989              	RCC_RTCCLKConfig:
 16990              	.LFB46:
 877:../../../SDK_embedded/libs/stm32/STM32F10x_StdPeriph_Driver/stm32f10x_rcc.c **** 
 878:../../../SDK_embedded/libs/stm32/STM32F10x_StdPeriph_Driver/stm32f10x_rcc.c **** /**
 879:../../../SDK_embedded/libs/stm32/STM32F10x_StdPeriph_Driver/stm32f10x_rcc.c ****   * @brief  Configures the RTC clock (RTCCLK).
 880:../../../SDK_embedded/libs/stm32/STM32F10x_StdPeriph_Driver/stm32f10x_rcc.c ****   * @note   Once the RTC clock is selected it cant be changed unless the Backup domain is reset.
 881:../../../SDK_embedded/libs/stm32/STM32F10x_StdPeriph_Driver/stm32f10x_rcc.c ****   * @param  RCC_RTCCLKSource: specifies the RTC clock source.
 882:../../../SDK_embedded/libs/stm32/STM32F10x_StdPeriph_Driver/stm32f10x_rcc.c ****   *   This parameter can be one of the following values:
 883:../../../SDK_embedded/libs/stm32/STM32F10x_StdPeriph_Driver/stm32f10x_rcc.c ****   *     @arg RCC_RTCCLKSource_LSE: LSE selected as RTC clock
 884:../../../SDK_embedded/libs/stm32/STM32F10x_StdPeriph_Driver/stm32f10x_rcc.c ****   *     @arg RCC_RTCCLKSource_LSI: LSI selected as RTC clock
 885:../../../SDK_embedded/libs/stm32/STM32F10x_StdPeriph_Driver/stm32f10x_rcc.c ****   *     @arg RCC_RTCCLKSource_HSE_Div128: HSE clock divided by 128 selected as RTC clock
 886:../../../SDK_embedded/libs/stm32/STM32F10x_StdPeriph_Driver/stm32f10x_rcc.c ****   * @retval None
 887:../../../SDK_embedded/libs/stm32/STM32F10x_StdPeriph_Driver/stm32f10x_rcc.c ****   */
 888:../../../SDK_embedded/libs/stm32/STM32F10x_StdPeriph_Driver/stm32f10x_rcc.c **** void RCC_RTCCLKConfig(uint32_t RCC_RTCCLKSource)
 889:../../../SDK_embedded/libs/stm32/STM32F10x_StdPeriph_Driver/stm32f10x_rcc.c **** {
 16991              		.loc 1 889 0
 16992              		.cfi_startproc
 16993              		@ args = 0, pretend = 0, frame = 0
 16994              		@ frame_needed = 0, uses_anonymous_args = 0
 16995              		@ link register save eliminated.
 16996              	.LVL43:
 890:../../../SDK_embedded/libs/stm32/STM32F10x_StdPeriph_Driver/stm32f10x_rcc.c ****   /* Check the parameters */
 891:../../../SDK_embedded/libs/stm32/STM32F10x_StdPeriph_Driver/stm32f10x_rcc.c ****   assert_param(IS_RCC_RTCCLK_SOURCE(RCC_RTCCLKSource));
 892:../../../SDK_embedded/libs/stm32/STM32F10x_StdPeriph_Driver/stm32f10x_rcc.c ****   /* Select the RTC clock source */
 893:../../../SDK_embedded/libs/stm32/STM32F10x_StdPeriph_Driver/stm32f10x_rcc.c ****   RCC->BDCR |= RCC_RTCCLKSource;
 16997              		.loc 1 893 0
 16998 0000 024B     		ldr	r3, .L61
 16999 0002 1A6A     		ldr	r2, [r3, #32]
 17000 0004 1043     		orrs	r0, r0, r2
 17001              	.LVL44:
 17002 0006 1862     		str	r0, [r3, #32]
 894:../../../SDK_embedded/libs/stm32/STM32F10x_StdPeriph_Driver/stm32f10x_rcc.c **** }
 17003              		.loc 1 894 0
 17004 0008 7047     		bx	lr
 17005              	.L62:
 17006 000a 00BF     		.align	2
 17007              	.L61:
 17008 000c 00100240 		.word	1073876992
 17009              		.cfi_endproc
 17010              	.LFE46:
 17012              		.section	.text.RCC_RTCCLKCmd,"ax",%progbits
 17013              		.align	1
 17014              		.global	RCC_RTCCLKCmd
 17015              		.thumb
 17016              		.thumb_func
 17018              	RCC_RTCCLKCmd:
 17019              	.LFB47:
 895:../../../SDK_embedded/libs/stm32/STM32F10x_StdPeriph_Driver/stm32f10x_rcc.c **** 
 896:../../../SDK_embedded/libs/stm32/STM32F10x_StdPeriph_Driver/stm32f10x_rcc.c **** /**
 897:../../../SDK_embedded/libs/stm32/STM32F10x_StdPeriph_Driver/stm32f10x_rcc.c ****   * @brief  Enables or disables the RTC clock.
 898:../../../SDK_embedded/libs/stm32/STM32F10x_StdPeriph_Driver/stm32f10x_rcc.c ****   * @note   This function must be used only after the RTC clock was selected using the RCC_RTCCLKCo
 899:../../../SDK_embedded/libs/stm32/STM32F10x_StdPeriph_Driver/stm32f10x_rcc.c ****   * @param  NewState: new state of the RTC clock. This parameter can be: ENABLE or DISABLE.
 900:../../../SDK_embedded/libs/stm32/STM32F10x_StdPeriph_Driver/stm32f10x_rcc.c ****   * @retval None
 901:../../../SDK_embedded/libs/stm32/STM32F10x_StdPeriph_Driver/stm32f10x_rcc.c ****   */
 902:../../../SDK_embedded/libs/stm32/STM32F10x_StdPeriph_Driver/stm32f10x_rcc.c **** void RCC_RTCCLKCmd(FunctionalState NewState)
 903:../../../SDK_embedded/libs/stm32/STM32F10x_StdPeriph_Driver/stm32f10x_rcc.c **** {
 17020              		.loc 1 903 0
 17021              		.cfi_startproc
 17022              		@ args = 0, pretend = 0, frame = 0
 17023              		@ frame_needed = 0, uses_anonymous_args = 0
 17024              		@ link register save eliminated.
 17025              	.LVL45:
 904:../../../SDK_embedded/libs/stm32/STM32F10x_StdPeriph_Driver/stm32f10x_rcc.c ****   /* Check the parameters */
 905:../../../SDK_embedded/libs/stm32/STM32F10x_StdPeriph_Driver/stm32f10x_rcc.c ****   assert_param(IS_FUNCTIONAL_STATE(NewState));
 906:../../../SDK_embedded/libs/stm32/STM32F10x_StdPeriph_Driver/stm32f10x_rcc.c ****   *(__IO uint32_t *) BDCR_RTCEN_BB = (uint32_t)NewState;
 17026              		.loc 1 906 0
 17027 0000 014B     		ldr	r3, .L64
 17028 0002 1860     		str	r0, [r3, #0]
 907:../../../SDK_embedded/libs/stm32/STM32F10x_StdPeriph_Driver/stm32f10x_rcc.c **** }
 17029              		.loc 1 907 0
 17030 0004 7047     		bx	lr
 17031              	.L65:
 17032 0006 00BF     		.align	2
 17033              	.L64:
 17034 0008 3C044242 		.word	1111622716
 17035              		.cfi_endproc
 17036              	.LFE47:
 17038              		.section	.text.RCC_GetClocksFreq,"ax",%progbits
 17039              		.align	1
 17040              		.global	RCC_GetClocksFreq
 17041              		.thumb
 17042              		.thumb_func
 17044              	RCC_GetClocksFreq:
 17045              	.LFB48:
 908:../../../SDK_embedded/libs/stm32/STM32F10x_StdPeriph_Driver/stm32f10x_rcc.c **** 
 909:../../../SDK_embedded/libs/stm32/STM32F10x_StdPeriph_Driver/stm32f10x_rcc.c **** /**
 910:../../../SDK_embedded/libs/stm32/STM32F10x_StdPeriph_Driver/stm32f10x_rcc.c ****   * @brief  Returns the frequencies of different on chip clocks.
 911:../../../SDK_embedded/libs/stm32/STM32F10x_StdPeriph_Driver/stm32f10x_rcc.c ****   * @param  RCC_Clocks: pointer to a RCC_ClocksTypeDef structure which will hold
 912:../../../SDK_embedded/libs/stm32/STM32F10x_StdPeriph_Driver/stm32f10x_rcc.c ****   *   the clocks frequencies.
 913:../../../SDK_embedded/libs/stm32/STM32F10x_StdPeriph_Driver/stm32f10x_rcc.c ****   * @retval None
 914:../../../SDK_embedded/libs/stm32/STM32F10x_StdPeriph_Driver/stm32f10x_rcc.c ****   */
 915:../../../SDK_embedded/libs/stm32/STM32F10x_StdPeriph_Driver/stm32f10x_rcc.c **** void RCC_GetClocksFreq(RCC_ClocksTypeDef* RCC_Clocks)
 916:../../../SDK_embedded/libs/stm32/STM32F10x_StdPeriph_Driver/stm32f10x_rcc.c **** {
 17046              		.loc 1 916 0
 17047              		.cfi_startproc
 17048              		@ args = 0, pretend = 0, frame = 0
 17049              		@ frame_needed = 0, uses_anonymous_args = 0
 17050              	.LVL46:
 17051 0000 10B5     		push	{r4, lr}
 17052              	.LCFI0:
 17053              		.cfi_def_cfa_offset 8
 17054              		.cfi_offset 14, -4
 17055              		.cfi_offset 4, -8
 917:../../../SDK_embedded/libs/stm32/STM32F10x_StdPeriph_Driver/stm32f10x_rcc.c ****   uint32_t tmp = 0, pllmull = 0, pllsource = 0, presc = 0;
 918:../../../SDK_embedded/libs/stm32/STM32F10x_StdPeriph_Driver/stm32f10x_rcc.c **** 
 919:../../../SDK_embedded/libs/stm32/STM32F10x_StdPeriph_Driver/stm32f10x_rcc.c **** #ifdef  STM32F10X_CL
 920:../../../SDK_embedded/libs/stm32/STM32F10x_StdPeriph_Driver/stm32f10x_rcc.c ****   uint32_t prediv1source = 0, prediv1factor = 0, prediv2factor = 0, pll2mull = 0;
 921:../../../SDK_embedded/libs/stm32/STM32F10x_StdPeriph_Driver/stm32f10x_rcc.c **** #endif /* STM32F10X_CL */
 922:../../../SDK_embedded/libs/stm32/STM32F10x_StdPeriph_Driver/stm32f10x_rcc.c **** 
 923:../../../SDK_embedded/libs/stm32/STM32F10x_StdPeriph_Driver/stm32f10x_rcc.c **** #if defined (STM32F10X_LD_VL) || defined (STM32F10X_MD_VL)
 924:../../../SDK_embedded/libs/stm32/STM32F10x_StdPeriph_Driver/stm32f10x_rcc.c ****   uint32_t prediv1factor = 0;
 925:../../../SDK_embedded/libs/stm32/STM32F10x_StdPeriph_Driver/stm32f10x_rcc.c **** #endif
 926:../../../SDK_embedded/libs/stm32/STM32F10x_StdPeriph_Driver/stm32f10x_rcc.c ****     
 927:../../../SDK_embedded/libs/stm32/STM32F10x_StdPeriph_Driver/stm32f10x_rcc.c ****   /* Get SYSCLK source -------------------------------------------------------*/
 928:../../../SDK_embedded/libs/stm32/STM32F10x_StdPeriph_Driver/stm32f10x_rcc.c ****   tmp = RCC->CFGR & CFGR_SWS_Mask;
 17056              		.loc 1 928 0
 17057 0002 1E4B     		ldr	r3, .L76
 17058 0004 5A68     		ldr	r2, [r3, #4]
 17059              	.LVL47:
 17060 0006 02F00C02 		and	r2, r2, #12
 17061              	.LVL48:
 929:../../../SDK_embedded/libs/stm32/STM32F10x_StdPeriph_Driver/stm32f10x_rcc.c ****   
 930:../../../SDK_embedded/libs/stm32/STM32F10x_StdPeriph_Driver/stm32f10x_rcc.c ****   switch (tmp)
 17062              		.loc 1 930 0
 17063 000a 042A     		cmp	r2, #4
 17064 000c 01D0     		beq	.L69
 17065 000e 082A     		cmp	r2, #8
 17066 0010 02D0     		beq	.L70
 17067              	.L69:
 931:../../../SDK_embedded/libs/stm32/STM32F10x_StdPeriph_Driver/stm32f10x_rcc.c ****   {
 932:../../../SDK_embedded/libs/stm32/STM32F10x_StdPeriph_Driver/stm32f10x_rcc.c ****     case 0x00:  /* HSI used as system clock */
 933:../../../SDK_embedded/libs/stm32/STM32F10x_StdPeriph_Driver/stm32f10x_rcc.c ****       RCC_Clocks->SYSCLK_Frequency = HSI_Value;
 934:../../../SDK_embedded/libs/stm32/STM32F10x_StdPeriph_Driver/stm32f10x_rcc.c ****       break;
 935:../../../SDK_embedded/libs/stm32/STM32F10x_StdPeriph_Driver/stm32f10x_rcc.c ****     case 0x04:  /* HSE used as system clock */
 936:../../../SDK_embedded/libs/stm32/STM32F10x_StdPeriph_Driver/stm32f10x_rcc.c ****       RCC_Clocks->SYSCLK_Frequency = HSE_Value;
 17068              		.loc 1 936 0
 17069 0012 1B4B     		ldr	r3, .L76+4
 17070 0014 0360     		str	r3, [r0, #0]
 937:../../../SDK_embedded/libs/stm32/STM32F10x_StdPeriph_Driver/stm32f10x_rcc.c ****       break;
 17071              		.loc 1 937 0
 17072 0016 0EE0     		b	.L71
 17073              	.L70:
 938:../../../SDK_embedded/libs/stm32/STM32F10x_StdPeriph_Driver/stm32f10x_rcc.c ****     case 0x08:  /* PLL used as system clock */
 939:../../../SDK_embedded/libs/stm32/STM32F10x_StdPeriph_Driver/stm32f10x_rcc.c **** 
 940:../../../SDK_embedded/libs/stm32/STM32F10x_StdPeriph_Driver/stm32f10x_rcc.c ****       /* Get PLL clock source and multiplication factor ----------------------*/
 941:../../../SDK_embedded/libs/stm32/STM32F10x_StdPeriph_Driver/stm32f10x_rcc.c ****       pllmull = RCC->CFGR & CFGR_PLLMull_Mask;
 17074              		.loc 1 941 0
 17075 0018 5A68     		ldr	r2, [r3, #4]
 17076              	.LVL49:
 942:../../../SDK_embedded/libs/stm32/STM32F10x_StdPeriph_Driver/stm32f10x_rcc.c ****       pllsource = RCC->CFGR & CFGR_PLLSRC_Mask;
 17077              		.loc 1 942 0
 17078 001a 5968     		ldr	r1, [r3, #4]
 17079              	.LVL50:
 943:../../../SDK_embedded/libs/stm32/STM32F10x_StdPeriph_Driver/stm32f10x_rcc.c ****       
 944:../../../SDK_embedded/libs/stm32/STM32F10x_StdPeriph_Driver/stm32f10x_rcc.c **** #ifndef STM32F10X_CL      
 945:../../../SDK_embedded/libs/stm32/STM32F10x_StdPeriph_Driver/stm32f10x_rcc.c ****       pllmull = ( pllmull >> 18) + 2;
 17080              		.loc 1 945 0
 17081 001c C2F38344 		ubfx	r4, r2, #18, #4
 17082 0020 A21C     		adds	r2, r4, #2
 17083              	.LVL51:
 946:../../../SDK_embedded/libs/stm32/STM32F10x_StdPeriph_Driver/stm32f10x_rcc.c ****       
 947:../../../SDK_embedded/libs/stm32/STM32F10x_StdPeriph_Driver/stm32f10x_rcc.c ****       if (pllsource == 0x00)
 17084              		.loc 1 947 0
 17085 0022 C903     		lsls	r1, r1, #15
 17086              	.LVL52:
 17087 0024 04D5     		bpl	.L75
 17088              	.L72:
 948:../../../SDK_embedded/libs/stm32/STM32F10x_StdPeriph_Driver/stm32f10x_rcc.c ****       {/* HSI oscillator clock divided by 2 selected as PLL clock entry */
 949:../../../SDK_embedded/libs/stm32/STM32F10x_StdPeriph_Driver/stm32f10x_rcc.c ****         RCC_Clocks->SYSCLK_Frequency = (HSI_Value >> 1) * pllmull;
 950:../../../SDK_embedded/libs/stm32/STM32F10x_StdPeriph_Driver/stm32f10x_rcc.c ****       }
 951:../../../SDK_embedded/libs/stm32/STM32F10x_StdPeriph_Driver/stm32f10x_rcc.c ****       else
 952:../../../SDK_embedded/libs/stm32/STM32F10x_StdPeriph_Driver/stm32f10x_rcc.c ****       {
 953:../../../SDK_embedded/libs/stm32/STM32F10x_StdPeriph_Driver/stm32f10x_rcc.c ****  #if defined (STM32F10X_LD_VL) || defined (STM32F10X_MD_VL)
 954:../../../SDK_embedded/libs/stm32/STM32F10x_StdPeriph_Driver/stm32f10x_rcc.c ****        prediv1factor = (RCC->CFGR2 & CFGR2_PREDIV1) + 1;
 955:../../../SDK_embedded/libs/stm32/STM32F10x_StdPeriph_Driver/stm32f10x_rcc.c ****        /* HSE oscillator clock selected as PREDIV1 clock entry */
 956:../../../SDK_embedded/libs/stm32/STM32F10x_StdPeriph_Driver/stm32f10x_rcc.c ****        RCC_Clocks->SYSCLK_Frequency = (HSE_Value / prediv1factor) * pllmull; 
 957:../../../SDK_embedded/libs/stm32/STM32F10x_StdPeriph_Driver/stm32f10x_rcc.c ****  #else
 958:../../../SDK_embedded/libs/stm32/STM32F10x_StdPeriph_Driver/stm32f10x_rcc.c ****         /* HSE selected as PLL clock entry */
 959:../../../SDK_embedded/libs/stm32/STM32F10x_StdPeriph_Driver/stm32f10x_rcc.c ****         if ((RCC->CFGR & CFGR_PLLXTPRE_Mask) != (uint32_t)RESET)
 17089              		.loc 1 959 0
 17090 0026 5B68     		ldr	r3, [r3, #4]
 17091 0028 9B03     		lsls	r3, r3, #14
 960:../../../SDK_embedded/libs/stm32/STM32F10x_StdPeriph_Driver/stm32f10x_rcc.c ****         {/* HSE oscillator clock divided by 2 */
 961:../../../SDK_embedded/libs/stm32/STM32F10x_StdPeriph_Driver/stm32f10x_rcc.c ****           RCC_Clocks->SYSCLK_Frequency = (HSE_Value >> 1) * pllmull;
 962:../../../SDK_embedded/libs/stm32/STM32F10x_StdPeriph_Driver/stm32f10x_rcc.c ****         }
 963:../../../SDK_embedded/libs/stm32/STM32F10x_StdPeriph_Driver/stm32f10x_rcc.c ****         else
 964:../../../SDK_embedded/libs/stm32/STM32F10x_StdPeriph_Driver/stm32f10x_rcc.c ****         {
 965:../../../SDK_embedded/libs/stm32/STM32F10x_StdPeriph_Driver/stm32f10x_rcc.c ****           RCC_Clocks->SYSCLK_Frequency = HSE_Value * pllmull;
 17092              		.loc 1 965 0
 17093 002a 58BF     		it	pl
 17094 002c 144B     		ldrpl	r3, .L76+4
 959:../../../SDK_embedded/libs/stm32/STM32F10x_StdPeriph_Driver/stm32f10x_rcc.c ****         if ((RCC->CFGR & CFGR_PLLXTPRE_Mask) != (uint32_t)RESET)
 17095              		.loc 1 959 0
 17096 002e 00D5     		bpl	.L74
 17097              	.L75:
 961:../../../SDK_embedded/libs/stm32/STM32F10x_StdPeriph_Driver/stm32f10x_rcc.c ****           RCC_Clocks->SYSCLK_Frequency = (HSE_Value >> 1) * pllmull;
 17098              		.loc 1 961 0
 17099 0030 144B     		ldr	r3, .L76+8
 17100              	.L74:
 17101              		.loc 1 965 0
 17102 0032 5A43     		muls	r2, r3, r2
 17103              	.LVL53:
 17104 0034 0260     		str	r2, [r0, #0]
 17105              	.LVL54:
 17106              	.L71:
 966:../../../SDK_embedded/libs/stm32/STM32F10x_StdPeriph_Driver/stm32f10x_rcc.c ****         }
 967:../../../SDK_embedded/libs/stm32/STM32F10x_StdPeriph_Driver/stm32f10x_rcc.c ****  #endif
 968:../../../SDK_embedded/libs/stm32/STM32F10x_StdPeriph_Driver/stm32f10x_rcc.c ****       }
 969:../../../SDK_embedded/libs/stm32/STM32F10x_StdPeriph_Driver/stm32f10x_rcc.c **** #else
 970:../../../SDK_embedded/libs/stm32/STM32F10x_StdPeriph_Driver/stm32f10x_rcc.c ****       pllmull = pllmull >> 18;
 971:../../../SDK_embedded/libs/stm32/STM32F10x_StdPeriph_Driver/stm32f10x_rcc.c ****       
 972:../../../SDK_embedded/libs/stm32/STM32F10x_StdPeriph_Driver/stm32f10x_rcc.c ****       if (pllmull != 0x0D)
 973:../../../SDK_embedded/libs/stm32/STM32F10x_StdPeriph_Driver/stm32f10x_rcc.c ****       {
 974:../../../SDK_embedded/libs/stm32/STM32F10x_StdPeriph_Driver/stm32f10x_rcc.c ****          pllmull += 2;
 975:../../../SDK_embedded/libs/stm32/STM32F10x_StdPeriph_Driver/stm32f10x_rcc.c ****       }
 976:../../../SDK_embedded/libs/stm32/STM32F10x_StdPeriph_Driver/stm32f10x_rcc.c ****       else
 977:../../../SDK_embedded/libs/stm32/STM32F10x_StdPeriph_Driver/stm32f10x_rcc.c ****       { /* PLL multiplication factor = PLL input clock * 6.5 */
 978:../../../SDK_embedded/libs/stm32/STM32F10x_StdPeriph_Driver/stm32f10x_rcc.c ****         pllmull = 13 / 2; 
 979:../../../SDK_embedded/libs/stm32/STM32F10x_StdPeriph_Driver/stm32f10x_rcc.c ****       }
 980:../../../SDK_embedded/libs/stm32/STM32F10x_StdPeriph_Driver/stm32f10x_rcc.c ****             
 981:../../../SDK_embedded/libs/stm32/STM32F10x_StdPeriph_Driver/stm32f10x_rcc.c ****       if (pllsource == 0x00)
 982:../../../SDK_embedded/libs/stm32/STM32F10x_StdPeriph_Driver/stm32f10x_rcc.c ****       {/* HSI oscillator clock divided by 2 selected as PLL clock entry */
 983:../../../SDK_embedded/libs/stm32/STM32F10x_StdPeriph_Driver/stm32f10x_rcc.c ****         RCC_Clocks->SYSCLK_Frequency = (HSI_Value >> 1) * pllmull;
 984:../../../SDK_embedded/libs/stm32/STM32F10x_StdPeriph_Driver/stm32f10x_rcc.c ****       }
 985:../../../SDK_embedded/libs/stm32/STM32F10x_StdPeriph_Driver/stm32f10x_rcc.c ****       else
 986:../../../SDK_embedded/libs/stm32/STM32F10x_StdPeriph_Driver/stm32f10x_rcc.c ****       {/* PREDIV1 selected as PLL clock entry */
 987:../../../SDK_embedded/libs/stm32/STM32F10x_StdPeriph_Driver/stm32f10x_rcc.c ****         
 988:../../../SDK_embedded/libs/stm32/STM32F10x_StdPeriph_Driver/stm32f10x_rcc.c ****         /* Get PREDIV1 clock source and division factor */
 989:../../../SDK_embedded/libs/stm32/STM32F10x_StdPeriph_Driver/stm32f10x_rcc.c ****         prediv1source = RCC->CFGR2 & CFGR2_PREDIV1SRC;
 990:../../../SDK_embedded/libs/stm32/STM32F10x_StdPeriph_Driver/stm32f10x_rcc.c ****         prediv1factor = (RCC->CFGR2 & CFGR2_PREDIV1) + 1;
 991:../../../SDK_embedded/libs/stm32/STM32F10x_StdPeriph_Driver/stm32f10x_rcc.c ****         
 992:../../../SDK_embedded/libs/stm32/STM32F10x_StdPeriph_Driver/stm32f10x_rcc.c ****         if (prediv1source == 0)
 993:../../../SDK_embedded/libs/stm32/STM32F10x_StdPeriph_Driver/stm32f10x_rcc.c ****         { /* HSE oscillator clock selected as PREDIV1 clock entry */
 994:../../../SDK_embedded/libs/stm32/STM32F10x_StdPeriph_Driver/stm32f10x_rcc.c ****           RCC_Clocks->SYSCLK_Frequency = (HSE_Value / prediv1factor) * pllmull;          
 995:../../../SDK_embedded/libs/stm32/STM32F10x_StdPeriph_Driver/stm32f10x_rcc.c ****         }
 996:../../../SDK_embedded/libs/stm32/STM32F10x_StdPeriph_Driver/stm32f10x_rcc.c ****         else
 997:../../../SDK_embedded/libs/stm32/STM32F10x_StdPeriph_Driver/stm32f10x_rcc.c ****         {/* PLL2 clock selected as PREDIV1 clock entry */
 998:../../../SDK_embedded/libs/stm32/STM32F10x_StdPeriph_Driver/stm32f10x_rcc.c ****           
 999:../../../SDK_embedded/libs/stm32/STM32F10x_StdPeriph_Driver/stm32f10x_rcc.c ****           /* Get PREDIV2 division factor and PLL2 multiplication factor */
1000:../../../SDK_embedded/libs/stm32/STM32F10x_StdPeriph_Driver/stm32f10x_rcc.c ****           prediv2factor = ((RCC->CFGR2 & CFGR2_PREDIV2) >> 4) + 1;
1001:../../../SDK_embedded/libs/stm32/STM32F10x_StdPeriph_Driver/stm32f10x_rcc.c ****           pll2mull = ((RCC->CFGR2 & CFGR2_PLL2MUL) >> 8 ) + 2; 
1002:../../../SDK_embedded/libs/stm32/STM32F10x_StdPeriph_Driver/stm32f10x_rcc.c ****           RCC_Clocks->SYSCLK_Frequency = (((HSE_Value / prediv2factor) * pll2mull) / prediv1factor)
1003:../../../SDK_embedded/libs/stm32/STM32F10x_StdPeriph_Driver/stm32f10x_rcc.c ****         }
1004:../../../SDK_embedded/libs/stm32/STM32F10x_StdPeriph_Driver/stm32f10x_rcc.c ****       }
1005:../../../SDK_embedded/libs/stm32/STM32F10x_StdPeriph_Driver/stm32f10x_rcc.c **** #endif /* STM32F10X_CL */ 
1006:../../../SDK_embedded/libs/stm32/STM32F10x_StdPeriph_Driver/stm32f10x_rcc.c ****       break;
1007:../../../SDK_embedded/libs/stm32/STM32F10x_StdPeriph_Driver/stm32f10x_rcc.c **** 
1008:../../../SDK_embedded/libs/stm32/STM32F10x_StdPeriph_Driver/stm32f10x_rcc.c ****     default:
1009:../../../SDK_embedded/libs/stm32/STM32F10x_StdPeriph_Driver/stm32f10x_rcc.c ****       RCC_Clocks->SYSCLK_Frequency = HSI_Value;
1010:../../../SDK_embedded/libs/stm32/STM32F10x_StdPeriph_Driver/stm32f10x_rcc.c ****       break;
1011:../../../SDK_embedded/libs/stm32/STM32F10x_StdPeriph_Driver/stm32f10x_rcc.c ****   }
1012:../../../SDK_embedded/libs/stm32/STM32F10x_StdPeriph_Driver/stm32f10x_rcc.c **** 
1013:../../../SDK_embedded/libs/stm32/STM32F10x_StdPeriph_Driver/stm32f10x_rcc.c ****   /* Compute HCLK, PCLK1, PCLK2 and ADCCLK clocks frequencies ----------------*/
1014:../../../SDK_embedded/libs/stm32/STM32F10x_StdPeriph_Driver/stm32f10x_rcc.c ****   /* Get HCLK prescaler */
1015:../../../SDK_embedded/libs/stm32/STM32F10x_StdPeriph_Driver/stm32f10x_rcc.c ****   tmp = RCC->CFGR & CFGR_HPRE_Set_Mask;
 17107              		.loc 1 1015 0
 17108 0036 114B     		ldr	r3, .L76
1016:../../../SDK_embedded/libs/stm32/STM32F10x_StdPeriph_Driver/stm32f10x_rcc.c ****   tmp = tmp >> 4;
1017:../../../SDK_embedded/libs/stm32/STM32F10x_StdPeriph_Driver/stm32f10x_rcc.c ****   presc = APBAHBPrescTable[tmp];
1018:../../../SDK_embedded/libs/stm32/STM32F10x_StdPeriph_Driver/stm32f10x_rcc.c ****   /* HCLK clock frequency */
1019:../../../SDK_embedded/libs/stm32/STM32F10x_StdPeriph_Driver/stm32f10x_rcc.c ****   RCC_Clocks->HCLK_Frequency = RCC_Clocks->SYSCLK_Frequency >> presc;
 17109              		.loc 1 1019 0
 17110 0038 0468     		ldr	r4, [r0, #0]
1015:../../../SDK_embedded/libs/stm32/STM32F10x_StdPeriph_Driver/stm32f10x_rcc.c ****   tmp = RCC->CFGR & CFGR_HPRE_Set_Mask;
 17111              		.loc 1 1015 0
 17112 003a 5968     		ldr	r1, [r3, #4]
 17113              	.LVL55:
1016:../../../SDK_embedded/libs/stm32/STM32F10x_StdPeriph_Driver/stm32f10x_rcc.c ****   tmp = tmp >> 4;
 17114              		.loc 1 1016 0
 17115 003c C1F3031C 		ubfx	ip, r1, #4, #4
 17116              	.LVL56:
1017:../../../SDK_embedded/libs/stm32/STM32F10x_StdPeriph_Driver/stm32f10x_rcc.c ****   presc = APBAHBPrescTable[tmp];
 17117              		.loc 1 1017 0
 17118 0040 1149     		ldr	r1, .L76+12
 17119 0042 11F80C20 		ldrb	r2, [r1, ip]	@ zero_extendqisi2
 17120              	.LVL57:
 17121              		.loc 1 1019 0
 17122 0046 34FA02F2 		lsrs	r2, r4, r2
 17123              	.LVL58:
 17124 004a 4260     		str	r2, [r0, #4]
1020:../../../SDK_embedded/libs/stm32/STM32F10x_StdPeriph_Driver/stm32f10x_rcc.c ****   /* Get PCLK1 prescaler */
1021:../../../SDK_embedded/libs/stm32/STM32F10x_StdPeriph_Driver/stm32f10x_rcc.c ****   tmp = RCC->CFGR & CFGR_PPRE1_Set_Mask;
 17125              		.loc 1 1021 0
 17126 004c 5C68     		ldr	r4, [r3, #4]
 17127              	.LVL59:
1022:../../../SDK_embedded/libs/stm32/STM32F10x_StdPeriph_Driver/stm32f10x_rcc.c ****   tmp = tmp >> 8;
 17128              		.loc 1 1022 0
 17129 004e C4F3022C 		ubfx	ip, r4, #8, #3
 17130              	.LVL60:
1023:../../../SDK_embedded/libs/stm32/STM32F10x_StdPeriph_Driver/stm32f10x_rcc.c ****   presc = APBAHBPrescTable[tmp];
 17131              		.loc 1 1023 0
 17132 0052 11F80C40 		ldrb	r4, [r1, ip]	@ zero_extendqisi2
 17133              	.LVL61:
1024:../../../SDK_embedded/libs/stm32/STM32F10x_StdPeriph_Driver/stm32f10x_rcc.c ****   /* PCLK1 clock frequency */
1025:../../../SDK_embedded/libs/stm32/STM32F10x_StdPeriph_Driver/stm32f10x_rcc.c ****   RCC_Clocks->PCLK1_Frequency = RCC_Clocks->HCLK_Frequency >> presc;
 17134              		.loc 1 1025 0
 17135 0056 32FA04F4 		lsrs	r4, r2, r4
 17136              	.LVL62:
 17137 005a 8460     		str	r4, [r0, #8]
1026:../../../SDK_embedded/libs/stm32/STM32F10x_StdPeriph_Driver/stm32f10x_rcc.c ****   /* Get PCLK2 prescaler */
1027:../../../SDK_embedded/libs/stm32/STM32F10x_StdPeriph_Driver/stm32f10x_rcc.c ****   tmp = RCC->CFGR & CFGR_PPRE2_Set_Mask;
 17138              		.loc 1 1027 0
 17139 005c 5C68     		ldr	r4, [r3, #4]
 17140              	.LVL63:
1028:../../../SDK_embedded/libs/stm32/STM32F10x_StdPeriph_Driver/stm32f10x_rcc.c ****   tmp = tmp >> 11;
 17141              		.loc 1 1028 0
 17142 005e C4F3C224 		ubfx	r4, r4, #11, #3
 17143              	.LVL64:
1029:../../../SDK_embedded/libs/stm32/STM32F10x_StdPeriph_Driver/stm32f10x_rcc.c ****   presc = APBAHBPrescTable[tmp];
 17144              		.loc 1 1029 0
 17145 0062 095D     		ldrb	r1, [r1, r4]	@ zero_extendqisi2
 17146              	.LVL65:
1030:../../../SDK_embedded/libs/stm32/STM32F10x_StdPeriph_Driver/stm32f10x_rcc.c ****   /* PCLK2 clock frequency */
1031:../../../SDK_embedded/libs/stm32/STM32F10x_StdPeriph_Driver/stm32f10x_rcc.c ****   RCC_Clocks->PCLK2_Frequency = RCC_Clocks->HCLK_Frequency >> presc;
 17147              		.loc 1 1031 0
 17148 0064 CA40     		lsrs	r2, r2, r1
 17149 0066 C260     		str	r2, [r0, #12]
1032:../../../SDK_embedded/libs/stm32/STM32F10x_StdPeriph_Driver/stm32f10x_rcc.c ****   /* Get ADCCLK prescaler */
1033:../../../SDK_embedded/libs/stm32/STM32F10x_StdPeriph_Driver/stm32f10x_rcc.c ****   tmp = RCC->CFGR & CFGR_ADCPRE_Set_Mask;
 17150              		.loc 1 1033 0
 17151 0068 5B68     		ldr	r3, [r3, #4]
 17152              	.LVL66:
1034:../../../SDK_embedded/libs/stm32/STM32F10x_StdPeriph_Driver/stm32f10x_rcc.c ****   tmp = tmp >> 14;
1035:../../../SDK_embedded/libs/stm32/STM32F10x_StdPeriph_Driver/stm32f10x_rcc.c ****   presc = ADCPrescTable[tmp];
 17153              		.loc 1 1035 0
 17154 006a 0849     		ldr	r1, .L76+16
 17155              	.LVL67:
1034:../../../SDK_embedded/libs/stm32/STM32F10x_StdPeriph_Driver/stm32f10x_rcc.c ****   tmp = tmp >> 14;
 17156              		.loc 1 1034 0
 17157 006c C3F38133 		ubfx	r3, r3, #14, #2
 17158              	.LVL68:
 17159              		.loc 1 1035 0
 17160 0070 11F803C0 		ldrb	ip, [r1, r3]	@ zero_extendqisi2
 17161              	.LVL69:
1036:../../../SDK_embedded/libs/stm32/STM32F10x_StdPeriph_Driver/stm32f10x_rcc.c ****   /* ADCCLK clock frequency */
1037:../../../SDK_embedded/libs/stm32/STM32F10x_StdPeriph_Driver/stm32f10x_rcc.c ****   RCC_Clocks->ADCCLK_Frequency = RCC_Clocks->PCLK2_Frequency / presc;
 17162              		.loc 1 1037 0
 17163 0074 B2FBFCF1 		udiv	r1, r2, ip
 17164 0078 0161     		str	r1, [r0, #16]
1038:../../../SDK_embedded/libs/stm32/STM32F10x_StdPeriph_Driver/stm32f10x_rcc.c **** }
 17165              		.loc 1 1038 0
 17166 007a 10BD     		pop	{r4, pc}
 17167              	.L77:
 17168              		.align	2
 17169              	.L76:
 17170 007c 00100240 		.word	1073876992
 17171 0080 00127A00 		.word	8000000
 17172 0084 00093D00 		.word	4000000
 17173 0088 00000000 		.word	.LANCHOR0
 17174 008c 00000000 		.word	.LANCHOR1
 17175              		.cfi_endproc
 17176              	.LFE48:
 17178              		.section	.text.RCC_AHBPeriphClockCmd,"ax",%progbits
 17179              		.align	1
 17180              		.global	RCC_AHBPeriphClockCmd
 17181              		.thumb
 17182              		.thumb_func
 17184              	RCC_AHBPeriphClockCmd:
 17185              	.LFB49:
1039:../../../SDK_embedded/libs/stm32/STM32F10x_StdPeriph_Driver/stm32f10x_rcc.c **** 
1040:../../../SDK_embedded/libs/stm32/STM32F10x_StdPeriph_Driver/stm32f10x_rcc.c **** /**
1041:../../../SDK_embedded/libs/stm32/STM32F10x_StdPeriph_Driver/stm32f10x_rcc.c ****   * @brief  Enables or disables the AHB peripheral clock.
1042:../../../SDK_embedded/libs/stm32/STM32F10x_StdPeriph_Driver/stm32f10x_rcc.c ****   * @param  RCC_AHBPeriph: specifies the AHB peripheral to gates its clock.
1043:../../../SDK_embedded/libs/stm32/STM32F10x_StdPeriph_Driver/stm32f10x_rcc.c ****   *   
1044:../../../SDK_embedded/libs/stm32/STM32F10x_StdPeriph_Driver/stm32f10x_rcc.c ****   *   For @b STM32_Connectivity_line_devices, this parameter can be any combination
1045:../../../SDK_embedded/libs/stm32/STM32F10x_StdPeriph_Driver/stm32f10x_rcc.c ****   *   of the following values:        
1046:../../../SDK_embedded/libs/stm32/STM32F10x_StdPeriph_Driver/stm32f10x_rcc.c ****   *     @arg RCC_AHBPeriph_DMA1
1047:../../../SDK_embedded/libs/stm32/STM32F10x_StdPeriph_Driver/stm32f10x_rcc.c ****   *     @arg RCC_AHBPeriph_DMA2
1048:../../../SDK_embedded/libs/stm32/STM32F10x_StdPeriph_Driver/stm32f10x_rcc.c ****   *     @arg RCC_AHBPeriph_SRAM
1049:../../../SDK_embedded/libs/stm32/STM32F10x_StdPeriph_Driver/stm32f10x_rcc.c ****   *     @arg RCC_AHBPeriph_FLITF
1050:../../../SDK_embedded/libs/stm32/STM32F10x_StdPeriph_Driver/stm32f10x_rcc.c ****   *     @arg RCC_AHBPeriph_CRC
1051:../../../SDK_embedded/libs/stm32/STM32F10x_StdPeriph_Driver/stm32f10x_rcc.c ****   *     @arg RCC_AHBPeriph_OTG_FS    
1052:../../../SDK_embedded/libs/stm32/STM32F10x_StdPeriph_Driver/stm32f10x_rcc.c ****   *     @arg RCC_AHBPeriph_ETH_MAC   
1053:../../../SDK_embedded/libs/stm32/STM32F10x_StdPeriph_Driver/stm32f10x_rcc.c ****   *     @arg RCC_AHBPeriph_ETH_MAC_Tx
1054:../../../SDK_embedded/libs/stm32/STM32F10x_StdPeriph_Driver/stm32f10x_rcc.c ****   *     @arg RCC_AHBPeriph_ETH_MAC_Rx
1055:../../../SDK_embedded/libs/stm32/STM32F10x_StdPeriph_Driver/stm32f10x_rcc.c ****   * 
1056:../../../SDK_embedded/libs/stm32/STM32F10x_StdPeriph_Driver/stm32f10x_rcc.c ****   *   For @b other_STM32_devices, this parameter can be any combination of the 
1057:../../../SDK_embedded/libs/stm32/STM32F10x_StdPeriph_Driver/stm32f10x_rcc.c ****   *   following values:        
1058:../../../SDK_embedded/libs/stm32/STM32F10x_StdPeriph_Driver/stm32f10x_rcc.c ****   *     @arg RCC_AHBPeriph_DMA1
1059:../../../SDK_embedded/libs/stm32/STM32F10x_StdPeriph_Driver/stm32f10x_rcc.c ****   *     @arg RCC_AHBPeriph_DMA2
1060:../../../SDK_embedded/libs/stm32/STM32F10x_StdPeriph_Driver/stm32f10x_rcc.c ****   *     @arg RCC_AHBPeriph_SRAM
1061:../../../SDK_embedded/libs/stm32/STM32F10x_StdPeriph_Driver/stm32f10x_rcc.c ****   *     @arg RCC_AHBPeriph_FLITF
1062:../../../SDK_embedded/libs/stm32/STM32F10x_StdPeriph_Driver/stm32f10x_rcc.c ****   *     @arg RCC_AHBPeriph_CRC
1063:../../../SDK_embedded/libs/stm32/STM32F10x_StdPeriph_Driver/stm32f10x_rcc.c ****   *     @arg RCC_AHBPeriph_FSMC
1064:../../../SDK_embedded/libs/stm32/STM32F10x_StdPeriph_Driver/stm32f10x_rcc.c ****   *     @arg RCC_AHBPeriph_SDIO
1065:../../../SDK_embedded/libs/stm32/STM32F10x_StdPeriph_Driver/stm32f10x_rcc.c ****   *   
1066:../../../SDK_embedded/libs/stm32/STM32F10x_StdPeriph_Driver/stm32f10x_rcc.c ****   * @note SRAM and FLITF clock can be disabled only during sleep mode.
1067:../../../SDK_embedded/libs/stm32/STM32F10x_StdPeriph_Driver/stm32f10x_rcc.c ****   * @param  NewState: new state of the specified peripheral clock.
1068:../../../SDK_embedded/libs/stm32/STM32F10x_StdPeriph_Driver/stm32f10x_rcc.c ****   *   This parameter can be: ENABLE or DISABLE.
1069:../../../SDK_embedded/libs/stm32/STM32F10x_StdPeriph_Driver/stm32f10x_rcc.c ****   * @retval None
1070:../../../SDK_embedded/libs/stm32/STM32F10x_StdPeriph_Driver/stm32f10x_rcc.c ****   */
1071:../../../SDK_embedded/libs/stm32/STM32F10x_StdPeriph_Driver/stm32f10x_rcc.c **** void RCC_AHBPeriphClockCmd(uint32_t RCC_AHBPeriph, FunctionalState NewState)
1072:../../../SDK_embedded/libs/stm32/STM32F10x_StdPeriph_Driver/stm32f10x_rcc.c **** {
 17186              		.loc 1 1072 0
 17187              		.cfi_startproc
 17188              		@ args = 0, pretend = 0, frame = 0
 17189              		@ frame_needed = 0, uses_anonymous_args = 0
 17190              		@ link register save eliminated.
 17191              	.LVL70:
 17192 0000 044B     		ldr	r3, .L82
1073:../../../SDK_embedded/libs/stm32/STM32F10x_StdPeriph_Driver/stm32f10x_rcc.c ****   /* Check the parameters */
1074:../../../SDK_embedded/libs/stm32/STM32F10x_StdPeriph_Driver/stm32f10x_rcc.c ****   assert_param(IS_RCC_AHB_PERIPH(RCC_AHBPeriph));
1075:../../../SDK_embedded/libs/stm32/STM32F10x_StdPeriph_Driver/stm32f10x_rcc.c ****   assert_param(IS_FUNCTIONAL_STATE(NewState));
1076:../../../SDK_embedded/libs/stm32/STM32F10x_StdPeriph_Driver/stm32f10x_rcc.c **** 
1077:../../../SDK_embedded/libs/stm32/STM32F10x_StdPeriph_Driver/stm32f10x_rcc.c ****   if (NewState != DISABLE)
 17193              		.loc 1 1077 0
 17194 0002 11B1     		cbz	r1, .L79
1078:../../../SDK_embedded/libs/stm32/STM32F10x_StdPeriph_Driver/stm32f10x_rcc.c ****   {
1079:../../../SDK_embedded/libs/stm32/STM32F10x_StdPeriph_Driver/stm32f10x_rcc.c ****     RCC->AHBENR |= RCC_AHBPeriph;
 17195              		.loc 1 1079 0
 17196 0004 5A69     		ldr	r2, [r3, #20]
 17197 0006 1043     		orrs	r0, r0, r2
 17198              	.LVL71:
 17199 0008 02E0     		b	.L81
 17200              	.LVL72:
 17201              	.L79:
1080:../../../SDK_embedded/libs/stm32/STM32F10x_StdPeriph_Driver/stm32f10x_rcc.c ****   }
1081:../../../SDK_embedded/libs/stm32/STM32F10x_StdPeriph_Driver/stm32f10x_rcc.c ****   else
1082:../../../SDK_embedded/libs/stm32/STM32F10x_StdPeriph_Driver/stm32f10x_rcc.c ****   {
1083:../../../SDK_embedded/libs/stm32/STM32F10x_StdPeriph_Driver/stm32f10x_rcc.c ****     RCC->AHBENR &= ~RCC_AHBPeriph;
 17202              		.loc 1 1083 0
 17203 000a 5969     		ldr	r1, [r3, #20]
 17204              	.LVL73:
 17205 000c 21EA0000 		bic	r0, r1, r0
 17206              	.LVL74:
 17207              	.L81:
 17208 0010 5861     		str	r0, [r3, #20]
 17209 0012 7047     		bx	lr
 17210              	.L83:
 17211              		.align	2
 17212              	.L82:
 17213 0014 00100240 		.word	1073876992
 17214              		.cfi_endproc
 17215              	.LFE49:
 17217              		.section	.text.RCC_APB2PeriphClockCmd,"ax",%progbits
 17218              		.align	1
 17219              		.global	RCC_APB2PeriphClockCmd
 17220              		.thumb
 17221              		.thumb_func
 17223              	RCC_APB2PeriphClockCmd:
 17224              	.LFB50:
1084:../../../SDK_embedded/libs/stm32/STM32F10x_StdPeriph_Driver/stm32f10x_rcc.c ****   }
1085:../../../SDK_embedded/libs/stm32/STM32F10x_StdPeriph_Driver/stm32f10x_rcc.c **** }
1086:../../../SDK_embedded/libs/stm32/STM32F10x_StdPeriph_Driver/stm32f10x_rcc.c **** 
1087:../../../SDK_embedded/libs/stm32/STM32F10x_StdPeriph_Driver/stm32f10x_rcc.c **** /**
1088:../../../SDK_embedded/libs/stm32/STM32F10x_StdPeriph_Driver/stm32f10x_rcc.c ****   * @brief  Enables or disables the High Speed APB (APB2) peripheral clock.
1089:../../../SDK_embedded/libs/stm32/STM32F10x_StdPeriph_Driver/stm32f10x_rcc.c ****   * @param  RCC_APB2Periph: specifies the APB2 peripheral to gates its clock.
1090:../../../SDK_embedded/libs/stm32/STM32F10x_StdPeriph_Driver/stm32f10x_rcc.c ****   *   This parameter can be any combination of the following values:
1091:../../../SDK_embedded/libs/stm32/STM32F10x_StdPeriph_Driver/stm32f10x_rcc.c ****   *     @arg RCC_APB2Periph_AFIO, RCC_APB2Periph_GPIOA, RCC_APB2Periph_GPIOB,
1092:../../../SDK_embedded/libs/stm32/STM32F10x_StdPeriph_Driver/stm32f10x_rcc.c ****   *          RCC_APB2Periph_GPIOC, RCC_APB2Periph_GPIOD, RCC_APB2Periph_GPIOE,
1093:../../../SDK_embedded/libs/stm32/STM32F10x_StdPeriph_Driver/stm32f10x_rcc.c ****   *          RCC_APB2Periph_GPIOF, RCC_APB2Periph_GPIOG, RCC_APB2Periph_ADC1,
1094:../../../SDK_embedded/libs/stm32/STM32F10x_StdPeriph_Driver/stm32f10x_rcc.c ****   *          RCC_APB2Periph_ADC2, RCC_APB2Periph_TIM1, RCC_APB2Periph_SPI1,
1095:../../../SDK_embedded/libs/stm32/STM32F10x_StdPeriph_Driver/stm32f10x_rcc.c ****   *          RCC_APB2Periph_TIM8, RCC_APB2Periph_USART1, RCC_APB2Periph_ADC3,
1096:../../../SDK_embedded/libs/stm32/STM32F10x_StdPeriph_Driver/stm32f10x_rcc.c ****   *          RCC_APB2Periph_TIM15, RCC_APB2Periph_TIM16, RCC_APB2Periph_TIM17,
1097:../../../SDK_embedded/libs/stm32/STM32F10x_StdPeriph_Driver/stm32f10x_rcc.c ****   *          RCC_APB2Periph_TIM9, RCC_APB2Periph_TIM10, RCC_APB2Periph_TIM11     
1098:../../../SDK_embedded/libs/stm32/STM32F10x_StdPeriph_Driver/stm32f10x_rcc.c ****   * @param  NewState: new state of the specified peripheral clock.
1099:../../../SDK_embedded/libs/stm32/STM32F10x_StdPeriph_Driver/stm32f10x_rcc.c ****   *   This parameter can be: ENABLE or DISABLE.
1100:../../../SDK_embedded/libs/stm32/STM32F10x_StdPeriph_Driver/stm32f10x_rcc.c ****   * @retval None
1101:../../../SDK_embedded/libs/stm32/STM32F10x_StdPeriph_Driver/stm32f10x_rcc.c ****   */
1102:../../../SDK_embedded/libs/stm32/STM32F10x_StdPeriph_Driver/stm32f10x_rcc.c **** void RCC_APB2PeriphClockCmd(uint32_t RCC_APB2Periph, FunctionalState NewState)
1103:../../../SDK_embedded/libs/stm32/STM32F10x_StdPeriph_Driver/stm32f10x_rcc.c **** {
 17225              		.loc 1 1103 0
 17226              		.cfi_startproc
 17227              		@ args = 0, pretend = 0, frame = 0
 17228              		@ frame_needed = 0, uses_anonymous_args = 0
 17229              		@ link register save eliminated.
 17230              	.LVL75:
 17231 0000 044B     		ldr	r3, .L88
1104:../../../SDK_embedded/libs/stm32/STM32F10x_StdPeriph_Driver/stm32f10x_rcc.c ****   /* Check the parameters */
1105:../../../SDK_embedded/libs/stm32/STM32F10x_StdPeriph_Driver/stm32f10x_rcc.c ****   assert_param(IS_RCC_APB2_PERIPH(RCC_APB2Periph));
1106:../../../SDK_embedded/libs/stm32/STM32F10x_StdPeriph_Driver/stm32f10x_rcc.c ****   assert_param(IS_FUNCTIONAL_STATE(NewState));
1107:../../../SDK_embedded/libs/stm32/STM32F10x_StdPeriph_Driver/stm32f10x_rcc.c ****   if (NewState != DISABLE)
 17232              		.loc 1 1107 0
 17233 0002 11B1     		cbz	r1, .L85
1108:../../../SDK_embedded/libs/stm32/STM32F10x_StdPeriph_Driver/stm32f10x_rcc.c ****   {
1109:../../../SDK_embedded/libs/stm32/STM32F10x_StdPeriph_Driver/stm32f10x_rcc.c ****     RCC->APB2ENR |= RCC_APB2Periph;
 17234              		.loc 1 1109 0
 17235 0004 9A69     		ldr	r2, [r3, #24]
 17236 0006 1043     		orrs	r0, r0, r2
 17237              	.LVL76:
 17238 0008 02E0     		b	.L87
 17239              	.LVL77:
 17240              	.L85:
1110:../../../SDK_embedded/libs/stm32/STM32F10x_StdPeriph_Driver/stm32f10x_rcc.c ****   }
1111:../../../SDK_embedded/libs/stm32/STM32F10x_StdPeriph_Driver/stm32f10x_rcc.c ****   else
1112:../../../SDK_embedded/libs/stm32/STM32F10x_StdPeriph_Driver/stm32f10x_rcc.c ****   {
1113:../../../SDK_embedded/libs/stm32/STM32F10x_StdPeriph_Driver/stm32f10x_rcc.c ****     RCC->APB2ENR &= ~RCC_APB2Periph;
 17241              		.loc 1 1113 0
 17242 000a 9969     		ldr	r1, [r3, #24]
 17243              	.LVL78:
 17244 000c 21EA0000 		bic	r0, r1, r0
 17245              	.LVL79:
 17246              	.L87:
 17247 0010 9861     		str	r0, [r3, #24]
 17248 0012 7047     		bx	lr
 17249              	.L89:
 17250              		.align	2
 17251              	.L88:
 17252 0014 00100240 		.word	1073876992
 17253              		.cfi_endproc
 17254              	.LFE50:
 17256              		.section	.text.RCC_APB1PeriphClockCmd,"ax",%progbits
 17257              		.align	1
 17258              		.global	RCC_APB1PeriphClockCmd
 17259              		.thumb
 17260              		.thumb_func
 17262              	RCC_APB1PeriphClockCmd:
 17263              	.LFB51:
1114:../../../SDK_embedded/libs/stm32/STM32F10x_StdPeriph_Driver/stm32f10x_rcc.c ****   }
1115:../../../SDK_embedded/libs/stm32/STM32F10x_StdPeriph_Driver/stm32f10x_rcc.c **** }
1116:../../../SDK_embedded/libs/stm32/STM32F10x_StdPeriph_Driver/stm32f10x_rcc.c **** 
1117:../../../SDK_embedded/libs/stm32/STM32F10x_StdPeriph_Driver/stm32f10x_rcc.c **** /**
1118:../../../SDK_embedded/libs/stm32/STM32F10x_StdPeriph_Driver/stm32f10x_rcc.c ****   * @brief  Enables or disables the Low Speed APB (APB1) peripheral clock.
1119:../../../SDK_embedded/libs/stm32/STM32F10x_StdPeriph_Driver/stm32f10x_rcc.c ****   * @param  RCC_APB1Periph: specifies the APB1 peripheral to gates its clock.
1120:../../../SDK_embedded/libs/stm32/STM32F10x_StdPeriph_Driver/stm32f10x_rcc.c ****   *   This parameter can be any combination of the following values:
1121:../../../SDK_embedded/libs/stm32/STM32F10x_StdPeriph_Driver/stm32f10x_rcc.c ****   *     @arg RCC_APB1Periph_TIM2, RCC_APB1Periph_TIM3, RCC_APB1Periph_TIM4,
1122:../../../SDK_embedded/libs/stm32/STM32F10x_StdPeriph_Driver/stm32f10x_rcc.c ****   *          RCC_APB1Periph_TIM5, RCC_APB1Periph_TIM6, RCC_APB1Periph_TIM7,
1123:../../../SDK_embedded/libs/stm32/STM32F10x_StdPeriph_Driver/stm32f10x_rcc.c ****   *          RCC_APB1Periph_WWDG, RCC_APB1Periph_SPI2, RCC_APB1Periph_SPI3,
1124:../../../SDK_embedded/libs/stm32/STM32F10x_StdPeriph_Driver/stm32f10x_rcc.c ****   *          RCC_APB1Periph_USART2, RCC_APB1Periph_USART3, RCC_APB1Periph_USART4, 
1125:../../../SDK_embedded/libs/stm32/STM32F10x_StdPeriph_Driver/stm32f10x_rcc.c ****   *          RCC_APB1Periph_USART5, RCC_APB1Periph_I2C1, RCC_APB1Periph_I2C2,
1126:../../../SDK_embedded/libs/stm32/STM32F10x_StdPeriph_Driver/stm32f10x_rcc.c ****   *          RCC_APB1Periph_USB, RCC_APB1Periph_CAN1, RCC_APB1Periph_BKP,
1127:../../../SDK_embedded/libs/stm32/STM32F10x_StdPeriph_Driver/stm32f10x_rcc.c ****   *          RCC_APB1Periph_PWR, RCC_APB1Periph_DAC, RCC_APB1Periph_CEC,
1128:../../../SDK_embedded/libs/stm32/STM32F10x_StdPeriph_Driver/stm32f10x_rcc.c ****   *          RCC_APB1Periph_TIM12, RCC_APB1Periph_TIM13, RCC_APB1Periph_TIM14
1129:../../../SDK_embedded/libs/stm32/STM32F10x_StdPeriph_Driver/stm32f10x_rcc.c ****   * @param  NewState: new state of the specified peripheral clock.
1130:../../../SDK_embedded/libs/stm32/STM32F10x_StdPeriph_Driver/stm32f10x_rcc.c ****   *   This parameter can be: ENABLE or DISABLE.
1131:../../../SDK_embedded/libs/stm32/STM32F10x_StdPeriph_Driver/stm32f10x_rcc.c ****   * @retval None
1132:../../../SDK_embedded/libs/stm32/STM32F10x_StdPeriph_Driver/stm32f10x_rcc.c ****   */
1133:../../../SDK_embedded/libs/stm32/STM32F10x_StdPeriph_Driver/stm32f10x_rcc.c **** void RCC_APB1PeriphClockCmd(uint32_t RCC_APB1Periph, FunctionalState NewState)
1134:../../../SDK_embedded/libs/stm32/STM32F10x_StdPeriph_Driver/stm32f10x_rcc.c **** {
 17264              		.loc 1 1134 0
 17265              		.cfi_startproc
 17266              		@ args = 0, pretend = 0, frame = 0
 17267              		@ frame_needed = 0, uses_anonymous_args = 0
 17268              		@ link register save eliminated.
 17269              	.LVL80:
 17270 0000 044B     		ldr	r3, .L94
1135:../../../SDK_embedded/libs/stm32/STM32F10x_StdPeriph_Driver/stm32f10x_rcc.c ****   /* Check the parameters */
1136:../../../SDK_embedded/libs/stm32/STM32F10x_StdPeriph_Driver/stm32f10x_rcc.c ****   assert_param(IS_RCC_APB1_PERIPH(RCC_APB1Periph));
1137:../../../SDK_embedded/libs/stm32/STM32F10x_StdPeriph_Driver/stm32f10x_rcc.c ****   assert_param(IS_FUNCTIONAL_STATE(NewState));
1138:../../../SDK_embedded/libs/stm32/STM32F10x_StdPeriph_Driver/stm32f10x_rcc.c ****   if (NewState != DISABLE)
 17271              		.loc 1 1138 0
 17272 0002 11B1     		cbz	r1, .L91
1139:../../../SDK_embedded/libs/stm32/STM32F10x_StdPeriph_Driver/stm32f10x_rcc.c ****   {
1140:../../../SDK_embedded/libs/stm32/STM32F10x_StdPeriph_Driver/stm32f10x_rcc.c ****     RCC->APB1ENR |= RCC_APB1Periph;
 17273              		.loc 1 1140 0
 17274 0004 DA69     		ldr	r2, [r3, #28]
 17275 0006 1043     		orrs	r0, r0, r2
 17276              	.LVL81:
 17277 0008 02E0     		b	.L93
 17278              	.LVL82:
 17279              	.L91:
1141:../../../SDK_embedded/libs/stm32/STM32F10x_StdPeriph_Driver/stm32f10x_rcc.c ****   }
1142:../../../SDK_embedded/libs/stm32/STM32F10x_StdPeriph_Driver/stm32f10x_rcc.c ****   else
1143:../../../SDK_embedded/libs/stm32/STM32F10x_StdPeriph_Driver/stm32f10x_rcc.c ****   {
1144:../../../SDK_embedded/libs/stm32/STM32F10x_StdPeriph_Driver/stm32f10x_rcc.c ****     RCC->APB1ENR &= ~RCC_APB1Periph;
 17280              		.loc 1 1144 0
 17281 000a D969     		ldr	r1, [r3, #28]
 17282              	.LVL83:
 17283 000c 21EA0000 		bic	r0, r1, r0
 17284              	.LVL84:
 17285              	.L93:
 17286 0010 D861     		str	r0, [r3, #28]
 17287 0012 7047     		bx	lr
 17288              	.L95:
 17289              		.align	2
 17290              	.L94:
 17291 0014 00100240 		.word	1073876992
 17292              		.cfi_endproc
 17293              	.LFE51:
 17295              		.section	.text.RCC_APB2PeriphResetCmd,"ax",%progbits
 17296              		.align	1
 17297              		.global	RCC_APB2PeriphResetCmd
 17298              		.thumb
 17299              		.thumb_func
 17301              	RCC_APB2PeriphResetCmd:
 17302              	.LFB52:
1145:../../../SDK_embedded/libs/stm32/STM32F10x_StdPeriph_Driver/stm32f10x_rcc.c ****   }
1146:../../../SDK_embedded/libs/stm32/STM32F10x_StdPeriph_Driver/stm32f10x_rcc.c **** }
1147:../../../SDK_embedded/libs/stm32/STM32F10x_StdPeriph_Driver/stm32f10x_rcc.c **** 
1148:../../../SDK_embedded/libs/stm32/STM32F10x_StdPeriph_Driver/stm32f10x_rcc.c **** #ifdef STM32F10X_CL
1149:../../../SDK_embedded/libs/stm32/STM32F10x_StdPeriph_Driver/stm32f10x_rcc.c **** /**
1150:../../../SDK_embedded/libs/stm32/STM32F10x_StdPeriph_Driver/stm32f10x_rcc.c ****   * @brief  Forces or releases AHB peripheral reset.
1151:../../../SDK_embedded/libs/stm32/STM32F10x_StdPeriph_Driver/stm32f10x_rcc.c ****   * @note   This function applies only to STM32 Connectivity line devices.
1152:../../../SDK_embedded/libs/stm32/STM32F10x_StdPeriph_Driver/stm32f10x_rcc.c ****   * @param  RCC_AHBPeriph: specifies the AHB peripheral to reset.
1153:../../../SDK_embedded/libs/stm32/STM32F10x_StdPeriph_Driver/stm32f10x_rcc.c ****   *   This parameter can be any combination of the following values:
1154:../../../SDK_embedded/libs/stm32/STM32F10x_StdPeriph_Driver/stm32f10x_rcc.c ****   *     @arg RCC_AHBPeriph_OTG_FS 
1155:../../../SDK_embedded/libs/stm32/STM32F10x_StdPeriph_Driver/stm32f10x_rcc.c ****   *     @arg RCC_AHBPeriph_ETH_MAC
1156:../../../SDK_embedded/libs/stm32/STM32F10x_StdPeriph_Driver/stm32f10x_rcc.c ****   * @param  NewState: new state of the specified peripheral reset.
1157:../../../SDK_embedded/libs/stm32/STM32F10x_StdPeriph_Driver/stm32f10x_rcc.c ****   *   This parameter can be: ENABLE or DISABLE.
1158:../../../SDK_embedded/libs/stm32/STM32F10x_StdPeriph_Driver/stm32f10x_rcc.c ****   * @retval None
1159:../../../SDK_embedded/libs/stm32/STM32F10x_StdPeriph_Driver/stm32f10x_rcc.c ****   */
1160:../../../SDK_embedded/libs/stm32/STM32F10x_StdPeriph_Driver/stm32f10x_rcc.c **** void RCC_AHBPeriphResetCmd(uint32_t RCC_AHBPeriph, FunctionalState NewState)
1161:../../../SDK_embedded/libs/stm32/STM32F10x_StdPeriph_Driver/stm32f10x_rcc.c **** {
1162:../../../SDK_embedded/libs/stm32/STM32F10x_StdPeriph_Driver/stm32f10x_rcc.c ****   /* Check the parameters */
1163:../../../SDK_embedded/libs/stm32/STM32F10x_StdPeriph_Driver/stm32f10x_rcc.c ****   assert_param(IS_RCC_AHB_PERIPH_RESET(RCC_AHBPeriph));
1164:../../../SDK_embedded/libs/stm32/STM32F10x_StdPeriph_Driver/stm32f10x_rcc.c ****   assert_param(IS_FUNCTIONAL_STATE(NewState));
1165:../../../SDK_embedded/libs/stm32/STM32F10x_StdPeriph_Driver/stm32f10x_rcc.c **** 
1166:../../../SDK_embedded/libs/stm32/STM32F10x_StdPeriph_Driver/stm32f10x_rcc.c ****   if (NewState != DISABLE)
1167:../../../SDK_embedded/libs/stm32/STM32F10x_StdPeriph_Driver/stm32f10x_rcc.c ****   {
1168:../../../SDK_embedded/libs/stm32/STM32F10x_StdPeriph_Driver/stm32f10x_rcc.c ****     RCC->AHBRSTR |= RCC_AHBPeriph;
1169:../../../SDK_embedded/libs/stm32/STM32F10x_StdPeriph_Driver/stm32f10x_rcc.c ****   }
1170:../../../SDK_embedded/libs/stm32/STM32F10x_StdPeriph_Driver/stm32f10x_rcc.c ****   else
1171:../../../SDK_embedded/libs/stm32/STM32F10x_StdPeriph_Driver/stm32f10x_rcc.c ****   {
1172:../../../SDK_embedded/libs/stm32/STM32F10x_StdPeriph_Driver/stm32f10x_rcc.c ****     RCC->AHBRSTR &= ~RCC_AHBPeriph;
1173:../../../SDK_embedded/libs/stm32/STM32F10x_StdPeriph_Driver/stm32f10x_rcc.c ****   }
1174:../../../SDK_embedded/libs/stm32/STM32F10x_StdPeriph_Driver/stm32f10x_rcc.c **** }
1175:../../../SDK_embedded/libs/stm32/STM32F10x_StdPeriph_Driver/stm32f10x_rcc.c **** #endif /* STM32F10X_CL */ 
1176:../../../SDK_embedded/libs/stm32/STM32F10x_StdPeriph_Driver/stm32f10x_rcc.c **** 
1177:../../../SDK_embedded/libs/stm32/STM32F10x_StdPeriph_Driver/stm32f10x_rcc.c **** /**
1178:../../../SDK_embedded/libs/stm32/STM32F10x_StdPeriph_Driver/stm32f10x_rcc.c ****   * @brief  Forces or releases High Speed APB (APB2) peripheral reset.
1179:../../../SDK_embedded/libs/stm32/STM32F10x_StdPeriph_Driver/stm32f10x_rcc.c ****   * @param  RCC_APB2Periph: specifies the APB2 peripheral to reset.
1180:../../../SDK_embedded/libs/stm32/STM32F10x_StdPeriph_Driver/stm32f10x_rcc.c ****   *   This parameter can be any combination of the following values:
1181:../../../SDK_embedded/libs/stm32/STM32F10x_StdPeriph_Driver/stm32f10x_rcc.c ****   *     @arg RCC_APB2Periph_AFIO, RCC_APB2Periph_GPIOA, RCC_APB2Periph_GPIOB,
1182:../../../SDK_embedded/libs/stm32/STM32F10x_StdPeriph_Driver/stm32f10x_rcc.c ****   *          RCC_APB2Periph_GPIOC, RCC_APB2Periph_GPIOD, RCC_APB2Periph_GPIOE,
1183:../../../SDK_embedded/libs/stm32/STM32F10x_StdPeriph_Driver/stm32f10x_rcc.c ****   *          RCC_APB2Periph_GPIOF, RCC_APB2Periph_GPIOG, RCC_APB2Periph_ADC1,
1184:../../../SDK_embedded/libs/stm32/STM32F10x_StdPeriph_Driver/stm32f10x_rcc.c ****   *          RCC_APB2Periph_ADC2, RCC_APB2Periph_TIM1, RCC_APB2Periph_SPI1,
1185:../../../SDK_embedded/libs/stm32/STM32F10x_StdPeriph_Driver/stm32f10x_rcc.c ****   *          RCC_APB2Periph_TIM8, RCC_APB2Periph_USART1, RCC_APB2Periph_ADC3,
1186:../../../SDK_embedded/libs/stm32/STM32F10x_StdPeriph_Driver/stm32f10x_rcc.c ****   *          RCC_APB2Periph_TIM15, RCC_APB2Periph_TIM16, RCC_APB2Periph_TIM17,
1187:../../../SDK_embedded/libs/stm32/STM32F10x_StdPeriph_Driver/stm32f10x_rcc.c ****   *          RCC_APB2Periph_TIM9, RCC_APB2Periph_TIM10, RCC_APB2Periph_TIM11  
1188:../../../SDK_embedded/libs/stm32/STM32F10x_StdPeriph_Driver/stm32f10x_rcc.c ****   * @param  NewState: new state of the specified peripheral reset.
1189:../../../SDK_embedded/libs/stm32/STM32F10x_StdPeriph_Driver/stm32f10x_rcc.c ****   *   This parameter can be: ENABLE or DISABLE.
1190:../../../SDK_embedded/libs/stm32/STM32F10x_StdPeriph_Driver/stm32f10x_rcc.c ****   * @retval None
1191:../../../SDK_embedded/libs/stm32/STM32F10x_StdPeriph_Driver/stm32f10x_rcc.c ****   */
1192:../../../SDK_embedded/libs/stm32/STM32F10x_StdPeriph_Driver/stm32f10x_rcc.c **** void RCC_APB2PeriphResetCmd(uint32_t RCC_APB2Periph, FunctionalState NewState)
1193:../../../SDK_embedded/libs/stm32/STM32F10x_StdPeriph_Driver/stm32f10x_rcc.c **** {
 17303              		.loc 1 1193 0
 17304              		.cfi_startproc
 17305              		@ args = 0, pretend = 0, frame = 0
 17306              		@ frame_needed = 0, uses_anonymous_args = 0
 17307              		@ link register save eliminated.
 17308              	.LVL85:
 17309 0000 044B     		ldr	r3, .L100
1194:../../../SDK_embedded/libs/stm32/STM32F10x_StdPeriph_Driver/stm32f10x_rcc.c ****   /* Check the parameters */
1195:../../../SDK_embedded/libs/stm32/STM32F10x_StdPeriph_Driver/stm32f10x_rcc.c ****   assert_param(IS_RCC_APB2_PERIPH(RCC_APB2Periph));
1196:../../../SDK_embedded/libs/stm32/STM32F10x_StdPeriph_Driver/stm32f10x_rcc.c ****   assert_param(IS_FUNCTIONAL_STATE(NewState));
1197:../../../SDK_embedded/libs/stm32/STM32F10x_StdPeriph_Driver/stm32f10x_rcc.c ****   if (NewState != DISABLE)
 17310              		.loc 1 1197 0
 17311 0002 11B1     		cbz	r1, .L97
1198:../../../SDK_embedded/libs/stm32/STM32F10x_StdPeriph_Driver/stm32f10x_rcc.c ****   {
1199:../../../SDK_embedded/libs/stm32/STM32F10x_StdPeriph_Driver/stm32f10x_rcc.c ****     RCC->APB2RSTR |= RCC_APB2Periph;
 17312              		.loc 1 1199 0
 17313 0004 DA68     		ldr	r2, [r3, #12]
 17314 0006 1043     		orrs	r0, r0, r2
 17315              	.LVL86:
 17316 0008 02E0     		b	.L99
 17317              	.LVL87:
 17318              	.L97:
1200:../../../SDK_embedded/libs/stm32/STM32F10x_StdPeriph_Driver/stm32f10x_rcc.c ****   }
1201:../../../SDK_embedded/libs/stm32/STM32F10x_StdPeriph_Driver/stm32f10x_rcc.c ****   else
1202:../../../SDK_embedded/libs/stm32/STM32F10x_StdPeriph_Driver/stm32f10x_rcc.c ****   {
1203:../../../SDK_embedded/libs/stm32/STM32F10x_StdPeriph_Driver/stm32f10x_rcc.c ****     RCC->APB2RSTR &= ~RCC_APB2Periph;
 17319              		.loc 1 1203 0
 17320 000a D968     		ldr	r1, [r3, #12]
 17321              	.LVL88:
 17322 000c 21EA0000 		bic	r0, r1, r0
 17323              	.LVL89:
 17324              	.L99:
 17325 0010 D860     		str	r0, [r3, #12]
 17326 0012 7047     		bx	lr
 17327              	.L101:
 17328              		.align	2
 17329              	.L100:
 17330 0014 00100240 		.word	1073876992
 17331              		.cfi_endproc
 17332              	.LFE52:
 17334              		.section	.text.RCC_APB1PeriphResetCmd,"ax",%progbits
 17335              		.align	1
 17336              		.global	RCC_APB1PeriphResetCmd
 17337              		.thumb
 17338              		.thumb_func
 17340              	RCC_APB1PeriphResetCmd:
 17341              	.LFB53:
1204:../../../SDK_embedded/libs/stm32/STM32F10x_StdPeriph_Driver/stm32f10x_rcc.c ****   }
1205:../../../SDK_embedded/libs/stm32/STM32F10x_StdPeriph_Driver/stm32f10x_rcc.c **** }
1206:../../../SDK_embedded/libs/stm32/STM32F10x_StdPeriph_Driver/stm32f10x_rcc.c **** 
1207:../../../SDK_embedded/libs/stm32/STM32F10x_StdPeriph_Driver/stm32f10x_rcc.c **** /**
1208:../../../SDK_embedded/libs/stm32/STM32F10x_StdPeriph_Driver/stm32f10x_rcc.c ****   * @brief  Forces or releases Low Speed APB (APB1) peripheral reset.
1209:../../../SDK_embedded/libs/stm32/STM32F10x_StdPeriph_Driver/stm32f10x_rcc.c ****   * @param  RCC_APB1Periph: specifies the APB1 peripheral to reset.
1210:../../../SDK_embedded/libs/stm32/STM32F10x_StdPeriph_Driver/stm32f10x_rcc.c ****   *   This parameter can be any combination of the following values:
1211:../../../SDK_embedded/libs/stm32/STM32F10x_StdPeriph_Driver/stm32f10x_rcc.c ****   *     @arg RCC_APB1Periph_TIM2, RCC_APB1Periph_TIM3, RCC_APB1Periph_TIM4,
1212:../../../SDK_embedded/libs/stm32/STM32F10x_StdPeriph_Driver/stm32f10x_rcc.c ****   *          RCC_APB1Periph_TIM5, RCC_APB1Periph_TIM6, RCC_APB1Periph_TIM7,
1213:../../../SDK_embedded/libs/stm32/STM32F10x_StdPeriph_Driver/stm32f10x_rcc.c ****   *          RCC_APB1Periph_WWDG, RCC_APB1Periph_SPI2, RCC_APB1Periph_SPI3,
1214:../../../SDK_embedded/libs/stm32/STM32F10x_StdPeriph_Driver/stm32f10x_rcc.c ****   *          RCC_APB1Periph_USART2, RCC_APB1Periph_USART3, RCC_APB1Periph_USART4, 
1215:../../../SDK_embedded/libs/stm32/STM32F10x_StdPeriph_Driver/stm32f10x_rcc.c ****   *          RCC_APB1Periph_USART5, RCC_APB1Periph_I2C1, RCC_APB1Periph_I2C2,
1216:../../../SDK_embedded/libs/stm32/STM32F10x_StdPeriph_Driver/stm32f10x_rcc.c ****   *          RCC_APB1Periph_USB, RCC_APB1Periph_CAN1, RCC_APB1Periph_BKP,
1217:../../../SDK_embedded/libs/stm32/STM32F10x_StdPeriph_Driver/stm32f10x_rcc.c ****   *          RCC_APB1Periph_PWR, RCC_APB1Periph_DAC, RCC_APB1Periph_CEC,
1218:../../../SDK_embedded/libs/stm32/STM32F10x_StdPeriph_Driver/stm32f10x_rcc.c ****   *          RCC_APB1Periph_TIM12, RCC_APB1Periph_TIM13, RCC_APB1Periph_TIM14  
1219:../../../SDK_embedded/libs/stm32/STM32F10x_StdPeriph_Driver/stm32f10x_rcc.c ****   * @param  NewState: new state of the specified peripheral clock.
1220:../../../SDK_embedded/libs/stm32/STM32F10x_StdPeriph_Driver/stm32f10x_rcc.c ****   *   This parameter can be: ENABLE or DISABLE.
1221:../../../SDK_embedded/libs/stm32/STM32F10x_StdPeriph_Driver/stm32f10x_rcc.c ****   * @retval None
1222:../../../SDK_embedded/libs/stm32/STM32F10x_StdPeriph_Driver/stm32f10x_rcc.c ****   */
1223:../../../SDK_embedded/libs/stm32/STM32F10x_StdPeriph_Driver/stm32f10x_rcc.c **** void RCC_APB1PeriphResetCmd(uint32_t RCC_APB1Periph, FunctionalState NewState)
1224:../../../SDK_embedded/libs/stm32/STM32F10x_StdPeriph_Driver/stm32f10x_rcc.c **** {
 17342              		.loc 1 1224 0
 17343              		.cfi_startproc
 17344              		@ args = 0, pretend = 0, frame = 0
 17345              		@ frame_needed = 0, uses_anonymous_args = 0
 17346              		@ link register save eliminated.
 17347              	.LVL90:
 17348 0000 044B     		ldr	r3, .L106
1225:../../../SDK_embedded/libs/stm32/STM32F10x_StdPeriph_Driver/stm32f10x_rcc.c ****   /* Check the parameters */
1226:../../../SDK_embedded/libs/stm32/STM32F10x_StdPeriph_Driver/stm32f10x_rcc.c ****   assert_param(IS_RCC_APB1_PERIPH(RCC_APB1Periph));
1227:../../../SDK_embedded/libs/stm32/STM32F10x_StdPeriph_Driver/stm32f10x_rcc.c ****   assert_param(IS_FUNCTIONAL_STATE(NewState));
1228:../../../SDK_embedded/libs/stm32/STM32F10x_StdPeriph_Driver/stm32f10x_rcc.c ****   if (NewState != DISABLE)
 17349              		.loc 1 1228 0
 17350 0002 11B1     		cbz	r1, .L103
1229:../../../SDK_embedded/libs/stm32/STM32F10x_StdPeriph_Driver/stm32f10x_rcc.c ****   {
1230:../../../SDK_embedded/libs/stm32/STM32F10x_StdPeriph_Driver/stm32f10x_rcc.c ****     RCC->APB1RSTR |= RCC_APB1Periph;
 17351              		.loc 1 1230 0
 17352 0004 1A69     		ldr	r2, [r3, #16]
 17353 0006 1043     		orrs	r0, r0, r2
 17354              	.LVL91:
 17355 0008 02E0     		b	.L105
 17356              	.LVL92:
 17357              	.L103:
1231:../../../SDK_embedded/libs/stm32/STM32F10x_StdPeriph_Driver/stm32f10x_rcc.c ****   }
1232:../../../SDK_embedded/libs/stm32/STM32F10x_StdPeriph_Driver/stm32f10x_rcc.c ****   else
1233:../../../SDK_embedded/libs/stm32/STM32F10x_StdPeriph_Driver/stm32f10x_rcc.c ****   {
1234:../../../SDK_embedded/libs/stm32/STM32F10x_StdPeriph_Driver/stm32f10x_rcc.c ****     RCC->APB1RSTR &= ~RCC_APB1Periph;
 17358              		.loc 1 1234 0
 17359 000a 1969     		ldr	r1, [r3, #16]
 17360              	.LVL93:
 17361 000c 21EA0000 		bic	r0, r1, r0
 17362              	.LVL94:
 17363              	.L105:
 17364 0010 1861     		str	r0, [r3, #16]
 17365 0012 7047     		bx	lr
 17366              	.L107:
 17367              		.align	2
 17368              	.L106:
 17369 0014 00100240 		.word	1073876992
 17370              		.cfi_endproc
 17371              	.LFE53:
 17373              		.section	.text.RCC_BackupResetCmd,"ax",%progbits
 17374              		.align	1
 17375              		.global	RCC_BackupResetCmd
 17376              		.thumb
 17377              		.thumb_func
 17379              	RCC_BackupResetCmd:
 17380              	.LFB54:
1235:../../../SDK_embedded/libs/stm32/STM32F10x_StdPeriph_Driver/stm32f10x_rcc.c ****   }
1236:../../../SDK_embedded/libs/stm32/STM32F10x_StdPeriph_Driver/stm32f10x_rcc.c **** }
1237:../../../SDK_embedded/libs/stm32/STM32F10x_StdPeriph_Driver/stm32f10x_rcc.c **** 
1238:../../../SDK_embedded/libs/stm32/STM32F10x_StdPeriph_Driver/stm32f10x_rcc.c **** /**
1239:../../../SDK_embedded/libs/stm32/STM32F10x_StdPeriph_Driver/stm32f10x_rcc.c ****   * @brief  Forces or releases the Backup domain reset.
1240:../../../SDK_embedded/libs/stm32/STM32F10x_StdPeriph_Driver/stm32f10x_rcc.c ****   * @param  NewState: new state of the Backup domain reset.
1241:../../../SDK_embedded/libs/stm32/STM32F10x_StdPeriph_Driver/stm32f10x_rcc.c ****   *   This parameter can be: ENABLE or DISABLE.
1242:../../../SDK_embedded/libs/stm32/STM32F10x_StdPeriph_Driver/stm32f10x_rcc.c ****   * @retval None
1243:../../../SDK_embedded/libs/stm32/STM32F10x_StdPeriph_Driver/stm32f10x_rcc.c ****   */
1244:../../../SDK_embedded/libs/stm32/STM32F10x_StdPeriph_Driver/stm32f10x_rcc.c **** void RCC_BackupResetCmd(FunctionalState NewState)
1245:../../../SDK_embedded/libs/stm32/STM32F10x_StdPeriph_Driver/stm32f10x_rcc.c **** {
 17381              		.loc 1 1245 0
 17382              		.cfi_startproc
 17383              		@ args = 0, pretend = 0, frame = 0
 17384              		@ frame_needed = 0, uses_anonymous_args = 0
 17385              		@ link register save eliminated.
 17386              	.LVL95:
1246:../../../SDK_embedded/libs/stm32/STM32F10x_StdPeriph_Driver/stm32f10x_rcc.c ****   /* Check the parameters */
1247:../../../SDK_embedded/libs/stm32/STM32F10x_StdPeriph_Driver/stm32f10x_rcc.c ****   assert_param(IS_FUNCTIONAL_STATE(NewState));
1248:../../../SDK_embedded/libs/stm32/STM32F10x_StdPeriph_Driver/stm32f10x_rcc.c ****   *(__IO uint32_t *) BDCR_BDRST_BB = (uint32_t)NewState;
 17387              		.loc 1 1248 0
 17388 0000 014B     		ldr	r3, .L109
 17389 0002 1860     		str	r0, [r3, #0]
1249:../../../SDK_embedded/libs/stm32/STM32F10x_StdPeriph_Driver/stm32f10x_rcc.c **** }
 17390              		.loc 1 1249 0
 17391 0004 7047     		bx	lr
 17392              	.L110:
 17393 0006 00BF     		.align	2
 17394              	.L109:
 17395 0008 40044242 		.word	1111622720
 17396              		.cfi_endproc
 17397              	.LFE54:
 17399              		.section	.text.RCC_ClockSecuritySystemCmd,"ax",%progbits
 17400              		.align	1
 17401              		.global	RCC_ClockSecuritySystemCmd
 17402              		.thumb
 17403              		.thumb_func
 17405              	RCC_ClockSecuritySystemCmd:
 17406              	.LFB55:
1250:../../../SDK_embedded/libs/stm32/STM32F10x_StdPeriph_Driver/stm32f10x_rcc.c **** 
1251:../../../SDK_embedded/libs/stm32/STM32F10x_StdPeriph_Driver/stm32f10x_rcc.c **** /**
1252:../../../SDK_embedded/libs/stm32/STM32F10x_StdPeriph_Driver/stm32f10x_rcc.c ****   * @brief  Enables or disables the Clock Security System.
1253:../../../SDK_embedded/libs/stm32/STM32F10x_StdPeriph_Driver/stm32f10x_rcc.c ****   * @param  NewState: new state of the Clock Security System..
1254:../../../SDK_embedded/libs/stm32/STM32F10x_StdPeriph_Driver/stm32f10x_rcc.c ****   *   This parameter can be: ENABLE or DISABLE.
1255:../../../SDK_embedded/libs/stm32/STM32F10x_StdPeriph_Driver/stm32f10x_rcc.c ****   * @retval None
1256:../../../SDK_embedded/libs/stm32/STM32F10x_StdPeriph_Driver/stm32f10x_rcc.c ****   */
1257:../../../SDK_embedded/libs/stm32/STM32F10x_StdPeriph_Driver/stm32f10x_rcc.c **** void RCC_ClockSecuritySystemCmd(FunctionalState NewState)
1258:../../../SDK_embedded/libs/stm32/STM32F10x_StdPeriph_Driver/stm32f10x_rcc.c **** {
 17407              		.loc 1 1258 0
 17408              		.cfi_startproc
 17409              		@ args = 0, pretend = 0, frame = 0
 17410              		@ frame_needed = 0, uses_anonymous_args = 0
 17411              		@ link register save eliminated.
 17412              	.LVL96:
1259:../../../SDK_embedded/libs/stm32/STM32F10x_StdPeriph_Driver/stm32f10x_rcc.c ****   /* Check the parameters */
1260:../../../SDK_embedded/libs/stm32/STM32F10x_StdPeriph_Driver/stm32f10x_rcc.c ****   assert_param(IS_FUNCTIONAL_STATE(NewState));
1261:../../../SDK_embedded/libs/stm32/STM32F10x_StdPeriph_Driver/stm32f10x_rcc.c ****   *(__IO uint32_t *) CR_CSSON_BB = (uint32_t)NewState;
 17413              		.loc 1 1261 0
 17414 0000 014B     		ldr	r3, .L112
 17415 0002 1860     		str	r0, [r3, #0]
1262:../../../SDK_embedded/libs/stm32/STM32F10x_StdPeriph_Driver/stm32f10x_rcc.c **** }
 17416              		.loc 1 1262 0
 17417 0004 7047     		bx	lr
 17418              	.L113:
 17419 0006 00BF     		.align	2
 17420              	.L112:
 17421 0008 4C004242 		.word	1111621708
 17422              		.cfi_endproc
 17423              	.LFE55:
 17425              		.section	.text.RCC_MCOConfig,"ax",%progbits
 17426              		.align	1
 17427              		.global	RCC_MCOConfig
 17428              		.thumb
 17429              		.thumb_func
 17431              	RCC_MCOConfig:
 17432              	.LFB56:
1263:../../../SDK_embedded/libs/stm32/STM32F10x_StdPeriph_Driver/stm32f10x_rcc.c **** 
1264:../../../SDK_embedded/libs/stm32/STM32F10x_StdPeriph_Driver/stm32f10x_rcc.c **** /**
1265:../../../SDK_embedded/libs/stm32/STM32F10x_StdPeriph_Driver/stm32f10x_rcc.c ****   * @brief  Selects the clock source to output on MCO pin.
1266:../../../SDK_embedded/libs/stm32/STM32F10x_StdPeriph_Driver/stm32f10x_rcc.c ****   * @param  RCC_MCO: specifies the clock source to output.
1267:../../../SDK_embedded/libs/stm32/STM32F10x_StdPeriph_Driver/stm32f10x_rcc.c ****   *   
1268:../../../SDK_embedded/libs/stm32/STM32F10x_StdPeriph_Driver/stm32f10x_rcc.c ****   *   For @b STM32_Connectivity_line_devices, this parameter can be one of the
1269:../../../SDK_embedded/libs/stm32/STM32F10x_StdPeriph_Driver/stm32f10x_rcc.c ****   *   following values:       
1270:../../../SDK_embedded/libs/stm32/STM32F10x_StdPeriph_Driver/stm32f10x_rcc.c ****   *     @arg RCC_MCO_NoClock: No clock selected
1271:../../../SDK_embedded/libs/stm32/STM32F10x_StdPeriph_Driver/stm32f10x_rcc.c ****   *     @arg RCC_MCO_SYSCLK: System clock selected
1272:../../../SDK_embedded/libs/stm32/STM32F10x_StdPeriph_Driver/stm32f10x_rcc.c ****   *     @arg RCC_MCO_HSI: HSI oscillator clock selected
1273:../../../SDK_embedded/libs/stm32/STM32F10x_StdPeriph_Driver/stm32f10x_rcc.c ****   *     @arg RCC_MCO_HSE: HSE oscillator clock selected
1274:../../../SDK_embedded/libs/stm32/STM32F10x_StdPeriph_Driver/stm32f10x_rcc.c ****   *     @arg RCC_MCO_PLLCLK_Div2: PLL clock divided by 2 selected
1275:../../../SDK_embedded/libs/stm32/STM32F10x_StdPeriph_Driver/stm32f10x_rcc.c ****   *     @arg RCC_MCO_PLL2CLK: PLL2 clock selected                     
1276:../../../SDK_embedded/libs/stm32/STM32F10x_StdPeriph_Driver/stm32f10x_rcc.c ****   *     @arg RCC_MCO_PLL3CLK_Div2: PLL3 clock divided by 2 selected   
1277:../../../SDK_embedded/libs/stm32/STM32F10x_StdPeriph_Driver/stm32f10x_rcc.c ****   *     @arg RCC_MCO_XT1: External 3-25 MHz oscillator clock selected  
1278:../../../SDK_embedded/libs/stm32/STM32F10x_StdPeriph_Driver/stm32f10x_rcc.c ****   *     @arg RCC_MCO_PLL3CLK: PLL3 clock selected 
1279:../../../SDK_embedded/libs/stm32/STM32F10x_StdPeriph_Driver/stm32f10x_rcc.c ****   * 
1280:../../../SDK_embedded/libs/stm32/STM32F10x_StdPeriph_Driver/stm32f10x_rcc.c ****   *   For  @b other_STM32_devices, this parameter can be one of the following values:        
1281:../../../SDK_embedded/libs/stm32/STM32F10x_StdPeriph_Driver/stm32f10x_rcc.c ****   *     @arg RCC_MCO_NoClock: No clock selected
1282:../../../SDK_embedded/libs/stm32/STM32F10x_StdPeriph_Driver/stm32f10x_rcc.c ****   *     @arg RCC_MCO_SYSCLK: System clock selected
1283:../../../SDK_embedded/libs/stm32/STM32F10x_StdPeriph_Driver/stm32f10x_rcc.c ****   *     @arg RCC_MCO_HSI: HSI oscillator clock selected
1284:../../../SDK_embedded/libs/stm32/STM32F10x_StdPeriph_Driver/stm32f10x_rcc.c ****   *     @arg RCC_MCO_HSE: HSE oscillator clock selected
1285:../../../SDK_embedded/libs/stm32/STM32F10x_StdPeriph_Driver/stm32f10x_rcc.c ****   *     @arg RCC_MCO_PLLCLK_Div2: PLL clock divided by 2 selected
1286:../../../SDK_embedded/libs/stm32/STM32F10x_StdPeriph_Driver/stm32f10x_rcc.c ****   *   
1287:../../../SDK_embedded/libs/stm32/STM32F10x_StdPeriph_Driver/stm32f10x_rcc.c ****   * @retval None
1288:../../../SDK_embedded/libs/stm32/STM32F10x_StdPeriph_Driver/stm32f10x_rcc.c ****   */
1289:../../../SDK_embedded/libs/stm32/STM32F10x_StdPeriph_Driver/stm32f10x_rcc.c **** void RCC_MCOConfig(uint8_t RCC_MCO)
1290:../../../SDK_embedded/libs/stm32/STM32F10x_StdPeriph_Driver/stm32f10x_rcc.c **** {
 17433              		.loc 1 1290 0
 17434              		.cfi_startproc
 17435              		@ args = 0, pretend = 0, frame = 0
 17436              		@ frame_needed = 0, uses_anonymous_args = 0
 17437              		@ link register save eliminated.
 17438              	.LVL97:
1291:../../../SDK_embedded/libs/stm32/STM32F10x_StdPeriph_Driver/stm32f10x_rcc.c ****   /* Check the parameters */
1292:../../../SDK_embedded/libs/stm32/STM32F10x_StdPeriph_Driver/stm32f10x_rcc.c ****   assert_param(IS_RCC_MCO(RCC_MCO));
1293:../../../SDK_embedded/libs/stm32/STM32F10x_StdPeriph_Driver/stm32f10x_rcc.c **** 
1294:../../../SDK_embedded/libs/stm32/STM32F10x_StdPeriph_Driver/stm32f10x_rcc.c ****   /* Perform Byte access to MCO bits to select the MCO source */
1295:../../../SDK_embedded/libs/stm32/STM32F10x_StdPeriph_Driver/stm32f10x_rcc.c ****   *(__IO uint8_t *) CFGR_BYTE4_ADDRESS = RCC_MCO;
 17439              		.loc 1 1295 0
 17440 0000 014B     		ldr	r3, .L115
 17441 0002 1870     		strb	r0, [r3, #0]
1296:../../../SDK_embedded/libs/stm32/STM32F10x_StdPeriph_Driver/stm32f10x_rcc.c **** }
 17442              		.loc 1 1296 0
 17443 0004 7047     		bx	lr
 17444              	.L116:
 17445 0006 00BF     		.align	2
 17446              	.L115:
 17447 0008 07100240 		.word	1073876999
 17448              		.cfi_endproc
 17449              	.LFE56:
 17451              		.section	.text.RCC_GetFlagStatus,"ax",%progbits
 17452              		.align	1
 17453              		.global	RCC_GetFlagStatus
 17454              		.thumb
 17455              		.thumb_func
 17457              	RCC_GetFlagStatus:
 17458              	.LFB57:
1297:../../../SDK_embedded/libs/stm32/STM32F10x_StdPeriph_Driver/stm32f10x_rcc.c **** 
1298:../../../SDK_embedded/libs/stm32/STM32F10x_StdPeriph_Driver/stm32f10x_rcc.c **** /**
1299:../../../SDK_embedded/libs/stm32/STM32F10x_StdPeriph_Driver/stm32f10x_rcc.c ****   * @brief  Checks whether the specified RCC flag is set or not.
1300:../../../SDK_embedded/libs/stm32/STM32F10x_StdPeriph_Driver/stm32f10x_rcc.c ****   * @param  RCC_FLAG: specifies the flag to check.
1301:../../../SDK_embedded/libs/stm32/STM32F10x_StdPeriph_Driver/stm32f10x_rcc.c ****   *   
1302:../../../SDK_embedded/libs/stm32/STM32F10x_StdPeriph_Driver/stm32f10x_rcc.c ****   *   For @b STM32_Connectivity_line_devices, this parameter can be one of the
1303:../../../SDK_embedded/libs/stm32/STM32F10x_StdPeriph_Driver/stm32f10x_rcc.c ****   *   following values:
1304:../../../SDK_embedded/libs/stm32/STM32F10x_StdPeriph_Driver/stm32f10x_rcc.c ****   *     @arg RCC_FLAG_HSIRDY: HSI oscillator clock ready
1305:../../../SDK_embedded/libs/stm32/STM32F10x_StdPeriph_Driver/stm32f10x_rcc.c ****   *     @arg RCC_FLAG_HSERDY: HSE oscillator clock ready
1306:../../../SDK_embedded/libs/stm32/STM32F10x_StdPeriph_Driver/stm32f10x_rcc.c ****   *     @arg RCC_FLAG_PLLRDY: PLL clock ready
1307:../../../SDK_embedded/libs/stm32/STM32F10x_StdPeriph_Driver/stm32f10x_rcc.c ****   *     @arg RCC_FLAG_PLL2RDY: PLL2 clock ready      
1308:../../../SDK_embedded/libs/stm32/STM32F10x_StdPeriph_Driver/stm32f10x_rcc.c ****   *     @arg RCC_FLAG_PLL3RDY: PLL3 clock ready                           
1309:../../../SDK_embedded/libs/stm32/STM32F10x_StdPeriph_Driver/stm32f10x_rcc.c ****   *     @arg RCC_FLAG_LSERDY: LSE oscillator clock ready
1310:../../../SDK_embedded/libs/stm32/STM32F10x_StdPeriph_Driver/stm32f10x_rcc.c ****   *     @arg RCC_FLAG_LSIRDY: LSI oscillator clock ready
1311:../../../SDK_embedded/libs/stm32/STM32F10x_StdPeriph_Driver/stm32f10x_rcc.c ****   *     @arg RCC_FLAG_PINRST: Pin reset
1312:../../../SDK_embedded/libs/stm32/STM32F10x_StdPeriph_Driver/stm32f10x_rcc.c ****   *     @arg RCC_FLAG_PORRST: POR/PDR reset
1313:../../../SDK_embedded/libs/stm32/STM32F10x_StdPeriph_Driver/stm32f10x_rcc.c ****   *     @arg RCC_FLAG_SFTRST: Software reset
1314:../../../SDK_embedded/libs/stm32/STM32F10x_StdPeriph_Driver/stm32f10x_rcc.c ****   *     @arg RCC_FLAG_IWDGRST: Independent Watchdog reset
1315:../../../SDK_embedded/libs/stm32/STM32F10x_StdPeriph_Driver/stm32f10x_rcc.c ****   *     @arg RCC_FLAG_WWDGRST: Window Watchdog reset
1316:../../../SDK_embedded/libs/stm32/STM32F10x_StdPeriph_Driver/stm32f10x_rcc.c ****   *     @arg RCC_FLAG_LPWRRST: Low Power reset
1317:../../../SDK_embedded/libs/stm32/STM32F10x_StdPeriph_Driver/stm32f10x_rcc.c ****   * 
1318:../../../SDK_embedded/libs/stm32/STM32F10x_StdPeriph_Driver/stm32f10x_rcc.c ****   *   For @b other_STM32_devices, this parameter can be one of the following values:        
1319:../../../SDK_embedded/libs/stm32/STM32F10x_StdPeriph_Driver/stm32f10x_rcc.c ****   *     @arg RCC_FLAG_HSIRDY: HSI oscillator clock ready
1320:../../../SDK_embedded/libs/stm32/STM32F10x_StdPeriph_Driver/stm32f10x_rcc.c ****   *     @arg RCC_FLAG_HSERDY: HSE oscillator clock ready
1321:../../../SDK_embedded/libs/stm32/STM32F10x_StdPeriph_Driver/stm32f10x_rcc.c ****   *     @arg RCC_FLAG_PLLRDY: PLL clock ready
1322:../../../SDK_embedded/libs/stm32/STM32F10x_StdPeriph_Driver/stm32f10x_rcc.c ****   *     @arg RCC_FLAG_LSERDY: LSE oscillator clock ready
1323:../../../SDK_embedded/libs/stm32/STM32F10x_StdPeriph_Driver/stm32f10x_rcc.c ****   *     @arg RCC_FLAG_LSIRDY: LSI oscillator clock ready
1324:../../../SDK_embedded/libs/stm32/STM32F10x_StdPeriph_Driver/stm32f10x_rcc.c ****   *     @arg RCC_FLAG_PINRST: Pin reset
1325:../../../SDK_embedded/libs/stm32/STM32F10x_StdPeriph_Driver/stm32f10x_rcc.c ****   *     @arg RCC_FLAG_PORRST: POR/PDR reset
1326:../../../SDK_embedded/libs/stm32/STM32F10x_StdPeriph_Driver/stm32f10x_rcc.c ****   *     @arg RCC_FLAG_SFTRST: Software reset
1327:../../../SDK_embedded/libs/stm32/STM32F10x_StdPeriph_Driver/stm32f10x_rcc.c ****   *     @arg RCC_FLAG_IWDGRST: Independent Watchdog reset
1328:../../../SDK_embedded/libs/stm32/STM32F10x_StdPeriph_Driver/stm32f10x_rcc.c ****   *     @arg RCC_FLAG_WWDGRST: Window Watchdog reset
1329:../../../SDK_embedded/libs/stm32/STM32F10x_StdPeriph_Driver/stm32f10x_rcc.c ****   *     @arg RCC_FLAG_LPWRRST: Low Power reset
1330:../../../SDK_embedded/libs/stm32/STM32F10x_StdPeriph_Driver/stm32f10x_rcc.c ****   *   
1331:../../../SDK_embedded/libs/stm32/STM32F10x_StdPeriph_Driver/stm32f10x_rcc.c ****   * @retval The new state of RCC_FLAG (SET or RESET).
1332:../../../SDK_embedded/libs/stm32/STM32F10x_StdPeriph_Driver/stm32f10x_rcc.c ****   */
1333:../../../SDK_embedded/libs/stm32/STM32F10x_StdPeriph_Driver/stm32f10x_rcc.c **** FlagStatus RCC_GetFlagStatus(uint8_t RCC_FLAG)
1334:../../../SDK_embedded/libs/stm32/STM32F10x_StdPeriph_Driver/stm32f10x_rcc.c **** {
 17459              		.loc 1 1334 0
 17460              		.cfi_startproc
 17461              		@ args = 0, pretend = 0, frame = 0
 17462              		@ frame_needed = 0, uses_anonymous_args = 0
 17463              		@ link register save eliminated.
 17464              	.LVL98:
1335:../../../SDK_embedded/libs/stm32/STM32F10x_StdPeriph_Driver/stm32f10x_rcc.c ****   uint32_t tmp = 0;
1336:../../../SDK_embedded/libs/stm32/STM32F10x_StdPeriph_Driver/stm32f10x_rcc.c ****   uint32_t statusreg = 0;
1337:../../../SDK_embedded/libs/stm32/STM32F10x_StdPeriph_Driver/stm32f10x_rcc.c ****   FlagStatus bitstatus = RESET;
1338:../../../SDK_embedded/libs/stm32/STM32F10x_StdPeriph_Driver/stm32f10x_rcc.c ****   /* Check the parameters */
1339:../../../SDK_embedded/libs/stm32/STM32F10x_StdPeriph_Driver/stm32f10x_rcc.c ****   assert_param(IS_RCC_FLAG(RCC_FLAG));
1340:../../../SDK_embedded/libs/stm32/STM32F10x_StdPeriph_Driver/stm32f10x_rcc.c **** 
1341:../../../SDK_embedded/libs/stm32/STM32F10x_StdPeriph_Driver/stm32f10x_rcc.c ****   /* Get the RCC register index */
1342:../../../SDK_embedded/libs/stm32/STM32F10x_StdPeriph_Driver/stm32f10x_rcc.c ****   tmp = RCC_FLAG >> 5;
 17465              		.loc 1 1342 0
 17466 0000 4309     		lsrs	r3, r0, #5
 17467              	.LVL99:
 17468 0002 084A     		ldr	r2, .L121
1343:../../../SDK_embedded/libs/stm32/STM32F10x_StdPeriph_Driver/stm32f10x_rcc.c ****   if (tmp == 1)               /* The flag to check is in CR register */
 17469              		.loc 1 1343 0
 17470 0004 012B     		cmp	r3, #1
1344:../../../SDK_embedded/libs/stm32/STM32F10x_StdPeriph_Driver/stm32f10x_rcc.c ****   {
1345:../../../SDK_embedded/libs/stm32/STM32F10x_StdPeriph_Driver/stm32f10x_rcc.c ****     statusreg = RCC->CR;
 17471              		.loc 1 1345 0
 17472 0006 08BF     		it	eq
 17473 0008 1368     		ldreq	r3, [r2, #0]
 17474              	.LVL100:
1343:../../../SDK_embedded/libs/stm32/STM32F10x_StdPeriph_Driver/stm32f10x_rcc.c ****   if (tmp == 1)               /* The flag to check is in CR register */
 17475              		.loc 1 1343 0
 17476 000a 03D0     		beq	.L119
1346:../../../SDK_embedded/libs/stm32/STM32F10x_StdPeriph_Driver/stm32f10x_rcc.c ****   }
1347:../../../SDK_embedded/libs/stm32/STM32F10x_StdPeriph_Driver/stm32f10x_rcc.c ****   else if (tmp == 2)          /* The flag to check is in BDCR register */
 17477              		.loc 1 1347 0
 17478 000c 022B     		cmp	r3, #2
1348:../../../SDK_embedded/libs/stm32/STM32F10x_StdPeriph_Driver/stm32f10x_rcc.c ****   {
1349:../../../SDK_embedded/libs/stm32/STM32F10x_StdPeriph_Driver/stm32f10x_rcc.c ****     statusreg = RCC->BDCR;
 17479              		.loc 1 1349 0
 17480 000e 0CBF     		ite	eq
 17481 0010 136A     		ldreq	r3, [r2, #32]
 17482              	.LVL101:
1350:../../../SDK_embedded/libs/stm32/STM32F10x_StdPeriph_Driver/stm32f10x_rcc.c ****   }
1351:../../../SDK_embedded/libs/stm32/STM32F10x_StdPeriph_Driver/stm32f10x_rcc.c ****   else                       /* The flag to check is in CSR register */
1352:../../../SDK_embedded/libs/stm32/STM32F10x_StdPeriph_Driver/stm32f10x_rcc.c ****   {
1353:../../../SDK_embedded/libs/stm32/STM32F10x_StdPeriph_Driver/stm32f10x_rcc.c ****     statusreg = RCC->CSR;
 17483              		.loc 1 1353 0
 17484 0012 536A     		ldrne	r3, [r2, #36]
 17485              	.LVL102:
 17486              	.L119:
1354:../../../SDK_embedded/libs/stm32/STM32F10x_StdPeriph_Driver/stm32f10x_rcc.c ****   }
1355:../../../SDK_embedded/libs/stm32/STM32F10x_StdPeriph_Driver/stm32f10x_rcc.c **** 
1356:../../../SDK_embedded/libs/stm32/STM32F10x_StdPeriph_Driver/stm32f10x_rcc.c ****   /* Get the flag position */
1357:../../../SDK_embedded/libs/stm32/STM32F10x_StdPeriph_Driver/stm32f10x_rcc.c ****   tmp = RCC_FLAG & FLAG_Mask;
 17487              		.loc 1 1357 0
 17488 0014 00F01F01 		and	r1, r0, #31
1358:../../../SDK_embedded/libs/stm32/STM32F10x_StdPeriph_Driver/stm32f10x_rcc.c ****   if ((statusreg & ((uint32_t)1 << tmp)) != (uint32_t)RESET)
 17489              		.loc 1 1358 0
 17490 0018 33FA01F0 		lsrs	r0, r3, r1
 17491              	.LVL103:
1353:../../../SDK_embedded/libs/stm32/STM32F10x_StdPeriph_Driver/stm32f10x_rcc.c ****     statusreg = RCC->CSR;
 17492              		.loc 1 1353 0
 17493 001c 00F00100 		and	r0, r0, #1
1359:../../../SDK_embedded/libs/stm32/STM32F10x_StdPeriph_Driver/stm32f10x_rcc.c ****   {
1360:../../../SDK_embedded/libs/stm32/STM32F10x_StdPeriph_Driver/stm32f10x_rcc.c ****     bitstatus = SET;
1361:../../../SDK_embedded/libs/stm32/STM32F10x_StdPeriph_Driver/stm32f10x_rcc.c ****   }
1362:../../../SDK_embedded/libs/stm32/STM32F10x_StdPeriph_Driver/stm32f10x_rcc.c ****   else
1363:../../../SDK_embedded/libs/stm32/STM32F10x_StdPeriph_Driver/stm32f10x_rcc.c ****   {
1364:../../../SDK_embedded/libs/stm32/STM32F10x_StdPeriph_Driver/stm32f10x_rcc.c ****     bitstatus = RESET;
1365:../../../SDK_embedded/libs/stm32/STM32F10x_StdPeriph_Driver/stm32f10x_rcc.c ****   }
1366:../../../SDK_embedded/libs/stm32/STM32F10x_StdPeriph_Driver/stm32f10x_rcc.c **** 
1367:../../../SDK_embedded/libs/stm32/STM32F10x_StdPeriph_Driver/stm32f10x_rcc.c ****   /* Return the flag status */
1368:../../../SDK_embedded/libs/stm32/STM32F10x_StdPeriph_Driver/stm32f10x_rcc.c ****   return bitstatus;
1369:../../../SDK_embedded/libs/stm32/STM32F10x_StdPeriph_Driver/stm32f10x_rcc.c **** }
 17494              		.loc 1 1369 0
 17495 0020 7047     		bx	lr
 17496              	.L122:
 17497 0022 00BF     		.align	2
 17498              	.L121:
 17499 0024 00100240 		.word	1073876992
 17500              		.cfi_endproc
 17501              	.LFE57:
 17503              		.section	.text.RCC_WaitForHSEStartUp,"ax",%progbits
 17504              		.align	1
 17505              		.global	RCC_WaitForHSEStartUp
 17506              		.thumb
 17507              		.thumb_func
 17509              	RCC_WaitForHSEStartUp:
 17510              	.LFB31:
 314:../../../SDK_embedded/libs/stm32/STM32F10x_StdPeriph_Driver/stm32f10x_rcc.c **** {
 17511              		.loc 1 314 0
 17512              		.cfi_startproc
 17513              		@ args = 0, pretend = 0, frame = 8
 17514              		@ frame_needed = 0, uses_anonymous_args = 0
 17515 0000 13B5     		push	{r0, r1, r4, lr}
 17516              	.LCFI1:
 17517              		.cfi_def_cfa_offset 16
 17518              		.cfi_offset 14, -4
 17519              		.cfi_offset 4, -8
 17520              		.cfi_offset 1, -12
 17521              		.cfi_offset 0, -16
 315:../../../SDK_embedded/libs/stm32/STM32F10x_StdPeriph_Driver/stm32f10x_rcc.c ****   __IO uint32_t StartUpCounter = 0;
 17522              		.loc 1 315 0
 17523 0002 0023     		movs	r3, #0
 322:../../../SDK_embedded/libs/stm32/STM32F10x_StdPeriph_Driver/stm32f10x_rcc.c ****     HSEStatus = RCC_GetFlagStatus(RCC_FLAG_HSERDY);
 17524              		.loc 1 322 0
 17525 0004 094C     		ldr	r4, .L127
 315:../../../SDK_embedded/libs/stm32/STM32F10x_StdPeriph_Driver/stm32f10x_rcc.c ****   __IO uint32_t StartUpCounter = 0;
 17526              		.loc 1 315 0
 17527 0006 0193     		str	r3, [sp, #4]
 17528              	.LVL104:
 17529              	.L125:
 322:../../../SDK_embedded/libs/stm32/STM32F10x_StdPeriph_Driver/stm32f10x_rcc.c ****     HSEStatus = RCC_GetFlagStatus(RCC_FLAG_HSERDY);
 17530              		.loc 1 322 0 discriminator 1
 17531 0008 3120     		movs	r0, #49
 17532 000a A047     		blx	r4
 17533              	.LVL105:
 323:../../../SDK_embedded/libs/stm32/STM32F10x_StdPeriph_Driver/stm32f10x_rcc.c ****     StartUpCounter++;  
 17534              		.loc 1 323 0 discriminator 1
 17535 000c 019B     		ldr	r3, [sp, #4]
 17536 000e 5A1C     		adds	r2, r3, #1
 17537              	.LVL106:
 17538 0010 0192     		str	r2, [sp, #4]
 17539              	.LVL107:
 324:../../../SDK_embedded/libs/stm32/STM32F10x_StdPeriph_Driver/stm32f10x_rcc.c ****   } while((StartUpCounter != HSEStartUp_TimeOut) && (HSEStatus == RESET));
 17540              		.loc 1 324 0 discriminator 1
 17541 0012 0199     		ldr	r1, [sp, #4]
 17542 0014 B1F5A06F 		cmp	r1, #1280
 17543 0018 01D0     		beq	.L124
 17544 001a 0028     		cmp	r0, #0
 17545 001c F4D0     		beq	.L125
 17546              	.L124:
 326:../../../SDK_embedded/libs/stm32/STM32F10x_StdPeriph_Driver/stm32f10x_rcc.c ****   if (RCC_GetFlagStatus(RCC_FLAG_HSERDY) != RESET)
 17547              		.loc 1 326 0
 17548 001e 3120     		movs	r0, #49
 17549              	.LVL108:
 17550 0020 0249     		ldr	r1, .L127
 17551 0022 8847     		blx	r1
 17552              	.LVL109:
 17553 0024 0030     		adds	r0, r0, #0
 17554 0026 18BF     		it	ne
 17555 0028 0120     		movne	r0, #1
 17556              	.LVL110:
 335:../../../SDK_embedded/libs/stm32/STM32F10x_StdPeriph_Driver/stm32f10x_rcc.c **** }
 17557              		.loc 1 335 0
 17558 002a 1CBD     		pop	{r2, r3, r4, pc}
 17559              	.L128:
 17560              		.align	2
 17561              	.L127:
 17562 002c 00000000 		.word	RCC_GetFlagStatus
 17563              		.cfi_endproc
 17564              	.LFE31:
 17566              		.section	.text.RCC_ClearFlag,"ax",%progbits
 17567              		.align	1
 17568              		.global	RCC_ClearFlag
 17569              		.thumb
 17570              		.thumb_func
 17572              	RCC_ClearFlag:
 17573              	.LFB58:
1370:../../../SDK_embedded/libs/stm32/STM32F10x_StdPeriph_Driver/stm32f10x_rcc.c **** 
1371:../../../SDK_embedded/libs/stm32/STM32F10x_StdPeriph_Driver/stm32f10x_rcc.c **** /**
1372:../../../SDK_embedded/libs/stm32/STM32F10x_StdPeriph_Driver/stm32f10x_rcc.c ****   * @brief  Clears the RCC reset flags.
1373:../../../SDK_embedded/libs/stm32/STM32F10x_StdPeriph_Driver/stm32f10x_rcc.c ****   * @note   The reset flags are: RCC_FLAG_PINRST, RCC_FLAG_PORRST, RCC_FLAG_SFTRST,
1374:../../../SDK_embedded/libs/stm32/STM32F10x_StdPeriph_Driver/stm32f10x_rcc.c ****   *   RCC_FLAG_IWDGRST, RCC_FLAG_WWDGRST, RCC_FLAG_LPWRRST
1375:../../../SDK_embedded/libs/stm32/STM32F10x_StdPeriph_Driver/stm32f10x_rcc.c ****   * @param  None
1376:../../../SDK_embedded/libs/stm32/STM32F10x_StdPeriph_Driver/stm32f10x_rcc.c ****   * @retval None
1377:../../../SDK_embedded/libs/stm32/STM32F10x_StdPeriph_Driver/stm32f10x_rcc.c ****   */
1378:../../../SDK_embedded/libs/stm32/STM32F10x_StdPeriph_Driver/stm32f10x_rcc.c **** void RCC_ClearFlag(void)
1379:../../../SDK_embedded/libs/stm32/STM32F10x_StdPeriph_Driver/stm32f10x_rcc.c **** {
 17574              		.loc 1 1379 0
 17575              		.cfi_startproc
 17576              		@ args = 0, pretend = 0, frame = 0
 17577              		@ frame_needed = 0, uses_anonymous_args = 0
 17578              		@ link register save eliminated.
1380:../../../SDK_embedded/libs/stm32/STM32F10x_StdPeriph_Driver/stm32f10x_rcc.c ****   /* Set RMVF bit to clear the reset flags */
1381:../../../SDK_embedded/libs/stm32/STM32F10x_StdPeriph_Driver/stm32f10x_rcc.c ****   RCC->CSR |= CSR_RMVF_Set;
 17579              		.loc 1 1381 0
 17580 0000 024B     		ldr	r3, .L130
 17581 0002 586A     		ldr	r0, [r3, #36]
 17582 0004 40F08072 		orr	r2, r0, #16777216
 17583 0008 5A62     		str	r2, [r3, #36]
1382:../../../SDK_embedded/libs/stm32/STM32F10x_StdPeriph_Driver/stm32f10x_rcc.c **** }
 17584              		.loc 1 1382 0
 17585 000a 7047     		bx	lr
 17586              	.L131:
 17587              		.align	2
 17588              	.L130:
 17589 000c 00100240 		.word	1073876992
 17590              		.cfi_endproc
 17591              	.LFE58:
 17593              		.section	.text.RCC_GetITStatus,"ax",%progbits
 17594              		.align	1
 17595              		.global	RCC_GetITStatus
 17596              		.thumb
 17597              		.thumb_func
 17599              	RCC_GetITStatus:
 17600              	.LFB59:
1383:../../../SDK_embedded/libs/stm32/STM32F10x_StdPeriph_Driver/stm32f10x_rcc.c **** 
1384:../../../SDK_embedded/libs/stm32/STM32F10x_StdPeriph_Driver/stm32f10x_rcc.c **** /**
1385:../../../SDK_embedded/libs/stm32/STM32F10x_StdPeriph_Driver/stm32f10x_rcc.c ****   * @brief  Checks whether the specified RCC interrupt has occurred or not.
1386:../../../SDK_embedded/libs/stm32/STM32F10x_StdPeriph_Driver/stm32f10x_rcc.c ****   * @param  RCC_IT: specifies the RCC interrupt source to check.
1387:../../../SDK_embedded/libs/stm32/STM32F10x_StdPeriph_Driver/stm32f10x_rcc.c ****   *   
1388:../../../SDK_embedded/libs/stm32/STM32F10x_StdPeriph_Driver/stm32f10x_rcc.c ****   *   For @b STM32_Connectivity_line_devices, this parameter can be one of the
1389:../../../SDK_embedded/libs/stm32/STM32F10x_StdPeriph_Driver/stm32f10x_rcc.c ****   *   following values:
1390:../../../SDK_embedded/libs/stm32/STM32F10x_StdPeriph_Driver/stm32f10x_rcc.c ****   *     @arg RCC_IT_LSIRDY: LSI ready interrupt
1391:../../../SDK_embedded/libs/stm32/STM32F10x_StdPeriph_Driver/stm32f10x_rcc.c ****   *     @arg RCC_IT_LSERDY: LSE ready interrupt
1392:../../../SDK_embedded/libs/stm32/STM32F10x_StdPeriph_Driver/stm32f10x_rcc.c ****   *     @arg RCC_IT_HSIRDY: HSI ready interrupt
1393:../../../SDK_embedded/libs/stm32/STM32F10x_StdPeriph_Driver/stm32f10x_rcc.c ****   *     @arg RCC_IT_HSERDY: HSE ready interrupt
1394:../../../SDK_embedded/libs/stm32/STM32F10x_StdPeriph_Driver/stm32f10x_rcc.c ****   *     @arg RCC_IT_PLLRDY: PLL ready interrupt
1395:../../../SDK_embedded/libs/stm32/STM32F10x_StdPeriph_Driver/stm32f10x_rcc.c ****   *     @arg RCC_IT_PLL2RDY: PLL2 ready interrupt 
1396:../../../SDK_embedded/libs/stm32/STM32F10x_StdPeriph_Driver/stm32f10x_rcc.c ****   *     @arg RCC_IT_PLL3RDY: PLL3 ready interrupt                      
1397:../../../SDK_embedded/libs/stm32/STM32F10x_StdPeriph_Driver/stm32f10x_rcc.c ****   *     @arg RCC_IT_CSS: Clock Security System interrupt
1398:../../../SDK_embedded/libs/stm32/STM32F10x_StdPeriph_Driver/stm32f10x_rcc.c ****   * 
1399:../../../SDK_embedded/libs/stm32/STM32F10x_StdPeriph_Driver/stm32f10x_rcc.c ****   *   For @b other_STM32_devices, this parameter can be one of the following values:        
1400:../../../SDK_embedded/libs/stm32/STM32F10x_StdPeriph_Driver/stm32f10x_rcc.c ****   *     @arg RCC_IT_LSIRDY: LSI ready interrupt
1401:../../../SDK_embedded/libs/stm32/STM32F10x_StdPeriph_Driver/stm32f10x_rcc.c ****   *     @arg RCC_IT_LSERDY: LSE ready interrupt
1402:../../../SDK_embedded/libs/stm32/STM32F10x_StdPeriph_Driver/stm32f10x_rcc.c ****   *     @arg RCC_IT_HSIRDY: HSI ready interrupt
1403:../../../SDK_embedded/libs/stm32/STM32F10x_StdPeriph_Driver/stm32f10x_rcc.c ****   *     @arg RCC_IT_HSERDY: HSE ready interrupt
1404:../../../SDK_embedded/libs/stm32/STM32F10x_StdPeriph_Driver/stm32f10x_rcc.c ****   *     @arg RCC_IT_PLLRDY: PLL ready interrupt
1405:../../../SDK_embedded/libs/stm32/STM32F10x_StdPeriph_Driver/stm32f10x_rcc.c ****   *     @arg RCC_IT_CSS: Clock Security System interrupt
1406:../../../SDK_embedded/libs/stm32/STM32F10x_StdPeriph_Driver/stm32f10x_rcc.c ****   *   
1407:../../../SDK_embedded/libs/stm32/STM32F10x_StdPeriph_Driver/stm32f10x_rcc.c ****   * @retval The new state of RCC_IT (SET or RESET).
1408:../../../SDK_embedded/libs/stm32/STM32F10x_StdPeriph_Driver/stm32f10x_rcc.c ****   */
1409:../../../SDK_embedded/libs/stm32/STM32F10x_StdPeriph_Driver/stm32f10x_rcc.c **** ITStatus RCC_GetITStatus(uint8_t RCC_IT)
1410:../../../SDK_embedded/libs/stm32/STM32F10x_StdPeriph_Driver/stm32f10x_rcc.c **** {
 17601              		.loc 1 1410 0
 17602              		.cfi_startproc
 17603              		@ args = 0, pretend = 0, frame = 0
 17604              		@ frame_needed = 0, uses_anonymous_args = 0
 17605              		@ link register save eliminated.
 17606              	.LVL111:
1411:../../../SDK_embedded/libs/stm32/STM32F10x_StdPeriph_Driver/stm32f10x_rcc.c ****   ITStatus bitstatus = RESET;
1412:../../../SDK_embedded/libs/stm32/STM32F10x_StdPeriph_Driver/stm32f10x_rcc.c ****   /* Check the parameters */
1413:../../../SDK_embedded/libs/stm32/STM32F10x_StdPeriph_Driver/stm32f10x_rcc.c ****   assert_param(IS_RCC_GET_IT(RCC_IT));
1414:../../../SDK_embedded/libs/stm32/STM32F10x_StdPeriph_Driver/stm32f10x_rcc.c **** 
1415:../../../SDK_embedded/libs/stm32/STM32F10x_StdPeriph_Driver/stm32f10x_rcc.c ****   /* Check the status of the specified RCC interrupt */
1416:../../../SDK_embedded/libs/stm32/STM32F10x_StdPeriph_Driver/stm32f10x_rcc.c ****   if ((RCC->CIR & RCC_IT) != (uint32_t)RESET)
 17607              		.loc 1 1416 0
 17608 0000 0349     		ldr	r1, .L133
 17609 0002 8B68     		ldr	r3, [r1, #8]
 17610              	.LVL112:
1417:../../../SDK_embedded/libs/stm32/STM32F10x_StdPeriph_Driver/stm32f10x_rcc.c ****   {
1418:../../../SDK_embedded/libs/stm32/STM32F10x_StdPeriph_Driver/stm32f10x_rcc.c ****     bitstatus = SET;
 17611              		.loc 1 1418 0
 17612 0004 1842     		tst	r0, r3
1416:../../../SDK_embedded/libs/stm32/STM32F10x_StdPeriph_Driver/stm32f10x_rcc.c ****   if ((RCC->CIR & RCC_IT) != (uint32_t)RESET)
 17613              		.loc 1 1416 0
 17614 0006 0CBF     		ite	eq
 17615 0008 0020     		moveq	r0, #0
 17616 000a 0120     		movne	r0, #1
 17617              	.LVL113:
1419:../../../SDK_embedded/libs/stm32/STM32F10x_StdPeriph_Driver/stm32f10x_rcc.c ****   }
1420:../../../SDK_embedded/libs/stm32/STM32F10x_StdPeriph_Driver/stm32f10x_rcc.c ****   else
1421:../../../SDK_embedded/libs/stm32/STM32F10x_StdPeriph_Driver/stm32f10x_rcc.c ****   {
1422:../../../SDK_embedded/libs/stm32/STM32F10x_StdPeriph_Driver/stm32f10x_rcc.c ****     bitstatus = RESET;
1423:../../../SDK_embedded/libs/stm32/STM32F10x_StdPeriph_Driver/stm32f10x_rcc.c ****   }
1424:../../../SDK_embedded/libs/stm32/STM32F10x_StdPeriph_Driver/stm32f10x_rcc.c **** 
1425:../../../SDK_embedded/libs/stm32/STM32F10x_StdPeriph_Driver/stm32f10x_rcc.c ****   /* Return the RCC_IT status */
1426:../../../SDK_embedded/libs/stm32/STM32F10x_StdPeriph_Driver/stm32f10x_rcc.c ****   return  bitstatus;
1427:../../../SDK_embedded/libs/stm32/STM32F10x_StdPeriph_Driver/stm32f10x_rcc.c **** }
 17618              		.loc 1 1427 0
 17619 000c 7047     		bx	lr
 17620              	.L134:
 17621 000e 00BF     		.align	2
 17622              	.L133:
 17623 0010 00100240 		.word	1073876992
 17624              		.cfi_endproc
 17625              	.LFE59:
 17627              		.section	.text.RCC_ClearITPendingBit,"ax",%progbits
 17628              		.align	1
 17629              		.global	RCC_ClearITPendingBit
 17630              		.thumb
 17631              		.thumb_func
 17633              	RCC_ClearITPendingBit:
 17634              	.LFB60:
1428:../../../SDK_embedded/libs/stm32/STM32F10x_StdPeriph_Driver/stm32f10x_rcc.c **** 
1429:../../../SDK_embedded/libs/stm32/STM32F10x_StdPeriph_Driver/stm32f10x_rcc.c **** /**
1430:../../../SDK_embedded/libs/stm32/STM32F10x_StdPeriph_Driver/stm32f10x_rcc.c ****   * @brief  Clears the RCCs interrupt pending bits.
1431:../../../SDK_embedded/libs/stm32/STM32F10x_StdPeriph_Driver/stm32f10x_rcc.c ****   * @param  RCC_IT: specifies the interrupt pending bit to clear.
1432:../../../SDK_embedded/libs/stm32/STM32F10x_StdPeriph_Driver/stm32f10x_rcc.c ****   *   
1433:../../../SDK_embedded/libs/stm32/STM32F10x_StdPeriph_Driver/stm32f10x_rcc.c ****   *   For @b STM32_Connectivity_line_devices, this parameter can be any combination
1434:../../../SDK_embedded/libs/stm32/STM32F10x_StdPeriph_Driver/stm32f10x_rcc.c ****   *   of the following values:
1435:../../../SDK_embedded/libs/stm32/STM32F10x_StdPeriph_Driver/stm32f10x_rcc.c ****   *     @arg RCC_IT_LSIRDY: LSI ready interrupt
1436:../../../SDK_embedded/libs/stm32/STM32F10x_StdPeriph_Driver/stm32f10x_rcc.c ****   *     @arg RCC_IT_LSERDY: LSE ready interrupt
1437:../../../SDK_embedded/libs/stm32/STM32F10x_StdPeriph_Driver/stm32f10x_rcc.c ****   *     @arg RCC_IT_HSIRDY: HSI ready interrupt
1438:../../../SDK_embedded/libs/stm32/STM32F10x_StdPeriph_Driver/stm32f10x_rcc.c ****   *     @arg RCC_IT_HSERDY: HSE ready interrupt
1439:../../../SDK_embedded/libs/stm32/STM32F10x_StdPeriph_Driver/stm32f10x_rcc.c ****   *     @arg RCC_IT_PLLRDY: PLL ready interrupt
1440:../../../SDK_embedded/libs/stm32/STM32F10x_StdPeriph_Driver/stm32f10x_rcc.c ****   *     @arg RCC_IT_PLL2RDY: PLL2 ready interrupt 
1441:../../../SDK_embedded/libs/stm32/STM32F10x_StdPeriph_Driver/stm32f10x_rcc.c ****   *     @arg RCC_IT_PLL3RDY: PLL3 ready interrupt                      
1442:../../../SDK_embedded/libs/stm32/STM32F10x_StdPeriph_Driver/stm32f10x_rcc.c ****   *     @arg RCC_IT_CSS: Clock Security System interrupt
1443:../../../SDK_embedded/libs/stm32/STM32F10x_StdPeriph_Driver/stm32f10x_rcc.c ****   * 
1444:../../../SDK_embedded/libs/stm32/STM32F10x_StdPeriph_Driver/stm32f10x_rcc.c ****   *   For @b other_STM32_devices, this parameter can be any combination of the
1445:../../../SDK_embedded/libs/stm32/STM32F10x_StdPeriph_Driver/stm32f10x_rcc.c ****   *   following values:        
1446:../../../SDK_embedded/libs/stm32/STM32F10x_StdPeriph_Driver/stm32f10x_rcc.c ****   *     @arg RCC_IT_LSIRDY: LSI ready interrupt
1447:../../../SDK_embedded/libs/stm32/STM32F10x_StdPeriph_Driver/stm32f10x_rcc.c ****   *     @arg RCC_IT_LSERDY: LSE ready interrupt
1448:../../../SDK_embedded/libs/stm32/STM32F10x_StdPeriph_Driver/stm32f10x_rcc.c ****   *     @arg RCC_IT_HSIRDY: HSI ready interrupt
1449:../../../SDK_embedded/libs/stm32/STM32F10x_StdPeriph_Driver/stm32f10x_rcc.c ****   *     @arg RCC_IT_HSERDY: HSE ready interrupt
1450:../../../SDK_embedded/libs/stm32/STM32F10x_StdPeriph_Driver/stm32f10x_rcc.c ****   *     @arg RCC_IT_PLLRDY: PLL ready interrupt
1451:../../../SDK_embedded/libs/stm32/STM32F10x_StdPeriph_Driver/stm32f10x_rcc.c ****   *   
1452:../../../SDK_embedded/libs/stm32/STM32F10x_StdPeriph_Driver/stm32f10x_rcc.c ****   *     @arg RCC_IT_CSS: Clock Security System interrupt
1453:../../../SDK_embedded/libs/stm32/STM32F10x_StdPeriph_Driver/stm32f10x_rcc.c ****   * @retval None
1454:../../../SDK_embedded/libs/stm32/STM32F10x_StdPeriph_Driver/stm32f10x_rcc.c ****   */
1455:../../../SDK_embedded/libs/stm32/STM32F10x_StdPeriph_Driver/stm32f10x_rcc.c **** void RCC_ClearITPendingBit(uint8_t RCC_IT)
1456:../../../SDK_embedded/libs/stm32/STM32F10x_StdPeriph_Driver/stm32f10x_rcc.c **** {
 17635              		.loc 1 1456 0
 17636              		.cfi_startproc
 17637              		@ args = 0, pretend = 0, frame = 0
 17638              		@ frame_needed = 0, uses_anonymous_args = 0
 17639              		@ link register save eliminated.
 17640              	.LVL114:
1457:../../../SDK_embedded/libs/stm32/STM32F10x_StdPeriph_Driver/stm32f10x_rcc.c ****   /* Check the parameters */
1458:../../../SDK_embedded/libs/stm32/STM32F10x_StdPeriph_Driver/stm32f10x_rcc.c ****   assert_param(IS_RCC_CLEAR_IT(RCC_IT));
1459:../../../SDK_embedded/libs/stm32/STM32F10x_StdPeriph_Driver/stm32f10x_rcc.c **** 
1460:../../../SDK_embedded/libs/stm32/STM32F10x_StdPeriph_Driver/stm32f10x_rcc.c ****   /* Perform Byte access to RCC_CIR[23:16] bits to clear the selected interrupt
1461:../../../SDK_embedded/libs/stm32/STM32F10x_StdPeriph_Driver/stm32f10x_rcc.c ****      pending bits */
1462:../../../SDK_embedded/libs/stm32/STM32F10x_StdPeriph_Driver/stm32f10x_rcc.c ****   *(__IO uint8_t *) CIR_BYTE3_ADDRESS = RCC_IT;
 17641              		.loc 1 1462 0
 17642 0000 014B     		ldr	r3, .L136
 17643 0002 1870     		strb	r0, [r3, #0]
1463:../../../SDK_embedded/libs/stm32/STM32F10x_StdPeriph_Driver/stm32f10x_rcc.c **** }
 17644              		.loc 1 1463 0
 17645 0004 7047     		bx	lr
 17646              	.L137:
 17647 0006 00BF     		.align	2
 17648              	.L136:
 17649 0008 0A100240 		.word	1073877002
 17650              		.cfi_endproc
 17651              	.LFE60:
 17653              		.section	.data.ADCPrescTable,"aw",%progbits
 17654              		.set	.LANCHOR1,. + 0
 17657              	ADCPrescTable:
 17658 0000 02       		.byte	2
 17659 0001 04       		.byte	4
 17660 0002 06       		.byte	6
 17661 0003 08       		.byte	8
 17662              		.section	.data.APBAHBPrescTable,"aw",%progbits
 17663              		.set	.LANCHOR0,. + 0
 17666              	APBAHBPrescTable:
 17667 0000 00       		.byte	0
 17668 0001 00       		.byte	0
 17669 0002 00       		.byte	0
 17670 0003 00       		.byte	0
 17671 0004 01       		.byte	1
 17672 0005 02       		.byte	2
 17673 0006 03       		.byte	3
 17674 0007 04       		.byte	4
 17675 0008 01       		.byte	1
 17676 0009 02       		.byte	2
 17677 000a 03       		.byte	3
 17678 000b 04       		.byte	4
 17679 000c 06       		.byte	6
 17680 000d 07       		.byte	7
 17681 000e 08       		.byte	8
 17682 000f 09       		.byte	9
 17683              		.text
 17684              	.Letext0: