Archive member included because of file (symbol)

./../../lib/libuip-1.0.a(uip_handler.o)
                              main.o (uip_handler_recv)
./../../lib/libuip-1.0.a(uip_timer.o)
                              ./../../lib/libuip-1.0.a(uip_handler.o) (timer_reset)
./../../lib/libuip-1.0.a(dhcpc.o)
                              ./../../lib/libuip-1.0.a(uip_handler.o) (dhcpc_init)
./../../lib/libuip-1.0.a(httpd.o)
                              ./../../lib/libuip-1.0.a(uip_handler.o) (httpd_appcall)
./../../lib/libuip-1.0.a(httpd-cgi.o)
                              ./../../lib/libuip-1.0.a(httpd.o) (httpd_cgi)
./../../lib/libuip-1.0.a(httpd-fs.o)
                              ./../../lib/libuip-1.0.a(httpd.o) (httpd_fs_open)
./../../lib/libuip-1.0.a(http-strings.o)
                              ./../../lib/libuip-1.0.a(httpd.o) (http_get)
./../../lib/libuip-1.0.a(psock.o)
                              ./../../lib/libuip-1.0.a(httpd.o) (psock_send)
./../../lib/libuip-1.0.a(sntp.o)
                              ./../../lib/libuip-1.0.a(uip_handler.o) (sntpSync)
./../../lib/libuip-1.0.a(telnetd.o)
                              ./../../lib/libuip-1.0.a(uip_handler.o) (telnetd_init)
./../../lib/libuip-1.0.a(uip_arp.o)
                              ./../../lib/libuip-1.0.a(uip_handler.o) (uip_arp_init)
./../../lib/libuip-1.0.a(uip.o)
                              ./../../lib/libuip-1.0.a(uip_handler.o) (uip_conn)
./../../lib/libuip-1.0.a(memb.o)
                              ./../../lib/libuip-1.0.a(telnetd.o) (memb_init)
./../../lib/libuip-1.0.a(shell.o)
                              ./../../lib/libuip-1.0.a(telnetd.o) (shell_init)
./../../lib/libuip-1.0.a(uip_arch.o)
                              ./../../lib/libuip-1.0.a(uip.o) (uip_add32)
./../../lib/libethernet.a(stm32_eth.o)
                              sys_init.o (ETH_DeInit)
./../../lib/libfreertos-6.0.2.a(port.o)
                              crt.o (vPortSVCHandler)
./../../lib/libfreertos-6.0.2.a(queue.o)
                              main.o (xQueueCreate)
./../../lib/libfreertos-6.0.2.a(tasks.o)
                              main.o (xTaskGenericCreate)
./../../lib/libfreertos-6.0.2.a(list.o)
                              ./../../lib/libfreertos-6.0.2.a(queue.o) (vListInitialise)
./../../lib/libfreertos-6.0.2.a(mmgr.o)
                              ./../../lib/libfreertos-6.0.2.a(queue.o) (pvPortMalloc)
./../../lib/libhardware.a(misc.o)
                              can_test.o (NVIC_PriorityGroupConfig)
./../../lib/libhardware.a(stm32f10x_can.o)
                              can_test.o (CAN_DeInit)
./../../lib/libhardware.a(stm32f10x_flash.o)
                              sys_init.o (FLASH_SetLatency)
./../../lib/libhardware.a(stm32f10x_gpio.o)
                              can_test.o (GPIO_Init)
./../../lib/libhardware.a(stm32f10x_rcc.o)
                              sys_init.o (RCC_DeInit)
./../../lib/libhardware.a(stm32f10x_tim.o)
                              timer.o (TIM_DeInit)
./../../lib/libcmsis.a(system_stm32f10x.o)
                              sys_init.o (SystemInit)
/opt/kgp_arm_eabi/lib/gcc/arm-kgp-eabi/4.5.0/../../../../arm-kgp-eabi/lib/thumb/cortex-m3/libc.a(lib_a-atoi.o)
                              ./../../lib/libuip-1.0.a(shell.o) (atoi)
/opt/kgp_arm_eabi/lib/gcc/arm-kgp-eabi/4.5.0/../../../../arm-kgp-eabi/lib/thumb/cortex-m3/libc.a(lib_a-memcmp.o)
                              ./../../lib/libuip-1.0.a(dhcpc.o) (memcmp)
/opt/kgp_arm_eabi/lib/gcc/arm-kgp-eabi/4.5.0/../../../../arm-kgp-eabi/lib/thumb/cortex-m3/libc.a(lib_a-memcpy.o)
                              ./../../lib/libuip-1.0.a(dhcpc.o) (memcpy)
/opt/kgp_arm_eabi/lib/gcc/arm-kgp-eabi/4.5.0/../../../../arm-kgp-eabi/lib/thumb/cortex-m3/libc.a(lib_a-memset.o)
                              ./../../lib/libuip-1.0.a(dhcpc.o) (memset)
/opt/kgp_arm_eabi/lib/gcc/arm-kgp-eabi/4.5.0/../../../../arm-kgp-eabi/lib/thumb/cortex-m3/libc.a(lib_a-printf.o)
                              ./../../lib/libuip-1.0.a(uip.o) (printf)
/opt/kgp_arm_eabi/lib/gcc/arm-kgp-eabi/4.5.0/../../../../arm-kgp-eabi/lib/thumb/cortex-m3/libc.a(lib_a-snprintf.o)
                              ./../../lib/libuip-1.0.a(httpd-cgi.o) (snprintf)
/opt/kgp_arm_eabi/lib/gcc/arm-kgp-eabi/4.5.0/../../../../arm-kgp-eabi/lib/thumb/cortex-m3/libc.a(lib_a-sprintf.o)
                              ./../../lib/libuip-1.0.a(shell.o) (sprintf)
/opt/kgp_arm_eabi/lib/gcc/arm-kgp-eabi/4.5.0/../../../../arm-kgp-eabi/lib/thumb/cortex-m3/libc.a(lib_a-strcat.o)
                              ./../../lib/libfreertos-6.0.2.a(tasks.o) (strcat)
/opt/kgp_arm_eabi/lib/gcc/arm-kgp-eabi/4.5.0/../../../../arm-kgp-eabi/lib/thumb/cortex-m3/libc.a(lib_a-strchr.o)
                              ./../../lib/libuip-1.0.a(httpd.o) (strchr)
/opt/kgp_arm_eabi/lib/gcc/arm-kgp-eabi/4.5.0/../../../../arm-kgp-eabi/lib/thumb/cortex-m3/libc.a(lib_a-strcpy.o)
                              ./../../lib/libuip-1.0.a(httpd.o) (strcpy)
/opt/kgp_arm_eabi/lib/gcc/arm-kgp-eabi/4.5.0/../../../../arm-kgp-eabi/lib/thumb/cortex-m3/libc.a(lib_a-strlen.o)
                              ./../../lib/libuip-1.0.a(httpd.o) (strlen)
/opt/kgp_arm_eabi/lib/gcc/arm-kgp-eabi/4.5.0/../../../../arm-kgp-eabi/lib/thumb/cortex-m3/libc.a(lib_a-strncmp.o)
                              ./../../lib/libuip-1.0.a(httpd.o) (strncmp)
/opt/kgp_arm_eabi/lib/gcc/arm-kgp-eabi/4.5.0/../../../../arm-kgp-eabi/lib/thumb/cortex-m3/libc.a(lib_a-strncpy.o)
                              ./../../lib/libuip-1.0.a(httpd.o) (strncpy)
/opt/kgp_arm_eabi/lib/gcc/arm-kgp-eabi/4.5.0/../../../../arm-kgp-eabi/lib/thumb/cortex-m3/libc.a(lib_a-strrchr.o)
                              ./../../lib/libuip-1.0.a(httpd.o) (strrchr)
/opt/kgp_arm_eabi/lib/gcc/arm-kgp-eabi/4.5.0/../../../../arm-kgp-eabi/lib/thumb/cortex-m3/libc.a(lib_a-strtol.o)
                              /opt/kgp_arm_eabi/lib/gcc/arm-kgp-eabi/4.5.0/../../../../arm-kgp-eabi/lib/thumb/cortex-m3/libc.a(lib_a-atoi.o) (_strtol_r)
/opt/kgp_arm_eabi/lib/gcc/arm-kgp-eabi/4.5.0/../../../../arm-kgp-eabi/lib/thumb/cortex-m3/libc.a(lib_a-svfprintf.o)
                              /opt/kgp_arm_eabi/lib/gcc/arm-kgp-eabi/4.5.0/../../../../arm-kgp-eabi/lib/thumb/cortex-m3/libc.a(lib_a-snprintf.o) (_svfprintf_r)
/opt/kgp_arm_eabi/lib/gcc/arm-kgp-eabi/4.5.0/../../../../arm-kgp-eabi/lib/thumb/cortex-m3/libc.a(lib_a-vfprintf.o)
                              /opt/kgp_arm_eabi/lib/gcc/arm-kgp-eabi/4.5.0/../../../../arm-kgp-eabi/lib/thumb/cortex-m3/libc.a(lib_a-printf.o) (_vfprintf_r)
/opt/kgp_arm_eabi/lib/gcc/arm-kgp-eabi/4.5.0/../../../../arm-kgp-eabi/lib/thumb/cortex-m3/libc.a(lib_a-wsetup.o)
                              /opt/kgp_arm_eabi/lib/gcc/arm-kgp-eabi/4.5.0/../../../../arm-kgp-eabi/lib/thumb/cortex-m3/libc.a(lib_a-vfprintf.o) (__swsetup_r)
/opt/kgp_arm_eabi/lib/gcc/arm-kgp-eabi/4.5.0/../../../../arm-kgp-eabi/lib/thumb/cortex-m3/libc.a(lib_a-ctype_.o)
                              /opt/kgp_arm_eabi/lib/gcc/arm-kgp-eabi/4.5.0/../../../../arm-kgp-eabi/lib/thumb/cortex-m3/libc.a(lib_a-strtol.o) (__ctype_ptr__)
/opt/kgp_arm_eabi/lib/gcc/arm-kgp-eabi/4.5.0/../../../../arm-kgp-eabi/lib/thumb/cortex-m3/libc.a(lib_a-dtoa.o)
                              /opt/kgp_arm_eabi/lib/gcc/arm-kgp-eabi/4.5.0/../../../../arm-kgp-eabi/lib/thumb/cortex-m3/libc.a(lib_a-svfprintf.o) (_dtoa_r)
/opt/kgp_arm_eabi/lib/gcc/arm-kgp-eabi/4.5.0/../../../../arm-kgp-eabi/lib/thumb/cortex-m3/libc.a(lib_a-fflush.o)
                              /opt/kgp_arm_eabi/lib/gcc/arm-kgp-eabi/4.5.0/../../../../arm-kgp-eabi/lib/thumb/cortex-m3/libc.a(lib_a-vfprintf.o) (_fflush_r)
/opt/kgp_arm_eabi/lib/gcc/arm-kgp-eabi/4.5.0/../../../../arm-kgp-eabi/lib/thumb/cortex-m3/libc.a(lib_a-findfp.o)
                              /opt/kgp_arm_eabi/lib/gcc/arm-kgp-eabi/4.5.0/../../../../arm-kgp-eabi/lib/thumb/cortex-m3/libc.a(lib_a-vfprintf.o) (__sinit)
/opt/kgp_arm_eabi/lib/gcc/arm-kgp-eabi/4.5.0/../../../../arm-kgp-eabi/lib/thumb/cortex-m3/libc.a(lib_a-freer.o)
                              /opt/kgp_arm_eabi/lib/gcc/arm-kgp-eabi/4.5.0/../../../../arm-kgp-eabi/lib/thumb/cortex-m3/libc.a(lib_a-wsetup.o) (_free_r)
/opt/kgp_arm_eabi/lib/gcc/arm-kgp-eabi/4.5.0/../../../../arm-kgp-eabi/lib/thumb/cortex-m3/libc.a(lib_a-fwalk.o)
                              /opt/kgp_arm_eabi/lib/gcc/arm-kgp-eabi/4.5.0/../../../../arm-kgp-eabi/lib/thumb/cortex-m3/libc.a(lib_a-findfp.o) (_fwalk)
/opt/kgp_arm_eabi/lib/gcc/arm-kgp-eabi/4.5.0/../../../../arm-kgp-eabi/lib/thumb/cortex-m3/libc.a(lib_a-impure.o)
                              /opt/kgp_arm_eabi/lib/gcc/arm-kgp-eabi/4.5.0/../../../../arm-kgp-eabi/lib/thumb/cortex-m3/libc.a(lib_a-printf.o) (_impure_ptr)
/opt/kgp_arm_eabi/lib/gcc/arm-kgp-eabi/4.5.0/../../../../arm-kgp-eabi/lib/thumb/cortex-m3/libc.a(lib_a-locale.o)
                              /opt/kgp_arm_eabi/lib/gcc/arm-kgp-eabi/4.5.0/../../../../arm-kgp-eabi/lib/thumb/cortex-m3/libc.a(lib_a-svfprintf.o) (_localeconv_r)
/opt/kgp_arm_eabi/lib/gcc/arm-kgp-eabi/4.5.0/../../../../arm-kgp-eabi/lib/thumb/cortex-m3/libc.a(lib_a-makebuf.o)
                              /opt/kgp_arm_eabi/lib/gcc/arm-kgp-eabi/4.5.0/../../../../arm-kgp-eabi/lib/thumb/cortex-m3/libc.a(lib_a-wsetup.o) (__smakebuf_r)
/opt/kgp_arm_eabi/lib/gcc/arm-kgp-eabi/4.5.0/../../../../arm-kgp-eabi/lib/thumb/cortex-m3/libc.a(lib_a-mallocr.o)
                              /opt/kgp_arm_eabi/lib/gcc/arm-kgp-eabi/4.5.0/../../../../arm-kgp-eabi/lib/thumb/cortex-m3/libc.a(lib_a-svfprintf.o) (_malloc_r)
/opt/kgp_arm_eabi/lib/gcc/arm-kgp-eabi/4.5.0/../../../../arm-kgp-eabi/lib/thumb/cortex-m3/libc.a(lib_a-memchr.o)
                              /opt/kgp_arm_eabi/lib/gcc/arm-kgp-eabi/4.5.0/../../../../arm-kgp-eabi/lib/thumb/cortex-m3/libc.a(lib_a-svfprintf.o) (memchr)
/opt/kgp_arm_eabi/lib/gcc/arm-kgp-eabi/4.5.0/../../../../arm-kgp-eabi/lib/thumb/cortex-m3/libc.a(lib_a-mlock.o)
                              /opt/kgp_arm_eabi/lib/gcc/arm-kgp-eabi/4.5.0/../../../../arm-kgp-eabi/lib/thumb/cortex-m3/libc.a(lib_a-freer.o) (__malloc_lock)
/opt/kgp_arm_eabi/lib/gcc/arm-kgp-eabi/4.5.0/../../../../arm-kgp-eabi/lib/thumb/cortex-m3/libc.a(lib_a-mprec.o)
                              /opt/kgp_arm_eabi/lib/gcc/arm-kgp-eabi/4.5.0/../../../../arm-kgp-eabi/lib/thumb/cortex-m3/libc.a(lib_a-dtoa.o) (_Balloc)
/opt/kgp_arm_eabi/lib/gcc/arm-kgp-eabi/4.5.0/../../../../arm-kgp-eabi/lib/thumb/cortex-m3/libc.a(lib_a-s_fpclassify.o)
                              /opt/kgp_arm_eabi/lib/gcc/arm-kgp-eabi/4.5.0/../../../../arm-kgp-eabi/lib/thumb/cortex-m3/libc.a(lib_a-svfprintf.o) (__fpclassifyd)
/opt/kgp_arm_eabi/lib/gcc/arm-kgp-eabi/4.5.0/../../../../arm-kgp-eabi/lib/thumb/cortex-m3/libc.a(lib_a-stdio.o)
                              /opt/kgp_arm_eabi/lib/gcc/arm-kgp-eabi/4.5.0/../../../../arm-kgp-eabi/lib/thumb/cortex-m3/libc.a(lib_a-findfp.o) (__sread)
/opt/kgp_arm_eabi/lib/gcc/arm-kgp-eabi/4.5.0/../../../../arm-kgp-eabi/lib/thumb/cortex-m3/libc.a(lib_a-strcmp.o)
                              /opt/kgp_arm_eabi/lib/gcc/arm-kgp-eabi/4.5.0/../../../../arm-kgp-eabi/lib/thumb/cortex-m3/libc.a(lib_a-locale.o) (strcmp)
/opt/kgp_arm_eabi/lib/gcc/arm-kgp-eabi/4.5.0/../../../../arm-kgp-eabi/lib/thumb/cortex-m3/libc.a(lib_a-svfiprintf.o)
                              /opt/kgp_arm_eabi/lib/gcc/arm-kgp-eabi/4.5.0/../../../../arm-kgp-eabi/lib/thumb/cortex-m3/libc.a(lib_a-svfprintf.o) (__ssprint_r)
/opt/kgp_arm_eabi/lib/gcc/arm-kgp-eabi/4.5.0/../../../../arm-kgp-eabi/lib/thumb/cortex-m3/libc.a(lib_a-vfiprintf.o)
                              /opt/kgp_arm_eabi/lib/gcc/arm-kgp-eabi/4.5.0/../../../../arm-kgp-eabi/lib/thumb/cortex-m3/libc.a(lib_a-vfprintf.o) (__sprint_r)
/opt/kgp_arm_eabi/lib/gcc/arm-kgp-eabi/4.5.0/../../../../arm-kgp-eabi/lib/thumb/cortex-m3/libc.a(lib_a-callocr.o)
                              /opt/kgp_arm_eabi/lib/gcc/arm-kgp-eabi/4.5.0/../../../../arm-kgp-eabi/lib/thumb/cortex-m3/libc.a(lib_a-mprec.o) (_calloc_r)
/opt/kgp_arm_eabi/lib/gcc/arm-kgp-eabi/4.5.0/../../../../arm-kgp-eabi/lib/thumb/cortex-m3/libc.a(lib_a-fclose.o)
                              /opt/kgp_arm_eabi/lib/gcc/arm-kgp-eabi/4.5.0/../../../../arm-kgp-eabi/lib/thumb/cortex-m3/libc.a(lib_a-findfp.o) (fclose)
/opt/kgp_arm_eabi/lib/gcc/arm-kgp-eabi/4.5.0/../../../../arm-kgp-eabi/lib/thumb/cortex-m3/libc.a(lib_a-fputwc.o)
                              /opt/kgp_arm_eabi/lib/gcc/arm-kgp-eabi/4.5.0/../../../../arm-kgp-eabi/lib/thumb/cortex-m3/libc.a(lib_a-vfiprintf.o) (_fputwc_r)
/opt/kgp_arm_eabi/lib/gcc/arm-kgp-eabi/4.5.0/../../../../arm-kgp-eabi/lib/thumb/cortex-m3/libc.a(lib_a-fvwrite.o)
                              /opt/kgp_arm_eabi/lib/gcc/arm-kgp-eabi/4.5.0/../../../../arm-kgp-eabi/lib/thumb/cortex-m3/libc.a(lib_a-vfiprintf.o) (__sfvwrite_r)
/opt/kgp_arm_eabi/lib/gcc/arm-kgp-eabi/4.5.0/../../../../arm-kgp-eabi/lib/thumb/cortex-m3/libc.a(lib_a-memmove.o)
                              /opt/kgp_arm_eabi/lib/gcc/arm-kgp-eabi/4.5.0/../../../../arm-kgp-eabi/lib/thumb/cortex-m3/libc.a(lib_a-svfiprintf.o) (memmove)
/opt/kgp_arm_eabi/lib/gcc/arm-kgp-eabi/4.5.0/../../../../arm-kgp-eabi/lib/thumb/cortex-m3/libc.a(lib_a-reallocr.o)
                              /opt/kgp_arm_eabi/lib/gcc/arm-kgp-eabi/4.5.0/../../../../arm-kgp-eabi/lib/thumb/cortex-m3/libc.a(lib_a-svfiprintf.o) (_realloc_r)
/opt/kgp_arm_eabi/lib/gcc/arm-kgp-eabi/4.5.0/../../../../arm-kgp-eabi/lib/thumb/cortex-m3/libc.a(lib_a-wbuf.o)
                              /opt/kgp_arm_eabi/lib/gcc/arm-kgp-eabi/4.5.0/../../../../arm-kgp-eabi/lib/thumb/cortex-m3/libc.a(lib_a-fputwc.o) (__swbuf_r)
/opt/kgp_arm_eabi/lib/gcc/arm-kgp-eabi/4.5.0/../../../../arm-kgp-eabi/lib/thumb/cortex-m3/libc.a(lib_a-wcrtomb.o)
                              /opt/kgp_arm_eabi/lib/gcc/arm-kgp-eabi/4.5.0/../../../../arm-kgp-eabi/lib/thumb/cortex-m3/libc.a(lib_a-fputwc.o) (_wcrtomb_r)
/opt/kgp_arm_eabi/lib/gcc/arm-kgp-eabi/4.5.0/../../../../arm-kgp-eabi/lib/thumb/cortex-m3/libc.a(lib_a-wctomb_r.o)
                              /opt/kgp_arm_eabi/lib/gcc/arm-kgp-eabi/4.5.0/../../../../arm-kgp-eabi/lib/thumb/cortex-m3/libc.a(lib_a-wcrtomb.o) (__wctomb)
/opt/kgp_arm_eabi/lib/gcc/arm-kgp-eabi/4.5.0/thumb/cortex-m3/libgcc.a(_arm_addsubdf3.o)
                              /opt/kgp_arm_eabi/lib/gcc/arm-kgp-eabi/4.5.0/../../../../arm-kgp-eabi/lib/thumb/cortex-m3/libc.a(lib_a-dtoa.o) (__aeabi_dsub)
/opt/kgp_arm_eabi/lib/gcc/arm-kgp-eabi/4.5.0/thumb/cortex-m3/libgcc.a(_arm_muldivdf3.o)
                              /opt/kgp_arm_eabi/lib/gcc/arm-kgp-eabi/4.5.0/../../../../arm-kgp-eabi/lib/thumb/cortex-m3/libc.a(lib_a-dtoa.o) (__aeabi_dmul)
/opt/kgp_arm_eabi/lib/gcc/arm-kgp-eabi/4.5.0/thumb/cortex-m3/libgcc.a(_arm_cmpdf2.o)
                              /opt/kgp_arm_eabi/lib/gcc/arm-kgp-eabi/4.5.0/../../../../arm-kgp-eabi/lib/thumb/cortex-m3/libc.a(lib_a-svfprintf.o) (__aeabi_dcmpeq)
/opt/kgp_arm_eabi/lib/gcc/arm-kgp-eabi/4.5.0/thumb/cortex-m3/libgcc.a(_arm_fixdfsi.o)
                              /opt/kgp_arm_eabi/lib/gcc/arm-kgp-eabi/4.5.0/../../../../arm-kgp-eabi/lib/thumb/cortex-m3/libc.a(lib_a-dtoa.o) (__aeabi_d2iz)

Allocating common symbols
Common symbol       size              file

phy_nwsr            0x2               rtl8201cp.o
phy_aner            0x2               rtl8201cp.o
DMAPTPRxDescToGet   0x4               ./../../lib/libethernet.a(stm32_eth.o)
phy_bmcr            0x2               rtl8201cp.o
uip_len             0x2               ./../../lib/libuip-1.0.a(uip.o)
uip_recv_task_handle
                    0x4               main.o
ETH_InitStructure   0xbc              sys_init.o
DMARxDescToGet      0x4               ./../../lib/libethernet.a(stm32_eth.o)
uip_sappdata        0x4               ./../../lib/libuip-1.0.a(uip.o)
uip_acc32           0x4               ./../../lib/libuip-1.0.a(uip.o)
phy_lpremr          0x2               rtl8201cp.o
can_test_result     0x4               can_test.o
phy_id1r            0x2               rtl8201cp.o
uip_flags           0x1               ./../../lib/libuip-1.0.a(uip.o)
DMATxDescToSet      0x4               ./../../lib/libethernet.a(stm32_eth.o)
uip_udp_conn        0x4               ./../../lib/libuip-1.0.a(uip.o)
DMATxDscrTab        0x40              sys_init.o
Rx_Buff             0x2f80            sys_init.o
uip_periodic_task_handle
                    0x4               main.o
uip_appdata         0x4               ./../../lib/libuip-1.0.a(uip.o)
uip_conn            0x4               ./../../lib/libuip-1.0.a(uip.o)
uip_conns           0x1040            ./../../lib/libuip-1.0.a(uip.o)
phy_snrdr           0x2               rtl8201cp.o
uip_sntpaddr        0x4               ./../../lib/libuip-1.0.a(uip.o)
phy_anar            0x2               rtl8201cp.o
phy_id2r            0x2               rtl8201cp.o
phy_bmsr            0x2               rtl8201cp.o
phy_tr              0x2               rtl8201cp.o
DMARxDscrTab        0x80              sys_init.o
uip_listenports     0x14              ./../../lib/libuip-1.0.a(uip.o)
uip_draddr          0x4               ./../../lib/libuip-1.0.a(uip.o)
uip_stat            0x34              ./../../lib/libuip-1.0.a(uip.o)
phy_rxercr          0x2               rtl8201cp.o
uip_netmask         0x4               ./../../lib/libuip-1.0.a(uip.o)
uip_hostaddr        0x4               ./../../lib/libuip-1.0.a(uip.o)
phy_anlpar          0x2               rtl8201cp.o
Tx_Buff             0x17c0            sys_init.o
DMAPTPTxDescToSet   0x4               ./../../lib/libethernet.a(stm32_eth.o)
uip_buf             0x5e4             ./../../lib/libuip-1.0.a(uip.o)
uip_slen            0x2               ./../../lib/libuip-1.0.a(uip.o)
uip_udp_conns       0x120             ./../../lib/libuip-1.0.a(uip.o)

Discarded input sections

 .text          0x0000000000000000        0x0 can_test.o
 .data          0x0000000000000000        0x0 can_test.o
 .bss           0x0000000000000000        0x0 can_test.o
 .text          0x0000000000000000        0x0 crt.o
 .data          0x0000000000000000        0x0 crt.o
 .bss           0x0000000000000000        0x0 crt.o
 .text          0x0000000000000000        0x0 main.o
 .data          0x0000000000000000        0x0 main.o
 .bss           0x0000000000000000        0x0 main.o
 .text          0x0000000000000000        0x0 rtl8201cp.o
 .data          0x0000000000000000        0x0 rtl8201cp.o
 .bss           0x0000000000000000        0x0 rtl8201cp.o
 .text          0x0000000000000000        0x0 stm32f10x_it.o
 .data          0x0000000000000000        0x0 stm32f10x_it.o
 .bss           0x0000000000000000        0x0 stm32f10x_it.o
 .text          0x0000000000000000        0x0 syscalls.o
 .data          0x0000000000000000        0x0 syscalls.o
 .bss           0x0000000000000000        0x0 syscalls.o
 .text._read_r  0x0000000000000000        0x6 syscalls.o
 .text._lseek_r
                0x0000000000000000        0x4 syscalls.o
 .text._write_r
                0x0000000000000000        0x4 syscalls.o
 .text._close_r
                0x0000000000000000        0x4 syscalls.o
 .text._fstat_r
                0x0000000000000000        0x4 syscalls.o
 .text._isatty_r
                0x0000000000000000        0x4 syscalls.o
 .text          0x0000000000000000        0x0 sys_init.o
 .data          0x0000000000000000        0x0 sys_init.o
 .bss           0x0000000000000000        0x0 sys_init.o
 .text          0x0000000000000000        0x0 timer.o
 .data          0x0000000000000000        0x0 timer.o
 .bss           0x0000000000000000        0x0 timer.o
 .text          0x0000000000000000        0x0 ./../../lib/libuip-1.0.a(uip_handler.o)
 .data          0x0000000000000000        0x0 ./../../lib/libuip-1.0.a(uip_handler.o)
 .bss           0x0000000000000000        0x0 ./../../lib/libuip-1.0.a(uip_handler.o)
 .text          0x0000000000000000        0x0 ./../../lib/libuip-1.0.a(uip_timer.o)
 .data          0x0000000000000000        0x0 ./../../lib/libuip-1.0.a(uip_timer.o)
 .bss           0x0000000000000000        0x0 ./../../lib/libuip-1.0.a(uip_timer.o)
 .text.timer_restart
                0x0000000000000000        0xc ./../../lib/libuip-1.0.a(uip_timer.o)
 .text          0x0000000000000000        0x0 ./../../lib/libuip-1.0.a(dhcpc.o)
 .data          0x0000000000000000        0x0 ./../../lib/libuip-1.0.a(dhcpc.o)
 .bss           0x0000000000000000        0x0 ./../../lib/libuip-1.0.a(dhcpc.o)
 .text          0x0000000000000000        0x0 ./../../lib/libuip-1.0.a(httpd.o)
 .data          0x0000000000000000        0x0 ./../../lib/libuip-1.0.a(httpd.o)
 .bss           0x0000000000000000        0x0 ./../../lib/libuip-1.0.a(httpd.o)
 .text          0x0000000000000000        0x0 ./../../lib/libuip-1.0.a(httpd-cgi.o)
 .data          0x0000000000000000        0x0 ./../../lib/libuip-1.0.a(httpd-cgi.o)
 .bss           0x0000000000000000        0x0 ./../../lib/libuip-1.0.a(httpd-cgi.o)
 .text          0x0000000000000000        0x0 ./../../lib/libuip-1.0.a(httpd-fs.o)
 .data          0x0000000000000000        0x0 ./../../lib/libuip-1.0.a(httpd-fs.o)
 .bss           0x0000000000000000        0x0 ./../../lib/libuip-1.0.a(httpd-fs.o)
 .text.httpd_fs_init
                0x0000000000000000       0x18 ./../../lib/libuip-1.0.a(httpd-fs.o)
 .text          0x0000000000000000        0x0 ./../../lib/libuip-1.0.a(http-strings.o)
 .data          0x0000000000000000        0x0 ./../../lib/libuip-1.0.a(http-strings.o)
 .bss           0x0000000000000000        0x0 ./../../lib/libuip-1.0.a(http-strings.o)
 .rodata.http_text
                0x0000000000000000        0x8 ./../../lib/libuip-1.0.a(http-strings.o)
 .rodata.http_301
                0x0000000000000000        0x8 ./../../lib/libuip-1.0.a(http-strings.o)
 .rodata.http_htm
                0x0000000000000000        0x8 ./../../lib/libuip-1.0.a(http-strings.o)
 .rodata.http_texthtml
                0x0000000000000000        0xc ./../../lib/libuip-1.0.a(http-strings.o)
 .rodata.http_302
                0x0000000000000000        0x8 ./../../lib/libuip-1.0.a(http-strings.o)
 .rodata.http_crnl
                0x0000000000000000        0x4 ./../../lib/libuip-1.0.a(http-strings.o)
 .rodata.http_content_type_text
                0x0000000000000000       0x1c ./../../lib/libuip-1.0.a(http-strings.o)
 .rodata.http_location
                0x0000000000000000        0xc ./../../lib/libuip-1.0.a(http-strings.o)
 .rodata.http_200
                0x0000000000000000        0x8 ./../../lib/libuip-1.0.a(http-strings.o)
 .rodata.http_txt
                0x0000000000000000        0x8 ./../../lib/libuip-1.0.a(http-strings.o)
 .rodata.http_10
                0x0000000000000000        0xc ./../../lib/libuip-1.0.a(http-strings.o)
 .rodata.http_11
                0x0000000000000000        0xc ./../../lib/libuip-1.0.a(http-strings.o)
 .rodata.http_content_type
                0x0000000000000000       0x10 ./../../lib/libuip-1.0.a(http-strings.o)
 .rodata.http_http
                0x0000000000000000        0x8 ./../../lib/libuip-1.0.a(http-strings.o)
 .rodata.http_host
                0x0000000000000000        0x8 ./../../lib/libuip-1.0.a(http-strings.o)
 .text          0x0000000000000000        0x0 ./../../lib/libuip-1.0.a(psock.o)
 .data          0x0000000000000000        0x0 ./../../lib/libuip-1.0.a(psock.o)
 .bss           0x0000000000000000        0x0 ./../../lib/libuip-1.0.a(psock.o)
 .text.psock_readbuf
                0x0000000000000000       0xcc ./../../lib/libuip-1.0.a(psock.o)
 .text          0x0000000000000000        0x0 ./../../lib/libuip-1.0.a(sntp.o)
 .data          0x0000000000000000        0x0 ./../../lib/libuip-1.0.a(sntp.o)
 .bss           0x0000000000000000        0x0 ./../../lib/libuip-1.0.a(sntp.o)
 .text          0x0000000000000000        0x0 ./../../lib/libuip-1.0.a(telnetd.o)
 .data          0x0000000000000000        0x0 ./../../lib/libuip-1.0.a(telnetd.o)
 .bss           0x0000000000000000        0x0 ./../../lib/libuip-1.0.a(telnetd.o)
 .text          0x0000000000000000        0x0 ./../../lib/libuip-1.0.a(uip_arp.o)
 .data          0x0000000000000000        0x0 ./../../lib/libuip-1.0.a(uip_arp.o)
 .bss           0x0000000000000000        0x0 ./../../lib/libuip-1.0.a(uip_arp.o)
 .text          0x0000000000000000        0x0 ./../../lib/libuip-1.0.a(uip.o)
 .data          0x0000000000000000        0x0 ./../../lib/libuip-1.0.a(uip.o)
 .bss           0x0000000000000000        0x0 ./../../lib/libuip-1.0.a(uip.o)
 .text.uip_setipid
                0x0000000000000000        0xc ./../../lib/libuip-1.0.a(uip.o)
 .text.uip_printstats
                0x0000000000000000      0x15c ./../../lib/libuip-1.0.a(uip.o)
 .text.uip_connect
                0x0000000000000000       0xf0 ./../../lib/libuip-1.0.a(uip.o)
 .text.uip_unlisten
                0x0000000000000000       0x34 ./../../lib/libuip-1.0.a(uip.o)
 .rodata.str1.1
                0x0000000000000000      0x308 ./../../lib/libuip-1.0.a(uip.o)
 .text          0x0000000000000000        0x0 ./../../lib/libuip-1.0.a(memb.o)
 .data          0x0000000000000000        0x0 ./../../lib/libuip-1.0.a(memb.o)
 .bss           0x0000000000000000        0x0 ./../../lib/libuip-1.0.a(memb.o)
 .text          0x0000000000000000        0x0 ./../../lib/libuip-1.0.a(shell.o)
 .data          0x0000000000000000        0x0 ./../../lib/libuip-1.0.a(shell.o)
 .bss           0x0000000000000000        0x0 ./../../lib/libuip-1.0.a(shell.o)
 .text          0x0000000000000000        0x0 ./../../lib/libuip-1.0.a(uip_arch.o)
 .data          0x0000000000000000        0x0 ./../../lib/libuip-1.0.a(uip_arch.o)
 .bss           0x0000000000000000        0x0 ./../../lib/libuip-1.0.a(uip_arch.o)
 .text          0x0000000000000000        0x0 ./../../lib/libethernet.a(stm32_eth.o)
 .data          0x0000000000000000        0x0 ./../../lib/libethernet.a(stm32_eth.o)
 .bss           0x0000000000000000        0x0 ./../../lib/libethernet.a(stm32_eth.o)
 .text.ETH_GetRxPktSize
                0x0000000000000000       0x24 ./../../lib/libethernet.a(stm32_eth.o)
 .text.ETH_DropRxPkt
                0x0000000000000000       0x44 ./../../lib/libethernet.a(stm32_eth.o)
 .text.ETH_PHYLoopBackCmd
                0x0000000000000000       0x28 ./../../lib/libethernet.a(stm32_eth.o)
 .text.ETH_GetFlowControlBusyStatus
                0x0000000000000000       0x10 ./../../lib/libethernet.a(stm32_eth.o)
 .text.ETH_InitiatePauseControlFrame
                0x0000000000000000       0x10 ./../../lib/libethernet.a(stm32_eth.o)
 .text.ETH_BackPressureActivationCmd
                0x0000000000000000       0x1c ./../../lib/libethernet.a(stm32_eth.o)
 .text.ETH_GetMACFlagStatus
                0x0000000000000000       0x14 ./../../lib/libethernet.a(stm32_eth.o)
 .text.ETH_GetMACITStatus
                0x0000000000000000       0x14 ./../../lib/libethernet.a(stm32_eth.o)
 .text.ETH_MACITConfig
                0x0000000000000000       0x1c ./../../lib/libethernet.a(stm32_eth.o)
 .text.ETH_MACAddressConfig
                0x0000000000000000       0x30 ./../../lib/libethernet.a(stm32_eth.o)
 .text.ETH_GetMACAddress
                0x0000000000000000       0x28 ./../../lib/libethernet.a(stm32_eth.o)
 .text.ETH_MACAddressPerfectFilterCmd
                0x0000000000000000       0x1c ./../../lib/libethernet.a(stm32_eth.o)
 .text.ETH_MACAddressFilterConfig
                0x0000000000000000       0x20 ./../../lib/libethernet.a(stm32_eth.o)
 .text.ETH_MACAddressMaskBytesFilterConfig
                0x0000000000000000       0x18 ./../../lib/libethernet.a(stm32_eth.o)
 .text.ETH_DMATxDescRingInit
                0x0000000000000000       0x4c ./../../lib/libethernet.a(stm32_eth.o)
 .text.ETH_GetDMATxDescFlagStatus
                0x0000000000000000        0xc ./../../lib/libethernet.a(stm32_eth.o)
 .text.ETH_GetDMATxDescCollisionCount
                0x0000000000000000        0x8 ./../../lib/libethernet.a(stm32_eth.o)
 .text.ETH_SetDMATxDescOwnBit
                0x0000000000000000        0xa ./../../lib/libethernet.a(stm32_eth.o)
 .text.ETH_DMATxDescTransmitITConfig
                0x0000000000000000       0x12 ./../../lib/libethernet.a(stm32_eth.o)
 .text.ETH_DMATxDescFrameSegmentConfig
                0x0000000000000000        0xa ./../../lib/libethernet.a(stm32_eth.o)
 .text.ETH_DMATxDescChecksumInsertionConfig
                0x0000000000000000        0xa ./../../lib/libethernet.a(stm32_eth.o)
 .text.ETH_DMATxDescCRCCmd
                0x0000000000000000       0x12 ./../../lib/libethernet.a(stm32_eth.o)
 .text.ETH_DMATxDescEndOfRingCmd
                0x0000000000000000       0x12 ./../../lib/libethernet.a(stm32_eth.o)
 .text.ETH_DMATxDescSecondAddressChainedCmd
                0x0000000000000000       0x12 ./../../lib/libethernet.a(stm32_eth.o)
 .text.ETH_DMATxDescShortFramePaddingCmd
                0x0000000000000000       0x12 ./../../lib/libethernet.a(stm32_eth.o)
 .text.ETH_DMATxDescTimeStampCmd
                0x0000000000000000       0x12 ./../../lib/libethernet.a(stm32_eth.o)
 .text.ETH_DMATxDescBufferSizeConfig
                0x0000000000000000        0xc ./../../lib/libethernet.a(stm32_eth.o)
 .text.ETH_DMARxDescRingInit
                0x0000000000000000       0x64 ./../../lib/libethernet.a(stm32_eth.o)
 .text.ETH_GetDMARxDescFlagStatus
                0x0000000000000000        0xc ./../../lib/libethernet.a(stm32_eth.o)
 .text.ETH_SetDMARxDescOwnBit
                0x0000000000000000        0xa ./../../lib/libethernet.a(stm32_eth.o)
 .text.ETH_GetDMARxDescFrameLength
                0x0000000000000000        0x8 ./../../lib/libethernet.a(stm32_eth.o)
 .text.ETH_DMARxDescReceiveITConfig
                0x0000000000000000       0x12 ./../../lib/libethernet.a(stm32_eth.o)
 .text.ETH_DMARxDescEndOfRingCmd
                0x0000000000000000       0x12 ./../../lib/libethernet.a(stm32_eth.o)
 .text.ETH_DMARxDescSecondAddressChainedCmd
                0x0000000000000000       0x12 ./../../lib/libethernet.a(stm32_eth.o)
 .text.ETH_GetDMARxDescBufferSize
                0x0000000000000000       0x10 ./../../lib/libethernet.a(stm32_eth.o)
 .text.ETH_GetDMAFlagStatus
                0x0000000000000000       0x18 ./../../lib/libethernet.a(stm32_eth.o)
 .text.ETH_DMAClearFlag
                0x0000000000000000       0x10 ./../../lib/libethernet.a(stm32_eth.o)
 .text.ETH_GetDMAITStatus
                0x0000000000000000       0x18 ./../../lib/libethernet.a(stm32_eth.o)
 .text.ETH_GetTransmitProcessState
                0x0000000000000000       0x14 ./../../lib/libethernet.a(stm32_eth.o)
 .text.ETH_GetReceiveProcessState
                0x0000000000000000       0x14 ./../../lib/libethernet.a(stm32_eth.o)
 .text.ETH_GetFlushTransmitFIFOStatus
                0x0000000000000000       0x14 ./../../lib/libethernet.a(stm32_eth.o)
 .text.ETH_GetDMAOverflowStatus
                0x0000000000000000       0x14 ./../../lib/libethernet.a(stm32_eth.o)
 .text.ETH_GetRxOverflowMissedFrameCounter
                0x0000000000000000       0x10 ./../../lib/libethernet.a(stm32_eth.o)
 .text.ETH_GetBufferUnavailableMissedFrameCounter
                0x0000000000000000        0xc ./../../lib/libethernet.a(stm32_eth.o)
 .text.ETH_GetCurrentTxDescStartAddress
                0x0000000000000000       0x10 ./../../lib/libethernet.a(stm32_eth.o)
 .text.ETH_GetCurrentRxDescStartAddress
                0x0000000000000000       0x10 ./../../lib/libethernet.a(stm32_eth.o)
 .text.ETH_GetCurrentTxBufferAddress
                0x0000000000000000       0x10 ./../../lib/libethernet.a(stm32_eth.o)
 .text.ETH_GetCurrentRxBufferAddress
                0x0000000000000000       0x10 ./../../lib/libethernet.a(stm32_eth.o)
 .text.ETH_ResumeDMATransmission
                0x0000000000000000       0x10 ./../../lib/libethernet.a(stm32_eth.o)
 .text.ETH_ResumeDMAReception
                0x0000000000000000       0x10 ./../../lib/libethernet.a(stm32_eth.o)
 .text.ETH_ResetWakeUpFrameFilterRegisterPointer
                0x0000000000000000       0x10 ./../../lib/libethernet.a(stm32_eth.o)
 .text.ETH_SetWakeUpFrameFilterRegister
                0x0000000000000000       0x14 ./../../lib/libethernet.a(stm32_eth.o)
 .text.ETH_GlobalUnicastWakeUpCmd
                0x0000000000000000       0x1c ./../../lib/libethernet.a(stm32_eth.o)
 .text.ETH_GetPMTFlagStatus
                0x0000000000000000       0x14 ./../../lib/libethernet.a(stm32_eth.o)
 .text.ETH_WakeUpFrameDetectionCmd
                0x0000000000000000       0x1c ./../../lib/libethernet.a(stm32_eth.o)
 .text.ETH_MagicPacketDetectionCmd
                0x0000000000000000       0x1c ./../../lib/libethernet.a(stm32_eth.o)
 .text.ETH_PowerDownCmd
                0x0000000000000000       0x1c ./../../lib/libethernet.a(stm32_eth.o)
 .text.ETH_MMCCounterFreezeCmd
                0x0000000000000000       0x24 ./../../lib/libethernet.a(stm32_eth.o)
 .text.ETH_MMCResetOnReadCmd
                0x0000000000000000       0x24 ./../../lib/libethernet.a(stm32_eth.o)
 .text.ETH_MMCCounterRolloverCmd
                0x0000000000000000       0x24 ./../../lib/libethernet.a(stm32_eth.o)
 .text.ETH_MMCCountersReset
                0x0000000000000000       0x14 ./../../lib/libethernet.a(stm32_eth.o)
 .text.ETH_MMCITConfig
                0x0000000000000000       0x48 ./../../lib/libethernet.a(stm32_eth.o)
 .text.ETH_GetMMCITStatus
                0x0000000000000000       0x2c ./../../lib/libethernet.a(stm32_eth.o)
 .text.ETH_GetMMCRegister
                0x0000000000000000        0xc ./../../lib/libethernet.a(stm32_eth.o)
 .text.ETH_EnablePTPTimeStampAddend
                0x0000000000000000       0x14 ./../../lib/libethernet.a(stm32_eth.o)
 .text.ETH_EnablePTPTimeStampInterruptTrigger
                0x0000000000000000       0x14 ./../../lib/libethernet.a(stm32_eth.o)
 .text.ETH_EnablePTPTimeStampUpdate
                0x0000000000000000       0x14 ./../../lib/libethernet.a(stm32_eth.o)
 .text.ETH_InitializePTPTimeStamp
                0x0000000000000000       0x14 ./../../lib/libethernet.a(stm32_eth.o)
 .text.ETH_PTPUpdateMethodConfig
                0x0000000000000000       0x24 ./../../lib/libethernet.a(stm32_eth.o)
 .text.ETH_PTPTimeStampCmd
                0x0000000000000000       0x24 ./../../lib/libethernet.a(stm32_eth.o)
 .text.ETH_GetPTPFlagStatus
                0x0000000000000000       0x14 ./../../lib/libethernet.a(stm32_eth.o)
 .text.ETH_SetPTPSubSecondIncrement
                0x0000000000000000        0xc ./../../lib/libethernet.a(stm32_eth.o)
 .text.ETH_SetPTPTimeStampUpdate
                0x0000000000000000       0x14 ./../../lib/libethernet.a(stm32_eth.o)
 .text.ETH_SetPTPTimeStampAddend
                0x0000000000000000        0xc ./../../lib/libethernet.a(stm32_eth.o)
 .text.ETH_SetPTPTargetTime
                0x0000000000000000       0x10 ./../../lib/libethernet.a(stm32_eth.o)
 .text.ETH_GetPTPRegister
                0x0000000000000000        0xc ./../../lib/libethernet.a(stm32_eth.o)
 .text.ETH_DMAPTPTxDescChainInit
                0x0000000000000000       0x68 ./../../lib/libethernet.a(stm32_eth.o)
 .text.ETH_DMAPTPRxDescChainInit
                0x0000000000000000       0x70 ./../../lib/libethernet.a(stm32_eth.o)
 .text.ETH_HandlePTPTxPkt
                0x0000000000000000      0x100 ./../../lib/libethernet.a(stm32_eth.o)
 .text.ETH_HandlePTPRxPkt
                0x0000000000000000       0xd0 ./../../lib/libethernet.a(stm32_eth.o)
 .text          0x0000000000000000        0x0 ./../../lib/libfreertos-6.0.2.a(port.o)
 .data          0x0000000000000000        0x0 ./../../lib/libfreertos-6.0.2.a(port.o)
 .bss           0x0000000000000000        0x0 ./../../lib/libfreertos-6.0.2.a(port.o)
 .text.vPortEndScheduler
                0x0000000000000000        0x2 ./../../lib/libfreertos-6.0.2.a(port.o)
 .rodata.ulKernelPriority
                0x0000000000000000        0x4 ./../../lib/libfreertos-6.0.2.a(port.o)
 .text          0x0000000000000000        0x0 ./../../lib/libfreertos-6.0.2.a(queue.o)
 .data          0x0000000000000000        0x0 ./../../lib/libfreertos-6.0.2.a(queue.o)
 .bss           0x0000000000000000        0x0 ./../../lib/libfreertos-6.0.2.a(queue.o)
 .text.xQueueGiveMutexRecursive
                0x0000000000000000       0x2a ./../../lib/libfreertos-6.0.2.a(queue.o)
 .text.xQueueCreateMutex
                0x0000000000000000       0x46 ./../../lib/libfreertos-6.0.2.a(queue.o)
 .text.xQueueGenericSendFromISR
                0x0000000000000000       0x52 ./../../lib/libfreertos-6.0.2.a(queue.o)
 .text.xQueueTakeMutexRecursive
                0x0000000000000000       0x32 ./../../lib/libfreertos-6.0.2.a(queue.o)
 .text.xQueueReceiveFromISR
                0x0000000000000000       0x6c ./../../lib/libfreertos-6.0.2.a(queue.o)
 .text.uxQueueMessagesWaiting
                0x0000000000000000       0x12 ./../../lib/libfreertos-6.0.2.a(queue.o)
 .text.uxQueueMessagesWaitingFromISR
                0x0000000000000000        0x4 ./../../lib/libfreertos-6.0.2.a(queue.o)
 .text.vQueueDelete
                0x0000000000000000       0x12 ./../../lib/libfreertos-6.0.2.a(queue.o)
 .text.xQueueIsQueueEmptyFromISR
                0x0000000000000000        0xc ./../../lib/libfreertos-6.0.2.a(queue.o)
 .text.xQueueIsQueueFullFromISR
                0x0000000000000000        0xe ./../../lib/libfreertos-6.0.2.a(queue.o)
 .text          0x0000000000000000        0x0 ./../../lib/libfreertos-6.0.2.a(tasks.o)
 .data          0x0000000000000000        0x0 ./../../lib/libfreertos-6.0.2.a(tasks.o)
 .bss           0x0000000000000000        0x0 ./../../lib/libfreertos-6.0.2.a(tasks.o)
 .text.prvGenerateRunTimeStatsForTasksInList
                0x0000000000000000       0x98 ./../../lib/libfreertos-6.0.2.a(tasks.o)
 .text.prvListTaskWithinSingleList
                0x0000000000000000       0x88 ./../../lib/libfreertos-6.0.2.a(tasks.o)
 .text.vTaskDelete
                0x0000000000000000       0x6c ./../../lib/libfreertos-6.0.2.a(tasks.o)
 .text.uxTaskPriorityGet
                0x0000000000000000       0x1c ./../../lib/libfreertos-6.0.2.a(tasks.o)
 .text.vTaskPrioritySet
                0x0000000000000000       0x94 ./../../lib/libfreertos-6.0.2.a(tasks.o)
 .text.vTaskResume
                0x0000000000000000       0x60 ./../../lib/libfreertos-6.0.2.a(tasks.o)
 .text.vTaskEndScheduler
                0x0000000000000000       0x1c ./../../lib/libfreertos-6.0.2.a(tasks.o)
 .text.uxTaskGetNumberOfTasks
                0x0000000000000000        0xc ./../../lib/libfreertos-6.0.2.a(tasks.o)
 .text.vTaskStartTrace
                0x0000000000000000       0x38 ./../../lib/libfreertos-6.0.2.a(tasks.o)
 .text.ulTaskEndTrace
                0x0000000000000000       0x28 ./../../lib/libfreertos-6.0.2.a(tasks.o)
 .text.vTaskGetRunTimeStats
                0x0000000000000000       0xa4 ./../../lib/libfreertos-6.0.2.a(tasks.o)
 .text.vTaskList
                0x0000000000000000       0x98 ./../../lib/libfreertos-6.0.2.a(tasks.o)
 .text.vTaskDelayUntil
                0x0000000000000000       0x78 ./../../lib/libfreertos-6.0.2.a(tasks.o)
 .bss.pcStatusString
                0x0000000000000000       0x34 ./../../lib/libfreertos-6.0.2.a(tasks.o)
 .bss.pcStatsString
                0x0000000000000000       0x34 ./../../lib/libfreertos-6.0.2.a(tasks.o)
 .bss.pcTraceBufferStart
                0x0000000000000000        0x4 ./../../lib/libfreertos-6.0.2.a(tasks.o)
 .text          0x0000000000000000        0x0 ./../../lib/libfreertos-6.0.2.a(list.o)
 .data          0x0000000000000000        0x0 ./../../lib/libfreertos-6.0.2.a(list.o)
 .bss           0x0000000000000000        0x0 ./../../lib/libfreertos-6.0.2.a(list.o)
 .text          0x0000000000000000        0x0 ./../../lib/libfreertos-6.0.2.a(mmgr.o)
 .data          0x0000000000000000        0x0 ./../../lib/libfreertos-6.0.2.a(mmgr.o)
 .bss           0x0000000000000000        0x0 ./../../lib/libfreertos-6.0.2.a(mmgr.o)
 .text.HeapDefragmentation
                0x0000000000000000        0x2 ./../../lib/libfreertos-6.0.2.a(mmgr.o)
 .text.HeapGetState
                0x0000000000000000       0x48 ./../../lib/libfreertos-6.0.2.a(mmgr.o)
 .text.HeapGetFree
                0x0000000000000000       0x30 ./../../lib/libfreertos-6.0.2.a(mmgr.o)
 .data.HeapPeak
                0x0000000000000000        0x4 ./../../lib/libfreertos-6.0.2.a(mmgr.o)
 .text          0x0000000000000000        0x0 ./../../lib/libhardware.a(misc.o)
 .data          0x0000000000000000        0x0 ./../../lib/libhardware.a(misc.o)
 .bss           0x0000000000000000        0x0 ./../../lib/libhardware.a(misc.o)
 .text.NVIC_SystemLPConfig
                0x0000000000000000       0x1c ./../../lib/libhardware.a(misc.o)
 .text.SysTick_CLKSourceConfig
                0x0000000000000000       0x20 ./../../lib/libhardware.a(misc.o)
 .text          0x0000000000000000        0x0 ./../../lib/libhardware.a(stm32f10x_can.o)
 .data          0x0000000000000000        0x0 ./../../lib/libhardware.a(stm32f10x_can.o)
 .bss           0x0000000000000000        0x0 ./../../lib/libhardware.a(stm32f10x_can.o)
 .text.CAN_SlaveStartBank
                0x0000000000000000       0x3c ./../../lib/libhardware.a(stm32f10x_can.o)
 .text.CAN_CancelTransmit
                0x0000000000000000       0x26 ./../../lib/libhardware.a(stm32f10x_can.o)
 .text.CAN_FIFORelease
                0x0000000000000000        0xe ./../../lib/libhardware.a(stm32f10x_can.o)
 .text.CAN_MessagePending
                0x0000000000000000       0x16 ./../../lib/libhardware.a(stm32f10x_can.o)
 .text.CAN_DBGFreeze
                0x0000000000000000       0x14 ./../../lib/libhardware.a(stm32f10x_can.o)
 .text.CAN_Sleep
                0x0000000000000000       0x1c ./../../lib/libhardware.a(stm32f10x_can.o)
 .text.CAN_WakeUp
                0x0000000000000000       0x2a ./../../lib/libhardware.a(stm32f10x_can.o)
 .text.CAN_GetFlagStatus
                0x0000000000000000        0xc ./../../lib/libhardware.a(stm32f10x_can.o)
 .text.CAN_ClearFlag
                0x0000000000000000        0xa ./../../lib/libhardware.a(stm32f10x_can.o)
 .text.CAN_GetITStatus
                0x0000000000000000       0x98 ./../../lib/libhardware.a(stm32f10x_can.o)
 .text          0x0000000000000000        0x0 ./../../lib/libhardware.a(stm32f10x_flash.o)
 .data          0x0000000000000000        0x0 ./../../lib/libhardware.a(stm32f10x_flash.o)
 .bss           0x0000000000000000        0x0 ./../../lib/libhardware.a(stm32f10x_flash.o)
 .text.FLASH_HalfCycleAccessCmd
                0x0000000000000000       0x18 ./../../lib/libhardware.a(stm32f10x_flash.o)
 .text.FLASH_Unlock
                0x0000000000000000       0x18 ./../../lib/libhardware.a(stm32f10x_flash.o)
 .text.FLASH_Lock
                0x0000000000000000       0x10 ./../../lib/libhardware.a(stm32f10x_flash.o)
 .text.FLASH_GetUserOptionByte
                0x0000000000000000        0xc ./../../lib/libhardware.a(stm32f10x_flash.o)
 .text.FLASH_GetWriteProtectionOptionByte
                0x0000000000000000        0xc ./../../lib/libhardware.a(stm32f10x_flash.o)
 .text.FLASH_GetReadOutProtectionStatus
                0x0000000000000000       0x10 ./../../lib/libhardware.a(stm32f10x_flash.o)
 .text.FLASH_GetPrefetchBufferStatus
                0x0000000000000000       0x10 ./../../lib/libhardware.a(stm32f10x_flash.o)
 .text.FLASH_ITConfig
                0x0000000000000000       0x1c ./../../lib/libhardware.a(stm32f10x_flash.o)
 .text.FLASH_GetFlagStatus
                0x0000000000000000       0x20 ./../../lib/libhardware.a(stm32f10x_flash.o)
 .text.FLASH_ClearFlag
                0x0000000000000000        0xc ./../../lib/libhardware.a(stm32f10x_flash.o)
 .text.FLASH_GetStatus
                0x0000000000000000       0x2c ./../../lib/libhardware.a(stm32f10x_flash.o)
 .text.FLASH_WaitForLastOperation
                0x0000000000000000       0x44 ./../../lib/libhardware.a(stm32f10x_flash.o)
 .text.FLASH_UserOptionByteConfig
                0x0000000000000000       0x54 ./../../lib/libhardware.a(stm32f10x_flash.o)
 .text.FLASH_ReadOutProtection
                0x0000000000000000       0x94 ./../../lib/libhardware.a(stm32f10x_flash.o)
 .text.FLASH_EnableWriteProtection
                0x0000000000000000       0xb8 ./../../lib/libhardware.a(stm32f10x_flash.o)
 .text.FLASH_ProgramOptionByteData
                0x0000000000000000       0x44 ./../../lib/libhardware.a(stm32f10x_flash.o)
 .text.FLASH_ProgramHalfWord
                0x0000000000000000       0x38 ./../../lib/libhardware.a(stm32f10x_flash.o)
 .text.FLASH_ProgramWord
                0x0000000000000000       0x50 ./../../lib/libhardware.a(stm32f10x_flash.o)
 .text.FLASH_EraseOptionBytes
                0x0000000000000000       0x74 ./../../lib/libhardware.a(stm32f10x_flash.o)
 .text.FLASH_EraseAllPages
                0x0000000000000000       0x3c ./../../lib/libhardware.a(stm32f10x_flash.o)
 .text.FLASH_ErasePage
                0x0000000000000000       0x40 ./../../lib/libhardware.a(stm32f10x_flash.o)
 .text          0x0000000000000000        0x0 ./../../lib/libhardware.a(stm32f10x_gpio.o)
 .data          0x0000000000000000        0x0 ./../../lib/libhardware.a(stm32f10x_gpio.o)
 .bss           0x0000000000000000        0x0 ./../../lib/libhardware.a(stm32f10x_gpio.o)
 .text.GPIO_DeInit
                0x0000000000000000       0xa8 ./../../lib/libhardware.a(stm32f10x_gpio.o)
 .text.GPIO_AFIODeInit
                0x0000000000000000       0x14 ./../../lib/libhardware.a(stm32f10x_gpio.o)
 .text.GPIO_StructInit
                0x0000000000000000       0x10 ./../../lib/libhardware.a(stm32f10x_gpio.o)
 .text.GPIO_ReadInputDataBit
                0x0000000000000000        0xc ./../../lib/libhardware.a(stm32f10x_gpio.o)
 .text.GPIO_ReadInputData
                0x0000000000000000        0x6 ./../../lib/libhardware.a(stm32f10x_gpio.o)
 .text.GPIO_ReadOutputDataBit
                0x0000000000000000        0xc ./../../lib/libhardware.a(stm32f10x_gpio.o)
 .text.GPIO_ReadOutputData
                0x0000000000000000        0x6 ./../../lib/libhardware.a(stm32f10x_gpio.o)
 .text.GPIO_SetBits
                0x0000000000000000        0x4 ./../../lib/libhardware.a(stm32f10x_gpio.o)
 .text.GPIO_ResetBits
                0x0000000000000000        0x4 ./../../lib/libhardware.a(stm32f10x_gpio.o)
 .text.GPIO_WriteBit
                0x0000000000000000        0xa ./../../lib/libhardware.a(stm32f10x_gpio.o)
 .text.GPIO_Write
                0x0000000000000000        0x4 ./../../lib/libhardware.a(stm32f10x_gpio.o)
 .text.GPIO_PinLockConfig
                0x0000000000000000       0x10 ./../../lib/libhardware.a(stm32f10x_gpio.o)
 .text.GPIO_EventOutputConfig
                0x0000000000000000       0x20 ./../../lib/libhardware.a(stm32f10x_gpio.o)
 .text.GPIO_EventOutputCmd
                0x0000000000000000        0xc ./../../lib/libhardware.a(stm32f10x_gpio.o)
 .text.GPIO_EXTILineConfig
                0x0000000000000000       0x38 ./../../lib/libhardware.a(stm32f10x_gpio.o)
 .text          0x0000000000000000        0x0 ./../../lib/libhardware.a(stm32f10x_rcc.o)
 .data          0x0000000000000000        0x0 ./../../lib/libhardware.a(stm32f10x_rcc.o)
 .bss           0x0000000000000000        0x0 ./../../lib/libhardware.a(stm32f10x_rcc.o)
 .text.RCC_AdjustHSICalibrationValue
                0x0000000000000000       0x14 ./../../lib/libhardware.a(stm32f10x_rcc.o)
 .text.RCC_HSICmd
                0x0000000000000000        0xc ./../../lib/libhardware.a(stm32f10x_rcc.o)
 .text.RCC_PLL3Config
                0x0000000000000000       0x14 ./../../lib/libhardware.a(stm32f10x_rcc.o)
 .text.RCC_PLL3Cmd
                0x0000000000000000        0xc ./../../lib/libhardware.a(stm32f10x_rcc.o)
 .text.RCC_ITConfig
                0x0000000000000000       0x1c ./../../lib/libhardware.a(stm32f10x_rcc.o)
 .text.RCC_OTGFSCLKConfig
                0x0000000000000000        0xc ./../../lib/libhardware.a(stm32f10x_rcc.o)
 .text.RCC_I2S2CLKConfig
                0x0000000000000000        0xc ./../../lib/libhardware.a(stm32f10x_rcc.o)
 .text.RCC_I2S3CLKConfig
                0x0000000000000000        0xc ./../../lib/libhardware.a(stm32f10x_rcc.o)
 .text.RCC_LSEConfig
                0x0000000000000000       0x20 ./../../lib/libhardware.a(stm32f10x_rcc.o)
 .text.RCC_LSICmd
                0x0000000000000000        0xc ./../../lib/libhardware.a(stm32f10x_rcc.o)
 .text.RCC_RTCCLKConfig
                0x0000000000000000       0x10 ./../../lib/libhardware.a(stm32f10x_rcc.o)
 .text.RCC_RTCCLKCmd
                0x0000000000000000        0xc ./../../lib/libhardware.a(stm32f10x_rcc.o)
 .text.RCC_BackupResetCmd
                0x0000000000000000        0xc ./../../lib/libhardware.a(stm32f10x_rcc.o)
 .text.RCC_ClockSecuritySystemCmd
                0x0000000000000000        0xc ./../../lib/libhardware.a(stm32f10x_rcc.o)
 .text.RCC_MCOConfig
                0x0000000000000000        0xc ./../../lib/libhardware.a(stm32f10x_rcc.o)
 .text.RCC_ClearFlag
                0x0000000000000000       0x10 ./../../lib/libhardware.a(stm32f10x_rcc.o)
 .text.RCC_GetITStatus
                0x0000000000000000       0x14 ./../../lib/libhardware.a(stm32f10x_rcc.o)
 .text.RCC_ClearITPendingBit
                0x0000000000000000        0xc ./../../lib/libhardware.a(stm32f10x_rcc.o)
 .text          0x0000000000000000        0x0 ./../../lib/libhardware.a(stm32f10x_tim.o)
 .data          0x0000000000000000        0x0 ./../../lib/libhardware.a(stm32f10x_tim.o)
 .bss           0x0000000000000000        0x0 ./../../lib/libhardware.a(stm32f10x_tim.o)
 .text.TI2_Config
                0x0000000000000000       0x48 ./../../lib/libhardware.a(stm32f10x_tim.o)
 .text.TIM_OC1Init
                0x0000000000000000       0x94 ./../../lib/libhardware.a(stm32f10x_tim.o)
 .text.TIM_OC2Init
                0x0000000000000000       0xa0 ./../../lib/libhardware.a(stm32f10x_tim.o)
 .text.TIM_OC3Init
                0x0000000000000000       0x9c ./../../lib/libhardware.a(stm32f10x_tim.o)
 .text.TIM_OC4Init
                0x0000000000000000       0x80 ./../../lib/libhardware.a(stm32f10x_tim.o)
 .text.TIM_ICInit
                0x0000000000000000      0x130 ./../../lib/libhardware.a(stm32f10x_tim.o)
 .text.TIM_PWMIConfig
                0x0000000000000000      0x102 ./../../lib/libhardware.a(stm32f10x_tim.o)
 .text.TIM_BDTRConfig
                0x0000000000000000       0x24 ./../../lib/libhardware.a(stm32f10x_tim.o)
 .text.TIM_OCStructInit
                0x0000000000000000       0x14 ./../../lib/libhardware.a(stm32f10x_tim.o)
 .text.TIM_ICStructInit
                0x0000000000000000       0x10 ./../../lib/libhardware.a(stm32f10x_tim.o)
 .text.TIM_BDTRStructInit
                0x0000000000000000       0x12 ./../../lib/libhardware.a(stm32f10x_tim.o)
 .text.TIM_CtrlPWMOutputs
                0x0000000000000000       0x20 ./../../lib/libhardware.a(stm32f10x_tim.o)
 .text.TIM_GenerateEvent
                0x0000000000000000        0x4 ./../../lib/libhardware.a(stm32f10x_tim.o)
 .text.TIM_DMAConfig
                0x0000000000000000        0xa ./../../lib/libhardware.a(stm32f10x_tim.o)
 .text.TIM_DMACmd
                0x0000000000000000       0x16 ./../../lib/libhardware.a(stm32f10x_tim.o)
 .text.TIM_InternalClockConfig
                0x0000000000000000        0xe ./../../lib/libhardware.a(stm32f10x_tim.o)
 .text.TIM_ITRxExternalClockConfig
                0x0000000000000000       0x1c ./../../lib/libhardware.a(stm32f10x_tim.o)
 .text.TIM_TIxExternalClockConfig
                0x0000000000000000       0x60 ./../../lib/libhardware.a(stm32f10x_tim.o)
 .text.TIM_ETRClockMode1Config
                0x0000000000000000       0x28 ./../../lib/libhardware.a(stm32f10x_tim.o)
 .text.TIM_ETRClockMode2Config
                0x0000000000000000       0x22 ./../../lib/libhardware.a(stm32f10x_tim.o)
 .text.TIM_ETRConfig
                0x0000000000000000       0x18 ./../../lib/libhardware.a(stm32f10x_tim.o)
 .text.TIM_PrescalerConfig
                0x0000000000000000        0x6 ./../../lib/libhardware.a(stm32f10x_tim.o)
 .text.TIM_CounterModeConfig
                0x0000000000000000       0x12 ./../../lib/libhardware.a(stm32f10x_tim.o)
 .text.TIM_SelectInputTrigger
                0x0000000000000000       0x12 ./../../lib/libhardware.a(stm32f10x_tim.o)
 .text.TIM_EncoderInterfaceConfig
                0x0000000000000000       0x44 ./../../lib/libhardware.a(stm32f10x_tim.o)
 .text.TIM_ForcedOC1Config
                0x0000000000000000       0x12 ./../../lib/libhardware.a(stm32f10x_tim.o)
 .text.TIM_ForcedOC2Config
                0x0000000000000000       0x14 ./../../lib/libhardware.a(stm32f10x_tim.o)
 .text.TIM_ForcedOC3Config
                0x0000000000000000       0x12 ./../../lib/libhardware.a(stm32f10x_tim.o)
 .text.TIM_ForcedOC4Config
                0x0000000000000000       0x14 ./../../lib/libhardware.a(stm32f10x_tim.o)
 .text.TIM_SelectCOM
                0x0000000000000000       0x1a ./../../lib/libhardware.a(stm32f10x_tim.o)
 .text.TIM_SelectCCDMA
                0x0000000000000000       0x1a ./../../lib/libhardware.a(stm32f10x_tim.o)
 .text.TIM_CCPreloadControl
                0x0000000000000000       0x1a ./../../lib/libhardware.a(stm32f10x_tim.o)
 .text.TIM_OC1PreloadConfig
                0x0000000000000000       0x12 ./../../lib/libhardware.a(stm32f10x_tim.o)
 .text.TIM_OC2PreloadConfig
                0x0000000000000000       0x14 ./../../lib/libhardware.a(stm32f10x_tim.o)
 .text.TIM_OC3PreloadConfig
                0x0000000000000000       0x12 ./../../lib/libhardware.a(stm32f10x_tim.o)
 .text.TIM_OC4PreloadConfig
                0x0000000000000000       0x14 ./../../lib/libhardware.a(stm32f10x_tim.o)
 .text.TIM_OC1FastConfig
                0x0000000000000000       0x12 ./../../lib/libhardware.a(stm32f10x_tim.o)
 .text.TIM_OC2FastConfig
                0x0000000000000000       0x14 ./../../lib/libhardware.a(stm32f10x_tim.o)
 .text.TIM_OC3FastConfig
                0x0000000000000000       0x12 ./../../lib/libhardware.a(stm32f10x_tim.o)
 .text.TIM_OC4FastConfig
                0x0000000000000000       0x14 ./../../lib/libhardware.a(stm32f10x_tim.o)
 .text.TIM_ClearOC1Ref
                0x0000000000000000       0x12 ./../../lib/libhardware.a(stm32f10x_tim.o)
 .text.TIM_ClearOC2Ref
                0x0000000000000000       0x10 ./../../lib/libhardware.a(stm32f10x_tim.o)
 .text.TIM_ClearOC3Ref
                0x0000000000000000       0x12 ./../../lib/libhardware.a(stm32f10x_tim.o)
 .text.TIM_ClearOC4Ref
                0x0000000000000000       0x10 ./../../lib/libhardware.a(stm32f10x_tim.o)
 .text.TIM_OC1PolarityConfig
                0x0000000000000000       0x12 ./../../lib/libhardware.a(stm32f10x_tim.o)
 .text.TIM_OC1NPolarityConfig
                0x0000000000000000       0x12 ./../../lib/libhardware.a(stm32f10x_tim.o)
 .text.TIM_OC2PolarityConfig
                0x0000000000000000       0x14 ./../../lib/libhardware.a(stm32f10x_tim.o)
 .text.TIM_OC2NPolarityConfig
                0x0000000000000000       0x14 ./../../lib/libhardware.a(stm32f10x_tim.o)
 .text.TIM_OC3PolarityConfig
                0x0000000000000000       0x14 ./../../lib/libhardware.a(stm32f10x_tim.o)
 .text.TIM_OC3NPolarityConfig
                0x0000000000000000       0x14 ./../../lib/libhardware.a(stm32f10x_tim.o)
 .text.TIM_OC4PolarityConfig
                0x0000000000000000       0x14 ./../../lib/libhardware.a(stm32f10x_tim.o)
 .text.TIM_CCxCmd
                0x0000000000000000       0x20 ./../../lib/libhardware.a(stm32f10x_tim.o)
 .text.TIM_CCxNCmd
                0x0000000000000000       0x20 ./../../lib/libhardware.a(stm32f10x_tim.o)
 .text.TIM_SelectOCxM
                0x0000000000000000       0x62 ./../../lib/libhardware.a(stm32f10x_tim.o)
 .text.TIM_UpdateDisableConfig
                0x0000000000000000       0x1a ./../../lib/libhardware.a(stm32f10x_tim.o)
 .text.TIM_UpdateRequestConfig
                0x0000000000000000       0x1a ./../../lib/libhardware.a(stm32f10x_tim.o)
 .text.TIM_SelectHallSensor
                0x0000000000000000       0x1a ./../../lib/libhardware.a(stm32f10x_tim.o)
 .text.TIM_SelectOnePulseMode
                0x0000000000000000       0x16 ./../../lib/libhardware.a(stm32f10x_tim.o)
 .text.TIM_SelectOutputTrigger
                0x0000000000000000       0x16 ./../../lib/libhardware.a(stm32f10x_tim.o)
 .text.TIM_SelectSlaveMode
                0x0000000000000000       0x16 ./../../lib/libhardware.a(stm32f10x_tim.o)
 .text.TIM_SelectMasterSlaveMode
                0x0000000000000000       0x16 ./../../lib/libhardware.a(stm32f10x_tim.o)
 .text.TIM_SetCounter
                0x0000000000000000        0x4 ./../../lib/libhardware.a(stm32f10x_tim.o)
 .text.TIM_SetAutoreload
                0x0000000000000000        0x4 ./../../lib/libhardware.a(stm32f10x_tim.o)
 .text.TIM_SetCompare1
                0x0000000000000000        0x4 ./../../lib/libhardware.a(stm32f10x_tim.o)
 .text.TIM_SetCompare2
                0x0000000000000000        0x4 ./../../lib/libhardware.a(stm32f10x_tim.o)
 .text.TIM_SetCompare3
                0x0000000000000000        0x4 ./../../lib/libhardware.a(stm32f10x_tim.o)
 .text.TIM_SetCompare4
                0x0000000000000000        0x6 ./../../lib/libhardware.a(stm32f10x_tim.o)
 .text.TIM_SetIC1Prescaler
                0x0000000000000000       0x16 ./../../lib/libhardware.a(stm32f10x_tim.o)
 .text.TIM_SetIC2Prescaler
                0x0000000000000000       0x1a ./../../lib/libhardware.a(stm32f10x_tim.o)
 .text.TIM_SetIC3Prescaler
                0x0000000000000000       0x16 ./../../lib/libhardware.a(stm32f10x_tim.o)
 .text.TIM_SetIC4Prescaler
                0x0000000000000000       0x1a ./../../lib/libhardware.a(stm32f10x_tim.o)
 .text.TIM_SetClockDivision
                0x0000000000000000       0x10 ./../../lib/libhardware.a(stm32f10x_tim.o)
 .text.TIM_GetCapture1
                0x0000000000000000        0x6 ./../../lib/libhardware.a(stm32f10x_tim.o)
 .text.TIM_GetCapture2
                0x0000000000000000        0x6 ./../../lib/libhardware.a(stm32f10x_tim.o)
 .text.TIM_GetCapture3
                0x0000000000000000        0x6 ./../../lib/libhardware.a(stm32f10x_tim.o)
 .text.TIM_GetCapture4
                0x0000000000000000        0x8 ./../../lib/libhardware.a(stm32f10x_tim.o)
 .text.TIM_GetCounter
                0x0000000000000000        0x6 ./../../lib/libhardware.a(stm32f10x_tim.o)
 .text.TIM_GetPrescaler
                0x0000000000000000        0x6 ./../../lib/libhardware.a(stm32f10x_tim.o)
 .text.TIM_GetFlagStatus
                0x0000000000000000        0xc ./../../lib/libhardware.a(stm32f10x_tim.o)
 .text.TIM_ClearFlag
                0x0000000000000000        0x8 ./../../lib/libhardware.a(stm32f10x_tim.o)
 .text.TIM_GetITStatus
                0x0000000000000000       0x18 ./../../lib/libhardware.a(stm32f10x_tim.o)
 .text          0x0000000000000000        0x0 ./../../lib/libcmsis.a(system_stm32f10x.o)
 .data          0x0000000000000000        0x0 ./../../lib/libcmsis.a(system_stm32f10x.o)
 .bss           0x0000000000000000        0x0 ./../../lib/libcmsis.a(system_stm32f10x.o)
 .rodata.SystemFrequency_AHBClk
                0x0000000000000000        0x4 ./../../lib/libcmsis.a(system_stm32f10x.o)
 .rodata.SystemFrequency_SysClk
                0x0000000000000000        0x4 ./../../lib/libcmsis.a(system_stm32f10x.o)
 .rodata.SystemFrequency
                0x0000000000000000        0x4 ./../../lib/libcmsis.a(system_stm32f10x.o)
 .rodata.SystemFrequency_APB1Clk
                0x0000000000000000        0x4 ./../../lib/libcmsis.a(system_stm32f10x.o)
 .rodata.SystemFrequency_APB2Clk
                0x0000000000000000        0x4 ./../../lib/libcmsis.a(system_stm32f10x.o)
 .text          0x0000000000000000        0x0 /opt/kgp_arm_eabi/lib/gcc/arm-kgp-eabi/4.5.0/../../../../arm-kgp-eabi/lib/thumb/cortex-m3/libc.a(lib_a-atoi.o)
 .data          0x0000000000000000        0x0 /opt/kgp_arm_eabi/lib/gcc/arm-kgp-eabi/4.5.0/../../../../arm-kgp-eabi/lib/thumb/cortex-m3/libc.a(lib_a-atoi.o)
 .bss           0x0000000000000000        0x0 /opt/kgp_arm_eabi/lib/gcc/arm-kgp-eabi/4.5.0/../../../../arm-kgp-eabi/lib/thumb/cortex-m3/libc.a(lib_a-atoi.o)
 .text._atoi_r  0x0000000000000000        0xc /opt/kgp_arm_eabi/lib/gcc/arm-kgp-eabi/4.5.0/../../../../arm-kgp-eabi/lib/thumb/cortex-m3/libc.a(lib_a-atoi.o)
 .text          0x0000000000000000        0x0 /opt/kgp_arm_eabi/lib/gcc/arm-kgp-eabi/4.5.0/../../../../arm-kgp-eabi/lib/thumb/cortex-m3/libc.a(lib_a-memcmp.o)
 .data          0x0000000000000000        0x0 /opt/kgp_arm_eabi/lib/gcc/arm-kgp-eabi/4.5.0/../../../../arm-kgp-eabi/lib/thumb/cortex-m3/libc.a(lib_a-memcmp.o)
 .bss           0x0000000000000000        0x0 /opt/kgp_arm_eabi/lib/gcc/arm-kgp-eabi/4.5.0/../../../../arm-kgp-eabi/lib/thumb/cortex-m3/libc.a(lib_a-memcmp.o)
 .text          0x0000000000000000        0x0 /opt/kgp_arm_eabi/lib/gcc/arm-kgp-eabi/4.5.0/../../../../arm-kgp-eabi/lib/thumb/cortex-m3/libc.a(lib_a-memcpy.o)
 .data          0x0000000000000000        0x0 /opt/kgp_arm_eabi/lib/gcc/arm-kgp-eabi/4.5.0/../../../../arm-kgp-eabi/lib/thumb/cortex-m3/libc.a(lib_a-memcpy.o)
 .bss           0x0000000000000000        0x0 /opt/kgp_arm_eabi/lib/gcc/arm-kgp-eabi/4.5.0/../../../../arm-kgp-eabi/lib/thumb/cortex-m3/libc.a(lib_a-memcpy.o)
 .text          0x0000000000000000        0x0 /opt/kgp_arm_eabi/lib/gcc/arm-kgp-eabi/4.5.0/../../../../arm-kgp-eabi/lib/thumb/cortex-m3/libc.a(lib_a-memset.o)
 .data          0x0000000000000000        0x0 /opt/kgp_arm_eabi/lib/gcc/arm-kgp-eabi/4.5.0/../../../../arm-kgp-eabi/lib/thumb/cortex-m3/libc.a(lib_a-memset.o)
 .bss           0x0000000000000000        0x0 /opt/kgp_arm_eabi/lib/gcc/arm-kgp-eabi/4.5.0/../../../../arm-kgp-eabi/lib/thumb/cortex-m3/libc.a(lib_a-memset.o)
 .text          0x0000000000000000        0x0 /opt/kgp_arm_eabi/lib/gcc/arm-kgp-eabi/4.5.0/../../../../arm-kgp-eabi/lib/thumb/cortex-m3/libc.a(lib_a-printf.o)
 .data          0x0000000000000000        0x0 /opt/kgp_arm_eabi/lib/gcc/arm-kgp-eabi/4.5.0/../../../../arm-kgp-eabi/lib/thumb/cortex-m3/libc.a(lib_a-printf.o)
 .bss           0x0000000000000000        0x0 /opt/kgp_arm_eabi/lib/gcc/arm-kgp-eabi/4.5.0/../../../../arm-kgp-eabi/lib/thumb/cortex-m3/libc.a(lib_a-printf.o)
 .text._printf_r
                0x0000000000000000       0x1a /opt/kgp_arm_eabi/lib/gcc/arm-kgp-eabi/4.5.0/../../../../arm-kgp-eabi/lib/thumb/cortex-m3/libc.a(lib_a-printf.o)
 .text.printf   0x0000000000000000       0x24 /opt/kgp_arm_eabi/lib/gcc/arm-kgp-eabi/4.5.0/../../../../arm-kgp-eabi/lib/thumb/cortex-m3/libc.a(lib_a-printf.o)
 .text          0x0000000000000000        0x0 /opt/kgp_arm_eabi/lib/gcc/arm-kgp-eabi/4.5.0/../../../../arm-kgp-eabi/lib/thumb/cortex-m3/libc.a(lib_a-snprintf.o)
 .data          0x0000000000000000        0x0 /opt/kgp_arm_eabi/lib/gcc/arm-kgp-eabi/4.5.0/../../../../arm-kgp-eabi/lib/thumb/cortex-m3/libc.a(lib_a-snprintf.o)
 .bss           0x0000000000000000        0x0 /opt/kgp_arm_eabi/lib/gcc/arm-kgp-eabi/4.5.0/../../../../arm-kgp-eabi/lib/thumb/cortex-m3/libc.a(lib_a-snprintf.o)
 .text._snprintf_r
                0x0000000000000000       0x64 /opt/kgp_arm_eabi/lib/gcc/arm-kgp-eabi/4.5.0/../../../../arm-kgp-eabi/lib/thumb/cortex-m3/libc.a(lib_a-snprintf.o)
 .text          0x0000000000000000        0x0 /opt/kgp_arm_eabi/lib/gcc/arm-kgp-eabi/4.5.0/../../../../arm-kgp-eabi/lib/thumb/cortex-m3/libc.a(lib_a-sprintf.o)
 .data          0x0000000000000000        0x0 /opt/kgp_arm_eabi/lib/gcc/arm-kgp-eabi/4.5.0/../../../../arm-kgp-eabi/lib/thumb/cortex-m3/libc.a(lib_a-sprintf.o)
 .bss           0x0000000000000000        0x0 /opt/kgp_arm_eabi/lib/gcc/arm-kgp-eabi/4.5.0/../../../../arm-kgp-eabi/lib/thumb/cortex-m3/libc.a(lib_a-sprintf.o)
 .text._sprintf_r
                0x0000000000000000       0x44 /opt/kgp_arm_eabi/lib/gcc/arm-kgp-eabi/4.5.0/../../../../arm-kgp-eabi/lib/thumb/cortex-m3/libc.a(lib_a-sprintf.o)
 .text          0x0000000000000000        0x0 /opt/kgp_arm_eabi/lib/gcc/arm-kgp-eabi/4.5.0/../../../../arm-kgp-eabi/lib/thumb/cortex-m3/libc.a(lib_a-strcat.o)
 .data          0x0000000000000000        0x0 /opt/kgp_arm_eabi/lib/gcc/arm-kgp-eabi/4.5.0/../../../../arm-kgp-eabi/lib/thumb/cortex-m3/libc.a(lib_a-strcat.o)
 .bss           0x0000000000000000        0x0 /opt/kgp_arm_eabi/lib/gcc/arm-kgp-eabi/4.5.0/../../../../arm-kgp-eabi/lib/thumb/cortex-m3/libc.a(lib_a-strcat.o)
 .text.strcat   0x0000000000000000       0x1e /opt/kgp_arm_eabi/lib/gcc/arm-kgp-eabi/4.5.0/../../../../arm-kgp-eabi/lib/thumb/cortex-m3/libc.a(lib_a-strcat.o)
 .text          0x0000000000000000        0x0 /opt/kgp_arm_eabi/lib/gcc/arm-kgp-eabi/4.5.0/../../../../arm-kgp-eabi/lib/thumb/cortex-m3/libc.a(lib_a-strchr.o)
 .data          0x0000000000000000        0x0 /opt/kgp_arm_eabi/lib/gcc/arm-kgp-eabi/4.5.0/../../../../arm-kgp-eabi/lib/thumb/cortex-m3/libc.a(lib_a-strchr.o)
 .bss           0x0000000000000000        0x0 /opt/kgp_arm_eabi/lib/gcc/arm-kgp-eabi/4.5.0/../../../../arm-kgp-eabi/lib/thumb/cortex-m3/libc.a(lib_a-strchr.o)
 .text          0x0000000000000000        0x0 /opt/kgp_arm_eabi/lib/gcc/arm-kgp-eabi/4.5.0/../../../../arm-kgp-eabi/lib/thumb/cortex-m3/libc.a(lib_a-strcpy.o)
 .data          0x0000000000000000        0x0 /opt/kgp_arm_eabi/lib/gcc/arm-kgp-eabi/4.5.0/../../../../arm-kgp-eabi/lib/thumb/cortex-m3/libc.a(lib_a-strcpy.o)
 .bss           0x0000000000000000        0x0 /opt/kgp_arm_eabi/lib/gcc/arm-kgp-eabi/4.5.0/../../../../arm-kgp-eabi/lib/thumb/cortex-m3/libc.a(lib_a-strcpy.o)
 .text          0x0000000000000000        0x0 /opt/kgp_arm_eabi/lib/gcc/arm-kgp-eabi/4.5.0/../../../../arm-kgp-eabi/lib/thumb/cortex-m3/libc.a(lib_a-strlen.o)
 .data          0x0000000000000000        0x0 /opt/kgp_arm_eabi/lib/gcc/arm-kgp-eabi/4.5.0/../../../../arm-kgp-eabi/lib/thumb/cortex-m3/libc.a(lib_a-strlen.o)
 .bss           0x0000000000000000        0x0 /opt/kgp_arm_eabi/lib/gcc/arm-kgp-eabi/4.5.0/../../../../arm-kgp-eabi/lib/thumb/cortex-m3/libc.a(lib_a-strlen.o)
 .text          0x0000000000000000        0x0 /opt/kgp_arm_eabi/lib/gcc/arm-kgp-eabi/4.5.0/../../../../arm-kgp-eabi/lib/thumb/cortex-m3/libc.a(lib_a-strncmp.o)
 .data          0x0000000000000000        0x0 /opt/kgp_arm_eabi/lib/gcc/arm-kgp-eabi/4.5.0/../../../../arm-kgp-eabi/lib/thumb/cortex-m3/libc.a(lib_a-strncmp.o)
 .bss           0x0000000000000000        0x0 /opt/kgp_arm_eabi/lib/gcc/arm-kgp-eabi/4.5.0/../../../../arm-kgp-eabi/lib/thumb/cortex-m3/libc.a(lib_a-strncmp.o)
 .text          0x0000000000000000        0x0 /opt/kgp_arm_eabi/lib/gcc/arm-kgp-eabi/4.5.0/../../../../arm-kgp-eabi/lib/thumb/cortex-m3/libc.a(lib_a-strncpy.o)
 .data          0x0000000000000000        0x0 /opt/kgp_arm_eabi/lib/gcc/arm-kgp-eabi/4.5.0/../../../../arm-kgp-eabi/lib/thumb/cortex-m3/libc.a(lib_a-strncpy.o)
 .bss           0x0000000000000000        0x0 /opt/kgp_arm_eabi/lib/gcc/arm-kgp-eabi/4.5.0/../../../../arm-kgp-eabi/lib/thumb/cortex-m3/libc.a(lib_a-strncpy.o)
 .text          0x0000000000000000        0x0 /opt/kgp_arm_eabi/lib/gcc/arm-kgp-eabi/4.5.0/../../../../arm-kgp-eabi/lib/thumb/cortex-m3/libc.a(lib_a-strrchr.o)
 .data          0x0000000000000000        0x0 /opt/kgp_arm_eabi/lib/gcc/arm-kgp-eabi/4.5.0/../../../../arm-kgp-eabi/lib/thumb/cortex-m3/libc.a(lib_a-strrchr.o)
 .bss           0x0000000000000000        0x0 /opt/kgp_arm_eabi/lib/gcc/arm-kgp-eabi/4.5.0/../../../../arm-kgp-eabi/lib/thumb/cortex-m3/libc.a(lib_a-strrchr.o)
 .text          0x0000000000000000        0x0 /opt/kgp_arm_eabi/lib/gcc/arm-kgp-eabi/4.5.0/../../../../arm-kgp-eabi/lib/thumb/cortex-m3/libc.a(lib_a-strtol.o)
 .data          0x0000000000000000        0x0 /opt/kgp_arm_eabi/lib/gcc/arm-kgp-eabi/4.5.0/../../../../arm-kgp-eabi/lib/thumb/cortex-m3/libc.a(lib_a-strtol.o)
 .bss           0x0000000000000000        0x0 /opt/kgp_arm_eabi/lib/gcc/arm-kgp-eabi/4.5.0/../../../../arm-kgp-eabi/lib/thumb/cortex-m3/libc.a(lib_a-strtol.o)
 .text          0x0000000000000000        0x0 /opt/kgp_arm_eabi/lib/gcc/arm-kgp-eabi/4.5.0/../../../../arm-kgp-eabi/lib/thumb/cortex-m3/libc.a(lib_a-svfprintf.o)
 .data          0x0000000000000000        0x0 /opt/kgp_arm_eabi/lib/gcc/arm-kgp-eabi/4.5.0/../../../../arm-kgp-eabi/lib/thumb/cortex-m3/libc.a(lib_a-svfprintf.o)
 .bss           0x0000000000000000        0x0 /opt/kgp_arm_eabi/lib/gcc/arm-kgp-eabi/4.5.0/../../../../arm-kgp-eabi/lib/thumb/cortex-m3/libc.a(lib_a-svfprintf.o)
 .text          0x0000000000000000        0x0 /opt/kgp_arm_eabi/lib/gcc/arm-kgp-eabi/4.5.0/../../../../arm-kgp-eabi/lib/thumb/cortex-m3/libc.a(lib_a-vfprintf.o)
 .data          0x0000000000000000        0x0 /opt/kgp_arm_eabi/lib/gcc/arm-kgp-eabi/4.5.0/../../../../arm-kgp-eabi/lib/thumb/cortex-m3/libc.a(lib_a-vfprintf.o)
 .bss           0x0000000000000000        0x0 /opt/kgp_arm_eabi/lib/gcc/arm-kgp-eabi/4.5.0/../../../../arm-kgp-eabi/lib/thumb/cortex-m3/libc.a(lib_a-vfprintf.o)
 .text._vfprintf_r
                0x0000000000000000     0x138c /opt/kgp_arm_eabi/lib/gcc/arm-kgp-eabi/4.5.0/../../../../arm-kgp-eabi/lib/thumb/cortex-m3/libc.a(lib_a-vfprintf.o)
 .text.vfprintf
                0x0000000000000000       0x1c /opt/kgp_arm_eabi/lib/gcc/arm-kgp-eabi/4.5.0/../../../../arm-kgp-eabi/lib/thumb/cortex-m3/libc.a(lib_a-vfprintf.o)
 .rodata.zeroes.3929
                0x0000000000000000       0x10 /opt/kgp_arm_eabi/lib/gcc/arm-kgp-eabi/4.5.0/../../../../arm-kgp-eabi/lib/thumb/cortex-m3/libc.a(lib_a-vfprintf.o)
 .rodata.str1.1
                0x0000000000000000       0x34 /opt/kgp_arm_eabi/lib/gcc/arm-kgp-eabi/4.5.0/../../../../arm-kgp-eabi/lib/thumb/cortex-m3/libc.a(lib_a-vfprintf.o)
 .rodata.blanks.3928
                0x0000000000000000       0x10 /opt/kgp_arm_eabi/lib/gcc/arm-kgp-eabi/4.5.0/../../../../arm-kgp-eabi/lib/thumb/cortex-m3/libc.a(lib_a-vfprintf.o)
 .text          0x0000000000000000        0x0 /opt/kgp_arm_eabi/lib/gcc/arm-kgp-eabi/4.5.0/../../../../arm-kgp-eabi/lib/thumb/cortex-m3/libc.a(lib_a-wsetup.o)
 .data          0x0000000000000000        0x0 /opt/kgp_arm_eabi/lib/gcc/arm-kgp-eabi/4.5.0/../../../../arm-kgp-eabi/lib/thumb/cortex-m3/libc.a(lib_a-wsetup.o)
 .bss           0x0000000000000000        0x0 /opt/kgp_arm_eabi/lib/gcc/arm-kgp-eabi/4.5.0/../../../../arm-kgp-eabi/lib/thumb/cortex-m3/libc.a(lib_a-wsetup.o)
 .text.__swsetup_r
                0x0000000000000000       0xb8 /opt/kgp_arm_eabi/lib/gcc/arm-kgp-eabi/4.5.0/../../../../arm-kgp-eabi/lib/thumb/cortex-m3/libc.a(lib_a-wsetup.o)
 .text          0x0000000000000000        0x0 /opt/kgp_arm_eabi/lib/gcc/arm-kgp-eabi/4.5.0/../../../../arm-kgp-eabi/lib/thumb/cortex-m3/libc.a(lib_a-ctype_.o)
 .data          0x0000000000000000        0x0 /opt/kgp_arm_eabi/lib/gcc/arm-kgp-eabi/4.5.0/../../../../arm-kgp-eabi/lib/thumb/cortex-m3/libc.a(lib_a-ctype_.o)
 .bss           0x0000000000000000        0x0 /opt/kgp_arm_eabi/lib/gcc/arm-kgp-eabi/4.5.0/../../../../arm-kgp-eabi/lib/thumb/cortex-m3/libc.a(lib_a-ctype_.o)
 .text          0x0000000000000000        0x0 /opt/kgp_arm_eabi/lib/gcc/arm-kgp-eabi/4.5.0/../../../../arm-kgp-eabi/lib/thumb/cortex-m3/libc.a(lib_a-dtoa.o)
 .data          0x0000000000000000        0x0 /opt/kgp_arm_eabi/lib/gcc/arm-kgp-eabi/4.5.0/../../../../arm-kgp-eabi/lib/thumb/cortex-m3/libc.a(lib_a-dtoa.o)
 .bss           0x0000000000000000        0x0 /opt/kgp_arm_eabi/lib/gcc/arm-kgp-eabi/4.5.0/../../../../arm-kgp-eabi/lib/thumb/cortex-m3/libc.a(lib_a-dtoa.o)
 .text          0x0000000000000000        0x0 /opt/kgp_arm_eabi/lib/gcc/arm-kgp-eabi/4.5.0/../../../../arm-kgp-eabi/lib/thumb/cortex-m3/libc.a(lib_a-fflush.o)
 .data          0x0000000000000000        0x0 /opt/kgp_arm_eabi/lib/gcc/arm-kgp-eabi/4.5.0/../../../../arm-kgp-eabi/lib/thumb/cortex-m3/libc.a(lib_a-fflush.o)
 .bss           0x0000000000000000        0x0 /opt/kgp_arm_eabi/lib/gcc/arm-kgp-eabi/4.5.0/../../../../arm-kgp-eabi/lib/thumb/cortex-m3/libc.a(lib_a-fflush.o)
 .text._fflush_r
                0x0000000000000000      0x172 /opt/kgp_arm_eabi/lib/gcc/arm-kgp-eabi/4.5.0/../../../../arm-kgp-eabi/lib/thumb/cortex-m3/libc.a(lib_a-fflush.o)
 .text.fflush   0x0000000000000000       0x28 /opt/kgp_arm_eabi/lib/gcc/arm-kgp-eabi/4.5.0/../../../../arm-kgp-eabi/lib/thumb/cortex-m3/libc.a(lib_a-fflush.o)
 .text          0x0000000000000000        0x0 /opt/kgp_arm_eabi/lib/gcc/arm-kgp-eabi/4.5.0/../../../../arm-kgp-eabi/lib/thumb/cortex-m3/libc.a(lib_a-findfp.o)
 .data          0x0000000000000000        0x0 /opt/kgp_arm_eabi/lib/gcc/arm-kgp-eabi/4.5.0/../../../../arm-kgp-eabi/lib/thumb/cortex-m3/libc.a(lib_a-findfp.o)
 .bss           0x0000000000000000        0x0 /opt/kgp_arm_eabi/lib/gcc/arm-kgp-eabi/4.5.0/../../../../arm-kgp-eabi/lib/thumb/cortex-m3/libc.a(lib_a-findfp.o)
 .text.__fp_lock
                0x0000000000000000        0x4 /opt/kgp_arm_eabi/lib/gcc/arm-kgp-eabi/4.5.0/../../../../arm-kgp-eabi/lib/thumb/cortex-m3/libc.a(lib_a-findfp.o)
 .text.__fp_unlock
                0x0000000000000000        0x4 /opt/kgp_arm_eabi/lib/gcc/arm-kgp-eabi/4.5.0/../../../../arm-kgp-eabi/lib/thumb/cortex-m3/libc.a(lib_a-findfp.o)
 .text._cleanup_r
                0x0000000000000000       0x10 /opt/kgp_arm_eabi/lib/gcc/arm-kgp-eabi/4.5.0/../../../../arm-kgp-eabi/lib/thumb/cortex-m3/libc.a(lib_a-findfp.o)
 .text.__sfmoreglue
                0x0000000000000000       0x2a /opt/kgp_arm_eabi/lib/gcc/arm-kgp-eabi/4.5.0/../../../../arm-kgp-eabi/lib/thumb/cortex-m3/libc.a(lib_a-findfp.o)
 .text._cleanup
                0x0000000000000000       0x10 /opt/kgp_arm_eabi/lib/gcc/arm-kgp-eabi/4.5.0/../../../../arm-kgp-eabi/lib/thumb/cortex-m3/libc.a(lib_a-findfp.o)
 .text.__sinit  0x0000000000000000       0xec /opt/kgp_arm_eabi/lib/gcc/arm-kgp-eabi/4.5.0/../../../../arm-kgp-eabi/lib/thumb/cortex-m3/libc.a(lib_a-findfp.o)
 .text.__sfp    0x0000000000000000       0x7c /opt/kgp_arm_eabi/lib/gcc/arm-kgp-eabi/4.5.0/../../../../arm-kgp-eabi/lib/thumb/cortex-m3/libc.a(lib_a-findfp.o)
 .text.__sfp_lock_acquire
                0x0000000000000000        0x2 /opt/kgp_arm_eabi/lib/gcc/arm-kgp-eabi/4.5.0/../../../../arm-kgp-eabi/lib/thumb/cortex-m3/libc.a(lib_a-findfp.o)
 .text.__sfp_lock_release
                0x0000000000000000        0x2 /opt/kgp_arm_eabi/lib/gcc/arm-kgp-eabi/4.5.0/../../../../arm-kgp-eabi/lib/thumb/cortex-m3/libc.a(lib_a-findfp.o)
 .text.__sinit_lock_acquire
                0x0000000000000000        0x2 /opt/kgp_arm_eabi/lib/gcc/arm-kgp-eabi/4.5.0/../../../../arm-kgp-eabi/lib/thumb/cortex-m3/libc.a(lib_a-findfp.o)
 .text.__sinit_lock_release
                0x0000000000000000        0x2 /opt/kgp_arm_eabi/lib/gcc/arm-kgp-eabi/4.5.0/../../../../arm-kgp-eabi/lib/thumb/cortex-m3/libc.a(lib_a-findfp.o)
 .text.__fp_lock_all
                0x0000000000000000       0x18 /opt/kgp_arm_eabi/lib/gcc/arm-kgp-eabi/4.5.0/../../../../arm-kgp-eabi/lib/thumb/cortex-m3/libc.a(lib_a-findfp.o)
 .text.__fp_unlock_all
                0x0000000000000000       0x18 /opt/kgp_arm_eabi/lib/gcc/arm-kgp-eabi/4.5.0/../../../../arm-kgp-eabi/lib/thumb/cortex-m3/libc.a(lib_a-findfp.o)
 .text          0x0000000000000000        0x0 /opt/kgp_arm_eabi/lib/gcc/arm-kgp-eabi/4.5.0/../../../../arm-kgp-eabi/lib/thumb/cortex-m3/libc.a(lib_a-freer.o)
 .data          0x0000000000000000        0x0 /opt/kgp_arm_eabi/lib/gcc/arm-kgp-eabi/4.5.0/../../../../arm-kgp-eabi/lib/thumb/cortex-m3/libc.a(lib_a-freer.o)
 .bss           0x0000000000000000        0x0 /opt/kgp_arm_eabi/lib/gcc/arm-kgp-eabi/4.5.0/../../../../arm-kgp-eabi/lib/thumb/cortex-m3/libc.a(lib_a-freer.o)
 .text          0x0000000000000000        0x0 /opt/kgp_arm_eabi/lib/gcc/arm-kgp-eabi/4.5.0/../../../../arm-kgp-eabi/lib/thumb/cortex-m3/libc.a(lib_a-fwalk.o)
 .data          0x0000000000000000        0x0 /opt/kgp_arm_eabi/lib/gcc/arm-kgp-eabi/4.5.0/../../../../arm-kgp-eabi/lib/thumb/cortex-m3/libc.a(lib_a-fwalk.o)
 .bss           0x0000000000000000        0x0 /opt/kgp_arm_eabi/lib/gcc/arm-kgp-eabi/4.5.0/../../../../arm-kgp-eabi/lib/thumb/cortex-m3/libc.a(lib_a-fwalk.o)
 .text._fwalk   0x0000000000000000       0x46 /opt/kgp_arm_eabi/lib/gcc/arm-kgp-eabi/4.5.0/../../../../arm-kgp-eabi/lib/thumb/cortex-m3/libc.a(lib_a-fwalk.o)
 .text._fwalk_reent
                0x0000000000000000       0x4a /opt/kgp_arm_eabi/lib/gcc/arm-kgp-eabi/4.5.0/../../../../arm-kgp-eabi/lib/thumb/cortex-m3/libc.a(lib_a-fwalk.o)
 .text          0x0000000000000000        0x0 /opt/kgp_arm_eabi/lib/gcc/arm-kgp-eabi/4.5.0/../../../../arm-kgp-eabi/lib/thumb/cortex-m3/libc.a(lib_a-impure.o)
 .data          0x0000000000000000        0x0 /opt/kgp_arm_eabi/lib/gcc/arm-kgp-eabi/4.5.0/../../../../arm-kgp-eabi/lib/thumb/cortex-m3/libc.a(lib_a-impure.o)
 .bss           0x0000000000000000        0x0 /opt/kgp_arm_eabi/lib/gcc/arm-kgp-eabi/4.5.0/../../../../arm-kgp-eabi/lib/thumb/cortex-m3/libc.a(lib_a-impure.o)
 .rodata._global_impure_ptr
                0x0000000000000000        0x4 /opt/kgp_arm_eabi/lib/gcc/arm-kgp-eabi/4.5.0/../../../../arm-kgp-eabi/lib/thumb/cortex-m3/libc.a(lib_a-impure.o)
 .text          0x0000000000000000        0x0 /opt/kgp_arm_eabi/lib/gcc/arm-kgp-eabi/4.5.0/../../../../arm-kgp-eabi/lib/thumb/cortex-m3/libc.a(lib_a-locale.o)
 .data          0x0000000000000000        0x0 /opt/kgp_arm_eabi/lib/gcc/arm-kgp-eabi/4.5.0/../../../../arm-kgp-eabi/lib/thumb/cortex-m3/libc.a(lib_a-locale.o)
 .bss           0x0000000000000000        0x0 /opt/kgp_arm_eabi/lib/gcc/arm-kgp-eabi/4.5.0/../../../../arm-kgp-eabi/lib/thumb/cortex-m3/libc.a(lib_a-locale.o)
 .text._setlocale_r
                0x0000000000000000       0x40 /opt/kgp_arm_eabi/lib/gcc/arm-kgp-eabi/4.5.0/../../../../arm-kgp-eabi/lib/thumb/cortex-m3/libc.a(lib_a-locale.o)
 .text.__locale_charset
                0x0000000000000000        0x8 /opt/kgp_arm_eabi/lib/gcc/arm-kgp-eabi/4.5.0/../../../../arm-kgp-eabi/lib/thumb/cortex-m3/libc.a(lib_a-locale.o)
 .text.__locale_msgcharset
                0x0000000000000000        0x8 /opt/kgp_arm_eabi/lib/gcc/arm-kgp-eabi/4.5.0/../../../../arm-kgp-eabi/lib/thumb/cortex-m3/libc.a(lib_a-locale.o)
 .text.__locale_cjk_lang
                0x0000000000000000        0x4 /opt/kgp_arm_eabi/lib/gcc/arm-kgp-eabi/4.5.0/../../../../arm-kgp-eabi/lib/thumb/cortex-m3/libc.a(lib_a-locale.o)
 .text.setlocale
                0x0000000000000000       0x18 /opt/kgp_arm_eabi/lib/gcc/arm-kgp-eabi/4.5.0/../../../../arm-kgp-eabi/lib/thumb/cortex-m3/libc.a(lib_a-locale.o)
 .text.localeconv
                0x0000000000000000        0x8 /opt/kgp_arm_eabi/lib/gcc/arm-kgp-eabi/4.5.0/../../../../arm-kgp-eabi/lib/thumb/cortex-m3/libc.a(lib_a-locale.o)
 .data.lc_message_charset
                0x0000000000000000       0x20 /opt/kgp_arm_eabi/lib/gcc/arm-kgp-eabi/4.5.0/../../../../arm-kgp-eabi/lib/thumb/cortex-m3/libc.a(lib_a-locale.o)
 .bss._PathLocale
                0x0000000000000000        0x4 /opt/kgp_arm_eabi/lib/gcc/arm-kgp-eabi/4.5.0/../../../../arm-kgp-eabi/lib/thumb/cortex-m3/libc.a(lib_a-locale.o)
 .bss.__nlocale_changed
                0x0000000000000000        0x4 /opt/kgp_arm_eabi/lib/gcc/arm-kgp-eabi/4.5.0/../../../../arm-kgp-eabi/lib/thumb/cortex-m3/libc.a(lib_a-locale.o)
 .bss.__mlocale_changed
                0x0000000000000000        0x4 /opt/kgp_arm_eabi/lib/gcc/arm-kgp-eabi/4.5.0/../../../../arm-kgp-eabi/lib/thumb/cortex-m3/libc.a(lib_a-locale.o)
 .data.lc_ctype_charset
                0x0000000000000000       0x20 /opt/kgp_arm_eabi/lib/gcc/arm-kgp-eabi/4.5.0/../../../../arm-kgp-eabi/lib/thumb/cortex-m3/libc.a(lib_a-locale.o)
 .data.__mb_cur_max
                0x0000000000000000        0x4 /opt/kgp_arm_eabi/lib/gcc/arm-kgp-eabi/4.5.0/../../../../arm-kgp-eabi/lib/thumb/cortex-m3/libc.a(lib_a-locale.o)
 .text          0x0000000000000000        0x0 /opt/kgp_arm_eabi/lib/gcc/arm-kgp-eabi/4.5.0/../../../../arm-kgp-eabi/lib/thumb/cortex-m3/libc.a(lib_a-makebuf.o)
 .data          0x0000000000000000        0x0 /opt/kgp_arm_eabi/lib/gcc/arm-kgp-eabi/4.5.0/../../../../arm-kgp-eabi/lib/thumb/cortex-m3/libc.a(lib_a-makebuf.o)
 .bss           0x0000000000000000        0x0 /opt/kgp_arm_eabi/lib/gcc/arm-kgp-eabi/4.5.0/../../../../arm-kgp-eabi/lib/thumb/cortex-m3/libc.a(lib_a-makebuf.o)
 .text.__smakebuf_r
                0x0000000000000000       0xd8 /opt/kgp_arm_eabi/lib/gcc/arm-kgp-eabi/4.5.0/../../../../arm-kgp-eabi/lib/thumb/cortex-m3/libc.a(lib_a-makebuf.o)
 .text          0x0000000000000000        0x0 /opt/kgp_arm_eabi/lib/gcc/arm-kgp-eabi/4.5.0/../../../../arm-kgp-eabi/lib/thumb/cortex-m3/libc.a(lib_a-mallocr.o)
 .data          0x0000000000000000        0x0 /opt/kgp_arm_eabi/lib/gcc/arm-kgp-eabi/4.5.0/../../../../arm-kgp-eabi/lib/thumb/cortex-m3/libc.a(lib_a-mallocr.o)
 .bss           0x0000000000000000        0x0 /opt/kgp_arm_eabi/lib/gcc/arm-kgp-eabi/4.5.0/../../../../arm-kgp-eabi/lib/thumb/cortex-m3/libc.a(lib_a-mallocr.o)
 .text          0x0000000000000000        0x0 /opt/kgp_arm_eabi/lib/gcc/arm-kgp-eabi/4.5.0/../../../../arm-kgp-eabi/lib/thumb/cortex-m3/libc.a(lib_a-memchr.o)
 .data          0x0000000000000000        0x0 /opt/kgp_arm_eabi/lib/gcc/arm-kgp-eabi/4.5.0/../../../../arm-kgp-eabi/lib/thumb/cortex-m3/libc.a(lib_a-memchr.o)
 .bss           0x0000000000000000        0x0 /opt/kgp_arm_eabi/lib/gcc/arm-kgp-eabi/4.5.0/../../../../arm-kgp-eabi/lib/thumb/cortex-m3/libc.a(lib_a-memchr.o)
 .text          0x0000000000000000        0x0 /opt/kgp_arm_eabi/lib/gcc/arm-kgp-eabi/4.5.0/../../../../arm-kgp-eabi/lib/thumb/cortex-m3/libc.a(lib_a-mlock.o)
 .data          0x0000000000000000        0x0 /opt/kgp_arm_eabi/lib/gcc/arm-kgp-eabi/4.5.0/../../../../arm-kgp-eabi/lib/thumb/cortex-m3/libc.a(lib_a-mlock.o)
 .bss           0x0000000000000000        0x0 /opt/kgp_arm_eabi/lib/gcc/arm-kgp-eabi/4.5.0/../../../../arm-kgp-eabi/lib/thumb/cortex-m3/libc.a(lib_a-mlock.o)
 .text          0x0000000000000000        0x0 /opt/kgp_arm_eabi/lib/gcc/arm-kgp-eabi/4.5.0/../../../../arm-kgp-eabi/lib/thumb/cortex-m3/libc.a(lib_a-mprec.o)
 .data          0x0000000000000000        0x0 /opt/kgp_arm_eabi/lib/gcc/arm-kgp-eabi/4.5.0/../../../../arm-kgp-eabi/lib/thumb/cortex-m3/libc.a(lib_a-mprec.o)
 .bss           0x0000000000000000        0x0 /opt/kgp_arm_eabi/lib/gcc/arm-kgp-eabi/4.5.0/../../../../arm-kgp-eabi/lib/thumb/cortex-m3/libc.a(lib_a-mprec.o)
 .text.__s2b    0x0000000000000000       0x86 /opt/kgp_arm_eabi/lib/gcc/arm-kgp-eabi/4.5.0/../../../../arm-kgp-eabi/lib/thumb/cortex-m3/libc.a(lib_a-mprec.o)
 .text.__ulp    0x0000000000000000       0x42 /opt/kgp_arm_eabi/lib/gcc/arm-kgp-eabi/4.5.0/../../../../arm-kgp-eabi/lib/thumb/cortex-m3/libc.a(lib_a-mprec.o)
 .text.__b2d    0x0000000000000000       0xa6 /opt/kgp_arm_eabi/lib/gcc/arm-kgp-eabi/4.5.0/../../../../arm-kgp-eabi/lib/thumb/cortex-m3/libc.a(lib_a-mprec.o)
 .text.__ratio  0x0000000000000000       0x58 /opt/kgp_arm_eabi/lib/gcc/arm-kgp-eabi/4.5.0/../../../../arm-kgp-eabi/lib/thumb/cortex-m3/libc.a(lib_a-mprec.o)
 .text._mprec_log10
                0x0000000000000000       0x38 /opt/kgp_arm_eabi/lib/gcc/arm-kgp-eabi/4.5.0/../../../../arm-kgp-eabi/lib/thumb/cortex-m3/libc.a(lib_a-mprec.o)
 .text.__copybits
                0x0000000000000000       0x32 /opt/kgp_arm_eabi/lib/gcc/arm-kgp-eabi/4.5.0/../../../../arm-kgp-eabi/lib/thumb/cortex-m3/libc.a(lib_a-mprec.o)
 .text.__any_on
                0x0000000000000000       0x46 /opt/kgp_arm_eabi/lib/gcc/arm-kgp-eabi/4.5.0/../../../../arm-kgp-eabi/lib/thumb/cortex-m3/libc.a(lib_a-mprec.o)
 .rodata.__mprec_tinytens
                0x0000000000000000       0x28 /opt/kgp_arm_eabi/lib/gcc/arm-kgp-eabi/4.5.0/../../../../arm-kgp-eabi/lib/thumb/cortex-m3/libc.a(lib_a-mprec.o)
 .text          0x0000000000000000        0x0 /opt/kgp_arm_eabi/lib/gcc/arm-kgp-eabi/4.5.0/../../../../arm-kgp-eabi/lib/thumb/cortex-m3/libc.a(lib_a-s_fpclassify.o)
 .data          0x0000000000000000        0x0 /opt/kgp_arm_eabi/lib/gcc/arm-kgp-eabi/4.5.0/../../../../arm-kgp-eabi/lib/thumb/cortex-m3/libc.a(lib_a-s_fpclassify.o)
 .bss           0x0000000000000000        0x0 /opt/kgp_arm_eabi/lib/gcc/arm-kgp-eabi/4.5.0/../../../../arm-kgp-eabi/lib/thumb/cortex-m3/libc.a(lib_a-s_fpclassify.o)
 .text          0x0000000000000000        0x0 /opt/kgp_arm_eabi/lib/gcc/arm-kgp-eabi/4.5.0/../../../../arm-kgp-eabi/lib/thumb/cortex-m3/libc.a(lib_a-stdio.o)
 .data          0x0000000000000000        0x0 /opt/kgp_arm_eabi/lib/gcc/arm-kgp-eabi/4.5.0/../../../../arm-kgp-eabi/lib/thumb/cortex-m3/libc.a(lib_a-stdio.o)
 .bss           0x0000000000000000        0x0 /opt/kgp_arm_eabi/lib/gcc/arm-kgp-eabi/4.5.0/../../../../arm-kgp-eabi/lib/thumb/cortex-m3/libc.a(lib_a-stdio.o)
 .text.__sread  0x0000000000000000       0x22 /opt/kgp_arm_eabi/lib/gcc/arm-kgp-eabi/4.5.0/../../../../arm-kgp-eabi/lib/thumb/cortex-m3/libc.a(lib_a-stdio.o)
 .text.__seofread
                0x0000000000000000        0x4 /opt/kgp_arm_eabi/lib/gcc/arm-kgp-eabi/4.5.0/../../../../arm-kgp-eabi/lib/thumb/cortex-m3/libc.a(lib_a-stdio.o)
 .text.__swrite
                0x0000000000000000       0x36 /opt/kgp_arm_eabi/lib/gcc/arm-kgp-eabi/4.5.0/../../../../arm-kgp-eabi/lib/thumb/cortex-m3/libc.a(lib_a-stdio.o)
 .text.__sseek  0x0000000000000000       0x26 /opt/kgp_arm_eabi/lib/gcc/arm-kgp-eabi/4.5.0/../../../../arm-kgp-eabi/lib/thumb/cortex-m3/libc.a(lib_a-stdio.o)
 .text.__sclose
                0x0000000000000000        0xc /opt/kgp_arm_eabi/lib/gcc/arm-kgp-eabi/4.5.0/../../../../arm-kgp-eabi/lib/thumb/cortex-m3/libc.a(lib_a-stdio.o)
 .text          0x0000000000000000        0x0 /opt/kgp_arm_eabi/lib/gcc/arm-kgp-eabi/4.5.0/../../../../arm-kgp-eabi/lib/thumb/cortex-m3/libc.a(lib_a-strcmp.o)
 .data          0x0000000000000000        0x0 /opt/kgp_arm_eabi/lib/gcc/arm-kgp-eabi/4.5.0/../../../../arm-kgp-eabi/lib/thumb/cortex-m3/libc.a(lib_a-strcmp.o)
 .bss           0x0000000000000000        0x0 /opt/kgp_arm_eabi/lib/gcc/arm-kgp-eabi/4.5.0/../../../../arm-kgp-eabi/lib/thumb/cortex-m3/libc.a(lib_a-strcmp.o)
 .text.strcmp   0x0000000000000000       0x18 /opt/kgp_arm_eabi/lib/gcc/arm-kgp-eabi/4.5.0/../../../../arm-kgp-eabi/lib/thumb/cortex-m3/libc.a(lib_a-strcmp.o)
 .text          0x0000000000000000        0x0 /opt/kgp_arm_eabi/lib/gcc/arm-kgp-eabi/4.5.0/../../../../arm-kgp-eabi/lib/thumb/cortex-m3/libc.a(lib_a-svfiprintf.o)
 .data          0x0000000000000000        0x0 /opt/kgp_arm_eabi/lib/gcc/arm-kgp-eabi/4.5.0/../../../../arm-kgp-eabi/lib/thumb/cortex-m3/libc.a(lib_a-svfiprintf.o)
 .bss           0x0000000000000000        0x0 /opt/kgp_arm_eabi/lib/gcc/arm-kgp-eabi/4.5.0/../../../../arm-kgp-eabi/lib/thumb/cortex-m3/libc.a(lib_a-svfiprintf.o)
 .text._svfiprintf_r
                0x0000000000000000      0x7e8 /opt/kgp_arm_eabi/lib/gcc/arm-kgp-eabi/4.5.0/../../../../arm-kgp-eabi/lib/thumb/cortex-m3/libc.a(lib_a-svfiprintf.o)
 .rodata.blanks.3857
                0x0000000000000000       0x10 /opt/kgp_arm_eabi/lib/gcc/arm-kgp-eabi/4.5.0/../../../../arm-kgp-eabi/lib/thumb/cortex-m3/libc.a(lib_a-svfiprintf.o)
 .rodata.str1.1
                0x0000000000000000       0x22 /opt/kgp_arm_eabi/lib/gcc/arm-kgp-eabi/4.5.0/../../../../arm-kgp-eabi/lib/thumb/cortex-m3/libc.a(lib_a-svfiprintf.o)
 .rodata.zeroes.3858
                0x0000000000000000       0x10 /opt/kgp_arm_eabi/lib/gcc/arm-kgp-eabi/4.5.0/../../../../arm-kgp-eabi/lib/thumb/cortex-m3/libc.a(lib_a-svfiprintf.o)
 .text          0x0000000000000000        0x0 /opt/kgp_arm_eabi/lib/gcc/arm-kgp-eabi/4.5.0/../../../../arm-kgp-eabi/lib/thumb/cortex-m3/libc.a(lib_a-vfiprintf.o)
 .data          0x0000000000000000        0x0 /opt/kgp_arm_eabi/lib/gcc/arm-kgp-eabi/4.5.0/../../../../arm-kgp-eabi/lib/thumb/cortex-m3/libc.a(lib_a-vfiprintf.o)
 .bss           0x0000000000000000        0x0 /opt/kgp_arm_eabi/lib/gcc/arm-kgp-eabi/4.5.0/../../../../arm-kgp-eabi/lib/thumb/cortex-m3/libc.a(lib_a-vfiprintf.o)
 .text.__sprint_r
                0x0000000000000000       0x80 /opt/kgp_arm_eabi/lib/gcc/arm-kgp-eabi/4.5.0/../../../../arm-kgp-eabi/lib/thumb/cortex-m3/libc.a(lib_a-vfiprintf.o)
 .text._vfiprintf_r
                0x0000000000000000      0x984 /opt/kgp_arm_eabi/lib/gcc/arm-kgp-eabi/4.5.0/../../../../arm-kgp-eabi/lib/thumb/cortex-m3/libc.a(lib_a-vfiprintf.o)
 .text.vfiprintf
                0x0000000000000000       0x1c /opt/kgp_arm_eabi/lib/gcc/arm-kgp-eabi/4.5.0/../../../../arm-kgp-eabi/lib/thumb/cortex-m3/libc.a(lib_a-vfiprintf.o)
 .rodata.zeroes.3872
                0x0000000000000000       0x10 /opt/kgp_arm_eabi/lib/gcc/arm-kgp-eabi/4.5.0/../../../../arm-kgp-eabi/lib/thumb/cortex-m3/libc.a(lib_a-vfiprintf.o)
 .rodata.str1.1
                0x0000000000000000       0x22 /opt/kgp_arm_eabi/lib/gcc/arm-kgp-eabi/4.5.0/../../../../arm-kgp-eabi/lib/thumb/cortex-m3/libc.a(lib_a-vfiprintf.o)
 .rodata.blanks.3871
                0x0000000000000000       0x10 /opt/kgp_arm_eabi/lib/gcc/arm-kgp-eabi/4.5.0/../../../../arm-kgp-eabi/lib/thumb/cortex-m3/libc.a(lib_a-vfiprintf.o)
 .text          0x0000000000000000        0x0 /opt/kgp_arm_eabi/lib/gcc/arm-kgp-eabi/4.5.0/../../../../arm-kgp-eabi/lib/thumb/cortex-m3/libc.a(lib_a-callocr.o)
 .data          0x0000000000000000        0x0 /opt/kgp_arm_eabi/lib/gcc/arm-kgp-eabi/4.5.0/../../../../arm-kgp-eabi/lib/thumb/cortex-m3/libc.a(lib_a-callocr.o)
 .bss           0x0000000000000000        0x0 /opt/kgp_arm_eabi/lib/gcc/arm-kgp-eabi/4.5.0/../../../../arm-kgp-eabi/lib/thumb/cortex-m3/libc.a(lib_a-callocr.o)
 .text          0x0000000000000000        0x0 /opt/kgp_arm_eabi/lib/gcc/arm-kgp-eabi/4.5.0/../../../../arm-kgp-eabi/lib/thumb/cortex-m3/libc.a(lib_a-fclose.o)
 .data          0x0000000000000000        0x0 /opt/kgp_arm_eabi/lib/gcc/arm-kgp-eabi/4.5.0/../../../../arm-kgp-eabi/lib/thumb/cortex-m3/libc.a(lib_a-fclose.o)
 .bss           0x0000000000000000        0x0 /opt/kgp_arm_eabi/lib/gcc/arm-kgp-eabi/4.5.0/../../../../arm-kgp-eabi/lib/thumb/cortex-m3/libc.a(lib_a-fclose.o)
 .text._fclose_r
                0x0000000000000000       0x80 /opt/kgp_arm_eabi/lib/gcc/arm-kgp-eabi/4.5.0/../../../../arm-kgp-eabi/lib/thumb/cortex-m3/libc.a(lib_a-fclose.o)
 .text.fclose   0x0000000000000000       0x14 /opt/kgp_arm_eabi/lib/gcc/arm-kgp-eabi/4.5.0/../../../../arm-kgp-eabi/lib/thumb/cortex-m3/libc.a(lib_a-fclose.o)
 .text          0x0000000000000000        0x0 /opt/kgp_arm_eabi/lib/gcc/arm-kgp-eabi/4.5.0/../../../../arm-kgp-eabi/lib/thumb/cortex-m3/libc.a(lib_a-fputwc.o)
 .data          0x0000000000000000        0x0 /opt/kgp_arm_eabi/lib/gcc/arm-kgp-eabi/4.5.0/../../../../arm-kgp-eabi/lib/thumb/cortex-m3/libc.a(lib_a-fputwc.o)
 .bss           0x0000000000000000        0x0 /opt/kgp_arm_eabi/lib/gcc/arm-kgp-eabi/4.5.0/../../../../arm-kgp-eabi/lib/thumb/cortex-m3/libc.a(lib_a-fputwc.o)
 .text._fputwc_r
                0x0000000000000000       0xdc /opt/kgp_arm_eabi/lib/gcc/arm-kgp-eabi/4.5.0/../../../../arm-kgp-eabi/lib/thumb/cortex-m3/libc.a(lib_a-fputwc.o)
 .text.fputwc   0x0000000000000000       0x28 /opt/kgp_arm_eabi/lib/gcc/arm-kgp-eabi/4.5.0/../../../../arm-kgp-eabi/lib/thumb/cortex-m3/libc.a(lib_a-fputwc.o)
 .text          0x0000000000000000        0x0 /opt/kgp_arm_eabi/lib/gcc/arm-kgp-eabi/4.5.0/../../../../arm-kgp-eabi/lib/thumb/cortex-m3/libc.a(lib_a-fvwrite.o)
 .data          0x0000000000000000        0x0 /opt/kgp_arm_eabi/lib/gcc/arm-kgp-eabi/4.5.0/../../../../arm-kgp-eabi/lib/thumb/cortex-m3/libc.a(lib_a-fvwrite.o)
 .bss           0x0000000000000000        0x0 /opt/kgp_arm_eabi/lib/gcc/arm-kgp-eabi/4.5.0/../../../../arm-kgp-eabi/lib/thumb/cortex-m3/libc.a(lib_a-fvwrite.o)
 .text.__sfvwrite_r
                0x0000000000000000      0x304 /opt/kgp_arm_eabi/lib/gcc/arm-kgp-eabi/4.5.0/../../../../arm-kgp-eabi/lib/thumb/cortex-m3/libc.a(lib_a-fvwrite.o)
 .text          0x0000000000000000        0x0 /opt/kgp_arm_eabi/lib/gcc/arm-kgp-eabi/4.5.0/../../../../arm-kgp-eabi/lib/thumb/cortex-m3/libc.a(lib_a-memmove.o)
 .data          0x0000000000000000        0x0 /opt/kgp_arm_eabi/lib/gcc/arm-kgp-eabi/4.5.0/../../../../arm-kgp-eabi/lib/thumb/cortex-m3/libc.a(lib_a-memmove.o)
 .bss           0x0000000000000000        0x0 /opt/kgp_arm_eabi/lib/gcc/arm-kgp-eabi/4.5.0/../../../../arm-kgp-eabi/lib/thumb/cortex-m3/libc.a(lib_a-memmove.o)
 .text          0x0000000000000000        0x0 /opt/kgp_arm_eabi/lib/gcc/arm-kgp-eabi/4.5.0/../../../../arm-kgp-eabi/lib/thumb/cortex-m3/libc.a(lib_a-reallocr.o)
 .data          0x0000000000000000        0x0 /opt/kgp_arm_eabi/lib/gcc/arm-kgp-eabi/4.5.0/../../../../arm-kgp-eabi/lib/thumb/cortex-m3/libc.a(lib_a-reallocr.o)
 .bss           0x0000000000000000        0x0 /opt/kgp_arm_eabi/lib/gcc/arm-kgp-eabi/4.5.0/../../../../arm-kgp-eabi/lib/thumb/cortex-m3/libc.a(lib_a-reallocr.o)
 .text          0x0000000000000000        0x0 /opt/kgp_arm_eabi/lib/gcc/arm-kgp-eabi/4.5.0/../../../../arm-kgp-eabi/lib/thumb/cortex-m3/libc.a(lib_a-wbuf.o)
 .data          0x0000000000000000        0x0 /opt/kgp_arm_eabi/lib/gcc/arm-kgp-eabi/4.5.0/../../../../arm-kgp-eabi/lib/thumb/cortex-m3/libc.a(lib_a-wbuf.o)
 .bss           0x0000000000000000        0x0 /opt/kgp_arm_eabi/lib/gcc/arm-kgp-eabi/4.5.0/../../../../arm-kgp-eabi/lib/thumb/cortex-m3/libc.a(lib_a-wbuf.o)
 .text.__swbuf_r
                0x0000000000000000       0xb0 /opt/kgp_arm_eabi/lib/gcc/arm-kgp-eabi/4.5.0/../../../../arm-kgp-eabi/lib/thumb/cortex-m3/libc.a(lib_a-wbuf.o)
 .text.__swbuf  0x0000000000000000       0x18 /opt/kgp_arm_eabi/lib/gcc/arm-kgp-eabi/4.5.0/../../../../arm-kgp-eabi/lib/thumb/cortex-m3/libc.a(lib_a-wbuf.o)
 .text          0x0000000000000000        0x0 /opt/kgp_arm_eabi/lib/gcc/arm-kgp-eabi/4.5.0/../../../../arm-kgp-eabi/lib/thumb/cortex-m3/libc.a(lib_a-wcrtomb.o)
 .data          0x0000000000000000        0x0 /opt/kgp_arm_eabi/lib/gcc/arm-kgp-eabi/4.5.0/../../../../arm-kgp-eabi/lib/thumb/cortex-m3/libc.a(lib_a-wcrtomb.o)
 .bss           0x0000000000000000        0x0 /opt/kgp_arm_eabi/lib/gcc/arm-kgp-eabi/4.5.0/../../../../arm-kgp-eabi/lib/thumb/cortex-m3/libc.a(lib_a-wcrtomb.o)
 .text._wcrtomb_r
                0x0000000000000000       0x54 /opt/kgp_arm_eabi/lib/gcc/arm-kgp-eabi/4.5.0/../../../../arm-kgp-eabi/lib/thumb/cortex-m3/libc.a(lib_a-wcrtomb.o)
 .text.wcrtomb  0x0000000000000000       0x1c /opt/kgp_arm_eabi/lib/gcc/arm-kgp-eabi/4.5.0/../../../../arm-kgp-eabi/lib/thumb/cortex-m3/libc.a(lib_a-wcrtomb.o)
 .text          0x0000000000000000        0x0 /opt/kgp_arm_eabi/lib/gcc/arm-kgp-eabi/4.5.0/../../../../arm-kgp-eabi/lib/thumb/cortex-m3/libc.a(lib_a-wctomb_r.o)
 .data          0x0000000000000000        0x0 /opt/kgp_arm_eabi/lib/gcc/arm-kgp-eabi/4.5.0/../../../../arm-kgp-eabi/lib/thumb/cortex-m3/libc.a(lib_a-wctomb_r.o)
 .bss           0x0000000000000000        0x0 /opt/kgp_arm_eabi/lib/gcc/arm-kgp-eabi/4.5.0/../../../../arm-kgp-eabi/lib/thumb/cortex-m3/libc.a(lib_a-wctomb_r.o)
 .text.__ascii_wctomb
                0x0000000000000000       0x1a /opt/kgp_arm_eabi/lib/gcc/arm-kgp-eabi/4.5.0/../../../../arm-kgp-eabi/lib/thumb/cortex-m3/libc.a(lib_a-wctomb_r.o)
 .text._wctomb_r
                0x0000000000000000       0x2c /opt/kgp_arm_eabi/lib/gcc/arm-kgp-eabi/4.5.0/../../../../arm-kgp-eabi/lib/thumb/cortex-m3/libc.a(lib_a-wctomb_r.o)
 .data.__wctomb
                0x0000000000000000        0x4 /opt/kgp_arm_eabi/lib/gcc/arm-kgp-eabi/4.5.0/../../../../arm-kgp-eabi/lib/thumb/cortex-m3/libc.a(lib_a-wctomb_r.o)
 .data          0x0000000000000000        0x0 /opt/kgp_arm_eabi/lib/gcc/arm-kgp-eabi/4.5.0/thumb/cortex-m3/libgcc.a(_arm_addsubdf3.o)
 .bss           0x0000000000000000        0x0 /opt/kgp_arm_eabi/lib/gcc/arm-kgp-eabi/4.5.0/thumb/cortex-m3/libgcc.a(_arm_addsubdf3.o)
 .data          0x0000000000000000        0x0 /opt/kgp_arm_eabi/lib/gcc/arm-kgp-eabi/4.5.0/thumb/cortex-m3/libgcc.a(_arm_muldivdf3.o)
 .bss           0x0000000000000000        0x0 /opt/kgp_arm_eabi/lib/gcc/arm-kgp-eabi/4.5.0/thumb/cortex-m3/libgcc.a(_arm_muldivdf3.o)
 .data          0x0000000000000000        0x0 /opt/kgp_arm_eabi/lib/gcc/arm-kgp-eabi/4.5.0/thumb/cortex-m3/libgcc.a(_arm_cmpdf2.o)
 .bss           0x0000000000000000        0x0 /opt/kgp_arm_eabi/lib/gcc/arm-kgp-eabi/4.5.0/thumb/cortex-m3/libgcc.a(_arm_cmpdf2.o)
 .data          0x0000000000000000        0x0 /opt/kgp_arm_eabi/lib/gcc/arm-kgp-eabi/4.5.0/thumb/cortex-m3/libgcc.a(_arm_fixdfsi.o)
 .bss           0x0000000000000000        0x0 /opt/kgp_arm_eabi/lib/gcc/arm-kgp-eabi/4.5.0/thumb/cortex-m3/libgcc.a(_arm_fixdfsi.o)

Memory Configuration

Name             Origin             Length             Attributes
flash            0x0000000008000000 0x0000000000040000 xr
ram              0x0000000020000000 0x0000000000010000 xrw
*default*        0x0000000000000000 0xffffffffffffffff

Linker script and memory map

LOAD can_test.o
LOAD crt.o
LOAD main.o
LOAD rtl8201cp.o
LOAD stm32f10x_it.o
LOAD syscalls.o
LOAD sys_init.o
LOAD timer.o
LOAD ./../../lib/libuip-1.0.a
LOAD ./../../lib/libethernet.a
LOAD ./../../lib/libfreertos-6.0.2.a
LOAD ./../../lib/libhardware.a
LOAD ./../../lib/libcmsis.a
LOAD /opt/kgp_arm_eabi/lib/gcc/arm-kgp-eabi/4.5.0/../../../../arm-kgp-eabi/lib/thumb/cortex-m3/libm.a
START GROUP
LOAD /opt/kgp_arm_eabi/lib/gcc/arm-kgp-eabi/4.5.0/thumb/cortex-m3/libgcc.a
LOAD /opt/kgp_arm_eabi/lib/gcc/arm-kgp-eabi/4.5.0/../../../../arm-kgp-eabi/lib/thumb/cortex-m3/libc.a
END GROUP
                0x000000002000ffff                _stack_end_ = 0x2000ffff
                0x0000000000000000                . = 0x0

.text           0x0000000008000000    0x26934
                0x0000000008000000                . = ALIGN (0x4)
 *(.flash_vec_table)
 .flash_vec_table
                0x0000000008000000      0x1e4 crt.o
                0x0000000008000000                flash_vec_table
 *(.text)
 .text          0x00000000080001e4      0x370 /opt/kgp_arm_eabi/lib/gcc/arm-kgp-eabi/4.5.0/thumb/cortex-m3/libgcc.a(_arm_addsubdf3.o)
                0x00000000080001e4                __aeabi_drsub
                0x00000000080001ec                __aeabi_dsub
                0x00000000080001ec                __subdf3
                0x00000000080001f0                __adddf3
                0x00000000080001f0                __aeabi_dadd
                0x0000000008000468                __aeabi_ui2d
                0x0000000008000468                __floatunsidf
                0x0000000008000488                __floatsidf
                0x0000000008000488                __aeabi_i2d
                0x00000000080004ac                __extendsfdf2
                0x00000000080004ac                __aeabi_f2d
                0x00000000080004e8                __aeabi_ul2d
                0x00000000080004e8                __floatundidf
                0x00000000080004f8                __floatdidf
                0x00000000080004f8                __aeabi_l2d
 .text          0x0000000008000554      0x424 /opt/kgp_arm_eabi/lib/gcc/arm-kgp-eabi/4.5.0/thumb/cortex-m3/libgcc.a(_arm_muldivdf3.o)
                0x0000000008000554                __aeabi_dmul
                0x0000000008000554                __muldf3
                0x00000000080007a8                __aeabi_ddiv
                0x00000000080007a8                __divdf3
 .text          0x0000000008000978      0x110 /opt/kgp_arm_eabi/lib/gcc/arm-kgp-eabi/4.5.0/thumb/cortex-m3/libgcc.a(_arm_cmpdf2.o)
                0x0000000008000978                __gtdf2
                0x0000000008000978                __gedf2
                0x0000000008000980                __ltdf2
                0x0000000008000980                __ledf2
                0x0000000008000988                __cmpdf2
                0x0000000008000988                __eqdf2
                0x0000000008000988                __nedf2
                0x0000000008000a04                __aeabi_cdrcmple
                0x0000000008000a14                __aeabi_cdcmple
                0x0000000008000a14                __aeabi_cdcmpeq
                0x0000000008000a24                __aeabi_dcmpeq
                0x0000000008000a38                __aeabi_dcmplt
                0x0000000008000a4c                __aeabi_dcmple
                0x0000000008000a60                __aeabi_dcmpge
                0x0000000008000a74                __aeabi_dcmpgt
 .text          0x0000000008000a88       0x50 /opt/kgp_arm_eabi/lib/gcc/arm-kgp-eabi/4.5.0/thumb/cortex-m3/libgcc.a(_arm_fixdfsi.o)
                0x0000000008000a88                __fixdfsi
                0x0000000008000a88                __aeabi_d2iz
 *(.text*)
 .text.can_deinit
                0x0000000008000ad8       0x6c can_test.o
                0x0000000008000ad8                can_deinit
 .text.can_init
                0x0000000008000b44      0x158 can_test.o
                0x0000000008000b44                can_init
 .text.can_tx   0x0000000008000c9c       0x5c can_test.o
                0x0000000008000c9c                can_tx
 .text.can_test
                0x0000000008000cf8       0x68 can_test.o
                0x0000000008000cf8                can_test
 .text.crt_init
                0x0000000008000d60       0x68 crt.o
                0x0000000008000d60                crt_init
 .text.Reset_Handler
                0x0000000008000dc8       0x28 crt.o
                0x0000000008000dc8                Reset_Handler
 .text.uip_periodic_task
                0x0000000008000df0       0x44 main.o
                0x0000000008000df0                uip_periodic_task
 .text.uip_recv_task
                0x0000000008000e34       0x54 main.o
                0x0000000008000e34                uip_recv_task
 .text.vApplicationIdleHook
                0x0000000008000e88       0x2c main.o
                0x0000000008000e88                vApplicationIdleHook
 .text.vApplicationTickHook
                0x0000000008000eb4        0x2 main.o
                0x0000000008000eb4                vApplicationTickHook
 .text.vApplicationStackOverflowHook
                0x0000000008000eb6        0x6 main.o
                0x0000000008000eb6                vApplicationStackOverflowHook
 .text.main     0x0000000008000ebc       0x68 main.o
                0x0000000008000ebc                main
 .text.rtl8201cp_read_regs
                0x0000000008000f24      0x108 rtl8201cp.o
                0x0000000008000f24                rtl8201cp_read_regs
 .text.NMIExceptionHandler
                0x000000000800102c        0x2 stm32f10x_it.o
                0x000000000800102c                NMIExceptionHandler
 .text.HardFaultExceptionHandler
                0x000000000800102e       0x16 stm32f10x_it.o
                0x000000000800102e                HardFaultExceptionHandler
 .text.MemManageExceptionHandler
                0x0000000008001044        0x4 stm32f10x_it.o
                0x0000000008001044                MemManageExceptionHandler
 .text.BusFaultExceptionHandler
                0x0000000008001048        0x4 stm32f10x_it.o
                0x0000000008001048                BusFaultExceptionHandler
 .text.UsageFaultExceptionHandler
                0x000000000800104c        0x4 stm32f10x_it.o
                0x000000000800104c                UsageFaultExceptionHandler
 .text.DebugMonitorHandler
                0x0000000008001050        0x0 stm32f10x_it.o
                0x0000000008001050                DebugMonitorHandler
 .text.WWDG_IRQHandler
                0x0000000008001050        0x2 stm32f10x_it.o
                0x0000000008001050                WWDG_IRQHandler
 .text.PVD_IRQHandler
                0x0000000008001052        0x2 stm32f10x_it.o
                0x0000000008001052                PVD_IRQHandler
 .text.TAMPER_IRQHandler
                0x0000000008001054        0x2 stm32f10x_it.o
                0x0000000008001054                TAMPER_IRQHandler
 .text.RTC_IRQHandler
                0x0000000008001056        0x2 stm32f10x_it.o
                0x0000000008001056                RTC_IRQHandler
 .text.FLASH_IRQHandler
                0x0000000008001058        0x2 stm32f10x_it.o
                0x0000000008001058                FLASH_IRQHandler
 .text.RCC_IRQHandler
                0x000000000800105a        0x2 stm32f10x_it.o
                0x000000000800105a                RCC_IRQHandler
 .text.EXTI0_IRQHandler
                0x000000000800105c        0x2 stm32f10x_it.o
                0x000000000800105c                EXTI0_IRQHandler
 .text.EXTI1_IRQHandler
                0x000000000800105e        0x2 stm32f10x_it.o
                0x000000000800105e                EXTI1_IRQHandler
 .text.EXTI2_IRQHandler
                0x0000000008001060        0x2 stm32f10x_it.o
                0x0000000008001060                EXTI2_IRQHandler
 .text.EXTI3_IRQHandler
                0x0000000008001062        0x2 stm32f10x_it.o
                0x0000000008001062                EXTI3_IRQHandler
 .text.EXTI4_IRQHandler
                0x0000000008001064        0x2 stm32f10x_it.o
                0x0000000008001064                EXTI4_IRQHandler
 .text.DMA1_Channel1_IRQHandler
                0x0000000008001066        0x2 stm32f10x_it.o
                0x0000000008001066                DMA1_Channel1_IRQHandler
 .text.DMA1_Channel2_IRQHandler
                0x0000000008001068        0x2 stm32f10x_it.o
                0x0000000008001068                DMA1_Channel2_IRQHandler
 .text.DMA1_Channel3_IRQHandler
                0x000000000800106a        0x2 stm32f10x_it.o
                0x000000000800106a                DMA1_Channel3_IRQHandler
 .text.DMA1_Channel4_IRQHandler
                0x000000000800106c        0x2 stm32f10x_it.o
                0x000000000800106c                DMA1_Channel4_IRQHandler
 .text.DMA1_Channel5_IRQHandler
                0x000000000800106e        0x2 stm32f10x_it.o
                0x000000000800106e                DMA1_Channel5_IRQHandler
 .text.DMA1_Channel6_IRQHandler
                0x0000000008001070        0x2 stm32f10x_it.o
                0x0000000008001070                DMA1_Channel6_IRQHandler
 .text.DMA1_Channel7_IRQHandler
                0x0000000008001072        0x2 stm32f10x_it.o
                0x0000000008001072                DMA1_Channel7_IRQHandler
 .text.ADC1_2_IRQHandler
                0x0000000008001074        0x2 stm32f10x_it.o
                0x0000000008001074                ADC1_2_IRQHandler
 .text.CAN1_TX_IRQHandler
                0x0000000008001076        0x2 stm32f10x_it.o
                0x0000000008001076                CAN1_TX_IRQHandler
 .text.CAN1_RX0_IRQHandler
                0x0000000008001078       0x44 stm32f10x_it.o
                0x0000000008001078                CAN1_RX0_IRQHandler
 .text.CAN1_RX1_IRQHandler
                0x00000000080010bc        0x2 stm32f10x_it.o
                0x00000000080010bc                CAN1_RX1_IRQHandler
 .text.CAN1_SCE_IRQHandler
                0x00000000080010be        0x2 stm32f10x_it.o
                0x00000000080010be                CAN1_SCE_IRQHandler
 .text.EXTI9_5_IRQHandler
                0x00000000080010c0        0x2 stm32f10x_it.o
                0x00000000080010c0                EXTI9_5_IRQHandler
 .text.TIM1_BRK_IRQHandler
                0x00000000080010c2        0x2 stm32f10x_it.o
                0x00000000080010c2                TIM1_BRK_IRQHandler
 .text.TIM1_UP_IRQHandler
                0x00000000080010c4        0x2 stm32f10x_it.o
                0x00000000080010c4                TIM1_UP_IRQHandler
 .text.TIM1_TRG_COM_IRQHandler
                0x00000000080010c6        0x2 stm32f10x_it.o
                0x00000000080010c6                TIM1_TRG_COM_IRQHandler
 .text.TIM1_CC_IRQHandler
                0x00000000080010c8        0x2 stm32f10x_it.o
                0x00000000080010c8                TIM1_CC_IRQHandler
 .text.TIM3_IRQHandler
                0x00000000080010ca        0x2 stm32f10x_it.o
                0x00000000080010ca                TIM3_IRQHandler
 .text.TIM4_IRQHandler
                0x00000000080010cc        0x2 stm32f10x_it.o
                0x00000000080010cc                TIM4_IRQHandler
 .text.I2C1_EV_IRQHandler
                0x00000000080010ce        0x2 stm32f10x_it.o
                0x00000000080010ce                I2C1_EV_IRQHandler
 .text.I2C1_ER_IRQHandler
                0x00000000080010d0        0x2 stm32f10x_it.o
                0x00000000080010d0                I2C1_ER_IRQHandler
 .text.I2C2_EV_IRQHandler
                0x00000000080010d2        0x2 stm32f10x_it.o
                0x00000000080010d2                I2C2_EV_IRQHandler
 .text.I2C2_ER_IRQHandler
                0x00000000080010d4        0x2 stm32f10x_it.o
                0x00000000080010d4                I2C2_ER_IRQHandler
 .text.SPI1_IRQHandler
                0x00000000080010d6        0x2 stm32f10x_it.o
                0x00000000080010d6                SPI1_IRQHandler
 .text.SPI2_IRQHandler
                0x00000000080010d8        0x2 stm32f10x_it.o
                0x00000000080010d8                SPI2_IRQHandler
 .text.USART1_IRQHandler
                0x00000000080010da        0x2 stm32f10x_it.o
                0x00000000080010da                USART1_IRQHandler
 .text.USART2_IRQHandler
                0x00000000080010dc        0x2 stm32f10x_it.o
                0x00000000080010dc                USART2_IRQHandler
 .text.USART3_IRQHandler
                0x00000000080010de        0x2 stm32f10x_it.o
                0x00000000080010de                USART3_IRQHandler
 .text.EXTI15_10_IRQHandler
                0x00000000080010e0        0x2 stm32f10x_it.o
                0x00000000080010e0                EXTI15_10_IRQHandler
 .text.RTCAlarm_IRQHandler
                0x00000000080010e2        0x2 stm32f10x_it.o
                0x00000000080010e2                RTCAlarm_IRQHandler
 .text.OTG_FS_WKUP_IRQHandler
                0x00000000080010e4        0x2 stm32f10x_it.o
                0x00000000080010e4                OTG_FS_WKUP_IRQHandler
 .text.TIM5_IRQHandler
                0x00000000080010e6        0x2 stm32f10x_it.o
                0x00000000080010e6                TIM5_IRQHandler
 .text.SPI3_IRQHandler
                0x00000000080010e8        0x2 stm32f10x_it.o
                0x00000000080010e8                SPI3_IRQHandler
 .text.UART4_IRQHandler
                0x00000000080010ea        0x2 stm32f10x_it.o
                0x00000000080010ea                UART4_IRQHandler
 .text.UART5_IRQHandler
                0x00000000080010ec        0x2 stm32f10x_it.o
                0x00000000080010ec                UART5_IRQHandler
 .text.TIM6_IRQHandler
                0x00000000080010ee        0x2 stm32f10x_it.o
                0x00000000080010ee                TIM6_IRQHandler
 .text.TIM7_IRQHandler
                0x00000000080010f0        0x2 stm32f10x_it.o
                0x00000000080010f0                TIM7_IRQHandler
 .text.DMA2_Channel1_IRQHandler
                0x00000000080010f2        0x2 stm32f10x_it.o
                0x00000000080010f2                DMA2_Channel1_IRQHandler
 .text.DMA2_Channel2_IRQHandler
                0x00000000080010f4        0x2 stm32f10x_it.o
                0x00000000080010f4                DMA2_Channel2_IRQHandler
 .text.DMA2_Channel3_IRQHandler
                0x00000000080010f6        0x2 stm32f10x_it.o
                0x00000000080010f6                DMA2_Channel3_IRQHandler
 .text.DMA2_Channel4_IRQHandler
                0x00000000080010f8        0x2 stm32f10x_it.o
                0x00000000080010f8                DMA2_Channel4_IRQHandler
 .text.DMA2_Channel5_IRQHandler
                0x00000000080010fa        0x2 stm32f10x_it.o
                0x00000000080010fa                DMA2_Channel5_IRQHandler
 .text.ETH_IRQHandler
                0x00000000080010fc       0x20 stm32f10x_it.o
                0x00000000080010fc                ETH_IRQHandler
 .text.ETH_WKUP_IRQHandler
                0x000000000800111c        0x2 stm32f10x_it.o
                0x000000000800111c                ETH_WKUP_IRQHandler
 .text.CAN2_TX_IRQHandler
                0x000000000800111e        0x2 stm32f10x_it.o
                0x000000000800111e                CAN2_TX_IRQHandler
 .text.CAN2_RX0_IRQHandler
                0x0000000008001120       0x44 stm32f10x_it.o
                0x0000000008001120                CAN2_RX0_IRQHandler
 .text.CAN2_RX1_IRQHandler
                0x0000000008001164        0x2 stm32f10x_it.o
                0x0000000008001164                CAN2_RX1_IRQHandler
 .text.CAN2_SCE_IRQHandler
                0x0000000008001166        0x2 stm32f10x_it.o
                0x0000000008001166                CAN2_SCE_IRQHandler
 .text.OTG_FS_IRQHandler
                0x0000000008001168        0x2 stm32f10x_it.o
                0x0000000008001168                OTG_FS_IRQHandler
 .text.BootRAM  0x000000000800116a        0x2 stm32f10x_it.o
                0x000000000800116a                BootRAM
 .text._sbrk_r  0x000000000800116c        0x4 syscalls.o
                0x000000000800116c                _sbrk_r
 .text.sys_init
                0x0000000008001170      0x1e4 sys_init.o
                0x0000000008001170                sys_init
 .text.vSetupHighFrequencyTimer
                0x0000000008001354       0xac timer.o
                0x0000000008001354                vSetupHighFrequencyTimer
 .text.TIM2_IRQHandler
                0x0000000008001400       0x64 timer.o
                0x0000000008001400                TIM2_IRQHandler
 .text.uipAutoSNTPTimeSynced
                0x0000000008001464        0x2 ./../../lib/libuip-1.0.a(uip_handler.o)
 *fill*         0x0000000008001466        0x2 00
 .text.TransmitPacket
                0x0000000008001468       0x4c ./../../lib/libuip-1.0.a(uip_handler.o)
                0x0000000008001468                TransmitPacket
 .text.uip_handler_recv
                0x00000000080014b4       0x68 ./../../lib/libuip-1.0.a(uip_handler.o)
                0x00000000080014b4                uip_handler_recv
 .text.uip_handler_periodic
                0x000000000800151c       0x80 ./../../lib/libuip-1.0.a(uip_handler.o)
                0x000000000800151c                uip_handler_periodic
 .text.dispatch_tcp_appcall
                0x000000000800159c       0x28 ./../../lib/libuip-1.0.a(uip_handler.o)
                0x000000000800159c                dispatch_tcp_appcall
 .text.dispatch_udp_appcall
                0x00000000080015c4       0x2c ./../../lib/libuip-1.0.a(uip_handler.o)
                0x00000000080015c4                dispatch_udp_appcall
 .text.dhcpc_configured
                0x00000000080015f0       0xa8 ./../../lib/libuip-1.0.a(uip_handler.o)
                0x00000000080015f0                dhcpc_configured
 .text.uip_startup
                0x0000000008001698       0x34 ./../../lib/libuip-1.0.a(uip_handler.o)
                0x0000000008001698                uip_startup
 .text.timer_set
                0x00000000080016cc        0xe ./../../lib/libuip-1.0.a(uip_timer.o)
                0x00000000080016cc                timer_set
 .text.timer_reset
                0x00000000080016da        0xa ./../../lib/libuip-1.0.a(uip_timer.o)
                0x00000000080016da                timer_reset
 .text.timer_expired
                0x00000000080016e4       0x18 ./../../lib/libuip-1.0.a(uip_timer.o)
                0x00000000080016e4                timer_expired
 .text.create_msg
                0x00000000080016fc       0xb4 ./../../lib/libuip-1.0.a(dhcpc.o)
 .text.parse_msg
                0x00000000080017b0       0xf0 ./../../lib/libuip-1.0.a(dhcpc.o)
 .text.dhcpc_init
                0x00000000080018a0       0x44 ./../../lib/libuip-1.0.a(dhcpc.o)
                0x00000000080018a0                dhcpc_init
 .text.dhcpc_appcall
                0x00000000080018e4      0x208 ./../../lib/libuip-1.0.a(dhcpc.o)
                0x00000000080018e4                dhcpc_appcall
 .text.dhcpc_request
                0x0000000008001aec       0x18 ./../../lib/libuip-1.0.a(dhcpc.o)
                0x0000000008001aec                dhcpc_request
 .text.send_headers
                0x0000000008001b04      0x17c ./../../lib/libuip-1.0.a(httpd.o)
 .text.send_file
                0x0000000008001c80       0x48 ./../../lib/libuip-1.0.a(httpd.o)
 .text.handle_connection
                0x0000000008001cc8      0x2e8 ./../../lib/libuip-1.0.a(httpd.o)
 .text.generate_part_of_file
                0x0000000008001fb0       0x34 ./../../lib/libuip-1.0.a(httpd.o)
 .text.httpd_appcall
                0x0000000008001fe4       0x7c ./../../lib/libuip-1.0.a(httpd.o)
                0x0000000008001fe4                httpd_appcall
 .text.httpd_init
                0x0000000008002060        0xc ./../../lib/libuip-1.0.a(httpd.o)
                0x0000000008002060                httpd_init
 .text.nullfunction
                0x000000000800206c        0x8 ./../../lib/libuip-1.0.a(httpd-cgi.o)
 .text.generate_io_state
                0x0000000008002074        0x4 ./../../lib/libuip-1.0.a(httpd-cgi.o)
 .text.led_io   0x0000000008002078       0x2c ./../../lib/libuip-1.0.a(httpd-cgi.o)
 .text.net_stats
                0x00000000080020a4       0x40 ./../../lib/libuip-1.0.a(httpd-cgi.o)
 .text.tcp_stats
                0x00000000080020e4       0x54 ./../../lib/libuip-1.0.a(httpd-cgi.o)
 .text.generate_net_stats
                0x0000000008002138       0x2c ./../../lib/libuip-1.0.a(httpd-cgi.o)
 .text.generate_tcp_stats
                0x0000000008002164       0xc4 ./../../lib/libuip-1.0.a(httpd-cgi.o)
 .text.file_stats
                0x0000000008002228       0x38 ./../../lib/libuip-1.0.a(httpd-cgi.o)
 .text.generate_file_stats
                0x0000000008002260       0x24 ./../../lib/libuip-1.0.a(httpd-cgi.o)
 .text.httpd_cgi
                0x0000000008002284       0x34 ./../../lib/libuip-1.0.a(httpd-cgi.o)
                0x0000000008002284                httpd_cgi
 .text.httpd_fs_strcmp
                0x00000000080022b8       0x2c ./../../lib/libuip-1.0.a(httpd-fs.o)
 .text.httpd_fs_open
                0x00000000080022e4       0x44 ./../../lib/libuip-1.0.a(httpd-fs.o)
                0x00000000080022e4                httpd_fs_open
 .text.httpd_fs_count
                0x0000000008002328       0x34 ./../../lib/libuip-1.0.a(httpd-fs.o)
                0x0000000008002328                httpd_fs_count
 .text.send_data
                0x000000000800235c       0x40 ./../../lib/libuip-1.0.a(psock.o)
 .text.psock_send
                0x000000000800239c       0x84 ./../../lib/libuip-1.0.a(psock.o)
                0x000000000800239c                psock_send
 .text.psock_generator_send
                0x0000000008002420       0xa0 ./../../lib/libuip-1.0.a(psock.o)
                0x0000000008002420                psock_generator_send
 .text.psock_datalen
                0x00000000080024c0        0xa ./../../lib/libuip-1.0.a(psock.o)
                0x00000000080024c0                psock_datalen
 *fill*         0x00000000080024ca        0x2 00
 .text.psock_newdata
                0x00000000080024cc       0x28 ./../../lib/libuip-1.0.a(psock.o)
                0x00000000080024cc                psock_newdata
 .text.psock_readto
                0x00000000080024f4       0xc0 ./../../lib/libuip-1.0.a(psock.o)
                0x00000000080024f4                psock_readto
 .text.psock_init
                0x00000000080025b4       0x16 ./../../lib/libuip-1.0.a(psock.o)
                0x00000000080025b4                psock_init
 *fill*         0x00000000080025ca        0x2 00
 .text.sntpSync
                0x00000000080025cc       0x38 ./../../lib/libuip-1.0.a(sntp.o)
                0x00000000080025cc                sntpSync
 .text.sntp_appcall
                0x0000000008002604      0x128 ./../../lib/libuip-1.0.a(sntp.o)
                0x0000000008002604                sntp_appcall
 .text.dealloc_line
                0x000000000800272c       0x10 ./../../lib/libuip-1.0.a(telnetd.o)
 .text.sendline
                0x000000000800273c       0x3c ./../../lib/libuip-1.0.a(telnetd.o)
 .text.sendopt  0x0000000008002778       0x24 ./../../lib/libuip-1.0.a(telnetd.o)
 .text.get_char
                0x000000000800279c       0x48 ./../../lib/libuip-1.0.a(telnetd.o)
 .text.shell_quit
                0x00000000080027e4       0x10 ./../../lib/libuip-1.0.a(telnetd.o)
                0x00000000080027e4                shell_quit
 .text.shell_prompt
                0x00000000080027f4       0x24 ./../../lib/libuip-1.0.a(telnetd.o)
                0x00000000080027f4                shell_prompt
 .text.shell_output
                0x0000000008002818       0x64 ./../../lib/libuip-1.0.a(telnetd.o)
                0x0000000008002818                shell_output
 .text.telnetd_init
                0x000000000800287c       0x1c ./../../lib/libuip-1.0.a(telnetd.o)
                0x000000000800287c                telnetd_init
 .text.telnetd_appcall
                0x0000000008002898      0x22c ./../../lib/libuip-1.0.a(telnetd.o)
                0x0000000008002898                telnetd_appcall
 .text.uip_arp_update
                0x0000000008002ac4      0x10c ./../../lib/libuip-1.0.a(uip_arp.o)
 .text.uip_arp_init
                0x0000000008002bd0       0x30 ./../../lib/libuip-1.0.a(uip_arp.o)
                0x0000000008002bd0                uip_arp_init
 .text.uip_arp_timer
                0x0000000008002c00       0x6c ./../../lib/libuip-1.0.a(uip_arp.o)
                0x0000000008002c00                uip_arp_timer
 .text.uip_arp_ipin
                0x0000000008002c6c       0x58 ./../../lib/libuip-1.0.a(uip_arp.o)
                0x0000000008002c6c                uip_arp_ipin
 .text.uip_arp_arpin
                0x0000000008002cc4       0xf4 ./../../lib/libuip-1.0.a(uip_arp.o)
                0x0000000008002cc4                uip_arp_arpin
 .text.uip_arp_out
                0x0000000008002db8      0x164 ./../../lib/libuip-1.0.a(uip_arp.o)
                0x0000000008002db8                uip_arp_out
 .text.uip_add_rcv_nxt
                0x0000000008002f1c       0x2c ./../../lib/libuip-1.0.a(uip.o)
 .text.uip_init
                0x0000000008002f48       0x84 ./../../lib/libuip-1.0.a(uip.o)
                0x0000000008002f48                uip_init
 .text.uip_udp_new
                0x0000000008002fcc       0xac ./../../lib/libuip-1.0.a(uip.o)
                0x0000000008002fcc                uip_udp_new
 .text.uip_listen
                0x0000000008003078       0x34 ./../../lib/libuip-1.0.a(uip.o)
                0x0000000008003078                uip_listen
 .text.uip_process
                0x00000000080030ac      0xcd0 ./../../lib/libuip-1.0.a(uip.o)
                0x00000000080030ac                uip_process
 .text.htons    0x0000000008003d7c        0xa ./../../lib/libuip-1.0.a(uip.o)
                0x0000000008003d7c                htons
 .text.htonl    0x0000000008003d86       0x18 ./../../lib/libuip-1.0.a(uip.o)
                0x0000000008003d86                htonl
 .text.uip_iszeroaddr
                0x0000000008003d9e       0x14 ./../../lib/libuip-1.0.a(uip.o)
                0x0000000008003d9e                uip_iszeroaddr
 *fill*         0x0000000008003db2        0x2 00
 .text.uip_send
                0x0000000008003db4       0x28 ./../../lib/libuip-1.0.a(uip.o)
                0x0000000008003db4                uip_send
 .text.memb_init
                0x0000000008003ddc       0x1e ./../../lib/libuip-1.0.a(memb.o)
                0x0000000008003ddc                memb_init
 .text.memb_alloc
                0x0000000008003dfa       0x28 ./../../lib/libuip-1.0.a(memb.o)
                0x0000000008003dfa                memb_alloc
 .text.memb_free
                0x0000000008003e22       0x2e ./../../lib/libuip-1.0.a(memb.o)
                0x0000000008003e22                memb_free
 .text.unknown  0x0000000008003e50       0x14 ./../../lib/libuip-1.0.a(shell.o)
 .text.help     0x0000000008003e64       0x48 ./../../lib/libuip-1.0.a(shell.o)
 .text.can      0x0000000008003eac       0x24 ./../../lib/libuip-1.0.a(shell.o)
 .text.ifconfig
                0x0000000008003ed0       0xe0 ./../../lib/libuip-1.0.a(shell.o)
 .text.itoa     0x0000000008003fb0       0x3c ./../../lib/libuip-1.0.a(shell.o)
 .text.stats    0x0000000008003fec      0x11c ./../../lib/libuip-1.0.a(shell.o)
 .text.itoah.clone.0
                0x0000000008004108       0x30 ./../../lib/libuip-1.0.a(shell.o)
 .text.phy      0x0000000008004138      0x8b4 ./../../lib/libuip-1.0.a(shell.o)
 .text.shell_init
                0x00000000080049ec        0x2 ./../../lib/libuip-1.0.a(shell.o)
                0x00000000080049ec                shell_init
 *fill*         0x00000000080049ee        0x2 00
 .text.shell_start
                0x00000000080049f0       0x2c ./../../lib/libuip-1.0.a(shell.o)
                0x00000000080049f0                shell_start
 .text.shell_input
                0x0000000008004a1c       0x40 ./../../lib/libuip-1.0.a(shell.o)
                0x0000000008004a1c                shell_input
 .text.chksum   0x0000000008004a5c       0x38 ./../../lib/libuip-1.0.a(uip_arch.o)
 .text.uip_add32
                0x0000000008004a94       0x5c ./../../lib/libuip-1.0.a(uip_arch.o)
                0x0000000008004a94                uip_add32
 .text.uip_chksum
                0x0000000008004af0       0x5a ./../../lib/libuip-1.0.a(uip_arch.o)
                0x0000000008004af0                uip_chksum
 *fill*         0x0000000008004b4a        0x2 00
 .text.uip_ipchksum
                0x0000000008004b4c       0x10 ./../../lib/libuip-1.0.a(uip_arch.o)
                0x0000000008004b4c                uip_ipchksum
 .text.uip_tcpchksum
                0x0000000008004b5c       0xc4 ./../../lib/libuip-1.0.a(uip_arch.o)
                0x0000000008004b5c                uip_tcpchksum
 .text.uip_udpchksum
                0x0000000008004c20       0x3c ./../../lib/libuip-1.0.a(uip_arch.o)
                0x0000000008004c20                uip_udpchksum
 .text.ETH_Delay
                0x0000000008004c5c       0x1c ./../../lib/libethernet.a(stm32_eth.o)
 .text.ETH_DeInit
                0x0000000008004c78       0x18 ./../../lib/libethernet.a(stm32_eth.o)
                0x0000000008004c78                ETH_DeInit
 .text.ETH_StructInit
                0x0000000008004c90       0x9e ./../../lib/libethernet.a(stm32_eth.o)
                0x0000000008004c90                ETH_StructInit
 *fill*         0x0000000008004d2e        0x2 00
 .text.ETH_HandleTxPkt
                0x0000000008004d30       0x98 ./../../lib/libethernet.a(stm32_eth.o)
                0x0000000008004d30                ETH_HandleTxPkt
 .text.ETH_HandleRxPkt
                0x0000000008004dc8       0xa8 ./../../lib/libethernet.a(stm32_eth.o)
                0x0000000008004dc8                ETH_HandleRxPkt
 .text.ETH_ReadPHYRegister
                0x0000000008004e70       0x5c ./../../lib/libethernet.a(stm32_eth.o)
                0x0000000008004e70                ETH_ReadPHYRegister
 .text.ETH_WritePHYRegister
                0x0000000008004ecc       0x5c ./../../lib/libethernet.a(stm32_eth.o)
                0x0000000008004ecc                ETH_WritePHYRegister
 .text.ETH_Init
                0x0000000008004f28      0x264 ./../../lib/libethernet.a(stm32_eth.o)
                0x0000000008004f28                ETH_Init
 .text.ETH_MACTransmissionCmd
                0x000000000800518c       0x1c ./../../lib/libethernet.a(stm32_eth.o)
                0x000000000800518c                ETH_MACTransmissionCmd
 .text.ETH_MACReceptionCmd
                0x00000000080051a8       0x1c ./../../lib/libethernet.a(stm32_eth.o)
                0x00000000080051a8                ETH_MACReceptionCmd
 .text.ETH_DMATxDescChainInit
                0x00000000080051c4       0x4c ./../../lib/libethernet.a(stm32_eth.o)
                0x00000000080051c4                ETH_DMATxDescChainInit
 .text.ETH_DMARxDescChainInit
                0x0000000008005210       0x54 ./../../lib/libethernet.a(stm32_eth.o)
                0x0000000008005210                ETH_DMARxDescChainInit
 .text.ETH_SoftwareReset
                0x0000000008005264       0x10 ./../../lib/libethernet.a(stm32_eth.o)
                0x0000000008005264                ETH_SoftwareReset
 .text.ETH_GetSoftwareResetStatus
                0x0000000008005274       0x10 ./../../lib/libethernet.a(stm32_eth.o)
                0x0000000008005274                ETH_GetSoftwareResetStatus
 .text.ETH_DMAClearITPendingBit
                0x0000000008005284       0x10 ./../../lib/libethernet.a(stm32_eth.o)
                0x0000000008005284                ETH_DMAClearITPendingBit
 .text.ETH_FlushTransmitFIFO
                0x0000000008005294       0x14 ./../../lib/libethernet.a(stm32_eth.o)
                0x0000000008005294                ETH_FlushTransmitFIFO
 .text.ETH_DMATransmissionCmd
                0x00000000080052a8       0x24 ./../../lib/libethernet.a(stm32_eth.o)
                0x00000000080052a8                ETH_DMATransmissionCmd
 .text.ETH_DMAReceptionCmd
                0x00000000080052cc       0x24 ./../../lib/libethernet.a(stm32_eth.o)
                0x00000000080052cc                ETH_DMAReceptionCmd
 .text.ETH_Start
                0x00000000080052f0       0x20 ./../../lib/libethernet.a(stm32_eth.o)
                0x00000000080052f0                ETH_Start
 .text.ETH_DMAITConfig
                0x0000000008005310       0x24 ./../../lib/libethernet.a(stm32_eth.o)
                0x0000000008005310                ETH_DMAITConfig
 .text.pxPortInitialiseStack
                0x0000000008005334       0x20 ./../../lib/libfreertos-6.0.2.a(port.o)
                0x0000000008005334                pxPortInitialiseStack
 .text.vPortSVCHandler
                0x0000000008005354       0x20 ./../../lib/libfreertos-6.0.2.a(port.o)
                0x0000000008005354                vPortSVCHandler
 .text.vPortStartFirstTask
                0x0000000008005374       0x10 ./../../lib/libfreertos-6.0.2.a(port.o)
                0x0000000008005374                vPortStartFirstTask
 .text.xPortStartScheduler
                0x0000000008005384       0x40 ./../../lib/libfreertos-6.0.2.a(port.o)
                0x0000000008005384                xPortStartScheduler
 .text.vPortYieldFromISR
                0x00000000080053c4       0x10 ./../../lib/libfreertos-6.0.2.a(port.o)
                0x00000000080053c4                vPortYieldFromISR
 .text.vPortEnterCritical
                0x00000000080053d4       0x18 ./../../lib/libfreertos-6.0.2.a(port.o)
                0x00000000080053d4                vPortEnterCritical
 .text.vPortExitCritical
                0x00000000080053ec       0x18 ./../../lib/libfreertos-6.0.2.a(port.o)
                0x00000000080053ec                vPortExitCritical
 .text.xPortPendSVHandler
                0x0000000008005404       0x3c ./../../lib/libfreertos-6.0.2.a(port.o)
                0x0000000008005404                xPortPendSVHandler
 .text.xPortSysTickHandler
                0x0000000008005440       0x24 ./../../lib/libfreertos-6.0.2.a(port.o)
                0x0000000008005440                xPortSysTickHandler
 .text.prvUnlockQueue
                0x0000000008005464       0x66 ./../../lib/libfreertos-6.0.2.a(queue.o)
 .text.prvCopyDataToQueue
                0x00000000080054ca       0x58 ./../../lib/libfreertos-6.0.2.a(queue.o)
 .text.xQueueCreate
                0x0000000008005522       0x64 ./../../lib/libfreertos-6.0.2.a(queue.o)
                0x0000000008005522                xQueueCreate
 .text.xQueueGenericSend
                0x0000000008005586       0xe8 ./../../lib/libfreertos-6.0.2.a(queue.o)
                0x0000000008005586                xQueueGenericSend
 .text.xQueueGenericReceive
                0x000000000800566e      0x128 ./../../lib/libfreertos-6.0.2.a(queue.o)
                0x000000000800566e                xQueueGenericReceive
 *fill*         0x0000000008005796        0x2 00
 .text.xTaskGenericCreate
                0x0000000008005798      0x198 ./../../lib/libfreertos-6.0.2.a(tasks.o)
                0x0000000008005798                xTaskGenericCreate
 .text.vTaskSuspend
                0x0000000008005930       0x4c ./../../lib/libfreertos-6.0.2.a(tasks.o)
                0x0000000008005930                vTaskSuspend
 .text.xTaskIsTaskSuspended
                0x000000000800597c       0x28 ./../../lib/libfreertos-6.0.2.a(tasks.o)
                0x000000000800597c                xTaskIsTaskSuspended
 .text.xTaskResumeFromISR
                0x00000000080059a4       0x6c ./../../lib/libfreertos-6.0.2.a(tasks.o)
                0x00000000080059a4                xTaskResumeFromISR
 .text.vTaskStartScheduler
                0x0000000008005a10       0x4c ./../../lib/libfreertos-6.0.2.a(tasks.o)
                0x0000000008005a10                vTaskStartScheduler
 .text.vTaskSuspendAll
                0x0000000008005a5c       0x10 ./../../lib/libfreertos-6.0.2.a(tasks.o)
                0x0000000008005a5c                vTaskSuspendAll
 .text.xTaskGetTickCount
                0x0000000008005a6c       0x18 ./../../lib/libfreertos-6.0.2.a(tasks.o)
                0x0000000008005a6c                xTaskGetTickCount
 .text.vTaskIncrementTick
                0x0000000008005a84       0xbc ./../../lib/libfreertos-6.0.2.a(tasks.o)
                0x0000000008005a84                vTaskIncrementTick
 .text.xTaskResumeAll
                0x0000000008005b40       0xc8 ./../../lib/libfreertos-6.0.2.a(tasks.o)
                0x0000000008005b40                xTaskResumeAll
 .text.prvIdleTask
                0x0000000008005c08       0x68 ./../../lib/libfreertos-6.0.2.a(tasks.o)
 .text.vTaskDelay
                0x0000000008005c70       0x50 ./../../lib/libfreertos-6.0.2.a(tasks.o)
                0x0000000008005c70                vTaskDelay
 .text.vTaskSwitchContext
                0x0000000008005cc0      0x134 ./../../lib/libfreertos-6.0.2.a(tasks.o)
                0x0000000008005cc0                vTaskSwitchContext
 .text.vTaskPlaceOnEventList
                0x0000000008005df4       0x5c ./../../lib/libfreertos-6.0.2.a(tasks.o)
                0x0000000008005df4                vTaskPlaceOnEventList
 .text.xTaskRemoveFromEventList
                0x0000000008005e50       0x64 ./../../lib/libfreertos-6.0.2.a(tasks.o)
                0x0000000008005e50                xTaskRemoveFromEventList
 .text.vTaskSetTimeOutState
                0x0000000008005eb4       0x18 ./../../lib/libfreertos-6.0.2.a(tasks.o)
                0x0000000008005eb4                vTaskSetTimeOutState
 .text.xTaskCheckForTimeOut
                0x0000000008005ecc       0x5c ./../../lib/libfreertos-6.0.2.a(tasks.o)
                0x0000000008005ecc                xTaskCheckForTimeOut
 .text.vTaskMissedYield
                0x0000000008005f28        0xc ./../../lib/libfreertos-6.0.2.a(tasks.o)
                0x0000000008005f28                vTaskMissedYield
 .text.uxTaskGetStackHighWaterMark
                0x0000000008005f34       0x20 ./../../lib/libfreertos-6.0.2.a(tasks.o)
                0x0000000008005f34                uxTaskGetStackHighWaterMark
 .text.xTaskGetCurrentTaskHandle
                0x0000000008005f54        0xc ./../../lib/libfreertos-6.0.2.a(tasks.o)
                0x0000000008005f54                xTaskGetCurrentTaskHandle
 .text.vTaskPriorityInherit
                0x0000000008005f60       0x64 ./../../lib/libfreertos-6.0.2.a(tasks.o)
                0x0000000008005f60                vTaskPriorityInherit
 .text.vTaskPriorityDisinherit
                0x0000000008005fc4       0x44 ./../../lib/libfreertos-6.0.2.a(tasks.o)
                0x0000000008005fc4                vTaskPriorityDisinherit
 .text.vListInitialise
                0x0000000008006008       0x16 ./../../lib/libfreertos-6.0.2.a(list.o)
                0x0000000008006008                vListInitialise
 .text.vListInitialiseItem
                0x000000000800601e        0x6 ./../../lib/libfreertos-6.0.2.a(list.o)
                0x000000000800601e                vListInitialiseItem
 .text.vListInsertEnd
                0x0000000008006024       0x1a ./../../lib/libfreertos-6.0.2.a(list.o)
                0x0000000008006024                vListInsertEnd
 .text.vListInsert
                0x000000000800603e       0x34 ./../../lib/libfreertos-6.0.2.a(list.o)
                0x000000000800603e                vListInsert
 .text.vListRemove
                0x0000000008006072       0x20 ./../../lib/libfreertos-6.0.2.a(list.o)
                0x0000000008006072                vListRemove
 *fill*         0x0000000008006092        0x2 00
 .text.HeapMalloc
                0x0000000008006094       0xbc ./../../lib/libfreertos-6.0.2.a(mmgr.o)
                0x0000000008006094                pvPortMalloc
                0x0000000008006094                HeapMalloc
 .text.HeapFree
                0x0000000008006150       0x30 ./../../lib/libfreertos-6.0.2.a(mmgr.o)
                0x0000000008006150                vPortFree
                0x0000000008006150                HeapFree
 .text.NVIC_PriorityGroupConfig
                0x0000000008006180       0x14 ./../../lib/libhardware.a(misc.o)
                0x0000000008006180                NVIC_PriorityGroupConfig
 .text.NVIC_Init
                0x0000000008006194       0x60 ./../../lib/libhardware.a(misc.o)
                0x0000000008006194                NVIC_Init
 .text.NVIC_SetVectorTable
                0x00000000080061f4       0x18 ./../../lib/libhardware.a(misc.o)
                0x00000000080061f4                NVIC_SetVectorTable
 .text.CAN_DeInit
                0x000000000800620c       0x34 ./../../lib/libhardware.a(stm32f10x_can.o)
                0x000000000800620c                CAN_DeInit
 .text.CAN_Init
                0x0000000008006240       0xf6 ./../../lib/libhardware.a(stm32f10x_can.o)
                0x0000000008006240                CAN_Init
 *fill*         0x0000000008006336        0x2 00
 .text.CAN_FilterInit
                0x0000000008006338      0x100 ./../../lib/libhardware.a(stm32f10x_can.o)
                0x0000000008006338                CAN_FilterInit
 .text.CAN_StructInit
                0x0000000008006438       0x20 ./../../lib/libhardware.a(stm32f10x_can.o)
                0x0000000008006438                CAN_StructInit
 .text.CAN_ITConfig
                0x0000000008006458       0x12 ./../../lib/libhardware.a(stm32f10x_can.o)
                0x0000000008006458                CAN_ITConfig
 .text.CAN_Transmit
                0x000000000800646a       0xc4 ./../../lib/libhardware.a(stm32f10x_can.o)
                0x000000000800646a                CAN_Transmit
 *fill*         0x000000000800652e        0x2 00
 .text.CAN_TransmitStatus
                0x0000000008006530       0x68 ./../../lib/libhardware.a(stm32f10x_can.o)
                0x0000000008006530                CAN_TransmitStatus
 .text.CAN_Receive
                0x0000000008006598       0xb2 ./../../lib/libhardware.a(stm32f10x_can.o)
                0x0000000008006598                CAN_Receive
 .text.CAN_ClearITPendingBit
                0x000000000800664a       0x92 ./../../lib/libhardware.a(stm32f10x_can.o)
                0x000000000800664a                CAN_ClearITPendingBit
 .text.FLASH_SetLatency
                0x00000000080066dc       0x14 ./../../lib/libhardware.a(stm32f10x_flash.o)
                0x00000000080066dc                FLASH_SetLatency
 .text.FLASH_PrefetchBufferCmd
                0x00000000080066f0       0x18 ./../../lib/libhardware.a(stm32f10x_flash.o)
                0x00000000080066f0                FLASH_PrefetchBufferCmd
 .text.GPIO_Init
                0x0000000008006708       0xb2 ./../../lib/libhardware.a(stm32f10x_gpio.o)
                0x0000000008006708                GPIO_Init
 *fill*         0x00000000080067ba        0x2 00
 .text.GPIO_PinRemapConfig
                0x00000000080067bc       0x64 ./../../lib/libhardware.a(stm32f10x_gpio.o)
                0x00000000080067bc                GPIO_PinRemapConfig
 .text.GPIO_ETH_MediaInterfaceConfig
                0x0000000008006820        0xc ./../../lib/libhardware.a(stm32f10x_gpio.o)
                0x0000000008006820                GPIO_ETH_MediaInterfaceConfig
 .text.RCC_DeInit
                0x000000000800682c       0x50 ./../../lib/libhardware.a(stm32f10x_rcc.o)
                0x000000000800682c                RCC_DeInit
 .text.RCC_HSEConfig
                0x000000000800687c       0x38 ./../../lib/libhardware.a(stm32f10x_rcc.o)
                0x000000000800687c                RCC_HSEConfig
 .text.RCC_PLLConfig
                0x00000000080068b4       0x14 ./../../lib/libhardware.a(stm32f10x_rcc.o)
                0x00000000080068b4                RCC_PLLConfig
 .text.RCC_PLLCmd
                0x00000000080068c8        0xc ./../../lib/libhardware.a(stm32f10x_rcc.o)
                0x00000000080068c8                RCC_PLLCmd
 .text.RCC_PREDIV1Config
                0x00000000080068d4       0x1c ./../../lib/libhardware.a(stm32f10x_rcc.o)
                0x00000000080068d4                RCC_PREDIV1Config
 .text.RCC_PREDIV2Config
                0x00000000080068f0       0x14 ./../../lib/libhardware.a(stm32f10x_rcc.o)
                0x00000000080068f0                RCC_PREDIV2Config
 .text.RCC_PLL2Config
                0x0000000008006904       0x14 ./../../lib/libhardware.a(stm32f10x_rcc.o)
                0x0000000008006904                RCC_PLL2Config
 .text.RCC_PLL2Cmd
                0x0000000008006918        0xc ./../../lib/libhardware.a(stm32f10x_rcc.o)
                0x0000000008006918                RCC_PLL2Cmd
 .text.RCC_SYSCLKConfig
                0x0000000008006924       0x14 ./../../lib/libhardware.a(stm32f10x_rcc.o)
                0x0000000008006924                RCC_SYSCLKConfig
 .text.RCC_GetSYSCLKSource
                0x0000000008006938       0x10 ./../../lib/libhardware.a(stm32f10x_rcc.o)
                0x0000000008006938                RCC_GetSYSCLKSource
 .text.RCC_HCLKConfig
                0x0000000008006948       0x14 ./../../lib/libhardware.a(stm32f10x_rcc.o)
                0x0000000008006948                RCC_HCLKConfig
 .text.RCC_PCLK1Config
                0x000000000800695c       0x14 ./../../lib/libhardware.a(stm32f10x_rcc.o)
                0x000000000800695c                RCC_PCLK1Config
 .text.RCC_PCLK2Config
                0x0000000008006970       0x14 ./../../lib/libhardware.a(stm32f10x_rcc.o)
                0x0000000008006970                RCC_PCLK2Config
 .text.RCC_ADCCLKConfig
                0x0000000008006984       0x14 ./../../lib/libhardware.a(stm32f10x_rcc.o)
                0x0000000008006984                RCC_ADCCLKConfig
 .text.RCC_GetClocksFreq
                0x0000000008006998       0xdc ./../../lib/libhardware.a(stm32f10x_rcc.o)
                0x0000000008006998                RCC_GetClocksFreq
 .text.RCC_AHBPeriphClockCmd
                0x0000000008006a74       0x1c ./../../lib/libhardware.a(stm32f10x_rcc.o)
                0x0000000008006a74                RCC_AHBPeriphClockCmd
 .text.RCC_APB2PeriphClockCmd
                0x0000000008006a90       0x1c ./../../lib/libhardware.a(stm32f10x_rcc.o)
                0x0000000008006a90                RCC_APB2PeriphClockCmd
 .text.RCC_APB1PeriphClockCmd
                0x0000000008006aac       0x1c ./../../lib/libhardware.a(stm32f10x_rcc.o)
                0x0000000008006aac                RCC_APB1PeriphClockCmd
 .text.RCC_AHBPeriphResetCmd
                0x0000000008006ac8       0x1c ./../../lib/libhardware.a(stm32f10x_rcc.o)
                0x0000000008006ac8                RCC_AHBPeriphResetCmd
 .text.RCC_APB2PeriphResetCmd
                0x0000000008006ae4       0x1c ./../../lib/libhardware.a(stm32f10x_rcc.o)
                0x0000000008006ae4                RCC_APB2PeriphResetCmd
 .text.RCC_APB1PeriphResetCmd
                0x0000000008006b00       0x1c ./../../lib/libhardware.a(stm32f10x_rcc.o)
                0x0000000008006b00                RCC_APB1PeriphResetCmd
 .text.RCC_GetFlagStatus
                0x0000000008006b1c       0x2c ./../../lib/libhardware.a(stm32f10x_rcc.o)
                0x0000000008006b1c                RCC_GetFlagStatus
 .text.RCC_WaitForHSEStartUp
                0x0000000008006b48       0x2c ./../../lib/libhardware.a(stm32f10x_rcc.o)
                0x0000000008006b48                RCC_WaitForHSEStartUp
 .text.TIM_DeInit
                0x0000000008006b74       0xc4 ./../../lib/libhardware.a(stm32f10x_tim.o)
                0x0000000008006b74                TIM_DeInit
 .text.TIM_TimeBaseInit
                0x0000000008006c38       0x48 ./../../lib/libhardware.a(stm32f10x_tim.o)
                0x0000000008006c38                TIM_TimeBaseInit
 .text.TIM_TimeBaseStructInit
                0x0000000008006c80       0x12 ./../../lib/libhardware.a(stm32f10x_tim.o)
                0x0000000008006c80                TIM_TimeBaseStructInit
 .text.TIM_Cmd  0x0000000008006c92       0x1a ./../../lib/libhardware.a(stm32f10x_tim.o)
                0x0000000008006c92                TIM_Cmd
 .text.TIM_ITConfig
                0x0000000008006cac       0x16 ./../../lib/libhardware.a(stm32f10x_tim.o)
                0x0000000008006cac                TIM_ITConfig
 .text.TIM_ARRPreloadConfig
                0x0000000008006cc2       0x1a ./../../lib/libhardware.a(stm32f10x_tim.o)
                0x0000000008006cc2                TIM_ARRPreloadConfig
 .text.TIM_ClearITPendingBit
                0x0000000008006cdc        0x8 ./../../lib/libhardware.a(stm32f10x_tim.o)
                0x0000000008006cdc                TIM_ClearITPendingBit
 .text.SystemInit
                0x0000000008006ce4      0x12c ./../../lib/libcmsis.a(system_stm32f10x.o)
                0x0000000008006ce4                SystemInit
 .text.atoi     0x0000000008006e10        0xc /opt/kgp_arm_eabi/lib/gcc/arm-kgp-eabi/4.5.0/../../../../arm-kgp-eabi/lib/thumb/cortex-m3/libc.a(lib_a-atoi.o)
                0x0000000008006e10                atoi
 .text.memcmp   0x0000000008006e1c       0x22 /opt/kgp_arm_eabi/lib/gcc/arm-kgp-eabi/4.5.0/../../../../arm-kgp-eabi/lib/thumb/cortex-m3/libc.a(lib_a-memcmp.o)
                0x0000000008006e1c                memcmp
 .text.memcpy   0x0000000008006e3e       0x14 /opt/kgp_arm_eabi/lib/gcc/arm-kgp-eabi/4.5.0/../../../../arm-kgp-eabi/lib/thumb/cortex-m3/libc.a(lib_a-memcpy.o)
                0x0000000008006e3e                memcpy
 .text.memset   0x0000000008006e52        0xe /opt/kgp_arm_eabi/lib/gcc/arm-kgp-eabi/4.5.0/../../../../arm-kgp-eabi/lib/thumb/cortex-m3/libc.a(lib_a-memset.o)
                0x0000000008006e52                memset
 .text.snprintf
                0x0000000008006e60       0x6c /opt/kgp_arm_eabi/lib/gcc/arm-kgp-eabi/4.5.0/../../../../arm-kgp-eabi/lib/thumb/cortex-m3/libc.a(lib_a-snprintf.o)
                0x0000000008006e60                snprintf
 .text.sprintf  0x0000000008006ecc       0x4c /opt/kgp_arm_eabi/lib/gcc/arm-kgp-eabi/4.5.0/../../../../arm-kgp-eabi/lib/thumb/cortex-m3/libc.a(lib_a-sprintf.o)
                0x0000000008006ecc                sprintf
 .text.strchr   0x0000000008006f18       0x1a /opt/kgp_arm_eabi/lib/gcc/arm-kgp-eabi/4.5.0/../../../../arm-kgp-eabi/lib/thumb/cortex-m3/libc.a(lib_a-strchr.o)
                0x0000000008006f18                strchr
 .text.strcpy   0x0000000008006f32       0x12 /opt/kgp_arm_eabi/lib/gcc/arm-kgp-eabi/4.5.0/../../../../arm-kgp-eabi/lib/thumb/cortex-m3/libc.a(lib_a-strcpy.o)
                0x0000000008006f32                strcpy
 .text.strlen   0x0000000008006f44       0x10 /opt/kgp_arm_eabi/lib/gcc/arm-kgp-eabi/4.5.0/../../../../arm-kgp-eabi/lib/thumb/cortex-m3/libc.a(lib_a-strlen.o)
                0x0000000008006f44                strlen
 .text.strncmp  0x0000000008006f54       0x2e /opt/kgp_arm_eabi/lib/gcc/arm-kgp-eabi/4.5.0/../../../../arm-kgp-eabi/lib/thumb/cortex-m3/libc.a(lib_a-strncmp.o)
                0x0000000008006f54                strncmp
 .text.strncpy  0x0000000008006f82       0x28 /opt/kgp_arm_eabi/lib/gcc/arm-kgp-eabi/4.5.0/../../../../arm-kgp-eabi/lib/thumb/cortex-m3/libc.a(lib_a-strncpy.o)
                0x0000000008006f82                strncpy
 .text.strrchr  0x0000000008006faa       0x26 /opt/kgp_arm_eabi/lib/gcc/arm-kgp-eabi/4.5.0/../../../../arm-kgp-eabi/lib/thumb/cortex-m3/libc.a(lib_a-strrchr.o)
                0x0000000008006faa                strrchr
 .text._strtol_r
                0x0000000008006fd0      0x12c /opt/kgp_arm_eabi/lib/gcc/arm-kgp-eabi/4.5.0/../../../../arm-kgp-eabi/lib/thumb/cortex-m3/libc.a(lib_a-strtol.o)
                0x0000000008006fd0                _strtol_r
 .text.strtol   0x00000000080070fc       0x1c /opt/kgp_arm_eabi/lib/gcc/arm-kgp-eabi/4.5.0/../../../../arm-kgp-eabi/lib/thumb/cortex-m3/libc.a(lib_a-strtol.o)
                0x00000000080070fc                strtol
 .text._svfprintf_r
                0x0000000008007118     0x1148 /opt/kgp_arm_eabi/lib/gcc/arm-kgp-eabi/4.5.0/../../../../arm-kgp-eabi/lib/thumb/cortex-m3/libc.a(lib_a-svfprintf.o)
                0x0000000008007118                _svfprintf_r
 .text.quorem   0x0000000008008260      0x13c /opt/kgp_arm_eabi/lib/gcc/arm-kgp-eabi/4.5.0/../../../../arm-kgp-eabi/lib/thumb/cortex-m3/libc.a(lib_a-dtoa.o)
 *fill*         0x000000000800839c        0x4 00
 .text._dtoa_r  0x00000000080083a0      0xe78 /opt/kgp_arm_eabi/lib/gcc/arm-kgp-eabi/4.5.0/../../../../arm-kgp-eabi/lib/thumb/cortex-m3/libc.a(lib_a-dtoa.o)
                0x00000000080083a0                _dtoa_r
 .text._malloc_trim_r
                0x0000000008009218       0xa8 /opt/kgp_arm_eabi/lib/gcc/arm-kgp-eabi/4.5.0/../../../../arm-kgp-eabi/lib/thumb/cortex-m3/libc.a(lib_a-freer.o)
                0x0000000008009218                _malloc_trim_r
 .text._free_r  0x00000000080092c0      0x1c4 /opt/kgp_arm_eabi/lib/gcc/arm-kgp-eabi/4.5.0/../../../../arm-kgp-eabi/lib/thumb/cortex-m3/libc.a(lib_a-freer.o)
                0x00000000080092c0                _free_r
 .text._localeconv_r
                0x0000000008009484        0x8 /opt/kgp_arm_eabi/lib/gcc/arm-kgp-eabi/4.5.0/../../../../arm-kgp-eabi/lib/thumb/cortex-m3/libc.a(lib_a-locale.o)
                0x0000000008009484                _localeconv_r
 .text._malloc_r
                0x000000000800948c      0x484 /opt/kgp_arm_eabi/lib/gcc/arm-kgp-eabi/4.5.0/../../../../arm-kgp-eabi/lib/thumb/cortex-m3/libc.a(lib_a-mallocr.o)
                0x000000000800948c                _malloc_r
 .text.memchr   0x0000000008009910       0x1c /opt/kgp_arm_eabi/lib/gcc/arm-kgp-eabi/4.5.0/../../../../arm-kgp-eabi/lib/thumb/cortex-m3/libc.a(lib_a-memchr.o)
                0x0000000008009910                memchr
 .text.__malloc_lock
                0x000000000800992c        0x2 /opt/kgp_arm_eabi/lib/gcc/arm-kgp-eabi/4.5.0/../../../../arm-kgp-eabi/lib/thumb/cortex-m3/libc.a(lib_a-mlock.o)
                0x000000000800992c                __malloc_lock
 .text.__malloc_unlock
                0x000000000800992e        0x2 /opt/kgp_arm_eabi/lib/gcc/arm-kgp-eabi/4.5.0/../../../../arm-kgp-eabi/lib/thumb/cortex-m3/libc.a(lib_a-mlock.o)
                0x000000000800992e                __malloc_unlock
 .text._Balloc  0x0000000008009930       0x44 /opt/kgp_arm_eabi/lib/gcc/arm-kgp-eabi/4.5.0/../../../../arm-kgp-eabi/lib/thumb/cortex-m3/libc.a(lib_a-mprec.o)
                0x0000000008009930                _Balloc
 .text._Bfree   0x0000000008009974       0x12 /opt/kgp_arm_eabi/lib/gcc/arm-kgp-eabi/4.5.0/../../../../arm-kgp-eabi/lib/thumb/cortex-m3/libc.a(lib_a-mprec.o)
                0x0000000008009974                _Bfree
 .text.__multadd
                0x0000000008009986       0x80 /opt/kgp_arm_eabi/lib/gcc/arm-kgp-eabi/4.5.0/../../../../arm-kgp-eabi/lib/thumb/cortex-m3/libc.a(lib_a-mprec.o)
                0x0000000008009986                __multadd
 .text.__hi0bits
                0x0000000008009a06       0x40 /opt/kgp_arm_eabi/lib/gcc/arm-kgp-eabi/4.5.0/../../../../arm-kgp-eabi/lib/thumb/cortex-m3/libc.a(lib_a-mprec.o)
                0x0000000008009a06                __hi0bits
 .text.__lo0bits
                0x0000000008009a46       0x66 /opt/kgp_arm_eabi/lib/gcc/arm-kgp-eabi/4.5.0/../../../../arm-kgp-eabi/lib/thumb/cortex-m3/libc.a(lib_a-mprec.o)
                0x0000000008009a46                __lo0bits
 .text.__i2b    0x0000000008009aac       0x12 /opt/kgp_arm_eabi/lib/gcc/arm-kgp-eabi/4.5.0/../../../../arm-kgp-eabi/lib/thumb/cortex-m3/libc.a(lib_a-mprec.o)
                0x0000000008009aac                __i2b
 .text.__multiply
                0x0000000008009abe      0x12e /opt/kgp_arm_eabi/lib/gcc/arm-kgp-eabi/4.5.0/../../../../arm-kgp-eabi/lib/thumb/cortex-m3/libc.a(lib_a-mprec.o)
                0x0000000008009abe                __multiply
 .text.__pow5mult
                0x0000000008009bec       0x88 /opt/kgp_arm_eabi/lib/gcc/arm-kgp-eabi/4.5.0/../../../../arm-kgp-eabi/lib/thumb/cortex-m3/libc.a(lib_a-mprec.o)
                0x0000000008009bec                __pow5mult
 .text.__lshift
                0x0000000008009c74       0x9c /opt/kgp_arm_eabi/lib/gcc/arm-kgp-eabi/4.5.0/../../../../arm-kgp-eabi/lib/thumb/cortex-m3/libc.a(lib_a-mprec.o)
                0x0000000008009c74                __lshift
 .text.__mcmp   0x0000000008009d10       0x3c /opt/kgp_arm_eabi/lib/gcc/arm-kgp-eabi/4.5.0/../../../../arm-kgp-eabi/lib/thumb/cortex-m3/libc.a(lib_a-mprec.o)
                0x0000000008009d10                __mcmp
 .text.__mdiff  0x0000000008009d4c       0xde /opt/kgp_arm_eabi/lib/gcc/arm-kgp-eabi/4.5.0/../../../../arm-kgp-eabi/lib/thumb/cortex-m3/libc.a(lib_a-mprec.o)
                0x0000000008009d4c                __mdiff
 .text.__d2b    0x0000000008009e2a       0xb6 /opt/kgp_arm_eabi/lib/gcc/arm-kgp-eabi/4.5.0/../../../../arm-kgp-eabi/lib/thumb/cortex-m3/libc.a(lib_a-mprec.o)
                0x0000000008009e2a                __d2b
 .text.__fpclassifyd
                0x0000000008009ee0       0x90 /opt/kgp_arm_eabi/lib/gcc/arm-kgp-eabi/4.5.0/../../../../arm-kgp-eabi/lib/thumb/cortex-m3/libc.a(lib_a-s_fpclassify.o)
                0x0000000008009ee0                __fpclassifyd
 .text.__ssprint_r
                0x0000000008009f70      0x122 /opt/kgp_arm_eabi/lib/gcc/arm-kgp-eabi/4.5.0/../../../../arm-kgp-eabi/lib/thumb/cortex-m3/libc.a(lib_a-svfiprintf.o)
                0x0000000008009f70                __ssprint_r
 .text._calloc_r
                0x000000000800a092       0x5e /opt/kgp_arm_eabi/lib/gcc/arm-kgp-eabi/4.5.0/../../../../arm-kgp-eabi/lib/thumb/cortex-m3/libc.a(lib_a-callocr.o)
                0x000000000800a092                _calloc_r
 .text.memmove  0x000000000800a0f0       0x38 /opt/kgp_arm_eabi/lib/gcc/arm-kgp-eabi/4.5.0/../../../../arm-kgp-eabi/lib/thumb/cortex-m3/libc.a(lib_a-memmove.o)
                0x000000000800a0f0                memmove
 .text._realloc_r
                0x000000000800a128      0x354 /opt/kgp_arm_eabi/lib/gcc/arm-kgp-eabi/4.5.0/../../../../arm-kgp-eabi/lib/thumb/cortex-m3/libc.a(lib_a-reallocr.o)
                0x000000000800a128                _realloc_r
 *(.rodata)
 *(.rodata*)
 .rodata.str1.1
                0x000000000800a47c       0x16 main.o
 *fill*         0x000000000800a492        0x2 00
 .rodata.xid    0x000000000800a494        0x4 ./../../lib/libuip-1.0.a(dhcpc.o)
 .rodata.magic_cookie
                0x000000000800a498        0x4 ./../../lib/libuip-1.0.a(dhcpc.o)
 .rodata.net    0x000000000800a49c        0x8 ./../../lib/libuip-1.0.a(httpd-cgi.o)
 .rodata.established
                0x000000000800a4a4        0xc ./../../lib/libuip-1.0.a(httpd-cgi.o)
 .rodata.fin_wait_1
                0x000000000800a4b0        0xc ./../../lib/libuip-1.0.a(httpd-cgi.o)
 .rodata.fin_wait_2
                0x000000000800a4bc        0xc ./../../lib/libuip-1.0.a(httpd-cgi.o)
 .rodata.last_ack
                0x000000000800a4c8        0xc ./../../lib/libuip-1.0.a(httpd-cgi.o)
 .rodata.tcp    0x000000000800a4d4        0x8 ./../../lib/libuip-1.0.a(httpd-cgi.o)
 .rodata.file   0x000000000800a4dc        0x8 ./../../lib/libuip-1.0.a(httpd-cgi.o)
 .rodata.str1.1
                0x000000000800a4e4       0x92 ./../../lib/libuip-1.0.a(httpd-cgi.o)
 *fill*         0x000000000800a576        0x2 00
 .rodata.closed
                0x000000000800a578        0x8 ./../../lib/libuip-1.0.a(httpd-cgi.o)
 .rodata.syn_sent
                0x000000000800a580        0xc ./../../lib/libuip-1.0.a(httpd-cgi.o)
 .rodata.time_wait
                0x000000000800a58c        0xc ./../../lib/libuip-1.0.a(httpd-cgi.o)
 .rodata.syn_rcvd
                0x000000000800a598        0xc ./../../lib/libuip-1.0.a(httpd-cgi.o)
 .rodata.closing
                0x000000000800a5a4        0x8 ./../../lib/libuip-1.0.a(httpd-cgi.o)
 .rodata.led    0x000000000800a5ac        0x8 ./../../lib/libuip-1.0.a(httpd-cgi.o)
 .rodata.states
                0x000000000800a5b4       0x24 ./../../lib/libuip-1.0.a(httpd-cgi.o)
 .rodata.data_header_html
                0x000000000800a5d8      0x51c ./../../lib/libuip-1.0.a(httpd-fs.o)
 .rodata.file_index_html
                0x000000000800aaf4       0x14 ./../../lib/libuip-1.0.a(httpd-fs.o)
                0x000000000800aaf4                file_index_html
 .rodata.file_klen_jpg
                0x000000000800ab08       0x14 ./../../lib/libuip-1.0.a(httpd-fs.o)
                0x000000000800ab08                file_klen_jpg
 .rodata.data_sics_jpg
                0x000000000800ab1c      0xd00 ./../../lib/libuip-1.0.a(httpd-fs.o)
 .rodata.data_gcc_jpg
                0x000000000800b81c      0x6ac ./../../lib/libuip-1.0.a(httpd-fs.o)
 .rodata.data_freertos_jpg
                0x000000000800bec8      0x930 ./../../lib/libuip-1.0.a(httpd-fs.o)
 .rodata.file_files_shtml
                0x000000000800c7f8       0x14 ./../../lib/libuip-1.0.a(httpd-fs.o)
                0x000000000800c7f8                file_files_shtml
 .rodata.file_tcp_shtml
                0x000000000800c80c       0x14 ./../../lib/libuip-1.0.a(httpd-fs.o)
                0x000000000800c80c                file_tcp_shtml
 .rodata.file_style_css
                0x000000000800c820       0x14 ./../../lib/libuip-1.0.a(httpd-fs.o)
                0x000000000800c820                file_style_css
 .rodata.data_te_jpg
                0x000000000800c834      0x888 ./../../lib/libuip-1.0.a(httpd-fs.o)
 .rodata.file_newlib_jpg
                0x000000000800d0bc       0x14 ./../../lib/libuip-1.0.a(httpd-fs.o)
                0x000000000800d0bc                file_newlib_jpg
 .rodata.data_404_html
                0x000000000800d0d0       0xac ./../../lib/libuip-1.0.a(httpd-fs.o)
 .rodata.data_gdb_jpg
                0x000000000800d17c      0x990 ./../../lib/libuip-1.0.a(httpd-fs.o)
 .rodata.data_klen_jpg
                0x000000000800db0c      0x930 ./../../lib/libuip-1.0.a(httpd-fs.o)
 .rodata.file_gdb_jpg
                0x000000000800e43c       0x14 ./../../lib/libuip-1.0.a(httpd-fs.o)
                0x000000000800e43c                file_gdb_jpg
 .rodata.data_files_shtml
                0x000000000800e450      0x728 ./../../lib/libuip-1.0.a(httpd-fs.o)
 .rodata.file_led_shtml
                0x000000000800eb78       0x14 ./../../lib/libuip-1.0.a(httpd-fs.o)
                0x000000000800eb78                file_led_shtml
 .rodata.file_gcc_jpg
                0x000000000800eb8c       0x14 ./../../lib/libuip-1.0.a(httpd-fs.o)
                0x000000000800eb8c                file_gcc_jpg
 .rodata.data_style_css
                0x000000000800eba0      0x3fc ./../../lib/libuip-1.0.a(httpd-fs.o)
 .rodata.file_eclipse_jpg
                0x000000000800ef9c       0x14 ./../../lib/libuip-1.0.a(httpd-fs.o)
                0x000000000800ef9c                file_eclipse_jpg
 .rodata.file_stats_shtml
                0x000000000800efb0       0x14 ./../../lib/libuip-1.0.a(httpd-fs.o)
                0x000000000800efb0                file_stats_shtml
 .rodata.data_eclipse_jpg
                0x000000000800efc4      0x7a0 ./../../lib/libuip-1.0.a(httpd-fs.o)
 .rodata.data_newlib_jpg
                0x000000000800f764      0x940 ./../../lib/libuip-1.0.a(httpd-fs.o)
 .rodata.data_index_html
                0x00000000080100a4     0x3838 ./../../lib/libuip-1.0.a(httpd-fs.o)
 .rodata.file_oocd_jpg
                0x00000000080138dc       0x14 ./../../lib/libuip-1.0.a(httpd-fs.o)
                0x00000000080138dc                file_oocd_jpg
 .rodata.file_footer_html
                0x00000000080138f0       0x14 ./../../lib/libuip-1.0.a(httpd-fs.o)
                0x00000000080138f0                file_footer_html
 .rodata.data_led_shtml
                0x0000000008013904       0xb0 ./../../lib/libuip-1.0.a(httpd-fs.o)
 .rodata.file_java_jpg
                0x00000000080139b4       0x14 ./../../lib/libuip-1.0.a(httpd-fs.o)
                0x00000000080139b4                file_java_jpg
 .rodata.file_freertos_jpg
                0x00000000080139c8       0x14 ./../../lib/libuip-1.0.a(httpd-fs.o)
                0x00000000080139c8                file_freertos_jpg
 .rodata.data_footer_html
                0x00000000080139dc       0x20 ./../../lib/libuip-1.0.a(httpd-fs.o)
 .rodata.file_fade_png
                0x00000000080139fc       0x14 ./../../lib/libuip-1.0.a(httpd-fs.o)
                0x00000000080139fc                file_fade_png
 .rodata.file_te_jpg
                0x0000000008013a10       0x14 ./../../lib/libuip-1.0.a(httpd-fs.o)
                0x0000000008013a10                file_te_jpg
 .rodata.data_oocd_jpg
                0x0000000008013a24      0x6d0 ./../../lib/libuip-1.0.a(httpd-fs.o)
 .rodata.data_stats_shtml
                0x00000000080140f4      0x3b4 ./../../lib/libuip-1.0.a(httpd-fs.o)
 .rodata.file_stm_jpg
                0x00000000080144a8       0x14 ./../../lib/libuip-1.0.a(httpd-fs.o)
                0x00000000080144a8                file_stm_jpg
 .rodata.file_realtek_jpg
                0x00000000080144bc       0x14 ./../../lib/libuip-1.0.a(httpd-fs.o)
                0x00000000080144bc                file_realtek_jpg
 .rodata.data_java_jpg
                0x00000000080144d0      0x4a0 ./../../lib/libuip-1.0.a(httpd-fs.o)
 .rodata.file_te_stm32f107_jpg
                0x0000000008014970       0x14 ./../../lib/libuip-1.0.a(httpd-fs.o)
                0x0000000008014970                file_te_stm32f107_jpg
 .rodata.data_realtek_jpg
                0x0000000008014984      0xc70 ./../../lib/libuip-1.0.a(httpd-fs.o)
 .rodata.data_fade_png
                0x00000000080155f4       0xd0 ./../../lib/libuip-1.0.a(httpd-fs.o)
 .rodata.file_sics_jpg
                0x00000000080156c4       0x14 ./../../lib/libuip-1.0.a(httpd-fs.o)
                0x00000000080156c4                file_sics_jpg
 .rodata.data_stm_jpg
                0x00000000080156d8      0x698 ./../../lib/libuip-1.0.a(httpd-fs.o)
 .rodata.data_te_stm32f107_jpg
                0x0000000008015d70     0xfc8c ./../../lib/libuip-1.0.a(httpd-fs.o)
 .rodata.data_tcp_shtml
                0x00000000080259fc       0xe0 ./../../lib/libuip-1.0.a(httpd-fs.o)
 .rodata.file_header_html
                0x0000000008025adc       0x14 ./../../lib/libuip-1.0.a(httpd-fs.o)
                0x0000000008025adc                file_header_html
 .rodata.file_404_html
                0x0000000008025af0       0x14 ./../../lib/libuip-1.0.a(httpd-fs.o)
                0x0000000008025af0                file_404_html
 .rodata.http_shtml
                0x0000000008025b04        0x8 ./../../lib/libuip-1.0.a(http-strings.o)
                0x0000000008025b04                http_shtml
 .rodata.http_content_type_plain
                0x0000000008025b0c       0x20 ./../../lib/libuip-1.0.a(http-strings.o)
                0x0000000008025b0c                http_content_type_plain
 .rodata.http_referer
                0x0000000008025b2c        0xc ./../../lib/libuip-1.0.a(http-strings.o)
                0x0000000008025b2c                http_referer
 .rodata.http_content_type_jpg
                0x0000000008025b38       0x20 ./../../lib/libuip-1.0.a(http-strings.o)
                0x0000000008025b38                http_content_type_jpg
 .rodata.http_html
                0x0000000008025b58        0x8 ./../../lib/libuip-1.0.a(http-strings.o)
                0x0000000008025b58                http_html
 .rodata.http_png
                0x0000000008025b60        0x8 ./../../lib/libuip-1.0.a(http-strings.o)
                0x0000000008025b60                http_png
 .rodata.http_content_type_binary
                0x0000000008025b68       0x2c ./../../lib/libuip-1.0.a(http-strings.o)
                0x0000000008025b68                http_content_type_binary
 .rodata.http_gif
                0x0000000008025b94        0x8 ./../../lib/libuip-1.0.a(http-strings.o)
                0x0000000008025b94                http_gif
 .rodata.http_css
                0x0000000008025b9c        0x8 ./../../lib/libuip-1.0.a(http-strings.o)
                0x0000000008025b9c                http_css
 .rodata.http_404_html
                0x0000000008025ba4        0xc ./../../lib/libuip-1.0.a(http-strings.o)
                0x0000000008025ba4                http_404_html
 .rodata.http_content_type_html
                0x0000000008025bb0       0x1c ./../../lib/libuip-1.0.a(http-strings.o)
                0x0000000008025bb0                http_content_type_html
 .rodata.http_content_type_png
                0x0000000008025bcc       0x1c ./../../lib/libuip-1.0.a(http-strings.o)
                0x0000000008025bcc                http_content_type_png
 .rodata.http_content_type_css
                0x0000000008025be8       0x1c ./../../lib/libuip-1.0.a(http-strings.o)
                0x0000000008025be8                http_content_type_css
 .rodata.http_content_type_gif
                0x0000000008025c04       0x1c ./../../lib/libuip-1.0.a(http-strings.o)
                0x0000000008025c04                http_content_type_gif
 .rodata.http_header_404
                0x0000000008025c20       0x5c ./../../lib/libuip-1.0.a(http-strings.o)
                0x0000000008025c20                http_header_404
 .rodata.http_header_200
                0x0000000008025c7c       0x54 ./../../lib/libuip-1.0.a(http-strings.o)
                0x0000000008025c7c                http_header_200
 .rodata.http_jpg
                0x0000000008025cd0        0x8 ./../../lib/libuip-1.0.a(http-strings.o)
                0x0000000008025cd0                http_jpg
 .rodata.http_get
                0x0000000008025cd8        0x8 ./../../lib/libuip-1.0.a(http-strings.o)
                0x0000000008025cd8                http_get
 .rodata.http_index_html
                0x0000000008025ce0        0xc ./../../lib/libuip-1.0.a(http-strings.o)
                0x0000000008025ce0                http_index_html
 .rodata.broadcast_ethaddr
                0x0000000008025cec        0x8 ./../../lib/libuip-1.0.a(uip_arp.o)
 .rodata.parsetab
                0x0000000008025cf4       0x40 ./../../lib/libuip-1.0.a(shell.o)
 .rodata.table.4017
                0x0000000008025d34       0x10 ./../../lib/libuip-1.0.a(shell.o)
 .rodata.str1.1
                0x0000000008025d44      0x918 ./../../lib/libuip-1.0.a(shell.o)
                                        0x924 (size before relaxing)
 .rodata.table.4007
                0x000000000802665c        0xc ./../../lib/libuip-1.0.a(shell.o)
 .rodata.str1.1
                0x0000000008026668       0x42 ./../../lib/libfreertos-6.0.2.a(tasks.o)
                                         0x45 (size before relaxing)
 *fill*         0x00000000080266aa        0x2 00
 .rodata.ucExpectedStackBytes.3063
                0x00000000080266ac       0x14 ./../../lib/libfreertos-6.0.2.a(tasks.o)
 .rodata.CSWTCH.2
                0x00000000080266c0        0x8 ./../../lib/libhardware.a(stm32f10x_can.o)
 .rodata.zeroes.3914
                0x00000000080266c8       0x10 /opt/kgp_arm_eabi/lib/gcc/arm-kgp-eabi/4.5.0/../../../../arm-kgp-eabi/lib/thumb/cortex-m3/libc.a(lib_a-svfprintf.o)
 .rodata.blanks.3913
                0x00000000080266d8       0x10 /opt/kgp_arm_eabi/lib/gcc/arm-kgp-eabi/4.5.0/../../../../arm-kgp-eabi/lib/thumb/cortex-m3/libc.a(lib_a-svfprintf.o)
 .rodata.str1.1
                0x00000000080266e8       0x32 /opt/kgp_arm_eabi/lib/gcc/arm-kgp-eabi/4.5.0/../../../../arm-kgp-eabi/lib/thumb/cortex-m3/libc.a(lib_a-svfprintf.o)
                                         0x34 (size before relaxing)
 *fill*         0x000000000802671a        0x2 00
 .rodata._ctype_
                0x000000000802671c      0x104 /opt/kgp_arm_eabi/lib/gcc/arm-kgp-eabi/4.5.0/../../../../arm-kgp-eabi/lib/thumb/cortex-m3/libc.a(lib_a-ctype_.o)
                0x000000000802671c                _ctype_
 .rodata.str1.1
                0x0000000008026820        0xd /opt/kgp_arm_eabi/lib/gcc/arm-kgp-eabi/4.5.0/../../../../arm-kgp-eabi/lib/thumb/cortex-m3/libc.a(lib_a-dtoa.o)
                                          0xf (size before relaxing)
 .rodata.str1.1
                0x0000000000000000        0xd /opt/kgp_arm_eabi/lib/gcc/arm-kgp-eabi/4.5.0/../../../../arm-kgp-eabi/lib/thumb/cortex-m3/libc.a(lib_a-impure.o)
                                          0x2 (size before relaxing)
 .rodata.str1.1
                0x000000000802682d        0x8 /opt/kgp_arm_eabi/lib/gcc/arm-kgp-eabi/4.5.0/../../../../arm-kgp-eabi/lib/thumb/cortex-m3/libc.a(lib_a-locale.o)
                                          0xb (size before relaxing)
 *fill*         0x0000000008026835        0x3 00
 .rodata.__mprec_tens
                0x0000000008026838       0xc8 /opt/kgp_arm_eabi/lib/gcc/arm-kgp-eabi/4.5.0/../../../../arm-kgp-eabi/lib/thumb/cortex-m3/libc.a(lib_a-mprec.o)
                0x0000000008026838                __mprec_tens
 .rodata.__mprec_bigtens
                0x0000000008026900       0x28 /opt/kgp_arm_eabi/lib/gcc/arm-kgp-eabi/4.5.0/../../../../arm-kgp-eabi/lib/thumb/cortex-m3/libc.a(lib_a-mprec.o)
                0x0000000008026900                __mprec_bigtens
 .rodata.p05.2435
                0x0000000008026928        0xc /opt/kgp_arm_eabi/lib/gcc/arm-kgp-eabi/4.5.0/../../../../arm-kgp-eabi/lib/thumb/cortex-m3/libc.a(lib_a-mprec.o)
 *(.glue_7)
 .glue_7        0x0000000000000000        0x0 linker stubs
 *(.glue_7t)
 .glue_7t       0x0000000000000000        0x0 linker stubs
 *(.gnu*)
 *(.gcc*)
                0x0000000008026934                . = ALIGN (0x4)
                0x0000000008026934                _text_end_ = .
                0x0000000008026934                _ram_vec_load_start_ = _text_end_

.vfp11_veneer   0x0000000008026934        0x0
 .vfp11_veneer  0x0000000000000000        0x0 linker stubs

.v4_bx          0x0000000008026934        0x0
 .v4_bx         0x0000000000000000        0x0 linker stubs

.ram_vec        0x0000000020000000        0x0 load address 0x0000000008026934
                0x0000000020000000                . = ALIGN (0x4)
                0x0000000020000000                _ram_vec_start_ = .
 *(.ram_vec)
                0x0000000020000000                _ram_vec_end_ = (. ALIGN 0x4)
                0x0000000008026934                _ram_vec_load_end_ = (_ram_vec_load_start_ + SIZEOF (.ram_vec))
                0x0000000008026934                _data_load_start_ = _ram_vec_load_end_

.data           0x0000000020000000      0x8c4 load address 0x0000000008026934
                0x0000000020000000                . = ALIGN (0x4)
                0x0000000020000000                _data_start_ = .
 *(.data)
 *(.data*)
 .data.uip_semaphore
                0x0000000020000000        0x4 main.o
                0x0000000020000000                uip_semaphore
 .data.arp_timer.4393
                0x0000000020000004        0x8 ./../../lib/libuip-1.0.a(uip_handler.o)
 .data.calls    0x000000002000000c       0x14 ./../../lib/libuip-1.0.a(httpd-cgi.o)
 .data.linemem  0x0000000020000020        0xc ./../../lib/libuip-1.0.a(telnetd.o)
 .data.uxCriticalNesting
                0x000000002000002c        0x4 ./../../lib/libfreertos-6.0.2.a(port.o)
 .data.uxPreviousTask
                0x0000000020000030        0x4 ./../../lib/libfreertos-6.0.2.a(tasks.o)
 .data.ADCPrescTable
                0x0000000020000034        0x4 ./../../lib/libhardware.a(stm32f10x_rcc.o)
 .data.APBAHBPrescTable
                0x0000000020000038       0x10 ./../../lib/libhardware.a(stm32f10x_rcc.o)
 .data.__ctype_ptr__
                0x0000000020000048        0x4 /opt/kgp_arm_eabi/lib/gcc/arm-kgp-eabi/4.5.0/../../../../arm-kgp-eabi/lib/thumb/cortex-m3/libc.a(lib_a-ctype_.o)
                0x0000000020000048                __ctype_ptr__
 *fill*         0x000000002000004c        0x4 00
 .data.impure_data
                0x0000000020000050      0x428 /opt/kgp_arm_eabi/lib/gcc/arm-kgp-eabi/4.5.0/../../../../arm-kgp-eabi/lib/thumb/cortex-m3/libc.a(lib_a-impure.o)
 .data._impure_ptr
                0x0000000020000478        0x4 /opt/kgp_arm_eabi/lib/gcc/arm-kgp-eabi/4.5.0/../../../../arm-kgp-eabi/lib/thumb/cortex-m3/libc.a(lib_a-impure.o)
                0x0000000020000478                _impure_ptr
 .data.lconv    0x000000002000047c       0x38 /opt/kgp_arm_eabi/lib/gcc/arm-kgp-eabi/4.5.0/../../../../arm-kgp-eabi/lib/thumb/cortex-m3/libc.a(lib_a-locale.o)
 .data.__malloc_av_
                0x00000000200004b4      0x408 /opt/kgp_arm_eabi/lib/gcc/arm-kgp-eabi/4.5.0/../../../../arm-kgp-eabi/lib/thumb/cortex-m3/libc.a(lib_a-mallocr.o)
                0x00000000200004b4                __malloc_av_
 .data.__malloc_trim_threshold
                0x00000000200008bc        0x4 /opt/kgp_arm_eabi/lib/gcc/arm-kgp-eabi/4.5.0/../../../../arm-kgp-eabi/lib/thumb/cortex-m3/libc.a(lib_a-mallocr.o)
                0x00000000200008bc                __malloc_trim_threshold
 .data.__malloc_sbrk_base
                0x00000000200008c0        0x4 /opt/kgp_arm_eabi/lib/gcc/arm-kgp-eabi/4.5.0/../../../../arm-kgp-eabi/lib/thumb/cortex-m3/libc.a(lib_a-mallocr.o)
                0x00000000200008c0                __malloc_sbrk_base
                0x00000000200008c4                _data_end_ = (. ALIGN 0x4)
                0x00000000080271f8                _data_load_end_ = (_data_load_start_ + SIZEOF (.data))
                0x00000000080271f8                _fast_load_start_ = _data_load_end_

.fast           0x00000000200008c4        0x0 load address 0x00000000080271f8
                0x00000000200008c4                . = ALIGN (0x4)
                0x00000000200008c4                _fast_start_ = .
 *(.fast)
 *(.fast*)
                0x00000000200008c4                _fast_end_ = (. ALIGN 0x4)
                0x00000000080271f8                _fast_load_end_ = (_fast_load_start_ + SIZEOF (.fast))
                0x00000000080271f8                _flash_end_ = _fast_load_end_

.bss            0x00000000200008c4     0xc510 load address 0x00000000080271f8
                0x00000000200008c4                . = ALIGN (0x4)
                0x00000000200008c4                _bss_start_ = .
 *(.bss)
 *(.bss*)
 .bss.uip_task_recv_stack_free
                0x00000000200008c4        0x4 main.o
                0x00000000200008c4                uip_task_recv_stack_free
 .bss.uip_task_periodic_stack_free
                0x00000000200008c8        0x4 main.o
                0x00000000200008c8                uip_task_periodic_stack_free
 .bss.usMaxDifference.3409
                0x00000000200008cc        0x2 timer.o
 *fill*         0x00000000200008ce        0x2 00
 .bss.ulRunTimeStatsClock
                0x00000000200008d0        0x4 timer.o
                0x00000000200008d0                ulRunTimeStatsClock
 .bss.usMaxJitter
                0x00000000200008d4        0x2 timer.o
                0x00000000200008d4                usMaxJitter
 .bss.usSettleCount.3408
                0x00000000200008d6        0x2 timer.o
 .bss.usLastCount.3407
                0x00000000200008d8        0x2 timer.o
 *fill*         0x00000000200008da        0x2 00
 .bss.dhcpcState
                0x00000000200008dc        0x4 ./../../lib/libuip-1.0.a(dhcpc.o)
 .bss.count     0x00000000200008e0       0x30 ./../../lib/libuip-1.0.a(httpd-fs.o)
 .bss.sntpState
                0x0000000020000910        0x4 ./../../lib/libuip-1.0.a(sntp.o)
 .bss.linemem_memb_mem
                0x0000000020000914     0x2000 ./../../lib/libuip-1.0.a(telnetd.o)
 .bss.i.2420    0x0000000020002914        0x4 ./../../lib/libuip-1.0.a(telnetd.o)
 .bss.i.2383    0x0000000020002918        0x4 ./../../lib/libuip-1.0.a(telnetd.o)
 .bss.s         0x000000002000291c      0x184 ./../../lib/libuip-1.0.a(telnetd.o)
 .bss.linemem_memb_count
                0x0000000020002aa0       0x40 ./../../lib/libuip-1.0.a(telnetd.o)
 .bss.len.2355  0x0000000020002ae0        0x4 ./../../lib/libuip-1.0.a(telnetd.o)
 .bss.i.2343    0x0000000020002ae4        0x4 ./../../lib/libuip-1.0.a(telnetd.o)
 .bss.buflen.2375
                0x0000000020002ae8        0x4 ./../../lib/libuip-1.0.a(telnetd.o)
 .bss.lineptr.2374
                0x0000000020002aec        0x4 ./../../lib/libuip-1.0.a(telnetd.o)
 .bss.linelen.2376
                0x0000000020002af0        0x4 ./../../lib/libuip-1.0.a(telnetd.o)
 .bss.bufptr.2373
                0x0000000020002af4        0x4 ./../../lib/libuip-1.0.a(telnetd.o)
 .bss.i.2363    0x0000000020002af8        0x4 ./../../lib/libuip-1.0.a(telnetd.o)
 .bss.i         0x0000000020002afc        0x1 ./../../lib/libuip-1.0.a(uip_arp.o)
 .bss.tmpage    0x0000000020002afd        0x1 ./../../lib/libuip-1.0.a(uip_arp.o)
 *fill*         0x0000000020002afe        0x2 00
 .bss.arp_table
                0x0000000020002b00       0x58 ./../../lib/libuip-1.0.a(uip_arp.o)
 .bss.c         0x0000000020002b58        0x1 ./../../lib/libuip-1.0.a(uip_arp.o)
 .bss.arptime   0x0000000020002b59        0x1 ./../../lib/libuip-1.0.a(uip_arp.o)
 *fill*         0x0000000020002b5a        0x2 00
 .bss.ipaddr    0x0000000020002b5c        0x4 ./../../lib/libuip-1.0.a(uip_arp.o)
 .bss.tmp16     0x0000000020002b60        0x2 ./../../lib/libuip-1.0.a(uip.o)
 .bss.ipid      0x0000000020002b62        0x2 ./../../lib/libuip-1.0.a(uip.o)
 .bss.uip_timeoffset
                0x0000000020002b64        0x4 ./../../lib/libuip-1.0.a(uip.o)
                0x0000000020002b64                uip_timeoffset
 .bss.iss       0x0000000020002b68        0x4 ./../../lib/libuip-1.0.a(uip.o)
 .bss.lastport  0x0000000020002b6c        0x2 ./../../lib/libuip-1.0.a(uip.o)
 .bss.c         0x0000000020002b6e        0x1 ./../../lib/libuip-1.0.a(uip.o)
 *fill*         0x0000000020002b6f        0x1 00
 .bss.uip_ethaddr
                0x0000000020002b70        0x8 ./../../lib/libuip-1.0.a(uip.o)
                0x0000000020002b70                uip_ethaddr
 .bss.opt       0x0000000020002b78        0x1 ./../../lib/libuip-1.0.a(uip.o)
 *fill*         0x0000000020002b79        0x3 00
 .bss.buf.4006  0x0000000020002b7c       0x20 ./../../lib/libuip-1.0.a(shell.o)
 .bss.buf.4016  0x0000000020002b9c       0x20 ./../../lib/libuip-1.0.a(shell.o)
 .bss.xPendingReadyList
                0x0000000020002bbc       0x14 ./../../lib/libfreertos-6.0.2.a(tasks.o)
 .bss.uxTopReadyPriority
                0x0000000020002bd0        0x4 ./../../lib/libfreertos-6.0.2.a(tasks.o)
 .bss.uxTasksDeleted
                0x0000000020002bd4        0x4 ./../../lib/libfreertos-6.0.2.a(tasks.o)
 .bss.xTickCount
                0x0000000020002bd8        0x4 ./../../lib/libfreertos-6.0.2.a(tasks.o)
 .bss.pxReadyTasksLists
                0x0000000020002bdc       0x64 ./../../lib/libfreertos-6.0.2.a(tasks.o)
 .bss.pxOverflowDelayedTaskList
                0x0000000020002c40        0x4 ./../../lib/libfreertos-6.0.2.a(tasks.o)
 .bss.xTasksWaitingTermination
                0x0000000020002c44       0x14 ./../../lib/libfreertos-6.0.2.a(tasks.o)
 .bss.xTracing  0x0000000020002c58        0x4 ./../../lib/libfreertos-6.0.2.a(tasks.o)
 .bss.pxDelayedTaskList
                0x0000000020002c5c        0x4 ./../../lib/libfreertos-6.0.2.a(tasks.o)
 .bss.xSchedulerRunning
                0x0000000020002c60        0x4 ./../../lib/libfreertos-6.0.2.a(tasks.o)
 .bss.ulTaskSwitchedInTime
                0x0000000020002c64        0x4 ./../../lib/libfreertos-6.0.2.a(tasks.o)
 .bss.xMissedYield
                0x0000000020002c68        0x4 ./../../lib/libfreertos-6.0.2.a(tasks.o)
 .bss.pcTraceBuffer
                0x0000000020002c6c        0x4 ./../../lib/libfreertos-6.0.2.a(tasks.o)
 .bss.pxCurrentTCB
                0x0000000020002c70        0x4 ./../../lib/libfreertos-6.0.2.a(tasks.o)
                0x0000000020002c70                pxCurrentTCB
 .bss.xSuspendedTaskList
                0x0000000020002c74       0x14 ./../../lib/libfreertos-6.0.2.a(tasks.o)
 .bss.uxCurrentNumberOfTasks
                0x0000000020002c88        0x4 ./../../lib/libfreertos-6.0.2.a(tasks.o)
 .bss.xDelayedTaskList1
                0x0000000020002c8c       0x14 ./../../lib/libfreertos-6.0.2.a(tasks.o)
 .bss.xDelayedTaskList2
                0x0000000020002ca0       0x14 ./../../lib/libfreertos-6.0.2.a(tasks.o)
 .bss.uxTaskNumber
                0x0000000020002cb4        0x4 ./../../lib/libfreertos-6.0.2.a(tasks.o)
 .bss.uxSchedulerSuspended
                0x0000000020002cb8        0x4 ./../../lib/libfreertos-6.0.2.a(tasks.o)
 .bss.uxMissedTicks
                0x0000000020002cbc        0x4 ./../../lib/libfreertos-6.0.2.a(tasks.o)
 .bss.pcTraceBufferEnd
                0x0000000020002cc0        0x4 ./../../lib/libfreertos-6.0.2.a(tasks.o)
 .bss.xNumOfOverflows
                0x0000000020002cc4        0x4 ./../../lib/libfreertos-6.0.2.a(tasks.o)
 .bss.uxTopUsedPriority
                0x0000000020002cc8        0x4 ./../../lib/libfreertos-6.0.2.a(tasks.o)
 .bss.HeapHasBeenInitialised.2043
                0x0000000020002ccc        0x4 ./../../lib/libfreertos-6.0.2.a(mmgr.o)
 .bss.End       0x0000000020002cd0        0x8 ./../../lib/libfreertos-6.0.2.a(mmgr.o)
 .bss.Heap      0x0000000020002cd8     0x4004 ./../../lib/libfreertos-6.0.2.a(mmgr.o)
 .bss.Start     0x0000000020006cdc        0x8 ./../../lib/libfreertos-6.0.2.a(mmgr.o)
 .bss.AllocFails
                0x0000000020006ce4        0x4 ./../../lib/libfreertos-6.0.2.a(mmgr.o)
 .bss.__malloc_max_total_mem
                0x0000000020006ce8        0x4 /opt/kgp_arm_eabi/lib/gcc/arm-kgp-eabi/4.5.0/../../../../arm-kgp-eabi/lib/thumb/cortex-m3/libc.a(lib_a-mallocr.o)
                0x0000000020006ce8                __malloc_max_total_mem
 .bss.__malloc_max_sbrked_mem
                0x0000000020006cec        0x4 /opt/kgp_arm_eabi/lib/gcc/arm-kgp-eabi/4.5.0/../../../../arm-kgp-eabi/lib/thumb/cortex-m3/libc.a(lib_a-mallocr.o)
                0x0000000020006cec                __malloc_max_sbrked_mem
 .bss.__malloc_top_pad
                0x0000000020006cf0        0x4 /opt/kgp_arm_eabi/lib/gcc/arm-kgp-eabi/4.5.0/../../../../arm-kgp-eabi/lib/thumb/cortex-m3/libc.a(lib_a-mallocr.o)
                0x0000000020006cf0                __malloc_top_pad
 .bss.__malloc_current_mallinfo
                0x0000000020006cf4       0x28 /opt/kgp_arm_eabi/lib/gcc/arm-kgp-eabi/4.5.0/../../../../arm-kgp-eabi/lib/thumb/cortex-m3/libc.a(lib_a-mallocr.o)
                0x0000000020006cf4                __malloc_current_mallinfo
                0x0000000020006d1c                _bss_end_ = .
 COMMON         0x0000000020006d1c        0x4 can_test.o
                0x0000000020006d1c                can_test_result
 COMMON         0x0000000020006d20        0x8 main.o
                0x0000000020006d20                uip_recv_task_handle
                0x0000000020006d24                uip_periodic_task_handle
 COMMON         0x0000000020006d28       0x22 rtl8201cp.o
                0x0000000020006d28                phy_nwsr
                0x0000000020006d2c                phy_aner
                0x0000000020006d30                phy_bmcr
                0x0000000020006d34                phy_lpremr
                0x0000000020006d36                phy_id1r
                0x0000000020006d38                phy_snrdr
                0x0000000020006d3c                phy_anar
                0x0000000020006d3e                phy_id2r
                0x0000000020006d40                phy_bmsr
                0x0000000020006d44                phy_tr
                0x0000000020006d46                phy_rxercr
                0x0000000020006d48                phy_anlpar
 *fill*         0x0000000020006d4a        0x2 00
 COMMON         0x0000000020006d4c     0x48bc sys_init.o
                0x0000000020006d4c                ETH_InitStructure
                0x0000000020006e08                DMATxDscrTab
                0x0000000020006e48                Rx_Buff
                0x0000000020009dc8                DMARxDscrTab
                0x0000000020009e48                Tx_Buff
 COMMON         0x000000002000b608     0x17bc ./../../lib/libuip-1.0.a(uip.o)
                0x000000002000b608                uip_len
                0x000000002000b60c                uip_sappdata
                0x000000002000b610                uip_acc32
                0x000000002000b614                uip_flags
                0x000000002000b618                uip_udp_conn
                0x000000002000b61c                uip_appdata
                0x000000002000b620                uip_conn
                0x000000002000b624                uip_conns
                0x000000002000c664                uip_sntpaddr
                0x000000002000c668                uip_listenports
                0x000000002000c67c                uip_draddr
                0x000000002000c680                uip_stat
                0x000000002000c6b4                uip_netmask
                0x000000002000c6b8                uip_hostaddr
                0x000000002000c6bc                uip_buf
                0x000000002000cca0                uip_slen
                0x000000002000cca4                uip_udp_conns
 COMMON         0x000000002000cdc4       0x10 ./../../lib/libethernet.a(stm32_eth.o)
                0x000000002000cdc4                DMAPTPRxDescToGet
                0x000000002000cdc8                DMARxDescToGet
                0x000000002000cdcc                DMATxDescToSet
                0x000000002000cdd0                DMAPTPTxDescToSet

DISCARD
 libc.a(*)
 libm.a(*)
 libgcc.a(*)

.stab
 *(.stab)

.stabstr
 *(.stabstr)

.stab.excl
 *(.stab.excl)

.stab.exclstr
 *(.stab.exclstr)

.stab.index
 *(.stab.index)

.stab.indexstr
 *(.stab.indexstr)

.ARM.attributes
                0x0000000000000000       0x31
 .ARM.attributes
                0x0000000000000000       0x31 can_test.o
 .ARM.attributes
                0x0000000000000031       0x31 crt.o
 .ARM.attributes
                0x0000000000000062       0x31 main.o
 .ARM.attributes
                0x0000000000000093       0x31 rtl8201cp.o
 .ARM.attributes
                0x00000000000000c4       0x31 stm32f10x_it.o
 .ARM.attributes
                0x00000000000000f5       0x31 syscalls.o
 .ARM.attributes
                0x0000000000000126       0x31 sys_init.o
 .ARM.attributes
                0x0000000000000157       0x31 timer.o
 .ARM.attributes
                0x0000000000000188       0x31 ./../../lib/libuip-1.0.a(uip_handler.o)
 .ARM.attributes
                0x00000000000001b9       0x31 ./../../lib/libuip-1.0.a(uip_timer.o)
 .ARM.attributes
                0x00000000000001ea       0x31 ./../../lib/libuip-1.0.a(dhcpc.o)
 .ARM.attributes
                0x000000000000021b       0x31 ./../../lib/libuip-1.0.a(httpd.o)
 .ARM.attributes
                0x000000000000024c       0x31 ./../../lib/libuip-1.0.a(httpd-cgi.o)
 .ARM.attributes
                0x000000000000027d       0x31 ./../../lib/libuip-1.0.a(httpd-fs.o)
 .ARM.attributes
                0x00000000000002ae       0x31 ./../../lib/libuip-1.0.a(http-strings.o)
 .ARM.attributes
                0x00000000000002df       0x31 ./../../lib/libuip-1.0.a(psock.o)
 .ARM.attributes
                0x0000000000000310       0x31 ./../../lib/libuip-1.0.a(sntp.o)
 .ARM.attributes
                0x0000000000000341       0x31 ./../../lib/libuip-1.0.a(telnetd.o)
 .ARM.attributes
                0x0000000000000372       0x31 ./../../lib/libuip-1.0.a(uip_arp.o)
 .ARM.attributes
                0x00000000000003a3       0x31 ./../../lib/libuip-1.0.a(uip.o)
 .ARM.attributes
                0x00000000000003d4       0x31 ./../../lib/libuip-1.0.a(memb.o)
 .ARM.attributes
                0x0000000000000405       0x31 ./../../lib/libuip-1.0.a(shell.o)
 .ARM.attributes
                0x0000000000000436       0x31 ./../../lib/libuip-1.0.a(uip_arch.o)
 .ARM.attributes
                0x0000000000000467       0x31 ./../../lib/libethernet.a(stm32_eth.o)
 .ARM.attributes
                0x0000000000000498       0x31 ./../../lib/libfreertos-6.0.2.a(port.o)
 .ARM.attributes
                0x00000000000004c9       0x31 ./../../lib/libfreertos-6.0.2.a(queue.o)
 .ARM.attributes
                0x00000000000004fa       0x31 ./../../lib/libfreertos-6.0.2.a(tasks.o)
 .ARM.attributes
                0x000000000000052b       0x31 ./../../lib/libfreertos-6.0.2.a(list.o)
 .ARM.attributes
                0x000000000000055c       0x31 ./../../lib/libfreertos-6.0.2.a(mmgr.o)
 .ARM.attributes
                0x000000000000058d       0x31 ./../../lib/libhardware.a(misc.o)
 .ARM.attributes
                0x00000000000005be       0x31 ./../../lib/libhardware.a(stm32f10x_can.o)
 .ARM.attributes
                0x00000000000005ef       0x31 ./../../lib/libhardware.a(stm32f10x_flash.o)
 .ARM.attributes
                0x0000000000000620       0x31 ./../../lib/libhardware.a(stm32f10x_gpio.o)
 .ARM.attributes
                0x0000000000000651       0x31 ./../../lib/libhardware.a(stm32f10x_rcc.o)
 .ARM.attributes
                0x0000000000000682       0x31 ./../../lib/libhardware.a(stm32f10x_tim.o)
 .ARM.attributes
                0x00000000000006b3       0x31 ./../../lib/libcmsis.a(system_stm32f10x.o)
 .ARM.attributes
                0x00000000000006e4       0x31 /opt/kgp_arm_eabi/lib/gcc/arm-kgp-eabi/4.5.0/../../../../arm-kgp-eabi/lib/thumb/cortex-m3/libc.a(lib_a-atoi.o)
 .ARM.attributes
                0x0000000000000715       0x31 /opt/kgp_arm_eabi/lib/gcc/arm-kgp-eabi/4.5.0/../../../../arm-kgp-eabi/lib/thumb/cortex-m3/libc.a(lib_a-memcmp.o)
 .ARM.attributes
                0x0000000000000746       0x31 /opt/kgp_arm_eabi/lib/gcc/arm-kgp-eabi/4.5.0/../../../../arm-kgp-eabi/lib/thumb/cortex-m3/libc.a(lib_a-memcpy.o)
 .ARM.attributes
                0x0000000000000777       0x31 /opt/kgp_arm_eabi/lib/gcc/arm-kgp-eabi/4.5.0/../../../../arm-kgp-eabi/lib/thumb/cortex-m3/libc.a(lib_a-memset.o)
 .ARM.attributes
                0x00000000000007a8       0x31 /opt/kgp_arm_eabi/lib/gcc/arm-kgp-eabi/4.5.0/../../../../arm-kgp-eabi/lib/thumb/cortex-m3/libc.a(lib_a-printf.o)
 .ARM.attributes
                0x00000000000007d9       0x31 /opt/kgp_arm_eabi/lib/gcc/arm-kgp-eabi/4.5.0/../../../../arm-kgp-eabi/lib/thumb/cortex-m3/libc.a(lib_a-snprintf.o)
 .ARM.attributes
                0x000000000000080a       0x31 /opt/kgp_arm_eabi/lib/gcc/arm-kgp-eabi/4.5.0/../../../../arm-kgp-eabi/lib/thumb/cortex-m3/libc.a(lib_a-sprintf.o)
 .ARM.attributes
                0x000000000000083b       0x31 /opt/kgp_arm_eabi/lib/gcc/arm-kgp-eabi/4.5.0/../../../../arm-kgp-eabi/lib/thumb/cortex-m3/libc.a(lib_a-strcat.o)
 .ARM.attributes
                0x000000000000086c       0x31 /opt/kgp_arm_eabi/lib/gcc/arm-kgp-eabi/4.5.0/../../../../arm-kgp-eabi/lib/thumb/cortex-m3/libc.a(lib_a-strchr.o)
 .ARM.attributes
                0x000000000000089d       0x31 /opt/kgp_arm_eabi/lib/gcc/arm-kgp-eabi/4.5.0/../../../../arm-kgp-eabi/lib/thumb/cortex-m3/libc.a(lib_a-strcpy.o)
 .ARM.attributes
                0x00000000000008ce       0x31 /opt/kgp_arm_eabi/lib/gcc/arm-kgp-eabi/4.5.0/../../../../arm-kgp-eabi/lib/thumb/cortex-m3/libc.a(lib_a-strlen.o)
 .ARM.attributes
                0x00000000000008ff       0x31 /opt/kgp_arm_eabi/lib/gcc/arm-kgp-eabi/4.5.0/../../../../arm-kgp-eabi/lib/thumb/cortex-m3/libc.a(lib_a-strncmp.o)
 .ARM.attributes
                0x0000000000000930       0x31 /opt/kgp_arm_eabi/lib/gcc/arm-kgp-eabi/4.5.0/../../../../arm-kgp-eabi/lib/thumb/cortex-m3/libc.a(lib_a-strncpy.o)
 .ARM.attributes
                0x0000000000000961       0x31 /opt/kgp_arm_eabi/lib/gcc/arm-kgp-eabi/4.5.0/../../../../arm-kgp-eabi/lib/thumb/cortex-m3/libc.a(lib_a-strrchr.o)
 .ARM.attributes
                0x0000000000000992       0x31 /opt/kgp_arm_eabi/lib/gcc/arm-kgp-eabi/4.5.0/../../../../arm-kgp-eabi/lib/thumb/cortex-m3/libc.a(lib_a-strtol.o)
 .ARM.attributes
                0x00000000000009c3       0x31 /opt/kgp_arm_eabi/lib/gcc/arm-kgp-eabi/4.5.0/../../../../arm-kgp-eabi/lib/thumb/cortex-m3/libc.a(lib_a-svfprintf.o)
 .ARM.attributes
                0x00000000000009f4       0x31 /opt/kgp_arm_eabi/lib/gcc/arm-kgp-eabi/4.5.0/../../../../arm-kgp-eabi/lib/thumb/cortex-m3/libc.a(lib_a-vfprintf.o)
 .ARM.attributes
                0x0000000000000a25       0x31 /opt/kgp_arm_eabi/lib/gcc/arm-kgp-eabi/4.5.0/../../../../arm-kgp-eabi/lib/thumb/cortex-m3/libc.a(lib_a-wsetup.o)
 .ARM.attributes
                0x0000000000000a56       0x31 /opt/kgp_arm_eabi/lib/gcc/arm-kgp-eabi/4.5.0/../../../../arm-kgp-eabi/lib/thumb/cortex-m3/libc.a(lib_a-ctype_.o)
 .ARM.attributes
                0x0000000000000a87       0x31 /opt/kgp_arm_eabi/lib/gcc/arm-kgp-eabi/4.5.0/../../../../arm-kgp-eabi/lib/thumb/cortex-m3/libc.a(lib_a-dtoa.o)
 .ARM.attributes
                0x0000000000000ab8       0x31 /opt/kgp_arm_eabi/lib/gcc/arm-kgp-eabi/4.5.0/../../../../arm-kgp-eabi/lib/thumb/cortex-m3/libc.a(lib_a-fflush.o)
 .ARM.attributes
                0x0000000000000ae9       0x31 /opt/kgp_arm_eabi/lib/gcc/arm-kgp-eabi/4.5.0/../../../../arm-kgp-eabi/lib/thumb/cortex-m3/libc.a(lib_a-findfp.o)
 .ARM.attributes
                0x0000000000000b1a       0x31 /opt/kgp_arm_eabi/lib/gcc/arm-kgp-eabi/4.5.0/../../../../arm-kgp-eabi/lib/thumb/cortex-m3/libc.a(lib_a-freer.o)
 .ARM.attributes
                0x0000000000000b4b       0x31 /opt/kgp_arm_eabi/lib/gcc/arm-kgp-eabi/4.5.0/../../../../arm-kgp-eabi/lib/thumb/cortex-m3/libc.a(lib_a-fwalk.o)
 .ARM.attributes
                0x0000000000000b7c       0x31 /opt/kgp_arm_eabi/lib/gcc/arm-kgp-eabi/4.5.0/../../../../arm-kgp-eabi/lib/thumb/cortex-m3/libc.a(lib_a-impure.o)
 .ARM.attributes
                0x0000000000000bad       0x31 /opt/kgp_arm_eabi/lib/gcc/arm-kgp-eabi/4.5.0/../../../../arm-kgp-eabi/lib/thumb/cortex-m3/libc.a(lib_a-locale.o)
 .ARM.attributes
                0x0000000000000bde       0x31 /opt/kgp_arm_eabi/lib/gcc/arm-kgp-eabi/4.5.0/../../../../arm-kgp-eabi/lib/thumb/cortex-m3/libc.a(lib_a-makebuf.o)
 .ARM.attributes
                0x0000000000000c0f       0x31 /opt/kgp_arm_eabi/lib/gcc/arm-kgp-eabi/4.5.0/../../../../arm-kgp-eabi/lib/thumb/cortex-m3/libc.a(lib_a-mallocr.o)
 .ARM.attributes
                0x0000000000000c40       0x31 /opt/kgp_arm_eabi/lib/gcc/arm-kgp-eabi/4.5.0/../../../../arm-kgp-eabi/lib/thumb/cortex-m3/libc.a(lib_a-memchr.o)
 .ARM.attributes
                0x0000000000000c71       0x31 /opt/kgp_arm_eabi/lib/gcc/arm-kgp-eabi/4.5.0/../../../../arm-kgp-eabi/lib/thumb/cortex-m3/libc.a(lib_a-mlock.o)
 .ARM.attributes
                0x0000000000000ca2       0x31 /opt/kgp_arm_eabi/lib/gcc/arm-kgp-eabi/4.5.0/../../../../arm-kgp-eabi/lib/thumb/cortex-m3/libc.a(lib_a-mprec.o)
 .ARM.attributes
                0x0000000000000cd3       0x31 /opt/kgp_arm_eabi/lib/gcc/arm-kgp-eabi/4.5.0/../../../../arm-kgp-eabi/lib/thumb/cortex-m3/libc.a(lib_a-s_fpclassify.o)
 .ARM.attributes
                0x0000000000000d04       0x31 /opt/kgp_arm_eabi/lib/gcc/arm-kgp-eabi/4.5.0/../../../../arm-kgp-eabi/lib/thumb/cortex-m3/libc.a(lib_a-stdio.o)
 .ARM.attributes
                0x0000000000000d35       0x31 /opt/kgp_arm_eabi/lib/gcc/arm-kgp-eabi/4.5.0/../../../../arm-kgp-eabi/lib/thumb/cortex-m3/libc.a(lib_a-strcmp.o)
 .ARM.attributes
                0x0000000000000d66       0x31 /opt/kgp_arm_eabi/lib/gcc/arm-kgp-eabi/4.5.0/../../../../arm-kgp-eabi/lib/thumb/cortex-m3/libc.a(lib_a-svfiprintf.o)
 .ARM.attributes
                0x0000000000000d97       0x31 /opt/kgp_arm_eabi/lib/gcc/arm-kgp-eabi/4.5.0/../../../../arm-kgp-eabi/lib/thumb/cortex-m3/libc.a(lib_a-vfiprintf.o)
 .ARM.attributes
                0x0000000000000dc8       0x31 /opt/kgp_arm_eabi/lib/gcc/arm-kgp-eabi/4.5.0/../../../../arm-kgp-eabi/lib/thumb/cortex-m3/libc.a(lib_a-callocr.o)
 .ARM.attributes
                0x0000000000000df9       0x31 /opt/kgp_arm_eabi/lib/gcc/arm-kgp-eabi/4.5.0/../../../../arm-kgp-eabi/lib/thumb/cortex-m3/libc.a(lib_a-fclose.o)
 .ARM.attributes
                0x0000000000000e2a       0x31 /opt/kgp_arm_eabi/lib/gcc/arm-kgp-eabi/4.5.0/../../../../arm-kgp-eabi/lib/thumb/cortex-m3/libc.a(lib_a-fputwc.o)
 .ARM.attributes
                0x0000000000000e5b       0x31 /opt/kgp_arm_eabi/lib/gcc/arm-kgp-eabi/4.5.0/../../../../arm-kgp-eabi/lib/thumb/cortex-m3/libc.a(lib_a-fvwrite.o)
 .ARM.attributes
                0x0000000000000e8c       0x31 /opt/kgp_arm_eabi/lib/gcc/arm-kgp-eabi/4.5.0/../../../../arm-kgp-eabi/lib/thumb/cortex-m3/libc.a(lib_a-memmove.o)
 .ARM.attributes
                0x0000000000000ebd       0x31 /opt/kgp_arm_eabi/lib/gcc/arm-kgp-eabi/4.5.0/../../../../arm-kgp-eabi/lib/thumb/cortex-m3/libc.a(lib_a-reallocr.o)
 .ARM.attributes
                0x0000000000000eee       0x31 /opt/kgp_arm_eabi/lib/gcc/arm-kgp-eabi/4.5.0/../../../../arm-kgp-eabi/lib/thumb/cortex-m3/libc.a(lib_a-wbuf.o)
 .ARM.attributes
                0x0000000000000f1f       0x31 /opt/kgp_arm_eabi/lib/gcc/arm-kgp-eabi/4.5.0/../../../../arm-kgp-eabi/lib/thumb/cortex-m3/libc.a(lib_a-wcrtomb.o)
 .ARM.attributes
                0x0000000000000f50       0x31 /opt/kgp_arm_eabi/lib/gcc/arm-kgp-eabi/4.5.0/../../../../arm-kgp-eabi/lib/thumb/cortex-m3/libc.a(lib_a-wctomb_r.o)
 .ARM.attributes
                0x0000000000000f81       0x23 /opt/kgp_arm_eabi/lib/gcc/arm-kgp-eabi/4.5.0/thumb/cortex-m3/libgcc.a(_arm_addsubdf3.o)
 .ARM.attributes
                0x0000000000000fa4       0x23 /opt/kgp_arm_eabi/lib/gcc/arm-kgp-eabi/4.5.0/thumb/cortex-m3/libgcc.a(_arm_muldivdf3.o)
 .ARM.attributes
                0x0000000000000fc7       0x23 /opt/kgp_arm_eabi/lib/gcc/arm-kgp-eabi/4.5.0/thumb/cortex-m3/libgcc.a(_arm_cmpdf2.o)
 .ARM.attributes
                0x0000000000000fea       0x23 /opt/kgp_arm_eabi/lib/gcc/arm-kgp-eabi/4.5.0/thumb/cortex-m3/libgcc.a(_arm_fixdfsi.o)

.comment        0x0000000000000000       0xa6
 *(.comment)
 .comment       0x0000000000000000       0x53 can_test.o
                                         0x54 (size before relaxing)
 .comment       0x0000000000000000       0x54 crt.o
 .comment       0x0000000000000000       0x54 main.o
 .comment       0x0000000000000000       0x54 rtl8201cp.o
 .comment       0x0000000000000000       0x54 stm32f10x_it.o
 .comment       0x0000000000000000       0x54 syscalls.o
 .comment       0x0000000000000000       0x54 sys_init.o
 .comment       0x0000000000000000       0x54 timer.o
 .comment       0x0000000000000000       0x54 ./../../lib/libuip-1.0.a(uip_handler.o)
 .comment       0x0000000000000000       0x54 ./../../lib/libuip-1.0.a(uip_timer.o)
 .comment       0x0000000000000000       0x54 ./../../lib/libuip-1.0.a(dhcpc.o)
 .comment       0x0000000000000000       0x54 ./../../lib/libuip-1.0.a(httpd.o)
 .comment       0x0000000000000000       0x54 ./../../lib/libuip-1.0.a(httpd-cgi.o)
 .comment       0x0000000000000000       0x54 ./../../lib/libuip-1.0.a(httpd-fs.o)
 .comment       0x0000000000000000       0x54 ./../../lib/libuip-1.0.a(http-strings.o)
 .comment       0x0000000000000000       0x54 ./../../lib/libuip-1.0.a(psock.o)
 .comment       0x0000000000000000       0x54 ./../../lib/libuip-1.0.a(sntp.o)
 .comment       0x0000000000000000       0x54 ./../../lib/libuip-1.0.a(telnetd.o)
 .comment       0x0000000000000000       0x54 ./../../lib/libuip-1.0.a(uip_arp.o)
 .comment       0x0000000000000000       0x54 ./../../lib/libuip-1.0.a(uip.o)
 .comment       0x0000000000000000       0x54 ./../../lib/libuip-1.0.a(memb.o)
 .comment       0x0000000000000000       0x54 ./../../lib/libuip-1.0.a(shell.o)
 .comment       0x0000000000000000       0x54 ./../../lib/libuip-1.0.a(uip_arch.o)
 .comment       0x0000000000000000       0x54 ./../../lib/libethernet.a(stm32_eth.o)
 .comment       0x0000000000000000       0x54 ./../../lib/libfreertos-6.0.2.a(port.o)
 .comment       0x0000000000000000       0x54 ./../../lib/libfreertos-6.0.2.a(queue.o)
 .comment       0x0000000000000000       0x54 ./../../lib/libfreertos-6.0.2.a(tasks.o)
 .comment       0x0000000000000000       0x54 ./../../lib/libfreertos-6.0.2.a(list.o)
 .comment       0x0000000000000000       0x54 ./../../lib/libfreertos-6.0.2.a(mmgr.o)
 .comment       0x0000000000000000       0x54 ./../../lib/libhardware.a(misc.o)
 .comment       0x0000000000000000       0x54 ./../../lib/libhardware.a(stm32f10x_can.o)
 .comment       0x0000000000000000       0x54 ./../../lib/libhardware.a(stm32f10x_flash.o)
 .comment       0x0000000000000000       0x54 ./../../lib/libhardware.a(stm32f10x_gpio.o)
 .comment       0x0000000000000000       0x54 ./../../lib/libhardware.a(stm32f10x_rcc.o)
 .comment       0x0000000000000000       0x54 ./../../lib/libhardware.a(stm32f10x_tim.o)
 .comment       0x0000000000000000       0x54 ./../../lib/libcmsis.a(system_stm32f10x.o)
 .comment       0x0000000000000053       0x53 /opt/kgp_arm_eabi/lib/gcc/arm-kgp-eabi/4.5.0/../../../../arm-kgp-eabi/lib/thumb/cortex-m3/libc.a(lib_a-atoi.o)
                                         0x54 (size before relaxing)
 .comment       0x0000000000000000       0x54 /opt/kgp_arm_eabi/lib/gcc/arm-kgp-eabi/4.5.0/../../../../arm-kgp-eabi/lib/thumb/cortex-m3/libc.a(lib_a-memcmp.o)
 .comment       0x0000000000000000       0x54 /opt/kgp_arm_eabi/lib/gcc/arm-kgp-eabi/4.5.0/../../../../arm-kgp-eabi/lib/thumb/cortex-m3/libc.a(lib_a-memcpy.o)
 .comment       0x0000000000000000       0x54 /opt/kgp_arm_eabi/lib/gcc/arm-kgp-eabi/4.5.0/../../../../arm-kgp-eabi/lib/thumb/cortex-m3/libc.a(lib_a-memset.o)
 .comment       0x0000000000000000       0x54 /opt/kgp_arm_eabi/lib/gcc/arm-kgp-eabi/4.5.0/../../../../arm-kgp-eabi/lib/thumb/cortex-m3/libc.a(lib_a-printf.o)
 .comment       0x0000000000000000       0x54 /opt/kgp_arm_eabi/lib/gcc/arm-kgp-eabi/4.5.0/../../../../arm-kgp-eabi/lib/thumb/cortex-m3/libc.a(lib_a-snprintf.o)
 .comment       0x0000000000000000       0x54 /opt/kgp_arm_eabi/lib/gcc/arm-kgp-eabi/4.5.0/../../../../arm-kgp-eabi/lib/thumb/cortex-m3/libc.a(lib_a-sprintf.o)
 .comment       0x0000000000000000       0x54 /opt/kgp_arm_eabi/lib/gcc/arm-kgp-eabi/4.5.0/../../../../arm-kgp-eabi/lib/thumb/cortex-m3/libc.a(lib_a-strcat.o)
 .comment       0x0000000000000000       0x54 /opt/kgp_arm_eabi/lib/gcc/arm-kgp-eabi/4.5.0/../../../../arm-kgp-eabi/lib/thumb/cortex-m3/libc.a(lib_a-strchr.o)
 .comment       0x0000000000000000       0x54 /opt/kgp_arm_eabi/lib/gcc/arm-kgp-eabi/4.5.0/../../../../arm-kgp-eabi/lib/thumb/cortex-m3/libc.a(lib_a-strcpy.o)
 .comment       0x0000000000000000       0x54 /opt/kgp_arm_eabi/lib/gcc/arm-kgp-eabi/4.5.0/../../../../arm-kgp-eabi/lib/thumb/cortex-m3/libc.a(lib_a-strlen.o)
 .comment       0x0000000000000000       0x54 /opt/kgp_arm_eabi/lib/gcc/arm-kgp-eabi/4.5.0/../../../../arm-kgp-eabi/lib/thumb/cortex-m3/libc.a(lib_a-strncmp.o)
 .comment       0x0000000000000000       0x54 /opt/kgp_arm_eabi/lib/gcc/arm-kgp-eabi/4.5.0/../../../../arm-kgp-eabi/lib/thumb/cortex-m3/libc.a(lib_a-strncpy.o)
 .comment       0x0000000000000000       0x54 /opt/kgp_arm_eabi/lib/gcc/arm-kgp-eabi/4.5.0/../../../../arm-kgp-eabi/lib/thumb/cortex-m3/libc.a(lib_a-strrchr.o)
 .comment       0x0000000000000000       0x54 /opt/kgp_arm_eabi/lib/gcc/arm-kgp-eabi/4.5.0/../../../../arm-kgp-eabi/lib/thumb/cortex-m3/libc.a(lib_a-strtol.o)
 .comment       0x0000000000000000       0x54 /opt/kgp_arm_eabi/lib/gcc/arm-kgp-eabi/4.5.0/../../../../arm-kgp-eabi/lib/thumb/cortex-m3/libc.a(lib_a-svfprintf.o)
 .comment       0x0000000000000000       0x54 /opt/kgp_arm_eabi/lib/gcc/arm-kgp-eabi/4.5.0/../../../../arm-kgp-eabi/lib/thumb/cortex-m3/libc.a(lib_a-vfprintf.o)
 .comment       0x0000000000000000       0x54 /opt/kgp_arm_eabi/lib/gcc/arm-kgp-eabi/4.5.0/../../../../arm-kgp-eabi/lib/thumb/cortex-m3/libc.a(lib_a-wsetup.o)
 .comment       0x0000000000000000       0x54 /opt/kgp_arm_eabi/lib/gcc/arm-kgp-eabi/4.5.0/../../../../arm-kgp-eabi/lib/thumb/cortex-m3/libc.a(lib_a-ctype_.o)
 .comment       0x0000000000000000       0x54 /opt/kgp_arm_eabi/lib/gcc/arm-kgp-eabi/4.5.0/../../../../arm-kgp-eabi/lib/thumb/cortex-m3/libc.a(lib_a-dtoa.o)
 .comment       0x0000000000000000       0x54 /opt/kgp_arm_eabi/lib/gcc/arm-kgp-eabi/4.5.0/../../../../arm-kgp-eabi/lib/thumb/cortex-m3/libc.a(lib_a-fflush.o)
 .comment       0x0000000000000000       0x54 /opt/kgp_arm_eabi/lib/gcc/arm-kgp-eabi/4.5.0/../../../../arm-kgp-eabi/lib/thumb/cortex-m3/libc.a(lib_a-findfp.o)
 .comment       0x0000000000000000       0x54 /opt/kgp_arm_eabi/lib/gcc/arm-kgp-eabi/4.5.0/../../../../arm-kgp-eabi/lib/thumb/cortex-m3/libc.a(lib_a-freer.o)
 .comment       0x0000000000000000       0x54 /opt/kgp_arm_eabi/lib/gcc/arm-kgp-eabi/4.5.0/../../../../arm-kgp-eabi/lib/thumb/cortex-m3/libc.a(lib_a-fwalk.o)
 .comment       0x0000000000000000       0x54 /opt/kgp_arm_eabi/lib/gcc/arm-kgp-eabi/4.5.0/../../../../arm-kgp-eabi/lib/thumb/cortex-m3/libc.a(lib_a-impure.o)
 .comment       0x0000000000000000       0x54 /opt/kgp_arm_eabi/lib/gcc/arm-kgp-eabi/4.5.0/../../../../arm-kgp-eabi/lib/thumb/cortex-m3/libc.a(lib_a-locale.o)
 .comment       0x0000000000000000       0x54 /opt/kgp_arm_eabi/lib/gcc/arm-kgp-eabi/4.5.0/../../../../arm-kgp-eabi/lib/thumb/cortex-m3/libc.a(lib_a-makebuf.o)
 .comment       0x0000000000000000       0x54 /opt/kgp_arm_eabi/lib/gcc/arm-kgp-eabi/4.5.0/../../../../arm-kgp-eabi/lib/thumb/cortex-m3/libc.a(lib_a-mallocr.o)
 .comment       0x0000000000000000       0x54 /opt/kgp_arm_eabi/lib/gcc/arm-kgp-eabi/4.5.0/../../../../arm-kgp-eabi/lib/thumb/cortex-m3/libc.a(lib_a-memchr.o)
 .comment       0x0000000000000000       0x54 /opt/kgp_arm_eabi/lib/gcc/arm-kgp-eabi/4.5.0/../../../../arm-kgp-eabi/lib/thumb/cortex-m3/libc.a(lib_a-mlock.o)
 .comment       0x0000000000000000       0x54 /opt/kgp_arm_eabi/lib/gcc/arm-kgp-eabi/4.5.0/../../../../arm-kgp-eabi/lib/thumb/cortex-m3/libc.a(lib_a-mprec.o)
 .comment       0x0000000000000000       0x54 /opt/kgp_arm_eabi/lib/gcc/arm-kgp-eabi/4.5.0/../../../../arm-kgp-eabi/lib/thumb/cortex-m3/libc.a(lib_a-s_fpclassify.o)
 .comment       0x0000000000000000       0x54 /opt/kgp_arm_eabi/lib/gcc/arm-kgp-eabi/4.5.0/../../../../arm-kgp-eabi/lib/thumb/cortex-m3/libc.a(lib_a-stdio.o)
 .comment       0x0000000000000000       0x54 /opt/kgp_arm_eabi/lib/gcc/arm-kgp-eabi/4.5.0/../../../../arm-kgp-eabi/lib/thumb/cortex-m3/libc.a(lib_a-strcmp.o)
 .comment       0x0000000000000000       0x54 /opt/kgp_arm_eabi/lib/gcc/arm-kgp-eabi/4.5.0/../../../../arm-kgp-eabi/lib/thumb/cortex-m3/libc.a(lib_a-svfiprintf.o)
 .comment       0x0000000000000000       0x54 /opt/kgp_arm_eabi/lib/gcc/arm-kgp-eabi/4.5.0/../../../../arm-kgp-eabi/lib/thumb/cortex-m3/libc.a(lib_a-vfiprintf.o)
 .comment       0x0000000000000000       0x54 /opt/kgp_arm_eabi/lib/gcc/arm-kgp-eabi/4.5.0/../../../../arm-kgp-eabi/lib/thumb/cortex-m3/libc.a(lib_a-callocr.o)
 .comment       0x0000000000000000       0x54 /opt/kgp_arm_eabi/lib/gcc/arm-kgp-eabi/4.5.0/../../../../arm-kgp-eabi/lib/thumb/cortex-m3/libc.a(lib_a-fclose.o)
 .comment       0x0000000000000000       0x54 /opt/kgp_arm_eabi/lib/gcc/arm-kgp-eabi/4.5.0/../../../../arm-kgp-eabi/lib/thumb/cortex-m3/libc.a(lib_a-fputwc.o)
 .comment       0x0000000000000000       0x54 /opt/kgp_arm_eabi/lib/gcc/arm-kgp-eabi/4.5.0/../../../../arm-kgp-eabi/lib/thumb/cortex-m3/libc.a(lib_a-fvwrite.o)
 .comment       0x0000000000000000       0x54 /opt/kgp_arm_eabi/lib/gcc/arm-kgp-eabi/4.5.0/../../../../arm-kgp-eabi/lib/thumb/cortex-m3/libc.a(lib_a-memmove.o)
 .comment       0x0000000000000000       0x54 /opt/kgp_arm_eabi/lib/gcc/arm-kgp-eabi/4.5.0/../../../../arm-kgp-eabi/lib/thumb/cortex-m3/libc.a(lib_a-reallocr.o)
 .comment       0x0000000000000000       0x54 /opt/kgp_arm_eabi/lib/gcc/arm-kgp-eabi/4.5.0/../../../../arm-kgp-eabi/lib/thumb/cortex-m3/libc.a(lib_a-wbuf.o)
 .comment       0x0000000000000000       0x54 /opt/kgp_arm_eabi/lib/gcc/arm-kgp-eabi/4.5.0/../../../../arm-kgp-eabi/lib/thumb/cortex-m3/libc.a(lib_a-wcrtomb.o)
 .comment       0x0000000000000000       0x54 /opt/kgp_arm_eabi/lib/gcc/arm-kgp-eabi/4.5.0/../../../../arm-kgp-eabi/lib/thumb/cortex-m3/libc.a(lib_a-wctomb_r.o)

.debug
 *(.debug)

.line
 *(.line)

.debug_srcinfo
 *(.debug_srcinfo)

.debug_sfnames
 *(.debug_sfnames)

.debug_aranges  0x0000000000000000     0x1470
 *(.debug_aranges)
 .debug_aranges
                0x0000000000000000       0x38 can_test.o
 .debug_aranges
                0x0000000000000038       0x28 crt.o
 .debug_aranges
                0x0000000000000060       0x48 main.o
 .debug_aranges
                0x00000000000000a8       0x20 rtl8201cp.o
 .debug_aranges
                0x00000000000000c8      0x230 stm32f10x_it.o
 .debug_aranges
                0x00000000000002f8       0x50 syscalls.o
 .debug_aranges
                0x0000000000000348       0x20 sys_init.o
 .debug_aranges
                0x0000000000000368       0x28 timer.o
 .debug_aranges
                0x0000000000000390       0x58 ./../../lib/libuip-1.0.a(uip_handler.o)
 .debug_aranges
                0x00000000000003e8       0x38 ./../../lib/libuip-1.0.a(uip_timer.o)
 .debug_aranges
                0x0000000000000420       0x40 ./../../lib/libuip-1.0.a(dhcpc.o)
 .debug_aranges
                0x0000000000000460       0x48 ./../../lib/libuip-1.0.a(httpd.o)
 .debug_aranges
                0x00000000000004a8       0x68 ./../../lib/libuip-1.0.a(httpd-cgi.o)
 .debug_aranges
                0x0000000000000510       0x38 ./../../lib/libuip-1.0.a(httpd-fs.o)
 .debug_aranges
                0x0000000000000548       0x58 ./../../lib/libuip-1.0.a(psock.o)
 .debug_aranges
                0x00000000000005a0       0x28 ./../../lib/libuip-1.0.a(sntp.o)
 .debug_aranges
                0x00000000000005c8       0x60 ./../../lib/libuip-1.0.a(telnetd.o)
 .debug_aranges
                0x0000000000000628       0x48 ./../../lib/libuip-1.0.a(uip_arp.o)
 .debug_aranges
                0x0000000000000670       0x80 ./../../lib/libuip-1.0.a(uip.o)
 .debug_aranges
                0x00000000000006f0       0x30 ./../../lib/libuip-1.0.a(memb.o)
 .debug_aranges
                0x0000000000000720       0x70 ./../../lib/libuip-1.0.a(shell.o)
 .debug_aranges
                0x0000000000000790       0x48 ./../../lib/libuip-1.0.a(uip_arch.o)
 .debug_aranges
                0x00000000000007d8      0x338 ./../../lib/libethernet.a(stm32_eth.o)
 .debug_aranges
                0x0000000000000b10       0x68 ./../../lib/libfreertos-6.0.2.a(port.o)
 .debug_aranges
                0x0000000000000b78       0x90 ./../../lib/libfreertos-6.0.2.a(queue.o)
 .debug_aranges
                0x0000000000000c08      0x128 ./../../lib/libfreertos-6.0.2.a(tasks.o)
 .debug_aranges
                0x0000000000000d30       0x40 ./../../lib/libfreertos-6.0.2.a(list.o)
 .debug_aranges
                0x0000000000000d70       0x40 ./../../lib/libfreertos-6.0.2.a(mmgr.o)
 .debug_aranges
                0x0000000000000db0       0x40 ./../../lib/libhardware.a(misc.o)
 .debug_aranges
                0x0000000000000df0       0xb0 ./../../lib/libhardware.a(stm32f10x_can.o)
 .debug_aranges
                0x0000000000000ea0       0xd0 ./../../lib/libhardware.a(stm32f10x_flash.o)
 .debug_aranges
                0x0000000000000f70       0xa8 ./../../lib/libhardware.a(stm32f10x_gpio.o)
 .debug_aranges
                0x0000000000001018      0x160 ./../../lib/libhardware.a(stm32f10x_rcc.o)
 .debug_aranges
                0x0000000000001178      0x2d8 ./../../lib/libhardware.a(stm32f10x_tim.o)
 .debug_aranges
                0x0000000000001450       0x20 ./../../lib/libcmsis.a(system_stm32f10x.o)

.debug_pubnames
                0x0000000000000000     0x37fe
 *(.debug_pubnames)
 .debug_pubnames
                0x0000000000000000       0x5a can_test.o
 .debug_pubnames
                0x000000000000005a       0x45 crt.o
 .debug_pubnames
                0x000000000000009f      0x11d main.o
 .debug_pubnames
                0x00000000000001bc       0xcb rtl8201cp.o
 .debug_pubnames
                0x0000000000000287      0x645 stm32f10x_it.o
 .debug_pubnames
                0x00000000000008cc       0x6c syscalls.o
 .debug_pubnames
                0x0000000000000938       0x6f sys_init.o
 .debug_pubnames
                0x00000000000009a7       0x6b timer.o
 .debug_pubnames
                0x0000000000000a12       0xaa ./../../lib/libuip-1.0.a(uip_handler.o)
 .debug_pubnames
                0x0000000000000abc       0x54 ./../../lib/libuip-1.0.a(uip_timer.o)
 .debug_pubnames
                0x0000000000000b10       0x45 ./../../lib/libuip-1.0.a(dhcpc.o)
 .debug_pubnames
                0x0000000000000b55       0x33 ./../../lib/libuip-1.0.a(httpd.o)
 .debug_pubnames
                0x0000000000000b88       0x20 ./../../lib/libuip-1.0.a(httpd-cgi.o)
 .debug_pubnames
                0x0000000000000ba8      0x207 ./../../lib/libuip-1.0.a(httpd-fs.o)
 .debug_pubnames
                0x0000000000000daf      0x271 ./../../lib/libuip-1.0.a(http-strings.o)
 .debug_pubnames
                0x0000000000001020       0x90 ./../../lib/libuip-1.0.a(psock.o)
 .debug_pubnames
                0x00000000000010b0       0x30 ./../../lib/libuip-1.0.a(sntp.o)
 .debug_pubnames
                0x00000000000010e0       0x68 ./../../lib/libuip-1.0.a(telnetd.o)
 .debug_pubnames
                0x0000000000001148       0x68 ./../../lib/libuip-1.0.a(uip_arp.o)
 .debug_pubnames
                0x00000000000011b0      0x1eb ./../../lib/libuip-1.0.a(uip.o)
 .debug_pubnames
                0x000000000000139b       0x3d ./../../lib/libuip-1.0.a(memb.o)
 .debug_pubnames
                0x00000000000013d8       0x41 ./../../lib/libuip-1.0.a(shell.o)
 .debug_pubnames
                0x0000000000001419       0x64 ./../../lib/libuip-1.0.a(uip_arch.o)
 .debug_pubnames
                0x000000000000147d      0xb7f ./../../lib/libethernet.a(stm32_eth.o)
 .debug_pubnames
                0x0000000000001ffc      0x10d ./../../lib/libfreertos-6.0.2.a(port.o)
 .debug_pubnames
                0x0000000000002109      0x161 ./../../lib/libfreertos-6.0.2.a(queue.o)
 .debug_pubnames
                0x000000000000226a      0x2dc ./../../lib/libfreertos-6.0.2.a(tasks.o)
 .debug_pubnames
                0x0000000000002546       0x71 ./../../lib/libfreertos-6.0.2.a(list.o)
 .debug_pubnames
                0x00000000000025b7       0x67 ./../../lib/libfreertos-6.0.2.a(mmgr.o)
 .debug_pubnames
                0x000000000000261e       0x89 ./../../lib/libhardware.a(misc.o)
 .debug_pubnames
                0x00000000000026a7      0x17b ./../../lib/libhardware.a(stm32f10x_can.o)
 .debug_pubnames
                0x0000000000002822      0x26e ./../../lib/libhardware.a(stm32f10x_flash.o)
 .debug_pubnames
                0x0000000000002a90      0x19d ./../../lib/libhardware.a(stm32f10x_gpio.o)
 .debug_pubnames
                0x0000000000002c2d      0x37e ./../../lib/libhardware.a(stm32f10x_rcc.o)
 .debug_pubnames
                0x0000000000002fab      0x7b0 ./../../lib/libhardware.a(stm32f10x_tim.o)
 .debug_pubnames
                0x000000000000375b       0xa3 ./../../lib/libcmsis.a(system_stm32f10x.o)

.debug_info     0x0000000000000000    0x1513f
 *(.debug_info .gnu.linkonce.wi.*)
 .debug_info    0x0000000000000000      0x9b7 can_test.o
 .debug_info    0x00000000000009b7      0x2b0 crt.o
 .debug_info    0x0000000000000c67      0x237 main.o
 .debug_info    0x0000000000000e9e      0x99f rtl8201cp.o
 .debug_info    0x000000000000183d      0x99a stm32f10x_it.o
 .debug_info    0x00000000000021d7      0xcab syscalls.o
 .debug_info    0x0000000000002e82      0xcae sys_init.o
 .debug_info    0x0000000000003b30      0x679 timer.o
 .debug_info    0x00000000000041a9      0xa8c ./../../lib/libuip-1.0.a(uip_handler.o)
 .debug_info    0x0000000000004c35      0x164 ./../../lib/libuip-1.0.a(uip_timer.o)
 .debug_info    0x0000000000004d99      0x8f0 ./../../lib/libuip-1.0.a(dhcpc.o)
 .debug_info    0x0000000000005689      0xb64 ./../../lib/libuip-1.0.a(httpd.o)
 .debug_info    0x00000000000061ed      0xba0 ./../../lib/libuip-1.0.a(httpd-cgi.o)
 .debug_info    0x0000000000006d8d      0xa46 ./../../lib/libuip-1.0.a(httpd-fs.o)
 .debug_info    0x00000000000077d3      0x442 ./../../lib/libuip-1.0.a(http-strings.o)
 .debug_info    0x0000000000007c15      0x929 ./../../lib/libuip-1.0.a(psock.o)
 .debug_info    0x000000000000853e      0x6a7 ./../../lib/libuip-1.0.a(sntp.o)
 .debug_info    0x0000000000008be5      0x8fd ./../../lib/libuip-1.0.a(telnetd.o)
 .debug_info    0x00000000000094e2      0x500 ./../../lib/libuip-1.0.a(uip_arp.o)
 .debug_info    0x00000000000099e2     0x12ca ./../../lib/libuip-1.0.a(uip.o)
 .debug_info    0x000000000000acac      0x181 ./../../lib/libuip-1.0.a(memb.o)
 .debug_info    0x000000000000ae2d      0xffb ./../../lib/libuip-1.0.a(shell.o)
 .debug_info    0x000000000000be28      0x413 ./../../lib/libuip-1.0.a(uip_arch.o)
 .debug_info    0x000000000000c23b     0x1e09 ./../../lib/libethernet.a(stm32_eth.o)
 .debug_info    0x000000000000e044      0x1e4 ./../../lib/libfreertos-6.0.2.a(port.o)
 .debug_info    0x000000000000e228      0x85c ./../../lib/libfreertos-6.0.2.a(queue.o)
 .debug_info    0x000000000000ea84     0x1258 ./../../lib/libfreertos-6.0.2.a(tasks.o)
 .debug_info    0x000000000000fcdc      0x2a5 ./../../lib/libfreertos-6.0.2.a(list.o)
 .debug_info    0x000000000000ff81      0x396 ./../../lib/libfreertos-6.0.2.a(mmgr.o)
 .debug_info    0x0000000000010317      0x527 ./../../lib/libhardware.a(misc.o)
 .debug_info    0x000000000001083e      0xaf9 ./../../lib/libhardware.a(stm32f10x_can.o)
 .debug_info    0x0000000000011337      0x763 ./../../lib/libhardware.a(stm32f10x_flash.o)
 .debug_info    0x0000000000011a9a      0x6d5 ./../../lib/libhardware.a(stm32f10x_gpio.o)
 .debug_info    0x000000000001216f      0xb06 ./../../lib/libhardware.a(stm32f10x_rcc.o)
 .debug_info    0x0000000000012c75     0x21d0 ./../../lib/libhardware.a(stm32f10x_tim.o)
 .debug_info    0x0000000000014e45      0x2fa ./../../lib/libcmsis.a(system_stm32f10x.o)

.debug_abbrev   0x0000000000000000     0x425c
 *(.debug_abbrev)
 .debug_abbrev  0x0000000000000000      0x1ad can_test.o
 .debug_abbrev  0x00000000000001ad      0x14e crt.o
 .debug_abbrev  0x00000000000002fb      0x117 main.o
 .debug_abbrev  0x0000000000000412       0xe6 rtl8201cp.o
 .debug_abbrev  0x00000000000004f8      0x175 stm32f10x_it.o
 .debug_abbrev  0x000000000000066d      0x1b0 syscalls.o
 .debug_abbrev  0x000000000000081d      0x20e sys_init.o
 .debug_abbrev  0x0000000000000a2b      0x12a timer.o
 .debug_abbrev  0x0000000000000b55      0x275 ./../../lib/libuip-1.0.a(uip_handler.o)
 .debug_abbrev  0x0000000000000dca       0xdd ./../../lib/libuip-1.0.a(uip_timer.o)
 .debug_abbrev  0x0000000000000ea7      0x312 ./../../lib/libuip-1.0.a(dhcpc.o)
 .debug_abbrev  0x00000000000011b9      0x2cd ./../../lib/libuip-1.0.a(httpd.o)
 .debug_abbrev  0x0000000000001486      0x21c ./../../lib/libuip-1.0.a(httpd-cgi.o)
 .debug_abbrev  0x00000000000016a2      0x15d ./../../lib/libuip-1.0.a(httpd-fs.o)
 .debug_abbrev  0x00000000000017ff       0x54 ./../../lib/libuip-1.0.a(http-strings.o)
 .debug_abbrev  0x0000000000001853      0x2f0 ./../../lib/libuip-1.0.a(psock.o)
 .debug_abbrev  0x0000000000001b43      0x27a ./../../lib/libuip-1.0.a(sntp.o)
 .debug_abbrev  0x0000000000001dbd      0x27d ./../../lib/libuip-1.0.a(telnetd.o)
 .debug_abbrev  0x000000000000203a      0x1b5 ./../../lib/libuip-1.0.a(uip_arp.o)
 .debug_abbrev  0x00000000000021ef      0x30f ./../../lib/libuip-1.0.a(uip.o)
 .debug_abbrev  0x00000000000024fe       0xe8 ./../../lib/libuip-1.0.a(memb.o)
 .debug_abbrev  0x00000000000025e6      0x334 ./../../lib/libuip-1.0.a(shell.o)
 .debug_abbrev  0x000000000000291a      0x164 ./../../lib/libuip-1.0.a(uip_arch.o)
 .debug_abbrev  0x0000000000002a7e      0x2bb ./../../lib/libethernet.a(stm32_eth.o)
 .debug_abbrev  0x0000000000002d39      0x134 ./../../lib/libfreertos-6.0.2.a(port.o)
 .debug_abbrev  0x0000000000002e6d      0x1ed ./../../lib/libfreertos-6.0.2.a(queue.o)
 .debug_abbrev  0x000000000000305a      0x2ce ./../../lib/libfreertos-6.0.2.a(tasks.o)
 .debug_abbrev  0x0000000000003328       0xd2 ./../../lib/libfreertos-6.0.2.a(list.o)
 .debug_abbrev  0x00000000000033fa      0x18f ./../../lib/libfreertos-6.0.2.a(mmgr.o)
 .debug_abbrev  0x0000000000003589      0x12a ./../../lib/libhardware.a(misc.o)
 .debug_abbrev  0x00000000000036b3      0x24c ./../../lib/libhardware.a(stm32f10x_can.o)
 .debug_abbrev  0x00000000000038ff      0x20f ./../../lib/libhardware.a(stm32f10x_flash.o)
 .debug_abbrev  0x0000000000003b0e      0x1dd ./../../lib/libhardware.a(stm32f10x_gpio.o)
 .debug_abbrev  0x0000000000003ceb      0x1cc ./../../lib/libhardware.a(stm32f10x_rcc.o)
 .debug_abbrev  0x0000000000003eb7      0x27d ./../../lib/libhardware.a(stm32f10x_tim.o)
 .debug_abbrev  0x0000000000004134      0x128 ./../../lib/libcmsis.a(system_stm32f10x.o)

.debug_line     0x0000000000000000     0xaba6
 *(.debug_line)
 .debug_line    0x0000000000000000      0x4d3 can_test.o
 .debug_line    0x00000000000004d3      0x450 crt.o
 .debug_line    0x0000000000000923      0x4a8 main.o
 .debug_line    0x0000000000000dcb      0x467 rtl8201cp.o
 .debug_line    0x0000000000001232      0x8cb stm32f10x_it.o
 .debug_line    0x0000000000001afd      0x2b3 syscalls.o
 .debug_line    0x0000000000001db0      0x488 sys_init.o
 .debug_line    0x0000000000002238      0x430 timer.o
 .debug_line    0x0000000000002668      0x57b ./../../lib/libuip-1.0.a(uip_handler.o)
 .debug_line    0x0000000000002be3      0x201 ./../../lib/libuip-1.0.a(uip_timer.o)
 .debug_line    0x0000000000002de4      0x503 ./../../lib/libuip-1.0.a(dhcpc.o)
 .debug_line    0x00000000000032e7      0x54d ./../../lib/libuip-1.0.a(httpd.o)
 .debug_line    0x0000000000003834      0x4ff ./../../lib/libuip-1.0.a(httpd-cgi.o)
 .debug_line    0x0000000000003d33      0x459 ./../../lib/libuip-1.0.a(httpd-fs.o)
 .debug_line    0x000000000000418c       0x2f ./../../lib/libuip-1.0.a(http-strings.o)
 .debug_line    0x00000000000041bb      0x58f ./../../lib/libuip-1.0.a(psock.o)
 .debug_line    0x000000000000474a      0x41d ./../../lib/libuip-1.0.a(sntp.o)
 .debug_line    0x0000000000004b67      0x559 ./../../lib/libuip-1.0.a(telnetd.o)
 .debug_line    0x00000000000050c0      0x54f ./../../lib/libuip-1.0.a(uip_arp.o)
 .debug_line    0x000000000000560f      0x99b ./../../lib/libuip-1.0.a(uip.o)
 .debug_line    0x0000000000005faa      0x25a ./../../lib/libuip-1.0.a(memb.o)
 .debug_line    0x0000000000006204      0x6ab ./../../lib/libuip-1.0.a(shell.o)
 .debug_line    0x00000000000068af      0x481 ./../../lib/libuip-1.0.a(uip_arch.o)
 .debug_line    0x0000000000006d30      0xc40 ./../../lib/libethernet.a(stm32_eth.o)
 .debug_line    0x0000000000007970      0x1b7 ./../../lib/libfreertos-6.0.2.a(port.o)
 .debug_line    0x0000000000007b27      0x50f ./../../lib/libfreertos-6.0.2.a(queue.o)
 .debug_line    0x0000000000008036      0x899 ./../../lib/libfreertos-6.0.2.a(tasks.o)
 .debug_line    0x00000000000088cf      0x303 ./../../lib/libfreertos-6.0.2.a(list.o)
 .debug_line    0x0000000000008bd2      0x363 ./../../lib/libfreertos-6.0.2.a(mmgr.o)
 .debug_line    0x0000000000008f35      0x180 ./../../lib/libhardware.a(misc.o)
 .debug_line    0x00000000000090b5      0x403 ./../../lib/libhardware.a(stm32f10x_can.o)
 .debug_line    0x00000000000094b8      0x3b9 ./../../lib/libhardware.a(stm32f10x_flash.o)
 .debug_line    0x0000000000009871      0x30d ./../../lib/libhardware.a(stm32f10x_gpio.o)
 .debug_line    0x0000000000009b7e      0x49d ./../../lib/libhardware.a(stm32f10x_rcc.o)
 .debug_line    0x000000000000a01b      0xa49 ./../../lib/libhardware.a(stm32f10x_tim.o)
 .debug_line    0x000000000000aa64      0x142 ./../../lib/libcmsis.a(system_stm32f10x.o)

.debug_frame    0x0000000000000000     0x2d20
 *(.debug_frame)
 .debug_frame   0x0000000000000000       0x90 can_test.o
 .debug_frame   0x0000000000000090       0x44 crt.o
 .debug_frame   0x00000000000000d4       0x94 main.o
 .debug_frame   0x0000000000000168       0x30 rtl8201cp.o
 .debug_frame   0x0000000000000198      0x470 stm32f10x_it.o
 .debug_frame   0x0000000000000608       0x80 syscalls.o
 .debug_frame   0x0000000000000688       0x30 sys_init.o
 .debug_frame   0x00000000000006b8       0x4c timer.o
 .debug_frame   0x0000000000000704       0xe0 ./../../lib/libuip-1.0.a(uip_handler.o)
 .debug_frame   0x00000000000007e4       0x68 ./../../lib/libuip-1.0.a(uip_timer.o)
 .debug_frame   0x000000000000084c       0xac ./../../lib/libuip-1.0.a(dhcpc.o)
 .debug_frame   0x00000000000008f8       0xb0 ./../../lib/libuip-1.0.a(httpd.o)
 .debug_frame   0x00000000000009a8      0x100 ./../../lib/libuip-1.0.a(httpd-cgi.o)
 .debug_frame   0x0000000000000aa8       0x6c ./../../lib/libuip-1.0.a(httpd-fs.o)
 .debug_frame   0x0000000000000b14       0xc8 ./../../lib/libuip-1.0.a(psock.o)
 .debug_frame   0x0000000000000bdc       0x48 ./../../lib/libuip-1.0.a(sntp.o)
 .debug_frame   0x0000000000000c24       0xf8 ./../../lib/libuip-1.0.a(telnetd.o)
 .debug_frame   0x0000000000000d1c       0xd0 ./../../lib/libuip-1.0.a(uip_arp.o)
 .debug_frame   0x0000000000000dec      0x13c ./../../lib/libuip-1.0.a(uip.o)
 .debug_frame   0x0000000000000f28       0x50 ./../../lib/libuip-1.0.a(memb.o)
 .debug_frame   0x0000000000000f78      0x120 ./../../lib/libuip-1.0.a(shell.o)
 .debug_frame   0x0000000000001098       0xa8 ./../../lib/libuip-1.0.a(uip_arch.o)
 .debug_frame   0x0000000000001140      0x704 ./../../lib/libethernet.a(stm32_eth.o)
 .debug_frame   0x0000000000001844       0xc0 ./../../lib/libfreertos-6.0.2.a(port.o)
 .debug_frame   0x0000000000001904      0x198 ./../../lib/libfreertos-6.0.2.a(queue.o)
 .debug_frame   0x0000000000001a9c      0x390 ./../../lib/libfreertos-6.0.2.a(tasks.o)
 .debug_frame   0x0000000000001e2c       0x60 ./../../lib/libfreertos-6.0.2.a(list.o)
 .debug_frame   0x0000000000001e8c       0x8c ./../../lib/libfreertos-6.0.2.a(mmgr.o)
 .debug_frame   0x0000000000001f18       0x60 ./../../lib/libhardware.a(misc.o)
 .debug_frame   0x0000000000001f78      0x168 ./../../lib/libhardware.a(stm32f10x_can.o)
 .debug_frame   0x00000000000020e0      0x1f8 ./../../lib/libhardware.a(stm32f10x_flash.o)
 .debug_frame   0x00000000000022d8      0x164 ./../../lib/libhardware.a(stm32f10x_gpio.o)
 .debug_frame   0x000000000000243c      0x2b4 ./../../lib/libhardware.a(stm32f10x_rcc.o)
 .debug_frame   0x00000000000026f0      0x60c ./../../lib/libhardware.a(stm32f10x_tim.o)
 .debug_frame   0x0000000000002cfc       0x24 ./../../lib/libcmsis.a(system_stm32f10x.o)

.debug_str      0x0000000000000000     0x6c50
 *(.debug_str)
 .debug_str     0x0000000000000000      0x921 can_test.o
                                        0x973 (size before relaxing)
 .debug_str     0x0000000000000921      0x106 crt.o
                                        0x207 (size before relaxing)
 .debug_str     0x0000000000000a27      0x155 main.o
                                        0x251 (size before relaxing)
 .debug_str     0x0000000000000b7c      0x3ae rtl8201cp.o
                                        0x4c8 (size before relaxing)
 .debug_str     0x0000000000000f2a      0x549 stm32f10x_it.o
                                        0x785 (size before relaxing)
 .debug_str     0x0000000000001473      0x48a syscalls.o
                                        0x5ea (size before relaxing)
 .debug_str     0x00000000000018fd      0x612 sys_init.o
                                        0xcef (size before relaxing)
 .debug_str     0x0000000000001f0f      0x1d9 timer.o
                                        0x79b (size before relaxing)
 .debug_str     0x00000000000020e8      0x3d3 ./../../lib/libuip-1.0.a(uip_handler.o)
                                        0x51f (size before relaxing)
 .debug_str     0x00000000000024bb       0x3e ./../../lib/libuip-1.0.a(uip_timer.o)
                                        0x15a (size before relaxing)
 .debug_str     0x00000000000024f9      0x155 ./../../lib/libuip-1.0.a(dhcpc.o)
                                        0x40b (size before relaxing)
 .debug_str     0x000000000000264e      0x1e3 ./../../lib/libuip-1.0.a(httpd.o)
                                        0x46f (size before relaxing)
 .debug_str     0x0000000000002831      0x16d ./../../lib/libuip-1.0.a(httpd-cgi.o)
                                        0x441 (size before relaxing)
 .debug_str     0x000000000000299e      0x345 ./../../lib/libuip-1.0.a(httpd-fs.o)
                                        0x46a (size before relaxing)
 .debug_str     0x0000000000002ce3       0xb9 ./../../lib/libuip-1.0.a(http-strings.o)
                                        0x254 (size before relaxing)
 .debug_str     0x0000000000002d9c       0xcc ./../../lib/libuip-1.0.a(psock.o)
                                        0x368 (size before relaxing)
 .debug_str     0x0000000000002e68      0x214 ./../../lib/libuip-1.0.a(sntp.o)
                                        0x4c2 (size before relaxing)
 .debug_str     0x000000000000307c       0xdf ./../../lib/libuip-1.0.a(telnetd.o)
                                        0x3a7 (size before relaxing)
 .debug_str     0x000000000000315b      0x133 ./../../lib/libuip-1.0.a(uip_arp.o)
                                        0x2e1 (size before relaxing)
 .debug_str     0x000000000000328e      0x250 ./../../lib/libuip-1.0.a(uip.o)
                                        0x77c (size before relaxing)
 .debug_str     0x00000000000034de       0x2b ./../../lib/libuip-1.0.a(memb.o)
                                        0x134 (size before relaxing)
 .debug_str     0x0000000000003509       0x87 ./../../lib/libuip-1.0.a(shell.o)
                                        0x61e (size before relaxing)
 .debug_str     0x0000000000003590       0x78 ./../../lib/libuip-1.0.a(uip_arch.o)
                                        0x22b (size before relaxing)
 .debug_str     0x0000000000003608      0xe4f ./../../lib/libethernet.a(stm32_eth.o)
                                       0x1493 (size before relaxing)
 .debug_str     0x0000000000004457      0x173 ./../../lib/libfreertos-6.0.2.a(port.o)
                                        0x1f8 (size before relaxing)
 .debug_str     0x00000000000045ca      0x3c9 ./../../lib/libfreertos-6.0.2.a(queue.o)
                                        0x500 (size before relaxing)
 .debug_str     0x0000000000004993      0x80c ./../../lib/libfreertos-6.0.2.a(tasks.o)
                                        0xaa4 (size before relaxing)
 .debug_str     0x000000000000519f       0x93 ./../../lib/libfreertos-6.0.2.a(list.o)
                                        0x231 (size before relaxing)
 .debug_str     0x0000000000005232      0x128 ./../../lib/libfreertos-6.0.2.a(mmgr.o)
                                        0x268 (size before relaxing)
 .debug_str     0x000000000000535a      0x13d ./../../lib/libhardware.a(misc.o)
                                        0x340 (size before relaxing)
 .debug_str     0x0000000000005497      0x217 ./../../lib/libhardware.a(stm32f10x_can.o)
                                        0x5ee (size before relaxing)
 .debug_str     0x00000000000056ae      0x380 ./../../lib/libhardware.a(stm32f10x_flash.o)
                                        0x4f4 (size before relaxing)
 .debug_str     0x0000000000005a2e      0x228 ./../../lib/libhardware.a(stm32f10x_gpio.o)
                                        0x486 (size before relaxing)
 .debug_str     0x0000000000005c56      0x4e1 ./../../lib/libhardware.a(stm32f10x_rcc.o)
                                        0x6df (size before relaxing)
 .debug_str     0x0000000000006137      0xa2e ./../../lib/libhardware.a(stm32f10x_tim.o)
                                        0xd5a (size before relaxing)
 .debug_str     0x0000000000006b65       0xeb ./../../lib/libcmsis.a(system_stm32f10x.o)
                                        0x242 (size before relaxing)

.debug_loc      0x0000000000000000     0x7cbd
 *(.debug_loc)
 .debug_loc     0x0000000000000000      0x1c5 can_test.o
 .debug_loc     0x00000000000001c5       0xf2 crt.o
 .debug_loc     0x00000000000002b7       0xb2 main.o
 .debug_loc     0x0000000000000369       0x3f rtl8201cp.o
 .debug_loc     0x00000000000003a8       0x60 stm32f10x_it.o
 .debug_loc     0x0000000000000408       0x85 syscalls.o
 .debug_loc     0x000000000000048d       0x40 sys_init.o
 .debug_loc     0x00000000000004cd       0x66 timer.o
 .debug_loc     0x0000000000000533      0x182 ./../../lib/libuip-1.0.a(uip_handler.o)
 .debug_loc     0x00000000000006b5       0xcd ./../../lib/libuip-1.0.a(uip_timer.o)
 .debug_loc     0x0000000000000782      0x2e3 ./../../lib/libuip-1.0.a(dhcpc.o)
 .debug_loc     0x0000000000000a65      0x300 ./../../lib/libuip-1.0.a(httpd.o)
 .debug_loc     0x0000000000000d65      0x34e ./../../lib/libuip-1.0.a(httpd-cgi.o)
 .debug_loc     0x00000000000010b3      0x191 ./../../lib/libuip-1.0.a(httpd-fs.o)
 .debug_loc     0x0000000000001244      0x3d7 ./../../lib/libuip-1.0.a(psock.o)
 .debug_loc     0x000000000000161b      0x104 ./../../lib/libuip-1.0.a(sntp.o)
 .debug_loc     0x000000000000171f      0x258 ./../../lib/libuip-1.0.a(telnetd.o)
 .debug_loc     0x0000000000001977      0x1f1 ./../../lib/libuip-1.0.a(uip_arp.o)
 .debug_loc     0x0000000000001b68      0x3a4 ./../../lib/libuip-1.0.a(uip.o)
 .debug_loc     0x0000000000001f0c      0x142 ./../../lib/libuip-1.0.a(memb.o)
 .debug_loc     0x000000000000204e      0x39e ./../../lib/libuip-1.0.a(shell.o)
 .debug_loc     0x00000000000023ec      0x337 ./../../lib/libuip-1.0.a(uip_arch.o)
 .debug_loc     0x0000000000002723     0x1068 ./../../lib/libethernet.a(stm32_eth.o)
 .debug_loc     0x000000000000378b       0x88 ./../../lib/libfreertos-6.0.2.a(port.o)
 .debug_loc     0x0000000000003813      0x70d ./../../lib/libfreertos-6.0.2.a(queue.o)
 .debug_loc     0x0000000000003f20      0xcef ./../../lib/libfreertos-6.0.2.a(tasks.o)
 .debug_loc     0x0000000000004c0f       0x57 ./../../lib/libfreertos-6.0.2.a(list.o)
 .debug_loc     0x0000000000004c66      0x2e4 ./../../lib/libfreertos-6.0.2.a(mmgr.o)
 .debug_loc     0x0000000000004f4a      0x123 ./../../lib/libhardware.a(misc.o)
 .debug_loc     0x000000000000506d      0x44a ./../../lib/libhardware.a(stm32f10x_can.o)
 .debug_loc     0x00000000000054b7      0x6ad ./../../lib/libhardware.a(stm32f10x_flash.o)
 .debug_loc     0x0000000000005b64      0x483 ./../../lib/libhardware.a(stm32f10x_gpio.o)
 .debug_loc     0x0000000000005fe7      0x740 ./../../lib/libhardware.a(stm32f10x_rcc.o)
 .debug_loc     0x0000000000006727     0x153e ./../../lib/libhardware.a(stm32f10x_tim.o)
 .debug_loc     0x0000000000007c65       0x58 ./../../lib/libcmsis.a(system_stm32f10x.o)

.debug_macinfo  0x0000000000000000   0x4d8b84
 *(.debug_macinfo)
 .debug_macinfo
                0x0000000000000000    0x46bea can_test.o
 .debug_macinfo
                0x0000000000046bea    0x46c02 crt.o
 .debug_macinfo
                0x000000000008d7ec    0x46c19 main.o
 .debug_macinfo
                0x00000000000d4405    0x4e213 rtl8201cp.o
 .debug_macinfo
                0x0000000000122618    0x4e283 stm32f10x_it.o
 .debug_macinfo
                0x000000000017089b     0x3d37 syscalls.o
 .debug_macinfo
                0x00000000001745d2    0x4e237 sys_init.o
 .debug_macinfo
                0x00000000001c2809    0x46d0f timer.o
 .debug_macinfo
                0x0000000000209518    0x4375c ./../../lib/libuip-1.0.a(uip_handler.o)
 .debug_macinfo
                0x000000000024cc74     0x48b4 ./../../lib/libuip-1.0.a(uip_timer.o)
 .debug_macinfo
                0x0000000000251528     0x953a ./../../lib/libuip-1.0.a(dhcpc.o)
 .debug_macinfo
                0x000000000025aa62     0x8c61 ./../../lib/libuip-1.0.a(httpd.o)
 .debug_macinfo
                0x00000000002636c3     0x9498 ./../../lib/libuip-1.0.a(httpd-cgi.o)
 .debug_macinfo
                0x000000000026cb5b     0x8a52 ./../../lib/libuip-1.0.a(httpd-fs.o)
 .debug_macinfo
                0x00000000002755ad     0x15ee ./../../lib/libuip-1.0.a(http-strings.o)
 .debug_macinfo
                0x0000000000276b9b     0x94e0 ./../../lib/libuip-1.0.a(psock.o)
 .debug_macinfo
                0x000000000028007b     0x8b00 ./../../lib/libuip-1.0.a(sntp.o)
 .debug_macinfo
                0x0000000000288b7b     0x8d5a ./../../lib/libuip-1.0.a(telnetd.o)
 .debug_macinfo
                0x00000000002918d5     0x8c26 ./../../lib/libuip-1.0.a(uip_arp.o)
 .debug_macinfo
                0x000000000029a4fb     0x95c6 ./../../lib/libuip-1.0.a(uip.o)
 .debug_macinfo
                0x00000000002a3ac1     0x32cd ./../../lib/libuip-1.0.a(memb.o)
 .debug_macinfo
                0x00000000002a6d8e    0x49376 ./../../lib/libuip-1.0.a(shell.o)
 .debug_macinfo
                0x00000000002f0104     0x8a69 ./../../lib/libuip-1.0.a(uip_arch.o)
 .debug_macinfo
                0x00000000002f8b6d    0x3f402 ./../../lib/libethernet.a(stm32_eth.o)
 .debug_macinfo
                0x0000000000337f6f     0x3568 ./../../lib/libfreertos-6.0.2.a(port.o)
 .debug_macinfo
                0x000000000033b4d7     0x5728 ./../../lib/libfreertos-6.0.2.a(queue.o)
 .debug_macinfo
                0x0000000000340bff     0x667b ./../../lib/libfreertos-6.0.2.a(tasks.o)
 .debug_macinfo
                0x000000000034727a     0x4abf ./../../lib/libfreertos-6.0.2.a(list.o)
 .debug_macinfo
                0x000000000034bd39     0x5884 ./../../lib/libfreertos-6.0.2.a(mmgr.o)
 .debug_macinfo
                0x00000000003515bd    0x35050 ./../../lib/libhardware.a(misc.o)
 .debug_macinfo
                0x000000000038660d    0x39378 ./../../lib/libhardware.a(stm32f10x_can.o)
 .debug_macinfo
                0x00000000003bf985    0x36480 ./../../lib/libhardware.a(stm32f10x_flash.o)
 .debug_macinfo
                0x00000000003f5e05    0x397d6 ./../../lib/libhardware.a(stm32f10x_gpio.o)
 .debug_macinfo
                0x000000000042f5db    0x385e9 ./../../lib/libhardware.a(stm32f10x_rcc.o)
 .debug_macinfo
                0x0000000000467bc4    0x3c452 ./../../lib/libhardware.a(stm32f10x_tim.o)
 .debug_macinfo
                0x00000000004a4016    0x34b6e ./../../lib/libcmsis.a(system_stm32f10x.o)

.debug_weaknames
 *(.debug_weaknames)

.debug_funcnames
 *(.debug_funcnames)

.debug_typenames
 *(.debug_typenames)

.debug_varnames
 *(.debug_varnames)
OUTPUT(../../out/image.elf elf32-littlearm)

.debug_pubtypes
                0x0000000000000000     0x1c36
 .debug_pubtypes
                0x0000000000000000      0x15b can_test.o
 .debug_pubtypes
                0x000000000000015b       0x32 crt.o
 .debug_pubtypes
                0x000000000000018d       0x66 main.o
 .debug_pubtypes
                0x00000000000001f3       0xff rtl8201cp.o
 .debug_pubtypes
                0x00000000000002f2       0xad stm32f10x_it.o
 .debug_pubtypes
                0x000000000000039f      0x175 syscalls.o
 .debug_pubtypes
                0x0000000000000514      0x13c sys_init.o
 .debug_pubtypes
                0x0000000000000650       0x96 timer.o
 .debug_pubtypes
                0x00000000000006e6      0x1e0 ./../../lib/libuip-1.0.a(uip_handler.o)
 .debug_pubtypes
                0x00000000000008c6       0x3e ./../../lib/libuip-1.0.a(uip_timer.o)
 .debug_pubtypes
                0x0000000000000904      0x143 ./../../lib/libuip-1.0.a(dhcpc.o)
 .debug_pubtypes
                0x0000000000000a47       0xc3 ./../../lib/libuip-1.0.a(httpd.o)
 .debug_pubtypes
                0x0000000000000b0a      0x10a ./../../lib/libuip-1.0.a(httpd-cgi.o)
 .debug_pubtypes
                0x0000000000000c14       0x6b ./../../lib/libuip-1.0.a(httpd-fs.o)
 .debug_pubtypes
                0x0000000000000c7f       0xc3 ./../../lib/libuip-1.0.a(psock.o)
 .debug_pubtypes
                0x0000000000000d42      0x15c ./../../lib/libuip-1.0.a(sntp.o)
 .debug_pubtypes
                0x0000000000000e9e       0xe4 ./../../lib/libuip-1.0.a(telnetd.o)
 .debug_pubtypes
                0x0000000000000f82       0x91 ./../../lib/libuip-1.0.a(uip_arp.o)
 .debug_pubtypes
                0x0000000000001013      0x202 ./../../lib/libuip-1.0.a(uip.o)
 .debug_pubtypes
                0x0000000000001215       0x22 ./../../lib/libuip-1.0.a(memb.o)
 .debug_pubtypes
                0x0000000000001237      0x162 ./../../lib/libuip-1.0.a(shell.o)
 .debug_pubtypes
                0x0000000000001399       0x37 ./../../lib/libuip-1.0.a(uip_arch.o)
 .debug_pubtypes
                0x00000000000013d0       0xc1 ./../../lib/libethernet.a(stm32_eth.o)
 .debug_pubtypes
                0x0000000000001491       0x33 ./../../lib/libfreertos-6.0.2.a(port.o)
 .debug_pubtypes
                0x00000000000014c4       0xd4 ./../../lib/libfreertos-6.0.2.a(queue.o)
 .debug_pubtypes
                0x0000000000001598      0x10c ./../../lib/libfreertos-6.0.2.a(tasks.o)
 .debug_pubtypes
                0x00000000000016a4       0x7a ./../../lib/libfreertos-6.0.2.a(list.o)
 .debug_pubtypes
                0x000000000000171e       0x6a ./../../lib/libfreertos-6.0.2.a(mmgr.o)
 .debug_pubtypes
                0x0000000000001788       0x80 ./../../lib/libhardware.a(misc.o)
 .debug_pubtypes
                0x0000000000001808      0x115 ./../../lib/libhardware.a(stm32f10x_can.o)
 .debug_pubtypes
                0x000000000000191d       0x8d ./../../lib/libhardware.a(stm32f10x_flash.o)
 .debug_pubtypes
                0x00000000000019aa       0xbc ./../../lib/libhardware.a(stm32f10x_gpio.o)
 .debug_pubtypes
                0x0000000000001a66       0x9e ./../../lib/libhardware.a(stm32f10x_rcc.o)
 .debug_pubtypes
                0x0000000000001b04       0xd8 ./../../lib/libhardware.a(stm32f10x_tim.o)
 .debug_pubtypes
                0x0000000000001bdc       0x5a ./../../lib/libcmsis.a(system_stm32f10x.o)

.debug_ranges   0x0000000000000000     0x17f0
 .debug_ranges  0x0000000000000000       0x28 can_test.o
 .debug_ranges  0x0000000000000028       0x18 crt.o
 .debug_ranges  0x0000000000000040       0x38 main.o
 .debug_ranges  0x0000000000000078       0x10 rtl8201cp.o
 .debug_ranges  0x0000000000000088      0x220 stm32f10x_it.o
 .debug_ranges  0x00000000000002a8       0x40 syscalls.o
 .debug_ranges  0x00000000000002e8       0x70 sys_init.o
 .debug_ranges  0x0000000000000358       0x18 timer.o
 .debug_ranges  0x0000000000000370       0x48 ./../../lib/libuip-1.0.a(uip_handler.o)
 .debug_ranges  0x00000000000003b8       0x28 ./../../lib/libuip-1.0.a(uip_timer.o)
 .debug_ranges  0x00000000000003e0       0xf0 ./../../lib/libuip-1.0.a(dhcpc.o)
 .debug_ranges  0x00000000000004d0       0xe0 ./../../lib/libuip-1.0.a(httpd.o)
 .debug_ranges  0x00000000000005b0       0xb8 ./../../lib/libuip-1.0.a(httpd-cgi.o)
 .debug_ranges  0x0000000000000668       0x28 ./../../lib/libuip-1.0.a(httpd-fs.o)
 .debug_ranges  0x0000000000000690       0xb0 ./../../lib/libuip-1.0.a(psock.o)
 .debug_ranges  0x0000000000000740       0x48 ./../../lib/libuip-1.0.a(sntp.o)
 .debug_ranges  0x0000000000000788       0x80 ./../../lib/libuip-1.0.a(telnetd.o)
 .debug_ranges  0x0000000000000808       0x38 ./../../lib/libuip-1.0.a(uip_arp.o)
 .debug_ranges  0x0000000000000840       0x70 ./../../lib/libuip-1.0.a(uip.o)
 .debug_ranges  0x00000000000008b0       0x20 ./../../lib/libuip-1.0.a(memb.o)
 .debug_ranges  0x00000000000008d0       0x60 ./../../lib/libuip-1.0.a(shell.o)
 .debug_ranges  0x0000000000000930       0x50 ./../../lib/libuip-1.0.a(uip_arch.o)
 .debug_ranges  0x0000000000000980      0x328 ./../../lib/libethernet.a(stm32_eth.o)
 .debug_ranges  0x0000000000000ca8       0x58 ./../../lib/libfreertos-6.0.2.a(port.o)
 .debug_ranges  0x0000000000000d00       0x98 ./../../lib/libfreertos-6.0.2.a(queue.o)
 .debug_ranges  0x0000000000000d98      0x288 ./../../lib/libfreertos-6.0.2.a(tasks.o)
 .debug_ranges  0x0000000000001020       0x30 ./../../lib/libfreertos-6.0.2.a(list.o)
 .debug_ranges  0x0000000000001050       0x48 ./../../lib/libfreertos-6.0.2.a(mmgr.o)
 .debug_ranges  0x0000000000001098       0x30 ./../../lib/libhardware.a(misc.o)
 .debug_ranges  0x00000000000010c8       0xa0 ./../../lib/libhardware.a(stm32f10x_can.o)
 .debug_ranges  0x0000000000001168      0x100 ./../../lib/libhardware.a(stm32f10x_flash.o)
 .debug_ranges  0x0000000000001268       0x98 ./../../lib/libhardware.a(stm32f10x_gpio.o)
 .debug_ranges  0x0000000000001300      0x150 ./../../lib/libhardware.a(stm32f10x_rcc.o)
 .debug_ranges  0x0000000000001450      0x390 ./../../lib/libhardware.a(stm32f10x_tim.o)
 .debug_ranges  0x00000000000017e0       0x10 ./../../lib/libcmsis.a(system_stm32f10x.o)
