   1              		.syntax unified
   2              		.cpu cortex-m3
   3              		.fpu softvfp
   4              		.eabi_attribute 20, 1
   5              		.eabi_attribute 21, 1
   6              		.eabi_attribute 23, 3
   7              		.eabi_attribute 24, 1
   8              		.eabi_attribute 25, 1
   9              		.eabi_attribute 26, 1
  10              		.eabi_attribute 30, 4
  11              		.eabi_attribute 18, 4
  12              		.thumb
  13              		.file	"stm32f10x_exti.c"
  23              	.Ltext0:
 15888              		.align	1
 15889              		.global	EXTI_DeInit
 15890              		.thumb
 15891              		.thumb_func
 15893              	EXTI_DeInit:
 15894              	.LFB29:
   1:../../../SDK_embedded/libs/stm32/STM32F10x_StdPeriph_Driver/stm32f10x_exti.c **** /**
   2:../../../SDK_embedded/libs/stm32/STM32F10x_StdPeriph_Driver/stm32f10x_exti.c ****   ******************************************************************************
   3:../../../SDK_embedded/libs/stm32/STM32F10x_StdPeriph_Driver/stm32f10x_exti.c ****   * @file    stm32f10x_exti.c
   4:../../../SDK_embedded/libs/stm32/STM32F10x_StdPeriph_Driver/stm32f10x_exti.c ****   * @author  MCD Application Team
   5:../../../SDK_embedded/libs/stm32/STM32F10x_StdPeriph_Driver/stm32f10x_exti.c ****   * @version V3.3.0
   6:../../../SDK_embedded/libs/stm32/STM32F10x_StdPeriph_Driver/stm32f10x_exti.c ****   * @date    04/16/2010
   7:../../../SDK_embedded/libs/stm32/STM32F10x_StdPeriph_Driver/stm32f10x_exti.c ****   * @brief   This file provides all the EXTI firmware functions.
   8:../../../SDK_embedded/libs/stm32/STM32F10x_StdPeriph_Driver/stm32f10x_exti.c ****   ******************************************************************************
   9:../../../SDK_embedded/libs/stm32/STM32F10x_StdPeriph_Driver/stm32f10x_exti.c ****   * @copy
  10:../../../SDK_embedded/libs/stm32/STM32F10x_StdPeriph_Driver/stm32f10x_exti.c ****   *
  11:../../../SDK_embedded/libs/stm32/STM32F10x_StdPeriph_Driver/stm32f10x_exti.c ****   * THE PRESENT FIRMWARE WHICH IS FOR GUIDANCE ONLY AIMS AT PROVIDING CUSTOMERS
  12:../../../SDK_embedded/libs/stm32/STM32F10x_StdPeriph_Driver/stm32f10x_exti.c ****   * WITH CODING INFORMATION REGARDING THEIR PRODUCTS IN ORDER FOR THEM TO SAVE
  13:../../../SDK_embedded/libs/stm32/STM32F10x_StdPeriph_Driver/stm32f10x_exti.c ****   * TIME. AS A RESULT, STMICROELECTRONICS SHALL NOT BE HELD LIABLE FOR ANY
  14:../../../SDK_embedded/libs/stm32/STM32F10x_StdPeriph_Driver/stm32f10x_exti.c ****   * DIRECT, INDIRECT OR CONSEQUENTIAL DAMAGES WITH RESPECT TO ANY CLAIMS ARISING
  15:../../../SDK_embedded/libs/stm32/STM32F10x_StdPeriph_Driver/stm32f10x_exti.c ****   * FROM THE CONTENT OF SUCH FIRMWARE AND/OR THE USE MADE BY CUSTOMERS OF THE
  16:../../../SDK_embedded/libs/stm32/STM32F10x_StdPeriph_Driver/stm32f10x_exti.c ****   * CODING INFORMATION CONTAINED HEREIN IN CONNECTION WITH THEIR PRODUCTS.
  17:../../../SDK_embedded/libs/stm32/STM32F10x_StdPeriph_Driver/stm32f10x_exti.c ****   *
  18:../../../SDK_embedded/libs/stm32/STM32F10x_StdPeriph_Driver/stm32f10x_exti.c ****   * <h2><center>&copy; COPYRIGHT 2010 STMicroelectronics</center></h2>
  19:../../../SDK_embedded/libs/stm32/STM32F10x_StdPeriph_Driver/stm32f10x_exti.c ****   */ 
  20:../../../SDK_embedded/libs/stm32/STM32F10x_StdPeriph_Driver/stm32f10x_exti.c **** 
  21:../../../SDK_embedded/libs/stm32/STM32F10x_StdPeriph_Driver/stm32f10x_exti.c **** /* Includes ------------------------------------------------------------------*/
  22:../../../SDK_embedded/libs/stm32/STM32F10x_StdPeriph_Driver/stm32f10x_exti.c **** #include "stm32f10x_exti.h"
  23:../../../SDK_embedded/libs/stm32/STM32F10x_StdPeriph_Driver/stm32f10x_exti.c **** 
  24:../../../SDK_embedded/libs/stm32/STM32F10x_StdPeriph_Driver/stm32f10x_exti.c **** /** @addtogroup STM32F10x_StdPeriph_Driver
  25:../../../SDK_embedded/libs/stm32/STM32F10x_StdPeriph_Driver/stm32f10x_exti.c ****   * @{
  26:../../../SDK_embedded/libs/stm32/STM32F10x_StdPeriph_Driver/stm32f10x_exti.c ****   */
  27:../../../SDK_embedded/libs/stm32/STM32F10x_StdPeriph_Driver/stm32f10x_exti.c **** 
  28:../../../SDK_embedded/libs/stm32/STM32F10x_StdPeriph_Driver/stm32f10x_exti.c **** /** @defgroup EXTI 
  29:../../../SDK_embedded/libs/stm32/STM32F10x_StdPeriph_Driver/stm32f10x_exti.c ****   * @brief EXTI driver modules
  30:../../../SDK_embedded/libs/stm32/STM32F10x_StdPeriph_Driver/stm32f10x_exti.c ****   * @{
  31:../../../SDK_embedded/libs/stm32/STM32F10x_StdPeriph_Driver/stm32f10x_exti.c ****   */
  32:../../../SDK_embedded/libs/stm32/STM32F10x_StdPeriph_Driver/stm32f10x_exti.c **** 
  33:../../../SDK_embedded/libs/stm32/STM32F10x_StdPeriph_Driver/stm32f10x_exti.c **** /** @defgroup EXTI_Private_TypesDefinitions
  34:../../../SDK_embedded/libs/stm32/STM32F10x_StdPeriph_Driver/stm32f10x_exti.c ****   * @{
  35:../../../SDK_embedded/libs/stm32/STM32F10x_StdPeriph_Driver/stm32f10x_exti.c ****   */
  36:../../../SDK_embedded/libs/stm32/STM32F10x_StdPeriph_Driver/stm32f10x_exti.c **** 
  37:../../../SDK_embedded/libs/stm32/STM32F10x_StdPeriph_Driver/stm32f10x_exti.c **** /**
  38:../../../SDK_embedded/libs/stm32/STM32F10x_StdPeriph_Driver/stm32f10x_exti.c ****   * @}
  39:../../../SDK_embedded/libs/stm32/STM32F10x_StdPeriph_Driver/stm32f10x_exti.c ****   */
  40:../../../SDK_embedded/libs/stm32/STM32F10x_StdPeriph_Driver/stm32f10x_exti.c **** 
  41:../../../SDK_embedded/libs/stm32/STM32F10x_StdPeriph_Driver/stm32f10x_exti.c **** /** @defgroup EXTI_Private_Defines
  42:../../../SDK_embedded/libs/stm32/STM32F10x_StdPeriph_Driver/stm32f10x_exti.c ****   * @{
  43:../../../SDK_embedded/libs/stm32/STM32F10x_StdPeriph_Driver/stm32f10x_exti.c ****   */
  44:../../../SDK_embedded/libs/stm32/STM32F10x_StdPeriph_Driver/stm32f10x_exti.c **** 
  45:../../../SDK_embedded/libs/stm32/STM32F10x_StdPeriph_Driver/stm32f10x_exti.c **** #define EXTI_LineNone    ((uint32_t)0x00000)  /* No interrupt selected */
  46:../../../SDK_embedded/libs/stm32/STM32F10x_StdPeriph_Driver/stm32f10x_exti.c **** 
  47:../../../SDK_embedded/libs/stm32/STM32F10x_StdPeriph_Driver/stm32f10x_exti.c **** /**
  48:../../../SDK_embedded/libs/stm32/STM32F10x_StdPeriph_Driver/stm32f10x_exti.c ****   * @}
  49:../../../SDK_embedded/libs/stm32/STM32F10x_StdPeriph_Driver/stm32f10x_exti.c ****   */
  50:../../../SDK_embedded/libs/stm32/STM32F10x_StdPeriph_Driver/stm32f10x_exti.c **** 
  51:../../../SDK_embedded/libs/stm32/STM32F10x_StdPeriph_Driver/stm32f10x_exti.c **** /** @defgroup EXTI_Private_Macros
  52:../../../SDK_embedded/libs/stm32/STM32F10x_StdPeriph_Driver/stm32f10x_exti.c ****   * @{
  53:../../../SDK_embedded/libs/stm32/STM32F10x_StdPeriph_Driver/stm32f10x_exti.c ****   */
  54:../../../SDK_embedded/libs/stm32/STM32F10x_StdPeriph_Driver/stm32f10x_exti.c **** 
  55:../../../SDK_embedded/libs/stm32/STM32F10x_StdPeriph_Driver/stm32f10x_exti.c **** /**
  56:../../../SDK_embedded/libs/stm32/STM32F10x_StdPeriph_Driver/stm32f10x_exti.c ****   * @}
  57:../../../SDK_embedded/libs/stm32/STM32F10x_StdPeriph_Driver/stm32f10x_exti.c ****   */
  58:../../../SDK_embedded/libs/stm32/STM32F10x_StdPeriph_Driver/stm32f10x_exti.c **** 
  59:../../../SDK_embedded/libs/stm32/STM32F10x_StdPeriph_Driver/stm32f10x_exti.c **** /** @defgroup EXTI_Private_Variables
  60:../../../SDK_embedded/libs/stm32/STM32F10x_StdPeriph_Driver/stm32f10x_exti.c ****   * @{
  61:../../../SDK_embedded/libs/stm32/STM32F10x_StdPeriph_Driver/stm32f10x_exti.c ****   */
  62:../../../SDK_embedded/libs/stm32/STM32F10x_StdPeriph_Driver/stm32f10x_exti.c **** 
  63:../../../SDK_embedded/libs/stm32/STM32F10x_StdPeriph_Driver/stm32f10x_exti.c **** /**
  64:../../../SDK_embedded/libs/stm32/STM32F10x_StdPeriph_Driver/stm32f10x_exti.c ****   * @}
  65:../../../SDK_embedded/libs/stm32/STM32F10x_StdPeriph_Driver/stm32f10x_exti.c ****   */
  66:../../../SDK_embedded/libs/stm32/STM32F10x_StdPeriph_Driver/stm32f10x_exti.c **** 
  67:../../../SDK_embedded/libs/stm32/STM32F10x_StdPeriph_Driver/stm32f10x_exti.c **** /** @defgroup EXTI_Private_FunctionPrototypes
  68:../../../SDK_embedded/libs/stm32/STM32F10x_StdPeriph_Driver/stm32f10x_exti.c ****   * @{
  69:../../../SDK_embedded/libs/stm32/STM32F10x_StdPeriph_Driver/stm32f10x_exti.c ****   */
  70:../../../SDK_embedded/libs/stm32/STM32F10x_StdPeriph_Driver/stm32f10x_exti.c **** 
  71:../../../SDK_embedded/libs/stm32/STM32F10x_StdPeriph_Driver/stm32f10x_exti.c **** /**
  72:../../../SDK_embedded/libs/stm32/STM32F10x_StdPeriph_Driver/stm32f10x_exti.c ****   * @}
  73:../../../SDK_embedded/libs/stm32/STM32F10x_StdPeriph_Driver/stm32f10x_exti.c ****   */
  74:../../../SDK_embedded/libs/stm32/STM32F10x_StdPeriph_Driver/stm32f10x_exti.c **** 
  75:../../../SDK_embedded/libs/stm32/STM32F10x_StdPeriph_Driver/stm32f10x_exti.c **** /** @defgroup EXTI_Private_Functions
  76:../../../SDK_embedded/libs/stm32/STM32F10x_StdPeriph_Driver/stm32f10x_exti.c ****   * @{
  77:../../../SDK_embedded/libs/stm32/STM32F10x_StdPeriph_Driver/stm32f10x_exti.c ****   */
  78:../../../SDK_embedded/libs/stm32/STM32F10x_StdPeriph_Driver/stm32f10x_exti.c **** 
  79:../../../SDK_embedded/libs/stm32/STM32F10x_StdPeriph_Driver/stm32f10x_exti.c **** /**
  80:../../../SDK_embedded/libs/stm32/STM32F10x_StdPeriph_Driver/stm32f10x_exti.c ****   * @brief  Deinitializes the EXTI peripheral registers to their default reset values.
  81:../../../SDK_embedded/libs/stm32/STM32F10x_StdPeriph_Driver/stm32f10x_exti.c ****   * @param  None
  82:../../../SDK_embedded/libs/stm32/STM32F10x_StdPeriph_Driver/stm32f10x_exti.c ****   * @retval None
  83:../../../SDK_embedded/libs/stm32/STM32F10x_StdPeriph_Driver/stm32f10x_exti.c ****   */
  84:../../../SDK_embedded/libs/stm32/STM32F10x_StdPeriph_Driver/stm32f10x_exti.c **** void EXTI_DeInit(void)
  85:../../../SDK_embedded/libs/stm32/STM32F10x_StdPeriph_Driver/stm32f10x_exti.c **** {
 15895              		.loc 1 85 0
 15896              		.cfi_startproc
 15897              		@ args = 0, pretend = 0, frame = 0
 15898              		@ frame_needed = 0, uses_anonymous_args = 0
 15899              		@ link register save eliminated.
  86:../../../SDK_embedded/libs/stm32/STM32F10x_StdPeriph_Driver/stm32f10x_exti.c ****   EXTI->IMR = 0x00000000;
 15900              		.loc 1 86 0
 15901 0000 044B     		ldr	r3, .L2
  87:../../../SDK_embedded/libs/stm32/STM32F10x_StdPeriph_Driver/stm32f10x_exti.c ****   EXTI->EMR = 0x00000000;
  88:../../../SDK_embedded/libs/stm32/STM32F10x_StdPeriph_Driver/stm32f10x_exti.c ****   EXTI->RTSR = 0x00000000; 
  89:../../../SDK_embedded/libs/stm32/STM32F10x_StdPeriph_Driver/stm32f10x_exti.c ****   EXTI->FTSR = 0x00000000; 
  90:../../../SDK_embedded/libs/stm32/STM32F10x_StdPeriph_Driver/stm32f10x_exti.c ****   EXTI->PR = 0x000FFFFF;
 15902              		.loc 1 90 0
 15903 0002 054A     		ldr	r2, .L2+4
  86:../../../SDK_embedded/libs/stm32/STM32F10x_StdPeriph_Driver/stm32f10x_exti.c ****   EXTI->IMR = 0x00000000;
 15904              		.loc 1 86 0
 15905 0004 0020     		movs	r0, #0
 15906 0006 1860     		str	r0, [r3, #0]
  87:../../../SDK_embedded/libs/stm32/STM32F10x_StdPeriph_Driver/stm32f10x_exti.c ****   EXTI->EMR = 0x00000000;
 15907              		.loc 1 87 0
 15908 0008 5860     		str	r0, [r3, #4]
  88:../../../SDK_embedded/libs/stm32/STM32F10x_StdPeriph_Driver/stm32f10x_exti.c ****   EXTI->RTSR = 0x00000000; 
 15909              		.loc 1 88 0
 15910 000a 9860     		str	r0, [r3, #8]
  89:../../../SDK_embedded/libs/stm32/STM32F10x_StdPeriph_Driver/stm32f10x_exti.c ****   EXTI->FTSR = 0x00000000; 
 15911              		.loc 1 89 0
 15912 000c D860     		str	r0, [r3, #12]
 15913              		.loc 1 90 0
 15914 000e 5A61     		str	r2, [r3, #20]
  91:../../../SDK_embedded/libs/stm32/STM32F10x_StdPeriph_Driver/stm32f10x_exti.c **** }
 15915              		.loc 1 91 0
 15916 0010 7047     		bx	lr
 15917              	.L3:
 15918 0012 00BF     		.align	2
 15919              	.L2:
 15920 0014 00040140 		.word	1073808384
 15921 0018 FFFF0F00 		.word	1048575
 15922              		.cfi_endproc
 15923              	.LFE29:
 15925              		.section	.text.EXTI_Init,"ax",%progbits
 15926              		.align	1
 15927              		.global	EXTI_Init
 15928              		.thumb
 15929              		.thumb_func
 15931              	EXTI_Init:
 15932              	.LFB30:
  92:../../../SDK_embedded/libs/stm32/STM32F10x_StdPeriph_Driver/stm32f10x_exti.c **** 
  93:../../../SDK_embedded/libs/stm32/STM32F10x_StdPeriph_Driver/stm32f10x_exti.c **** /**
  94:../../../SDK_embedded/libs/stm32/STM32F10x_StdPeriph_Driver/stm32f10x_exti.c ****   * @brief  Initializes the EXTI peripheral according to the specified
  95:../../../SDK_embedded/libs/stm32/STM32F10x_StdPeriph_Driver/stm32f10x_exti.c ****   *   parameters in the EXTI_InitStruct.
  96:../../../SDK_embedded/libs/stm32/STM32F10x_StdPeriph_Driver/stm32f10x_exti.c ****   * @param  EXTI_InitStruct: pointer to a EXTI_InitTypeDef structure
  97:../../../SDK_embedded/libs/stm32/STM32F10x_StdPeriph_Driver/stm32f10x_exti.c ****   *   that contains the configuration information for the EXTI peripheral.
  98:../../../SDK_embedded/libs/stm32/STM32F10x_StdPeriph_Driver/stm32f10x_exti.c ****   * @retval None
  99:../../../SDK_embedded/libs/stm32/STM32F10x_StdPeriph_Driver/stm32f10x_exti.c ****   */
 100:../../../SDK_embedded/libs/stm32/STM32F10x_StdPeriph_Driver/stm32f10x_exti.c **** void EXTI_Init(EXTI_InitTypeDef* EXTI_InitStruct)
 101:../../../SDK_embedded/libs/stm32/STM32F10x_StdPeriph_Driver/stm32f10x_exti.c **** {
 15933              		.loc 1 101 0
 15934              		.cfi_startproc
 15935              		@ args = 0, pretend = 0, frame = 0
 15936              		@ frame_needed = 0, uses_anonymous_args = 0
 15937              	.LVL0:
 102:../../../SDK_embedded/libs/stm32/STM32F10x_StdPeriph_Driver/stm32f10x_exti.c ****   uint32_t tmp = 0;
 103:../../../SDK_embedded/libs/stm32/STM32F10x_StdPeriph_Driver/stm32f10x_exti.c **** 
 104:../../../SDK_embedded/libs/stm32/STM32F10x_StdPeriph_Driver/stm32f10x_exti.c ****   /* Check the parameters */
 105:../../../SDK_embedded/libs/stm32/STM32F10x_StdPeriph_Driver/stm32f10x_exti.c ****   assert_param(IS_EXTI_MODE(EXTI_InitStruct->EXTI_Mode));
 106:../../../SDK_embedded/libs/stm32/STM32F10x_StdPeriph_Driver/stm32f10x_exti.c ****   assert_param(IS_EXTI_TRIGGER(EXTI_InitStruct->EXTI_Trigger));
 107:../../../SDK_embedded/libs/stm32/STM32F10x_StdPeriph_Driver/stm32f10x_exti.c ****   assert_param(IS_EXTI_LINE(EXTI_InitStruct->EXTI_Line));  
 108:../../../SDK_embedded/libs/stm32/STM32F10x_StdPeriph_Driver/stm32f10x_exti.c ****   assert_param(IS_FUNCTIONAL_STATE(EXTI_InitStruct->EXTI_LineCmd));
 109:../../../SDK_embedded/libs/stm32/STM32F10x_StdPeriph_Driver/stm32f10x_exti.c **** 
 110:../../../SDK_embedded/libs/stm32/STM32F10x_StdPeriph_Driver/stm32f10x_exti.c ****   tmp = (uint32_t)EXTI_BASE;
 111:../../../SDK_embedded/libs/stm32/STM32F10x_StdPeriph_Driver/stm32f10x_exti.c ****      
 112:../../../SDK_embedded/libs/stm32/STM32F10x_StdPeriph_Driver/stm32f10x_exti.c ****   if (EXTI_InitStruct->EXTI_LineCmd != DISABLE)
 15938              		.loc 1 112 0
 15939 0000 8379     		ldrb	r3, [r0, #6]	@ zero_extendqisi2
 101:../../../SDK_embedded/libs/stm32/STM32F10x_StdPeriph_Driver/stm32f10x_exti.c **** {
 15940              		.loc 1 101 0
 15941 0002 10B5     		push	{r4, lr}
 15942              	.LCFI0:
 15943              		.cfi_def_cfa_offset 8
 15944              		.cfi_offset 14, -4
 15945              		.cfi_offset 4, -8
 15946              		.loc 1 112 0
 15947 0004 002B     		cmp	r3, #0
 15948 0006 30D0     		beq	.L5
 113:../../../SDK_embedded/libs/stm32/STM32F10x_StdPeriph_Driver/stm32f10x_exti.c ****   {
 114:../../../SDK_embedded/libs/stm32/STM32F10x_StdPeriph_Driver/stm32f10x_exti.c ****     /* Clear EXTI line configuration */
 115:../../../SDK_embedded/libs/stm32/STM32F10x_StdPeriph_Driver/stm32f10x_exti.c ****     EXTI->IMR &= ~EXTI_InitStruct->EXTI_Line;
 15949              		.loc 1 115 0
 15950 0008 1D4B     		ldr	r3, .L9
 15951 000a 0168     		ldr	r1, [r0, #0]
 15952 000c 1C68     		ldr	r4, [r3, #0]
 15953 000e CA43     		mvns	r2, r1
 15954 0010 02EA0404 		and	r4, r2, r4
 15955 0014 1C60     		str	r4, [r3, #0]
 116:../../../SDK_embedded/libs/stm32/STM32F10x_StdPeriph_Driver/stm32f10x_exti.c ****     EXTI->EMR &= ~EXTI_InitStruct->EXTI_Line;
 15956              		.loc 1 116 0
 15957 0016 5C68     		ldr	r4, [r3, #4]
 15958 0018 02EA0404 		and	r4, r2, r4
 117:../../../SDK_embedded/libs/stm32/STM32F10x_StdPeriph_Driver/stm32f10x_exti.c ****     
 118:../../../SDK_embedded/libs/stm32/STM32F10x_StdPeriph_Driver/stm32f10x_exti.c ****     tmp += EXTI_InitStruct->EXTI_Mode;
 15959              		.loc 1 118 0
 15960 001c 0279     		ldrb	r2, [r0, #4]	@ zero_extendqisi2
 116:../../../SDK_embedded/libs/stm32/STM32F10x_StdPeriph_Driver/stm32f10x_exti.c ****     EXTI->EMR &= ~EXTI_InitStruct->EXTI_Line;
 15961              		.loc 1 116 0
 15962 001e 5C60     		str	r4, [r3, #4]
 15963              	.LVL1:
 15964              		.loc 1 118 0
 15965 0020 02F1804C 		add	ip, r2, #1073741824
 15966 0024 0CF58232 		add	r2, ip, #66560
 119:../../../SDK_embedded/libs/stm32/STM32F10x_StdPeriph_Driver/stm32f10x_exti.c **** 
 120:../../../SDK_embedded/libs/stm32/STM32F10x_StdPeriph_Driver/stm32f10x_exti.c ****     *(__IO uint32_t *) tmp |= EXTI_InitStruct->EXTI_Line;
 15967              		.loc 1 120 0
 15968 0028 1468     		ldr	r4, [r2, #0]
 15969 002a 44EA0101 		orr	r1, r4, r1
 15970 002e 1160     		str	r1, [r2, #0]
 121:../../../SDK_embedded/libs/stm32/STM32F10x_StdPeriph_Driver/stm32f10x_exti.c **** 
 122:../../../SDK_embedded/libs/stm32/STM32F10x_StdPeriph_Driver/stm32f10x_exti.c ****     /* Clear Rising Falling edge configuration */
 123:../../../SDK_embedded/libs/stm32/STM32F10x_StdPeriph_Driver/stm32f10x_exti.c ****     EXTI->RTSR &= ~EXTI_InitStruct->EXTI_Line;
 15971              		.loc 1 123 0
 15972 0030 0268     		ldr	r2, [r0, #0]
 15973 0032 9C68     		ldr	r4, [r3, #8]
 15974 0034 D143     		mvns	r1, r2
 15975 0036 01EA0404 		and	r4, r1, r4
 15976 003a 9C60     		str	r4, [r3, #8]
 124:../../../SDK_embedded/libs/stm32/STM32F10x_StdPeriph_Driver/stm32f10x_exti.c ****     EXTI->FTSR &= ~EXTI_InitStruct->EXTI_Line;
 15977              		.loc 1 124 0
 15978 003c DC68     		ldr	r4, [r3, #12]
 15979 003e 2140     		ands	r1, r1, r4
 15980 0040 D960     		str	r1, [r3, #12]
 125:../../../SDK_embedded/libs/stm32/STM32F10x_StdPeriph_Driver/stm32f10x_exti.c ****     
 126:../../../SDK_embedded/libs/stm32/STM32F10x_StdPeriph_Driver/stm32f10x_exti.c ****     /* Select the trigger for the selected external interrupts */
 127:../../../SDK_embedded/libs/stm32/STM32F10x_StdPeriph_Driver/stm32f10x_exti.c ****     if (EXTI_InitStruct->EXTI_Trigger == EXTI_Trigger_Rising_Falling)
 15981              		.loc 1 127 0
 15982 0042 4179     		ldrb	r1, [r0, #5]	@ zero_extendqisi2
 15983 0044 1029     		cmp	r1, #16
 15984 0046 08D1     		bne	.L6
 128:../../../SDK_embedded/libs/stm32/STM32F10x_StdPeriph_Driver/stm32f10x_exti.c ****     {
 129:../../../SDK_embedded/libs/stm32/STM32F10x_StdPeriph_Driver/stm32f10x_exti.c ****       /* Rising Falling edge */
 130:../../../SDK_embedded/libs/stm32/STM32F10x_StdPeriph_Driver/stm32f10x_exti.c ****       EXTI->RTSR |= EXTI_InitStruct->EXTI_Line;
 15985              		.loc 1 130 0
 15986 0048 9968     		ldr	r1, [r3, #8]
 15987 004a 41EA0200 		orr	r0, r1, r2
 15988              	.LVL2:
 15989 004e 9860     		str	r0, [r3, #8]
 131:../../../SDK_embedded/libs/stm32/STM32F10x_StdPeriph_Driver/stm32f10x_exti.c ****       EXTI->FTSR |= EXTI_InitStruct->EXTI_Line;
 15990              		.loc 1 131 0
 15991 0050 D968     		ldr	r1, [r3, #12]
 15992 0052 41EA0200 		orr	r0, r1, r2
 15993 0056 D860     		str	r0, [r3, #12]
 15994 0058 10BD     		pop	{r4, pc}
 15995              	.LVL3:
 15996              	.L6:
 132:../../../SDK_embedded/libs/stm32/STM32F10x_StdPeriph_Driver/stm32f10x_exti.c ****     }
 133:../../../SDK_embedded/libs/stm32/STM32F10x_StdPeriph_Driver/stm32f10x_exti.c ****     else
 134:../../../SDK_embedded/libs/stm32/STM32F10x_StdPeriph_Driver/stm32f10x_exti.c ****     {
 135:../../../SDK_embedded/libs/stm32/STM32F10x_StdPeriph_Driver/stm32f10x_exti.c ****       tmp = (uint32_t)EXTI_BASE;
 136:../../../SDK_embedded/libs/stm32/STM32F10x_StdPeriph_Driver/stm32f10x_exti.c ****       tmp += EXTI_InitStruct->EXTI_Trigger;
 15997              		.loc 1 136 0
 15998 005a 01F18043 		add	r3, r1, #1073741824
 15999 005e 03F58233 		add	r3, r3, #66560
 137:../../../SDK_embedded/libs/stm32/STM32F10x_StdPeriph_Driver/stm32f10x_exti.c **** 
 138:../../../SDK_embedded/libs/stm32/STM32F10x_StdPeriph_Driver/stm32f10x_exti.c ****       *(__IO uint32_t *) tmp |= EXTI_InitStruct->EXTI_Line;
 16000              		.loc 1 138 0
 16001 0062 1868     		ldr	r0, [r3, #0]
 16002              	.LVL4:
 16003 0064 40EA0202 		orr	r2, r0, r2
 16004 0068 08E0     		b	.L8
 16005              	.LVL5:
 16006              	.L5:
 139:../../../SDK_embedded/libs/stm32/STM32F10x_StdPeriph_Driver/stm32f10x_exti.c ****     }
 140:../../../SDK_embedded/libs/stm32/STM32F10x_StdPeriph_Driver/stm32f10x_exti.c ****   }
 141:../../../SDK_embedded/libs/stm32/STM32F10x_StdPeriph_Driver/stm32f10x_exti.c ****   else
 142:../../../SDK_embedded/libs/stm32/STM32F10x_StdPeriph_Driver/stm32f10x_exti.c ****   {
 143:../../../SDK_embedded/libs/stm32/STM32F10x_StdPeriph_Driver/stm32f10x_exti.c ****     tmp += EXTI_InitStruct->EXTI_Mode;
 16007              		.loc 1 143 0
 16008 006a 0379     		ldrb	r3, [r0, #4]	@ zero_extendqisi2
 144:../../../SDK_embedded/libs/stm32/STM32F10x_StdPeriph_Driver/stm32f10x_exti.c **** 
 145:../../../SDK_embedded/libs/stm32/STM32F10x_StdPeriph_Driver/stm32f10x_exti.c ****     /* Disable the selected external lines */
 146:../../../SDK_embedded/libs/stm32/STM32F10x_StdPeriph_Driver/stm32f10x_exti.c ****     *(__IO uint32_t *) tmp &= ~EXTI_InitStruct->EXTI_Line;
 16009              		.loc 1 146 0
 16010 006c 0168     		ldr	r1, [r0, #0]
 143:../../../SDK_embedded/libs/stm32/STM32F10x_StdPeriph_Driver/stm32f10x_exti.c ****     tmp += EXTI_InitStruct->EXTI_Mode;
 16011              		.loc 1 143 0
 16012 006e 03F1804C 		add	ip, r3, #1073741824
 16013 0072 0CF58233 		add	r3, ip, #66560
 16014              		.loc 1 146 0
 16015 0076 1A68     		ldr	r2, [r3, #0]
 16016 0078 22EA0102 		bic	r2, r2, r1
 16017              	.LVL6:
 16018              	.L8:
 16019 007c 1A60     		str	r2, [r3, #0]
 16020 007e 10BD     		pop	{r4, pc}
 16021              	.L10:
 16022              		.align	2
 16023              	.L9:
 16024 0080 00040140 		.word	1073808384
 16025              		.cfi_endproc
 16026              	.LFE30:
 16028              		.section	.text.EXTI_StructInit,"ax",%progbits
 16029              		.align	1
 16030              		.global	EXTI_StructInit
 16031              		.thumb
 16032              		.thumb_func
 16034              	EXTI_StructInit:
 16035              	.LFB31:
 147:../../../SDK_embedded/libs/stm32/STM32F10x_StdPeriph_Driver/stm32f10x_exti.c ****   }
 148:../../../SDK_embedded/libs/stm32/STM32F10x_StdPeriph_Driver/stm32f10x_exti.c **** }
 149:../../../SDK_embedded/libs/stm32/STM32F10x_StdPeriph_Driver/stm32f10x_exti.c **** 
 150:../../../SDK_embedded/libs/stm32/STM32F10x_StdPeriph_Driver/stm32f10x_exti.c **** /**
 151:../../../SDK_embedded/libs/stm32/STM32F10x_StdPeriph_Driver/stm32f10x_exti.c ****   * @brief  Fills each EXTI_InitStruct member with its reset value.
 152:../../../SDK_embedded/libs/stm32/STM32F10x_StdPeriph_Driver/stm32f10x_exti.c ****   * @param  EXTI_InitStruct: pointer to a EXTI_InitTypeDef structure which will
 153:../../../SDK_embedded/libs/stm32/STM32F10x_StdPeriph_Driver/stm32f10x_exti.c ****   *   be initialized.
 154:../../../SDK_embedded/libs/stm32/STM32F10x_StdPeriph_Driver/stm32f10x_exti.c ****   * @retval None
 155:../../../SDK_embedded/libs/stm32/STM32F10x_StdPeriph_Driver/stm32f10x_exti.c ****   */
 156:../../../SDK_embedded/libs/stm32/STM32F10x_StdPeriph_Driver/stm32f10x_exti.c **** void EXTI_StructInit(EXTI_InitTypeDef* EXTI_InitStruct)
 157:../../../SDK_embedded/libs/stm32/STM32F10x_StdPeriph_Driver/stm32f10x_exti.c **** {
 16036              		.loc 1 157 0
 16037              		.cfi_startproc
 16038              		@ args = 0, pretend = 0, frame = 0
 16039              		@ frame_needed = 0, uses_anonymous_args = 0
 16040              		@ link register save eliminated.
 16041              	.LVL7:
 158:../../../SDK_embedded/libs/stm32/STM32F10x_StdPeriph_Driver/stm32f10x_exti.c ****   EXTI_InitStruct->EXTI_Line = EXTI_LineNone;
 16042              		.loc 1 158 0
 16043 0000 0023     		movs	r3, #0
 159:../../../SDK_embedded/libs/stm32/STM32F10x_StdPeriph_Driver/stm32f10x_exti.c ****   EXTI_InitStruct->EXTI_Mode = EXTI_Mode_Interrupt;
 160:../../../SDK_embedded/libs/stm32/STM32F10x_StdPeriph_Driver/stm32f10x_exti.c ****   EXTI_InitStruct->EXTI_Trigger = EXTI_Trigger_Falling;
 16044              		.loc 1 160 0
 16045 0002 0C22     		movs	r2, #12
 158:../../../SDK_embedded/libs/stm32/STM32F10x_StdPeriph_Driver/stm32f10x_exti.c ****   EXTI_InitStruct->EXTI_Line = EXTI_LineNone;
 16046              		.loc 1 158 0
 16047 0004 0360     		str	r3, [r0, #0]
 159:../../../SDK_embedded/libs/stm32/STM32F10x_StdPeriph_Driver/stm32f10x_exti.c ****   EXTI_InitStruct->EXTI_Mode = EXTI_Mode_Interrupt;
 16048              		.loc 1 159 0
 16049 0006 0371     		strb	r3, [r0, #4]
 16050              		.loc 1 160 0
 16051 0008 4271     		strb	r2, [r0, #5]
 161:../../../SDK_embedded/libs/stm32/STM32F10x_StdPeriph_Driver/stm32f10x_exti.c ****   EXTI_InitStruct->EXTI_LineCmd = DISABLE;
 16052              		.loc 1 161 0
 16053 000a 8371     		strb	r3, [r0, #6]
 162:../../../SDK_embedded/libs/stm32/STM32F10x_StdPeriph_Driver/stm32f10x_exti.c **** }
 16054              		.loc 1 162 0
 16055 000c 7047     		bx	lr
 16056              		.cfi_endproc
 16057              	.LFE31:
 16059              		.section	.text.EXTI_GenerateSWInterrupt,"ax",%progbits
 16060              		.align	1
 16061              		.global	EXTI_GenerateSWInterrupt
 16062              		.thumb
 16063              		.thumb_func
 16065              	EXTI_GenerateSWInterrupt:
 16066              	.LFB32:
 163:../../../SDK_embedded/libs/stm32/STM32F10x_StdPeriph_Driver/stm32f10x_exti.c **** 
 164:../../../SDK_embedded/libs/stm32/STM32F10x_StdPeriph_Driver/stm32f10x_exti.c **** /**
 165:../../../SDK_embedded/libs/stm32/STM32F10x_StdPeriph_Driver/stm32f10x_exti.c ****   * @brief  Generates a Software interrupt.
 166:../../../SDK_embedded/libs/stm32/STM32F10x_StdPeriph_Driver/stm32f10x_exti.c ****   * @param  EXTI_Line: specifies the EXTI lines to be enabled or disabled.
 167:../../../SDK_embedded/libs/stm32/STM32F10x_StdPeriph_Driver/stm32f10x_exti.c ****   *   This parameter can be any combination of EXTI_Linex where x can be (0..19).
 168:../../../SDK_embedded/libs/stm32/STM32F10x_StdPeriph_Driver/stm32f10x_exti.c ****   * @retval None
 169:../../../SDK_embedded/libs/stm32/STM32F10x_StdPeriph_Driver/stm32f10x_exti.c ****   */
 170:../../../SDK_embedded/libs/stm32/STM32F10x_StdPeriph_Driver/stm32f10x_exti.c **** void EXTI_GenerateSWInterrupt(uint32_t EXTI_Line)
 171:../../../SDK_embedded/libs/stm32/STM32F10x_StdPeriph_Driver/stm32f10x_exti.c **** {
 16067              		.loc 1 171 0
 16068              		.cfi_startproc
 16069              		@ args = 0, pretend = 0, frame = 0
 16070              		@ frame_needed = 0, uses_anonymous_args = 0
 16071              		@ link register save eliminated.
 16072              	.LVL8:
 172:../../../SDK_embedded/libs/stm32/STM32F10x_StdPeriph_Driver/stm32f10x_exti.c ****   /* Check the parameters */
 173:../../../SDK_embedded/libs/stm32/STM32F10x_StdPeriph_Driver/stm32f10x_exti.c ****   assert_param(IS_EXTI_LINE(EXTI_Line));
 174:../../../SDK_embedded/libs/stm32/STM32F10x_StdPeriph_Driver/stm32f10x_exti.c ****   
 175:../../../SDK_embedded/libs/stm32/STM32F10x_StdPeriph_Driver/stm32f10x_exti.c ****   EXTI->SWIER |= EXTI_Line;
 16073              		.loc 1 175 0
 16074 0000 024B     		ldr	r3, .L13
 16075 0002 1A69     		ldr	r2, [r3, #16]
 16076 0004 1043     		orrs	r0, r0, r2
 16077              	.LVL9:
 16078 0006 1861     		str	r0, [r3, #16]
 176:../../../SDK_embedded/libs/stm32/STM32F10x_StdPeriph_Driver/stm32f10x_exti.c **** }
 16079              		.loc 1 176 0
 16080 0008 7047     		bx	lr
 16081              	.L14:
 16082 000a 00BF     		.align	2
 16083              	.L13:
 16084 000c 00040140 		.word	1073808384
 16085              		.cfi_endproc
 16086              	.LFE32:
 16088              		.section	.text.EXTI_GetFlagStatus,"ax",%progbits
 16089              		.align	1
 16090              		.global	EXTI_GetFlagStatus
 16091              		.thumb
 16092              		.thumb_func
 16094              	EXTI_GetFlagStatus:
 16095              	.LFB33:
 177:../../../SDK_embedded/libs/stm32/STM32F10x_StdPeriph_Driver/stm32f10x_exti.c **** 
 178:../../../SDK_embedded/libs/stm32/STM32F10x_StdPeriph_Driver/stm32f10x_exti.c **** /**
 179:../../../SDK_embedded/libs/stm32/STM32F10x_StdPeriph_Driver/stm32f10x_exti.c ****   * @brief  Checks whether the specified EXTI line flag is set or not.
 180:../../../SDK_embedded/libs/stm32/STM32F10x_StdPeriph_Driver/stm32f10x_exti.c ****   * @param  EXTI_Line: specifies the EXTI line flag to check.
 181:../../../SDK_embedded/libs/stm32/STM32F10x_StdPeriph_Driver/stm32f10x_exti.c ****   *   This parameter can be:
 182:../../../SDK_embedded/libs/stm32/STM32F10x_StdPeriph_Driver/stm32f10x_exti.c ****   *     @arg EXTI_Linex: External interrupt line x where x(0..19)
 183:../../../SDK_embedded/libs/stm32/STM32F10x_StdPeriph_Driver/stm32f10x_exti.c ****   * @retval The new state of EXTI_Line (SET or RESET).
 184:../../../SDK_embedded/libs/stm32/STM32F10x_StdPeriph_Driver/stm32f10x_exti.c ****   */
 185:../../../SDK_embedded/libs/stm32/STM32F10x_StdPeriph_Driver/stm32f10x_exti.c **** FlagStatus EXTI_GetFlagStatus(uint32_t EXTI_Line)
 186:../../../SDK_embedded/libs/stm32/STM32F10x_StdPeriph_Driver/stm32f10x_exti.c **** {
 16096              		.loc 1 186 0
 16097              		.cfi_startproc
 16098              		@ args = 0, pretend = 0, frame = 0
 16099              		@ frame_needed = 0, uses_anonymous_args = 0
 16100              		@ link register save eliminated.
 16101              	.LVL10:
 187:../../../SDK_embedded/libs/stm32/STM32F10x_StdPeriph_Driver/stm32f10x_exti.c ****   FlagStatus bitstatus = RESET;
 188:../../../SDK_embedded/libs/stm32/STM32F10x_StdPeriph_Driver/stm32f10x_exti.c ****   /* Check the parameters */
 189:../../../SDK_embedded/libs/stm32/STM32F10x_StdPeriph_Driver/stm32f10x_exti.c ****   assert_param(IS_GET_EXTI_LINE(EXTI_Line));
 190:../../../SDK_embedded/libs/stm32/STM32F10x_StdPeriph_Driver/stm32f10x_exti.c ****   
 191:../../../SDK_embedded/libs/stm32/STM32F10x_StdPeriph_Driver/stm32f10x_exti.c ****   if ((EXTI->PR & EXTI_Line) != (uint32_t)RESET)
 16102              		.loc 1 191 0
 16103 0000 0349     		ldr	r1, .L16
 16104 0002 4B69     		ldr	r3, [r1, #20]
 16105              	.LVL11:
 192:../../../SDK_embedded/libs/stm32/STM32F10x_StdPeriph_Driver/stm32f10x_exti.c ****   {
 193:../../../SDK_embedded/libs/stm32/STM32F10x_StdPeriph_Driver/stm32f10x_exti.c ****     bitstatus = SET;
 16106              		.loc 1 193 0
 16107 0004 1842     		tst	r0, r3
 191:../../../SDK_embedded/libs/stm32/STM32F10x_StdPeriph_Driver/stm32f10x_exti.c ****   if ((EXTI->PR & EXTI_Line) != (uint32_t)RESET)
 16108              		.loc 1 191 0
 16109 0006 0CBF     		ite	eq
 16110 0008 0020     		moveq	r0, #0
 16111 000a 0120     		movne	r0, #1
 16112              	.LVL12:
 194:../../../SDK_embedded/libs/stm32/STM32F10x_StdPeriph_Driver/stm32f10x_exti.c ****   }
 195:../../../SDK_embedded/libs/stm32/STM32F10x_StdPeriph_Driver/stm32f10x_exti.c ****   else
 196:../../../SDK_embedded/libs/stm32/STM32F10x_StdPeriph_Driver/stm32f10x_exti.c ****   {
 197:../../../SDK_embedded/libs/stm32/STM32F10x_StdPeriph_Driver/stm32f10x_exti.c ****     bitstatus = RESET;
 198:../../../SDK_embedded/libs/stm32/STM32F10x_StdPeriph_Driver/stm32f10x_exti.c ****   }
 199:../../../SDK_embedded/libs/stm32/STM32F10x_StdPeriph_Driver/stm32f10x_exti.c ****   return bitstatus;
 200:../../../SDK_embedded/libs/stm32/STM32F10x_StdPeriph_Driver/stm32f10x_exti.c **** }
 16113              		.loc 1 200 0
 16114 000c 7047     		bx	lr
 16115              	.L17:
 16116 000e 00BF     		.align	2
 16117              	.L16:
 16118 0010 00040140 		.word	1073808384
 16119              		.cfi_endproc
 16120              	.LFE33:
 16122              		.section	.text.EXTI_ClearFlag,"ax",%progbits
 16123              		.align	1
 16124              		.global	EXTI_ClearFlag
 16125              		.thumb
 16126              		.thumb_func
 16128              	EXTI_ClearFlag:
 16129              	.LFB34:
 201:../../../SDK_embedded/libs/stm32/STM32F10x_StdPeriph_Driver/stm32f10x_exti.c **** 
 202:../../../SDK_embedded/libs/stm32/STM32F10x_StdPeriph_Driver/stm32f10x_exti.c **** /**
 203:../../../SDK_embedded/libs/stm32/STM32F10x_StdPeriph_Driver/stm32f10x_exti.c ****   * @brief  Clears the EXTI’s line pending flags.
 204:../../../SDK_embedded/libs/stm32/STM32F10x_StdPeriph_Driver/stm32f10x_exti.c ****   * @param  EXTI_Line: specifies the EXTI lines flags to clear.
 205:../../../SDK_embedded/libs/stm32/STM32F10x_StdPeriph_Driver/stm32f10x_exti.c ****   *   This parameter can be any combination of EXTI_Linex where x can be (0..19).
 206:../../../SDK_embedded/libs/stm32/STM32F10x_StdPeriph_Driver/stm32f10x_exti.c ****   * @retval None
 207:../../../SDK_embedded/libs/stm32/STM32F10x_StdPeriph_Driver/stm32f10x_exti.c ****   */
 208:../../../SDK_embedded/libs/stm32/STM32F10x_StdPeriph_Driver/stm32f10x_exti.c **** void EXTI_ClearFlag(uint32_t EXTI_Line)
 209:../../../SDK_embedded/libs/stm32/STM32F10x_StdPeriph_Driver/stm32f10x_exti.c **** {
 16130              		.loc 1 209 0
 16131              		.cfi_startproc
 16132              		@ args = 0, pretend = 0, frame = 0
 16133              		@ frame_needed = 0, uses_anonymous_args = 0
 16134              		@ link register save eliminated.
 16135              	.LVL13:
 210:../../../SDK_embedded/libs/stm32/STM32F10x_StdPeriph_Driver/stm32f10x_exti.c ****   /* Check the parameters */
 211:../../../SDK_embedded/libs/stm32/STM32F10x_StdPeriph_Driver/stm32f10x_exti.c ****   assert_param(IS_EXTI_LINE(EXTI_Line));
 212:../../../SDK_embedded/libs/stm32/STM32F10x_StdPeriph_Driver/stm32f10x_exti.c ****   
 213:../../../SDK_embedded/libs/stm32/STM32F10x_StdPeriph_Driver/stm32f10x_exti.c ****   EXTI->PR = EXTI_Line;
 16136              		.loc 1 213 0
 16137 0000 014B     		ldr	r3, .L19
 16138 0002 5861     		str	r0, [r3, #20]
 214:../../../SDK_embedded/libs/stm32/STM32F10x_StdPeriph_Driver/stm32f10x_exti.c **** }
 16139              		.loc 1 214 0
 16140 0004 7047     		bx	lr
 16141              	.L20:
 16142 0006 00BF     		.align	2
 16143              	.L19:
 16144 0008 00040140 		.word	1073808384
 16145              		.cfi_endproc
 16146              	.LFE34:
 16148              		.section	.text.EXTI_GetITStatus,"ax",%progbits
 16149              		.align	1
 16150              		.global	EXTI_GetITStatus
 16151              		.thumb
 16152              		.thumb_func
 16154              	EXTI_GetITStatus:
 16155              	.LFB35:
 215:../../../SDK_embedded/libs/stm32/STM32F10x_StdPeriph_Driver/stm32f10x_exti.c **** 
 216:../../../SDK_embedded/libs/stm32/STM32F10x_StdPeriph_Driver/stm32f10x_exti.c **** /**
 217:../../../SDK_embedded/libs/stm32/STM32F10x_StdPeriph_Driver/stm32f10x_exti.c ****   * @brief  Checks whether the specified EXTI line is asserted or not.
 218:../../../SDK_embedded/libs/stm32/STM32F10x_StdPeriph_Driver/stm32f10x_exti.c ****   * @param  EXTI_Line: specifies the EXTI line to check.
 219:../../../SDK_embedded/libs/stm32/STM32F10x_StdPeriph_Driver/stm32f10x_exti.c ****   *   This parameter can be:
 220:../../../SDK_embedded/libs/stm32/STM32F10x_StdPeriph_Driver/stm32f10x_exti.c ****   *     @arg EXTI_Linex: External interrupt line x where x(0..19)
 221:../../../SDK_embedded/libs/stm32/STM32F10x_StdPeriph_Driver/stm32f10x_exti.c ****   * @retval The new state of EXTI_Line (SET or RESET).
 222:../../../SDK_embedded/libs/stm32/STM32F10x_StdPeriph_Driver/stm32f10x_exti.c ****   */
 223:../../../SDK_embedded/libs/stm32/STM32F10x_StdPeriph_Driver/stm32f10x_exti.c **** ITStatus EXTI_GetITStatus(uint32_t EXTI_Line)
 224:../../../SDK_embedded/libs/stm32/STM32F10x_StdPeriph_Driver/stm32f10x_exti.c **** {
 16156              		.loc 1 224 0
 16157              		.cfi_startproc
 16158              		@ args = 0, pretend = 0, frame = 0
 16159              		@ frame_needed = 0, uses_anonymous_args = 0
 16160              		@ link register save eliminated.
 16161              	.LVL14:
 225:../../../SDK_embedded/libs/stm32/STM32F10x_StdPeriph_Driver/stm32f10x_exti.c ****   ITStatus bitstatus = RESET;
 226:../../../SDK_embedded/libs/stm32/STM32F10x_StdPeriph_Driver/stm32f10x_exti.c ****   uint32_t enablestatus = 0;
 227:../../../SDK_embedded/libs/stm32/STM32F10x_StdPeriph_Driver/stm32f10x_exti.c ****   /* Check the parameters */
 228:../../../SDK_embedded/libs/stm32/STM32F10x_StdPeriph_Driver/stm32f10x_exti.c ****   assert_param(IS_GET_EXTI_LINE(EXTI_Line));
 229:../../../SDK_embedded/libs/stm32/STM32F10x_StdPeriph_Driver/stm32f10x_exti.c ****   
 230:../../../SDK_embedded/libs/stm32/STM32F10x_StdPeriph_Driver/stm32f10x_exti.c ****   enablestatus =  EXTI->IMR & EXTI_Line;
 16162              		.loc 1 230 0
 16163 0000 0549     		ldr	r1, .L24
 16164 0002 0A68     		ldr	r2, [r1, #0]
 16165              	.LVL15:
 231:../../../SDK_embedded/libs/stm32/STM32F10x_StdPeriph_Driver/stm32f10x_exti.c ****   if (((EXTI->PR & EXTI_Line) != (uint32_t)RESET) && (enablestatus != (uint32_t)RESET))
 16166              		.loc 1 231 0
 16167 0004 4B69     		ldr	r3, [r1, #20]
 16168 0006 0340     		ands	r3, r0, r3
 16169 0008 04D0     		beq	.L23
 16170              	.LVL16:
 232:../../../SDK_embedded/libs/stm32/STM32F10x_StdPeriph_Driver/stm32f10x_exti.c ****   {
 233:../../../SDK_embedded/libs/stm32/STM32F10x_StdPeriph_Driver/stm32f10x_exti.c ****     bitstatus = SET;
 16171              		.loc 1 233 0 discriminator 1
 16172 000a 1042     		tst	r0, r2
 16173 000c 0CBF     		ite	eq
 16174 000e 0020     		moveq	r0, #0
 16175 0010 0120     		movne	r0, #1
 16176              	.LVL17:
 16177 0012 7047     		bx	lr
 16178              	.LVL18:
 16179              	.L23:
 234:../../../SDK_embedded/libs/stm32/STM32F10x_StdPeriph_Driver/stm32f10x_exti.c ****   }
 235:../../../SDK_embedded/libs/stm32/STM32F10x_StdPeriph_Driver/stm32f10x_exti.c ****   else
 236:../../../SDK_embedded/libs/stm32/STM32F10x_StdPeriph_Driver/stm32f10x_exti.c ****   {
 237:../../../SDK_embedded/libs/stm32/STM32F10x_StdPeriph_Driver/stm32f10x_exti.c ****     bitstatus = RESET;
 16180              		.loc 1 237 0
 16181 0014 1846     		mov	r0, r3
 16182              	.LVL19:
 238:../../../SDK_embedded/libs/stm32/STM32F10x_StdPeriph_Driver/stm32f10x_exti.c ****   }
 239:../../../SDK_embedded/libs/stm32/STM32F10x_StdPeriph_Driver/stm32f10x_exti.c ****   return bitstatus;
 240:../../../SDK_embedded/libs/stm32/STM32F10x_StdPeriph_Driver/stm32f10x_exti.c **** }
 16183              		.loc 1 240 0
 16184 0016 7047     		bx	lr
 16185              	.L25:
 16186              		.align	2
 16187              	.L24:
 16188 0018 00040140 		.word	1073808384
 16189              		.cfi_endproc
 16190              	.LFE35:
 16192              		.section	.text.EXTI_ClearITPendingBit,"ax",%progbits
 16193              		.align	1
 16194              		.global	EXTI_ClearITPendingBit
 16195              		.thumb
 16196              		.thumb_func
 16198              	EXTI_ClearITPendingBit:
 16199              	.LFB36:
 241:../../../SDK_embedded/libs/stm32/STM32F10x_StdPeriph_Driver/stm32f10x_exti.c **** 
 242:../../../SDK_embedded/libs/stm32/STM32F10x_StdPeriph_Driver/stm32f10x_exti.c **** /**
 243:../../../SDK_embedded/libs/stm32/STM32F10x_StdPeriph_Driver/stm32f10x_exti.c ****   * @brief  Clears the EXTI’s line pending bits.
 244:../../../SDK_embedded/libs/stm32/STM32F10x_StdPeriph_Driver/stm32f10x_exti.c ****   * @param  EXTI_Line: specifies the EXTI lines to clear.
 245:../../../SDK_embedded/libs/stm32/STM32F10x_StdPeriph_Driver/stm32f10x_exti.c ****   *   This parameter can be any combination of EXTI_Linex where x can be (0..19).
 246:../../../SDK_embedded/libs/stm32/STM32F10x_StdPeriph_Driver/stm32f10x_exti.c ****   * @retval None
 247:../../../SDK_embedded/libs/stm32/STM32F10x_StdPeriph_Driver/stm32f10x_exti.c ****   */
 248:../../../SDK_embedded/libs/stm32/STM32F10x_StdPeriph_Driver/stm32f10x_exti.c **** void EXTI_ClearITPendingBit(uint32_t EXTI_Line)
 249:../../../SDK_embedded/libs/stm32/STM32F10x_StdPeriph_Driver/stm32f10x_exti.c **** {
 16200              		.loc 1 249 0
 16201              		.cfi_startproc
 16202              		@ args = 0, pretend = 0, frame = 0
 16203              		@ frame_needed = 0, uses_anonymous_args = 0
 16204              		@ link register save eliminated.
 16205              	.LVL20:
 250:../../../SDK_embedded/libs/stm32/STM32F10x_StdPeriph_Driver/stm32f10x_exti.c ****   /* Check the parameters */
 251:../../../SDK_embedded/libs/stm32/STM32F10x_StdPeriph_Driver/stm32f10x_exti.c ****   assert_param(IS_EXTI_LINE(EXTI_Line));
 252:../../../SDK_embedded/libs/stm32/STM32F10x_StdPeriph_Driver/stm32f10x_exti.c ****   
 253:../../../SDK_embedded/libs/stm32/STM32F10x_StdPeriph_Driver/stm32f10x_exti.c ****   EXTI->PR = EXTI_Line;
 16206              		.loc 1 253 0
 16207 0000 014B     		ldr	r3, .L27
 16208 0002 5861     		str	r0, [r3, #20]
 254:../../../SDK_embedded/libs/stm32/STM32F10x_StdPeriph_Driver/stm32f10x_exti.c **** }
 16209              		.loc 1 254 0
 16210 0004 7047     		bx	lr
 16211              	.L28:
 16212 0006 00BF     		.align	2
 16213              	.L27:
 16214 0008 00040140 		.word	1073808384
 16215              		.cfi_endproc
 16216              	.LFE36:
 16218              		.text
 16219              	.Letext0: