   1              		.syntax unified
   2              		.cpu cortex-m3
   3              		.fpu softvfp
   4              		.eabi_attribute 20, 1
   5              		.eabi_attribute 21, 1
   6              		.eabi_attribute 23, 3
   7              		.eabi_attribute 24, 1
   8              		.eabi_attribute 25, 1
   9              		.eabi_attribute 26, 1
  10              		.eabi_attribute 30, 4
  11              		.eabi_attribute 18, 4
  12              		.thumb
  13              		.file	"stm32f10x_flash.c"
  23              	.Ltext0:
 16221              		.align	1
 16222              		.global	FLASH_SetLatency
 16223              		.thumb
 16224              		.thumb_func
 16226              	FLASH_SetLatency:
 16227              	.LFB29:
   1:../../../SDK_embedded/libs/stm32/STM32F10x_StdPeriph_Driver/stm32f10x_flash.c **** /**
   2:../../../SDK_embedded/libs/stm32/STM32F10x_StdPeriph_Driver/stm32f10x_flash.c ****   ******************************************************************************
   3:../../../SDK_embedded/libs/stm32/STM32F10x_StdPeriph_Driver/stm32f10x_flash.c ****   * @file    stm32f10x_flash.c
   4:../../../SDK_embedded/libs/stm32/STM32F10x_StdPeriph_Driver/stm32f10x_flash.c ****   * @author  MCD Application Team
   5:../../../SDK_embedded/libs/stm32/STM32F10x_StdPeriph_Driver/stm32f10x_flash.c ****   * @version V3.3.0
   6:../../../SDK_embedded/libs/stm32/STM32F10x_StdPeriph_Driver/stm32f10x_flash.c ****   * @date    04/16/2010
   7:../../../SDK_embedded/libs/stm32/STM32F10x_StdPeriph_Driver/stm32f10x_flash.c ****   * @brief   This file provides all the FLASH firmware functions.
   8:../../../SDK_embedded/libs/stm32/STM32F10x_StdPeriph_Driver/stm32f10x_flash.c ****   ******************************************************************************
   9:../../../SDK_embedded/libs/stm32/STM32F10x_StdPeriph_Driver/stm32f10x_flash.c ****   * @copy
  10:../../../SDK_embedded/libs/stm32/STM32F10x_StdPeriph_Driver/stm32f10x_flash.c ****   *
  11:../../../SDK_embedded/libs/stm32/STM32F10x_StdPeriph_Driver/stm32f10x_flash.c ****   * THE PRESENT FIRMWARE WHICH IS FOR GUIDANCE ONLY AIMS AT PROVIDING CUSTOMERS
  12:../../../SDK_embedded/libs/stm32/STM32F10x_StdPeriph_Driver/stm32f10x_flash.c ****   * WITH CODING INFORMATION REGARDING THEIR PRODUCTS IN ORDER FOR THEM TO SAVE
  13:../../../SDK_embedded/libs/stm32/STM32F10x_StdPeriph_Driver/stm32f10x_flash.c ****   * TIME. AS A RESULT, STMICROELECTRONICS SHALL NOT BE HELD LIABLE FOR ANY
  14:../../../SDK_embedded/libs/stm32/STM32F10x_StdPeriph_Driver/stm32f10x_flash.c ****   * DIRECT, INDIRECT OR CONSEQUENTIAL DAMAGES WITH RESPECT TO ANY CLAIMS ARISING
  15:../../../SDK_embedded/libs/stm32/STM32F10x_StdPeriph_Driver/stm32f10x_flash.c ****   * FROM THE CONTENT OF SUCH FIRMWARE AND/OR THE USE MADE BY CUSTOMERS OF THE
  16:../../../SDK_embedded/libs/stm32/STM32F10x_StdPeriph_Driver/stm32f10x_flash.c ****   * CODING INFORMATION CONTAINED HEREIN IN CONNECTION WITH THEIR PRODUCTS.
  17:../../../SDK_embedded/libs/stm32/STM32F10x_StdPeriph_Driver/stm32f10x_flash.c ****   *
  18:../../../SDK_embedded/libs/stm32/STM32F10x_StdPeriph_Driver/stm32f10x_flash.c ****   * <h2><center>&copy; COPYRIGHT 2010 STMicroelectronics</center></h2>
  19:../../../SDK_embedded/libs/stm32/STM32F10x_StdPeriph_Driver/stm32f10x_flash.c ****   */ 
  20:../../../SDK_embedded/libs/stm32/STM32F10x_StdPeriph_Driver/stm32f10x_flash.c **** 
  21:../../../SDK_embedded/libs/stm32/STM32F10x_StdPeriph_Driver/stm32f10x_flash.c **** /* Includes ------------------------------------------------------------------*/
  22:../../../SDK_embedded/libs/stm32/STM32F10x_StdPeriph_Driver/stm32f10x_flash.c **** #include "stm32f10x_flash.h"
  23:../../../SDK_embedded/libs/stm32/STM32F10x_StdPeriph_Driver/stm32f10x_flash.c **** 
  24:../../../SDK_embedded/libs/stm32/STM32F10x_StdPeriph_Driver/stm32f10x_flash.c **** /** @addtogroup STM32F10x_StdPeriph_Driver
  25:../../../SDK_embedded/libs/stm32/STM32F10x_StdPeriph_Driver/stm32f10x_flash.c ****   * @{
  26:../../../SDK_embedded/libs/stm32/STM32F10x_StdPeriph_Driver/stm32f10x_flash.c ****   */
  27:../../../SDK_embedded/libs/stm32/STM32F10x_StdPeriph_Driver/stm32f10x_flash.c **** 
  28:../../../SDK_embedded/libs/stm32/STM32F10x_StdPeriph_Driver/stm32f10x_flash.c **** /** @defgroup FLASH 
  29:../../../SDK_embedded/libs/stm32/STM32F10x_StdPeriph_Driver/stm32f10x_flash.c ****   * @brief FLASH driver modules
  30:../../../SDK_embedded/libs/stm32/STM32F10x_StdPeriph_Driver/stm32f10x_flash.c ****   * @{
  31:../../../SDK_embedded/libs/stm32/STM32F10x_StdPeriph_Driver/stm32f10x_flash.c ****   */ 
  32:../../../SDK_embedded/libs/stm32/STM32F10x_StdPeriph_Driver/stm32f10x_flash.c **** 
  33:../../../SDK_embedded/libs/stm32/STM32F10x_StdPeriph_Driver/stm32f10x_flash.c **** /** @defgroup FLASH_Private_TypesDefinitions
  34:../../../SDK_embedded/libs/stm32/STM32F10x_StdPeriph_Driver/stm32f10x_flash.c ****   * @{
  35:../../../SDK_embedded/libs/stm32/STM32F10x_StdPeriph_Driver/stm32f10x_flash.c ****   */
  36:../../../SDK_embedded/libs/stm32/STM32F10x_StdPeriph_Driver/stm32f10x_flash.c **** 
  37:../../../SDK_embedded/libs/stm32/STM32F10x_StdPeriph_Driver/stm32f10x_flash.c **** /**
  38:../../../SDK_embedded/libs/stm32/STM32F10x_StdPeriph_Driver/stm32f10x_flash.c ****   * @}
  39:../../../SDK_embedded/libs/stm32/STM32F10x_StdPeriph_Driver/stm32f10x_flash.c ****   */ 
  40:../../../SDK_embedded/libs/stm32/STM32F10x_StdPeriph_Driver/stm32f10x_flash.c **** 
  41:../../../SDK_embedded/libs/stm32/STM32F10x_StdPeriph_Driver/stm32f10x_flash.c **** /** @defgroup FLASH_Private_Defines
  42:../../../SDK_embedded/libs/stm32/STM32F10x_StdPeriph_Driver/stm32f10x_flash.c ****   * @{
  43:../../../SDK_embedded/libs/stm32/STM32F10x_StdPeriph_Driver/stm32f10x_flash.c ****   */ 
  44:../../../SDK_embedded/libs/stm32/STM32F10x_StdPeriph_Driver/stm32f10x_flash.c **** 
  45:../../../SDK_embedded/libs/stm32/STM32F10x_StdPeriph_Driver/stm32f10x_flash.c **** /* Flash Access Control Register bits */
  46:../../../SDK_embedded/libs/stm32/STM32F10x_StdPeriph_Driver/stm32f10x_flash.c **** #define ACR_LATENCY_Mask         ((uint32_t)0x00000038)
  47:../../../SDK_embedded/libs/stm32/STM32F10x_StdPeriph_Driver/stm32f10x_flash.c **** #define ACR_HLFCYA_Mask          ((uint32_t)0xFFFFFFF7)
  48:../../../SDK_embedded/libs/stm32/STM32F10x_StdPeriph_Driver/stm32f10x_flash.c **** #define ACR_PRFTBE_Mask          ((uint32_t)0xFFFFFFEF)
  49:../../../SDK_embedded/libs/stm32/STM32F10x_StdPeriph_Driver/stm32f10x_flash.c **** 
  50:../../../SDK_embedded/libs/stm32/STM32F10x_StdPeriph_Driver/stm32f10x_flash.c **** /* Flash Access Control Register bits */
  51:../../../SDK_embedded/libs/stm32/STM32F10x_StdPeriph_Driver/stm32f10x_flash.c **** #define ACR_PRFTBS_Mask          ((uint32_t)0x00000020) 
  52:../../../SDK_embedded/libs/stm32/STM32F10x_StdPeriph_Driver/stm32f10x_flash.c **** 
  53:../../../SDK_embedded/libs/stm32/STM32F10x_StdPeriph_Driver/stm32f10x_flash.c **** /* Flash Control Register bits */
  54:../../../SDK_embedded/libs/stm32/STM32F10x_StdPeriph_Driver/stm32f10x_flash.c **** #define CR_PG_Set                ((uint32_t)0x00000001)
  55:../../../SDK_embedded/libs/stm32/STM32F10x_StdPeriph_Driver/stm32f10x_flash.c **** #define CR_PG_Reset              ((uint32_t)0x00001FFE) 
  56:../../../SDK_embedded/libs/stm32/STM32F10x_StdPeriph_Driver/stm32f10x_flash.c **** #define CR_PER_Set               ((uint32_t)0x00000002)
  57:../../../SDK_embedded/libs/stm32/STM32F10x_StdPeriph_Driver/stm32f10x_flash.c **** #define CR_PER_Reset             ((uint32_t)0x00001FFD)
  58:../../../SDK_embedded/libs/stm32/STM32F10x_StdPeriph_Driver/stm32f10x_flash.c **** #define CR_MER_Set               ((uint32_t)0x00000004)
  59:../../../SDK_embedded/libs/stm32/STM32F10x_StdPeriph_Driver/stm32f10x_flash.c **** #define CR_MER_Reset             ((uint32_t)0x00001FFB)
  60:../../../SDK_embedded/libs/stm32/STM32F10x_StdPeriph_Driver/stm32f10x_flash.c **** #define CR_OPTPG_Set             ((uint32_t)0x00000010)
  61:../../../SDK_embedded/libs/stm32/STM32F10x_StdPeriph_Driver/stm32f10x_flash.c **** #define CR_OPTPG_Reset           ((uint32_t)0x00001FEF)
  62:../../../SDK_embedded/libs/stm32/STM32F10x_StdPeriph_Driver/stm32f10x_flash.c **** #define CR_OPTER_Set             ((uint32_t)0x00000020)
  63:../../../SDK_embedded/libs/stm32/STM32F10x_StdPeriph_Driver/stm32f10x_flash.c **** #define CR_OPTER_Reset           ((uint32_t)0x00001FDF)
  64:../../../SDK_embedded/libs/stm32/STM32F10x_StdPeriph_Driver/stm32f10x_flash.c **** #define CR_STRT_Set              ((uint32_t)0x00000040)
  65:../../../SDK_embedded/libs/stm32/STM32F10x_StdPeriph_Driver/stm32f10x_flash.c **** #define CR_LOCK_Set              ((uint32_t)0x00000080)
  66:../../../SDK_embedded/libs/stm32/STM32F10x_StdPeriph_Driver/stm32f10x_flash.c **** 
  67:../../../SDK_embedded/libs/stm32/STM32F10x_StdPeriph_Driver/stm32f10x_flash.c **** /* FLASH Mask */
  68:../../../SDK_embedded/libs/stm32/STM32F10x_StdPeriph_Driver/stm32f10x_flash.c **** #define RDPRT_Mask               ((uint32_t)0x00000002)
  69:../../../SDK_embedded/libs/stm32/STM32F10x_StdPeriph_Driver/stm32f10x_flash.c **** #define WRP0_Mask                ((uint32_t)0x000000FF)
  70:../../../SDK_embedded/libs/stm32/STM32F10x_StdPeriph_Driver/stm32f10x_flash.c **** #define WRP1_Mask                ((uint32_t)0x0000FF00)
  71:../../../SDK_embedded/libs/stm32/STM32F10x_StdPeriph_Driver/stm32f10x_flash.c **** #define WRP2_Mask                ((uint32_t)0x00FF0000)
  72:../../../SDK_embedded/libs/stm32/STM32F10x_StdPeriph_Driver/stm32f10x_flash.c **** #define WRP3_Mask                ((uint32_t)0xFF000000)
  73:../../../SDK_embedded/libs/stm32/STM32F10x_StdPeriph_Driver/stm32f10x_flash.c **** #define OB_USER_BFB2             ((uint16_t)0x0008)
  74:../../../SDK_embedded/libs/stm32/STM32F10x_StdPeriph_Driver/stm32f10x_flash.c **** 
  75:../../../SDK_embedded/libs/stm32/STM32F10x_StdPeriph_Driver/stm32f10x_flash.c **** /* FLASH Keys */
  76:../../../SDK_embedded/libs/stm32/STM32F10x_StdPeriph_Driver/stm32f10x_flash.c **** #define RDP_Key                  ((uint16_t)0x00A5)
  77:../../../SDK_embedded/libs/stm32/STM32F10x_StdPeriph_Driver/stm32f10x_flash.c **** #define FLASH_KEY1               ((uint32_t)0x45670123)
  78:../../../SDK_embedded/libs/stm32/STM32F10x_StdPeriph_Driver/stm32f10x_flash.c **** #define FLASH_KEY2               ((uint32_t)0xCDEF89AB)
  79:../../../SDK_embedded/libs/stm32/STM32F10x_StdPeriph_Driver/stm32f10x_flash.c **** 
  80:../../../SDK_embedded/libs/stm32/STM32F10x_StdPeriph_Driver/stm32f10x_flash.c **** /* FLASH BANK address */
  81:../../../SDK_embedded/libs/stm32/STM32F10x_StdPeriph_Driver/stm32f10x_flash.c **** #define FLASH_BANK1_END_ADDRESS   ((uint32_t)0x807FFFF)
  82:../../../SDK_embedded/libs/stm32/STM32F10x_StdPeriph_Driver/stm32f10x_flash.c **** 
  83:../../../SDK_embedded/libs/stm32/STM32F10x_StdPeriph_Driver/stm32f10x_flash.c **** /* Delay definition */   
  84:../../../SDK_embedded/libs/stm32/STM32F10x_StdPeriph_Driver/stm32f10x_flash.c **** #define EraseTimeout          ((uint32_t)0x000B0000)
  85:../../../SDK_embedded/libs/stm32/STM32F10x_StdPeriph_Driver/stm32f10x_flash.c **** #define ProgramTimeout        ((uint32_t)0x00002000)
  86:../../../SDK_embedded/libs/stm32/STM32F10x_StdPeriph_Driver/stm32f10x_flash.c **** /**
  87:../../../SDK_embedded/libs/stm32/STM32F10x_StdPeriph_Driver/stm32f10x_flash.c ****   * @}
  88:../../../SDK_embedded/libs/stm32/STM32F10x_StdPeriph_Driver/stm32f10x_flash.c ****   */ 
  89:../../../SDK_embedded/libs/stm32/STM32F10x_StdPeriph_Driver/stm32f10x_flash.c **** 
  90:../../../SDK_embedded/libs/stm32/STM32F10x_StdPeriph_Driver/stm32f10x_flash.c **** /** @defgroup FLASH_Private_Macros
  91:../../../SDK_embedded/libs/stm32/STM32F10x_StdPeriph_Driver/stm32f10x_flash.c ****   * @{
  92:../../../SDK_embedded/libs/stm32/STM32F10x_StdPeriph_Driver/stm32f10x_flash.c ****   */
  93:../../../SDK_embedded/libs/stm32/STM32F10x_StdPeriph_Driver/stm32f10x_flash.c **** 
  94:../../../SDK_embedded/libs/stm32/STM32F10x_StdPeriph_Driver/stm32f10x_flash.c **** /**
  95:../../../SDK_embedded/libs/stm32/STM32F10x_StdPeriph_Driver/stm32f10x_flash.c ****   * @}
  96:../../../SDK_embedded/libs/stm32/STM32F10x_StdPeriph_Driver/stm32f10x_flash.c ****   */ 
  97:../../../SDK_embedded/libs/stm32/STM32F10x_StdPeriph_Driver/stm32f10x_flash.c **** 
  98:../../../SDK_embedded/libs/stm32/STM32F10x_StdPeriph_Driver/stm32f10x_flash.c **** /** @defgroup FLASH_Private_Variables
  99:../../../SDK_embedded/libs/stm32/STM32F10x_StdPeriph_Driver/stm32f10x_flash.c ****   * @{
 100:../../../SDK_embedded/libs/stm32/STM32F10x_StdPeriph_Driver/stm32f10x_flash.c ****   */
 101:../../../SDK_embedded/libs/stm32/STM32F10x_StdPeriph_Driver/stm32f10x_flash.c **** 
 102:../../../SDK_embedded/libs/stm32/STM32F10x_StdPeriph_Driver/stm32f10x_flash.c **** /**
 103:../../../SDK_embedded/libs/stm32/STM32F10x_StdPeriph_Driver/stm32f10x_flash.c ****   * @}
 104:../../../SDK_embedded/libs/stm32/STM32F10x_StdPeriph_Driver/stm32f10x_flash.c ****   */ 
 105:../../../SDK_embedded/libs/stm32/STM32F10x_StdPeriph_Driver/stm32f10x_flash.c **** 
 106:../../../SDK_embedded/libs/stm32/STM32F10x_StdPeriph_Driver/stm32f10x_flash.c **** /** @defgroup FLASH_Private_FunctionPrototypes
 107:../../../SDK_embedded/libs/stm32/STM32F10x_StdPeriph_Driver/stm32f10x_flash.c ****   * @{
 108:../../../SDK_embedded/libs/stm32/STM32F10x_StdPeriph_Driver/stm32f10x_flash.c ****   */
 109:../../../SDK_embedded/libs/stm32/STM32F10x_StdPeriph_Driver/stm32f10x_flash.c ****   
 110:../../../SDK_embedded/libs/stm32/STM32F10x_StdPeriph_Driver/stm32f10x_flash.c **** /**
 111:../../../SDK_embedded/libs/stm32/STM32F10x_StdPeriph_Driver/stm32f10x_flash.c ****   * @}
 112:../../../SDK_embedded/libs/stm32/STM32F10x_StdPeriph_Driver/stm32f10x_flash.c ****   */
 113:../../../SDK_embedded/libs/stm32/STM32F10x_StdPeriph_Driver/stm32f10x_flash.c **** 
 114:../../../SDK_embedded/libs/stm32/STM32F10x_StdPeriph_Driver/stm32f10x_flash.c **** /** @defgroup FLASH_Private_Functions
 115:../../../SDK_embedded/libs/stm32/STM32F10x_StdPeriph_Driver/stm32f10x_flash.c ****   * @{
 116:../../../SDK_embedded/libs/stm32/STM32F10x_StdPeriph_Driver/stm32f10x_flash.c ****   */
 117:../../../SDK_embedded/libs/stm32/STM32F10x_StdPeriph_Driver/stm32f10x_flash.c **** 
 118:../../../SDK_embedded/libs/stm32/STM32F10x_StdPeriph_Driver/stm32f10x_flash.c **** /**
 119:../../../SDK_embedded/libs/stm32/STM32F10x_StdPeriph_Driver/stm32f10x_flash.c **** @code  
 120:../../../SDK_embedded/libs/stm32/STM32F10x_StdPeriph_Driver/stm32f10x_flash.c ****  
 121:../../../SDK_embedded/libs/stm32/STM32F10x_StdPeriph_Driver/stm32f10x_flash.c ****  This driver provides functions to configure and program the Flash memory of all STM32F10x devices,
 122:../../../SDK_embedded/libs/stm32/STM32F10x_StdPeriph_Driver/stm32f10x_flash.c ****  including the latest STM32F10x_XL density devices. 
 123:../../../SDK_embedded/libs/stm32/STM32F10x_StdPeriph_Driver/stm32f10x_flash.c **** 
 124:../../../SDK_embedded/libs/stm32/STM32F10x_StdPeriph_Driver/stm32f10x_flash.c ****  STM32F10x_XL devices feature up to 1 Mbyte with dual bank architecture for read-while-write (RWW) 
 125:../../../SDK_embedded/libs/stm32/STM32F10x_StdPeriph_Driver/stm32f10x_flash.c ****     - bank1: fixed size of 512 Kbytes (256 pages of 2Kbytes each)
 126:../../../SDK_embedded/libs/stm32/STM32F10x_StdPeriph_Driver/stm32f10x_flash.c ****     - bank2: up to 512 Kbytes (up to 256 pages of 2Kbytes each)
 127:../../../SDK_embedded/libs/stm32/STM32F10x_StdPeriph_Driver/stm32f10x_flash.c ****  While other STM32F10x devices features only one bank with memory up to 512 Kbytes.
 128:../../../SDK_embedded/libs/stm32/STM32F10x_StdPeriph_Driver/stm32f10x_flash.c **** 
 129:../../../SDK_embedded/libs/stm32/STM32F10x_StdPeriph_Driver/stm32f10x_flash.c ****  In version V3.3.0, some functions were updated and new ones were added to support
 130:../../../SDK_embedded/libs/stm32/STM32F10x_StdPeriph_Driver/stm32f10x_flash.c ****  STM32F10x_XL devices. Thus some functions manages all devices, while other are 
 131:../../../SDK_embedded/libs/stm32/STM32F10x_StdPeriph_Driver/stm32f10x_flash.c ****  dedicated for XL devices only.
 132:../../../SDK_embedded/libs/stm32/STM32F10x_StdPeriph_Driver/stm32f10x_flash.c ****  
 133:../../../SDK_embedded/libs/stm32/STM32F10x_StdPeriph_Driver/stm32f10x_flash.c ****  The table below presents the list of available functions depending on the used STM32F10x devices. 
 134:../../../SDK_embedded/libs/stm32/STM32F10x_StdPeriph_Driver/stm32f10x_flash.c ****       
 135:../../../SDK_embedded/libs/stm32/STM32F10x_StdPeriph_Driver/stm32f10x_flash.c ****    ***************************************************
 136:../../../SDK_embedded/libs/stm32/STM32F10x_StdPeriph_Driver/stm32f10x_flash.c ****    * Legacy functions used for all STM32F10x devices *
 137:../../../SDK_embedded/libs/stm32/STM32F10x_StdPeriph_Driver/stm32f10x_flash.c ****    ***************************************************
 138:../../../SDK_embedded/libs/stm32/STM32F10x_StdPeriph_Driver/stm32f10x_flash.c ****    +-----------------------------------------------------------------------------------------------
 139:../../../SDK_embedded/libs/stm32/STM32F10x_StdPeriph_Driver/stm32f10x_flash.c ****    |       Functions prototypes         |STM32F10x_XL|Other STM32F10x|    Comments                 
 140:../../../SDK_embedded/libs/stm32/STM32F10x_StdPeriph_Driver/stm32f10x_flash.c ****    |                                    |   devices  |  devices      |                             
 141:../../../SDK_embedded/libs/stm32/STM32F10x_StdPeriph_Driver/stm32f10x_flash.c ****    |-----------------------------------------------------------------------------------------------
 142:../../../SDK_embedded/libs/stm32/STM32F10x_StdPeriph_Driver/stm32f10x_flash.c ****    |FLASH_SetLatency                    |    Yes     |      Yes      | No change                   
 143:../../../SDK_embedded/libs/stm32/STM32F10x_StdPeriph_Driver/stm32f10x_flash.c ****    |-----------------------------------------------------------------------------------------------
 144:../../../SDK_embedded/libs/stm32/STM32F10x_StdPeriph_Driver/stm32f10x_flash.c ****    |FLASH_HalfCycleAccessCmd            |    Yes     |      Yes      | No change                   
 145:../../../SDK_embedded/libs/stm32/STM32F10x_StdPeriph_Driver/stm32f10x_flash.c ****    |-----------------------------------------------------------------------------------------------
 146:../../../SDK_embedded/libs/stm32/STM32F10x_StdPeriph_Driver/stm32f10x_flash.c ****    |FLASH_PrefetchBufferCmd             |    Yes     |      Yes      | No change                   
 147:../../../SDK_embedded/libs/stm32/STM32F10x_StdPeriph_Driver/stm32f10x_flash.c ****    |-----------------------------------------------------------------------------------------------
 148:../../../SDK_embedded/libs/stm32/STM32F10x_StdPeriph_Driver/stm32f10x_flash.c ****    |FLASH_Unlock                        |    Yes     |      Yes      | - For STM32F10X_XL devices: 
 149:../../../SDK_embedded/libs/stm32/STM32F10x_StdPeriph_Driver/stm32f10x_flash.c ****    |                                    |            |               | - For other devices: unlock 
 150:../../../SDK_embedded/libs/stm32/STM32F10x_StdPeriph_Driver/stm32f10x_flash.c ****    |                                    |            |               |   to FLASH_UnlockBank1 funct
 151:../../../SDK_embedded/libs/stm32/STM32F10x_StdPeriph_Driver/stm32f10x_flash.c ****    |-----------------------------------------------------------------------------------------------
 152:../../../SDK_embedded/libs/stm32/STM32F10x_StdPeriph_Driver/stm32f10x_flash.c ****    |FLASH_Lock                          |    Yes     |      Yes      | - For STM32F10X_XL devices: 
 153:../../../SDK_embedded/libs/stm32/STM32F10x_StdPeriph_Driver/stm32f10x_flash.c ****    |                                    |            |               | - For other devices: lock Ba
 154:../../../SDK_embedded/libs/stm32/STM32F10x_StdPeriph_Driver/stm32f10x_flash.c ****    |                                    |            |               |   to FLASH_LockBank1 functio
 155:../../../SDK_embedded/libs/stm32/STM32F10x_StdPeriph_Driver/stm32f10x_flash.c ****    |-----------------------------------------------------------------------------------------------
 156:../../../SDK_embedded/libs/stm32/STM32F10x_StdPeriph_Driver/stm32f10x_flash.c ****    |FLASH_ErasePage                     |    Yes     |      Yes      | - For STM32F10x_XL devices: 
 157:../../../SDK_embedded/libs/stm32/STM32F10x_StdPeriph_Driver/stm32f10x_flash.c ****    |                                    |            |               | - For other devices: erase a
 158:../../../SDK_embedded/libs/stm32/STM32F10x_StdPeriph_Driver/stm32f10x_flash.c ****    |-----------------------------------------------------------------------------------------------
 159:../../../SDK_embedded/libs/stm32/STM32F10x_StdPeriph_Driver/stm32f10x_flash.c ****    |FLASH_EraseAllPages                 |    Yes     |      Yes      | - For STM32F10x_XL devices: 
 160:../../../SDK_embedded/libs/stm32/STM32F10x_StdPeriph_Driver/stm32f10x_flash.c ****    |                                    |            |               | - For other devices: erase a
 161:../../../SDK_embedded/libs/stm32/STM32F10x_StdPeriph_Driver/stm32f10x_flash.c ****    |-----------------------------------------------------------------------------------------------
 162:../../../SDK_embedded/libs/stm32/STM32F10x_StdPeriph_Driver/stm32f10x_flash.c ****    |FLASH_EraseOptionBytes              |    Yes     |      Yes      | No change                   
 163:../../../SDK_embedded/libs/stm32/STM32F10x_StdPeriph_Driver/stm32f10x_flash.c ****    |-----------------------------------------------------------------------------------------------
 164:../../../SDK_embedded/libs/stm32/STM32F10x_StdPeriph_Driver/stm32f10x_flash.c ****    |FLASH_ProgramWord                   |    Yes     |      Yes      | Updated to program up to 1MB
 165:../../../SDK_embedded/libs/stm32/STM32F10x_StdPeriph_Driver/stm32f10x_flash.c ****    |-----------------------------------------------------------------------------------------------
 166:../../../SDK_embedded/libs/stm32/STM32F10x_StdPeriph_Driver/stm32f10x_flash.c ****    |FLASH_ProgramHalfWord               |    Yes     |      Yes      | Updated to program up to 1MB
 167:../../../SDK_embedded/libs/stm32/STM32F10x_StdPeriph_Driver/stm32f10x_flash.c ****    |-----------------------------------------------------------------------------------------------
 168:../../../SDK_embedded/libs/stm32/STM32F10x_StdPeriph_Driver/stm32f10x_flash.c ****    |FLASH_ProgramOptionByteData         |    Yes     |      Yes      | No change                   
 169:../../../SDK_embedded/libs/stm32/STM32F10x_StdPeriph_Driver/stm32f10x_flash.c ****    |-----------------------------------------------------------------------------------------------
 170:../../../SDK_embedded/libs/stm32/STM32F10x_StdPeriph_Driver/stm32f10x_flash.c ****    |FLASH_EnableWriteProtection         |    Yes     |      Yes      | No change                   
 171:../../../SDK_embedded/libs/stm32/STM32F10x_StdPeriph_Driver/stm32f10x_flash.c ****    |-----------------------------------------------------------------------------------------------
 172:../../../SDK_embedded/libs/stm32/STM32F10x_StdPeriph_Driver/stm32f10x_flash.c ****    |FLASH_ReadOutProtection             |    Yes     |      Yes      | No change                   
 173:../../../SDK_embedded/libs/stm32/STM32F10x_StdPeriph_Driver/stm32f10x_flash.c ****    |-----------------------------------------------------------------------------------------------
 174:../../../SDK_embedded/libs/stm32/STM32F10x_StdPeriph_Driver/stm32f10x_flash.c ****    |FLASH_UserOptionByteConfig          |    Yes     |      Yes      | No change                   
 175:../../../SDK_embedded/libs/stm32/STM32F10x_StdPeriph_Driver/stm32f10x_flash.c ****    |-----------------------------------------------------------------------------------------------
 176:../../../SDK_embedded/libs/stm32/STM32F10x_StdPeriph_Driver/stm32f10x_flash.c ****    |FLASH_GetUserOptionByte             |    Yes     |      Yes      | No change                   
 177:../../../SDK_embedded/libs/stm32/STM32F10x_StdPeriph_Driver/stm32f10x_flash.c ****    |-----------------------------------------------------------------------------------------------
 178:../../../SDK_embedded/libs/stm32/STM32F10x_StdPeriph_Driver/stm32f10x_flash.c ****    |FLASH_GetWriteProtectionOptionByte  |    Yes     |      Yes      | No change                   
 179:../../../SDK_embedded/libs/stm32/STM32F10x_StdPeriph_Driver/stm32f10x_flash.c ****    |-----------------------------------------------------------------------------------------------
 180:../../../SDK_embedded/libs/stm32/STM32F10x_StdPeriph_Driver/stm32f10x_flash.c ****    |FLASH_GetReadOutProtectionStatus    |    Yes     |      Yes      | No change                   
 181:../../../SDK_embedded/libs/stm32/STM32F10x_StdPeriph_Driver/stm32f10x_flash.c ****    |-----------------------------------------------------------------------------------------------
 182:../../../SDK_embedded/libs/stm32/STM32F10x_StdPeriph_Driver/stm32f10x_flash.c ****    |FLASH_GetPrefetchBufferStatus       |    Yes     |      Yes      | No change                   
 183:../../../SDK_embedded/libs/stm32/STM32F10x_StdPeriph_Driver/stm32f10x_flash.c ****    |-----------------------------------------------------------------------------------------------
 184:../../../SDK_embedded/libs/stm32/STM32F10x_StdPeriph_Driver/stm32f10x_flash.c ****    |FLASH_ITConfig                      |    Yes     |      Yes      | - For STM32F10x_XL devices: 
 185:../../../SDK_embedded/libs/stm32/STM32F10x_StdPeriph_Driver/stm32f10x_flash.c ****    |                                    |            |               | - For other devices: enable 
 186:../../../SDK_embedded/libs/stm32/STM32F10x_StdPeriph_Driver/stm32f10x_flash.c ****    |-----------------------------------------------------------------------------------------------
 187:../../../SDK_embedded/libs/stm32/STM32F10x_StdPeriph_Driver/stm32f10x_flash.c ****    |FLASH_GetFlagStatus                 |    Yes     |      Yes      | - For STM32F10x_XL devices: 
 188:../../../SDK_embedded/libs/stm32/STM32F10x_StdPeriph_Driver/stm32f10x_flash.c ****    |                                    |            |               | - For other devices: return 
 189:../../../SDK_embedded/libs/stm32/STM32F10x_StdPeriph_Driver/stm32f10x_flash.c ****    |-----------------------------------------------------------------------------------------------
 190:../../../SDK_embedded/libs/stm32/STM32F10x_StdPeriph_Driver/stm32f10x_flash.c ****    |FLASH_ClearFlag                     |    Yes     |      Yes      | - For STM32F10x_XL devices: 
 191:../../../SDK_embedded/libs/stm32/STM32F10x_StdPeriph_Driver/stm32f10x_flash.c ****    |                                    |            |               | - For other devices: clear B
 192:../../../SDK_embedded/libs/stm32/STM32F10x_StdPeriph_Driver/stm32f10x_flash.c ****    |-----------------------------------------------------------------------------------------------
 193:../../../SDK_embedded/libs/stm32/STM32F10x_StdPeriph_Driver/stm32f10x_flash.c ****    |FLASH_GetStatus                     |    Yes     |      Yes      | - Return the status of Bank1
 194:../../../SDK_embedded/libs/stm32/STM32F10x_StdPeriph_Driver/stm32f10x_flash.c ****    |                                    |            |               |   equivalent to FLASH_GetBan
 195:../../../SDK_embedded/libs/stm32/STM32F10x_StdPeriph_Driver/stm32f10x_flash.c ****    |-----------------------------------------------------------------------------------------------
 196:../../../SDK_embedded/libs/stm32/STM32F10x_StdPeriph_Driver/stm32f10x_flash.c ****    |FLASH_WaitForLastOperation          |    Yes     |      Yes      | - Wait for Bank1 last operat
 197:../../../SDK_embedded/libs/stm32/STM32F10x_StdPeriph_Driver/stm32f10x_flash.c ****    |                                    |            |               |   equivalent to: FLASH_WaitF
 198:../../../SDK_embedded/libs/stm32/STM32F10x_StdPeriph_Driver/stm32f10x_flash.c ****    +-----------------------------------------------------------------------------------------------
 199:../../../SDK_embedded/libs/stm32/STM32F10x_StdPeriph_Driver/stm32f10x_flash.c **** 
 200:../../../SDK_embedded/libs/stm32/STM32F10x_StdPeriph_Driver/stm32f10x_flash.c ****    ************************************************************************************************
 201:../../../SDK_embedded/libs/stm32/STM32F10x_StdPeriph_Driver/stm32f10x_flash.c ****    * New functions used for all STM32F10x devices to manage Bank1:                                 
 202:../../../SDK_embedded/libs/stm32/STM32F10x_StdPeriph_Driver/stm32f10x_flash.c ****    *   - These functions are mainly useful for STM32F10x_XL density devices, to have separate contr
 203:../../../SDK_embedded/libs/stm32/STM32F10x_StdPeriph_Driver/stm32f10x_flash.c ****    *   - For other devices, these functions are optional (covered by functions listed above)       
 204:../../../SDK_embedded/libs/stm32/STM32F10x_StdPeriph_Driver/stm32f10x_flash.c ****    ************************************************************************************************
 205:../../../SDK_embedded/libs/stm32/STM32F10x_StdPeriph_Driver/stm32f10x_flash.c ****    +-----------------------------------------------------------------------------------------------
 206:../../../SDK_embedded/libs/stm32/STM32F10x_StdPeriph_Driver/stm32f10x_flash.c ****    |       Functions prototypes         |STM32F10x_XL|Other STM32F10x|    Comments                 
 207:../../../SDK_embedded/libs/stm32/STM32F10x_StdPeriph_Driver/stm32f10x_flash.c ****    |                                    |   devices  |  devices      |                             
 208:../../../SDK_embedded/libs/stm32/STM32F10x_StdPeriph_Driver/stm32f10x_flash.c ****    |-----------------------------------------------------------------------------------------------
 209:../../../SDK_embedded/libs/stm32/STM32F10x_StdPeriph_Driver/stm32f10x_flash.c ****    | FLASH_UnlockBank1                  |    Yes     |      Yes      | - Unlock Bank1              
 210:../../../SDK_embedded/libs/stm32/STM32F10x_StdPeriph_Driver/stm32f10x_flash.c ****    |-----------------------------------------------------------------------------------------------
 211:../../../SDK_embedded/libs/stm32/STM32F10x_StdPeriph_Driver/stm32f10x_flash.c ****    |FLASH_LockBank1                     |    Yes     |      Yes      | - Lock Bank1                
 212:../../../SDK_embedded/libs/stm32/STM32F10x_StdPeriph_Driver/stm32f10x_flash.c ****    |-----------------------------------------------------------------------------------------------
 213:../../../SDK_embedded/libs/stm32/STM32F10x_StdPeriph_Driver/stm32f10x_flash.c ****    | FLASH_EraseAllBank1Pages           |    Yes     |      Yes      | - Erase all pages in Bank1  
 214:../../../SDK_embedded/libs/stm32/STM32F10x_StdPeriph_Driver/stm32f10x_flash.c ****    |-----------------------------------------------------------------------------------------------
 215:../../../SDK_embedded/libs/stm32/STM32F10x_StdPeriph_Driver/stm32f10x_flash.c ****    | FLASH_GetBank1Status               |    Yes     |      Yes      | - Return the status of Bank1
 216:../../../SDK_embedded/libs/stm32/STM32F10x_StdPeriph_Driver/stm32f10x_flash.c ****    |-----------------------------------------------------------------------------------------------
 217:../../../SDK_embedded/libs/stm32/STM32F10x_StdPeriph_Driver/stm32f10x_flash.c ****    | FLASH_WaitForLastBank1Operation    |    Yes     |      Yes      | - Wait for Bank1 last operat
 218:../../../SDK_embedded/libs/stm32/STM32F10x_StdPeriph_Driver/stm32f10x_flash.c ****    +-----------------------------------------------------------------------------------------------
 219:../../../SDK_embedded/libs/stm32/STM32F10x_StdPeriph_Driver/stm32f10x_flash.c **** 
 220:../../../SDK_embedded/libs/stm32/STM32F10x_StdPeriph_Driver/stm32f10x_flash.c ****    *****************************************************************************
 221:../../../SDK_embedded/libs/stm32/STM32F10x_StdPeriph_Driver/stm32f10x_flash.c ****    * New Functions used only with STM32F10x_XL density devices to manage Bank2 *
 222:../../../SDK_embedded/libs/stm32/STM32F10x_StdPeriph_Driver/stm32f10x_flash.c ****    *****************************************************************************
 223:../../../SDK_embedded/libs/stm32/STM32F10x_StdPeriph_Driver/stm32f10x_flash.c ****    +-----------------------------------------------------------------------------------------------
 224:../../../SDK_embedded/libs/stm32/STM32F10x_StdPeriph_Driver/stm32f10x_flash.c ****    |       Functions prototypes         |STM32F10x_XL|Other STM32F10x|    Comments                 
 225:../../../SDK_embedded/libs/stm32/STM32F10x_StdPeriph_Driver/stm32f10x_flash.c ****    |                                    |   devices  |  devices      |                             
 226:../../../SDK_embedded/libs/stm32/STM32F10x_StdPeriph_Driver/stm32f10x_flash.c ****    |-----------------------------------------------------------------------------------------------
 227:../../../SDK_embedded/libs/stm32/STM32F10x_StdPeriph_Driver/stm32f10x_flash.c ****    | FLASH_UnlockBank2                  |    Yes     |      No       | - Unlock Bank2              
 228:../../../SDK_embedded/libs/stm32/STM32F10x_StdPeriph_Driver/stm32f10x_flash.c ****    |-----------------------------------------------------------------------------------------------
 229:../../../SDK_embedded/libs/stm32/STM32F10x_StdPeriph_Driver/stm32f10x_flash.c ****    |FLASH_LockBank2                     |    Yes     |      No       | - Lock Bank2                
 230:../../../SDK_embedded/libs/stm32/STM32F10x_StdPeriph_Driver/stm32f10x_flash.c ****    |-----------------------------------------------------------------------------------------------
 231:../../../SDK_embedded/libs/stm32/STM32F10x_StdPeriph_Driver/stm32f10x_flash.c ****    | FLASH_EraseAllBank2Pages           |    Yes     |      No       | - Erase all pages in Bank2  
 232:../../../SDK_embedded/libs/stm32/STM32F10x_StdPeriph_Driver/stm32f10x_flash.c ****    |-----------------------------------------------------------------------------------------------
 233:../../../SDK_embedded/libs/stm32/STM32F10x_StdPeriph_Driver/stm32f10x_flash.c ****    | FLASH_GetBank2Status               |    Yes     |      No       | - Return the status of Bank2
 234:../../../SDK_embedded/libs/stm32/STM32F10x_StdPeriph_Driver/stm32f10x_flash.c ****    |-----------------------------------------------------------------------------------------------
 235:../../../SDK_embedded/libs/stm32/STM32F10x_StdPeriph_Driver/stm32f10x_flash.c ****    | FLASH_WaitForLastBank2Operation    |    Yes     |      No       | - Wait for Bank2 last operat
 236:../../../SDK_embedded/libs/stm32/STM32F10x_StdPeriph_Driver/stm32f10x_flash.c ****    |-----------------------------------------------------------------------------------------------
 237:../../../SDK_embedded/libs/stm32/STM32F10x_StdPeriph_Driver/stm32f10x_flash.c ****    | FLASH_BootConfig                   |    Yes     |      No       | - Configure to boot from Ban
 238:../../../SDK_embedded/libs/stm32/STM32F10x_StdPeriph_Driver/stm32f10x_flash.c ****    +-----------------------------------------------------------------------------------------------
 239:../../../SDK_embedded/libs/stm32/STM32F10x_StdPeriph_Driver/stm32f10x_flash.c **** @endcode
 240:../../../SDK_embedded/libs/stm32/STM32F10x_StdPeriph_Driver/stm32f10x_flash.c **** */
 241:../../../SDK_embedded/libs/stm32/STM32F10x_StdPeriph_Driver/stm32f10x_flash.c **** 
 242:../../../SDK_embedded/libs/stm32/STM32F10x_StdPeriph_Driver/stm32f10x_flash.c **** 
 243:../../../SDK_embedded/libs/stm32/STM32F10x_StdPeriph_Driver/stm32f10x_flash.c **** /**
 244:../../../SDK_embedded/libs/stm32/STM32F10x_StdPeriph_Driver/stm32f10x_flash.c ****   * @brief  Sets the code latency value.
 245:../../../SDK_embedded/libs/stm32/STM32F10x_StdPeriph_Driver/stm32f10x_flash.c ****   * @note   This function can be used for all STM32F10x devices.
 246:../../../SDK_embedded/libs/stm32/STM32F10x_StdPeriph_Driver/stm32f10x_flash.c ****   * @param  FLASH_Latency: specifies the FLASH Latency value.
 247:../../../SDK_embedded/libs/stm32/STM32F10x_StdPeriph_Driver/stm32f10x_flash.c ****   *   This parameter can be one of the following values:
 248:../../../SDK_embedded/libs/stm32/STM32F10x_StdPeriph_Driver/stm32f10x_flash.c ****   *     @arg FLASH_Latency_0: FLASH Zero Latency cycle
 249:../../../SDK_embedded/libs/stm32/STM32F10x_StdPeriph_Driver/stm32f10x_flash.c ****   *     @arg FLASH_Latency_1: FLASH One Latency cycle
 250:../../../SDK_embedded/libs/stm32/STM32F10x_StdPeriph_Driver/stm32f10x_flash.c ****   *     @arg FLASH_Latency_2: FLASH Two Latency cycles
 251:../../../SDK_embedded/libs/stm32/STM32F10x_StdPeriph_Driver/stm32f10x_flash.c ****   * @retval None
 252:../../../SDK_embedded/libs/stm32/STM32F10x_StdPeriph_Driver/stm32f10x_flash.c ****   */
 253:../../../SDK_embedded/libs/stm32/STM32F10x_StdPeriph_Driver/stm32f10x_flash.c **** void FLASH_SetLatency(uint32_t FLASH_Latency)
 254:../../../SDK_embedded/libs/stm32/STM32F10x_StdPeriph_Driver/stm32f10x_flash.c **** {
 16228              		.loc 1 254 0
 16229              		.cfi_startproc
 16230              		@ args = 0, pretend = 0, frame = 0
 16231              		@ frame_needed = 0, uses_anonymous_args = 0
 16232              		@ link register save eliminated.
 16233              	.LVL0:
 255:../../../SDK_embedded/libs/stm32/STM32F10x_StdPeriph_Driver/stm32f10x_flash.c ****   uint32_t tmpreg = 0;
 256:../../../SDK_embedded/libs/stm32/STM32F10x_StdPeriph_Driver/stm32f10x_flash.c ****   
 257:../../../SDK_embedded/libs/stm32/STM32F10x_StdPeriph_Driver/stm32f10x_flash.c ****   /* Check the parameters */
 258:../../../SDK_embedded/libs/stm32/STM32F10x_StdPeriph_Driver/stm32f10x_flash.c ****   assert_param(IS_FLASH_LATENCY(FLASH_Latency));
 259:../../../SDK_embedded/libs/stm32/STM32F10x_StdPeriph_Driver/stm32f10x_flash.c ****   
 260:../../../SDK_embedded/libs/stm32/STM32F10x_StdPeriph_Driver/stm32f10x_flash.c ****   /* Read the ACR register */
 261:../../../SDK_embedded/libs/stm32/STM32F10x_StdPeriph_Driver/stm32f10x_flash.c ****   tmpreg = FLASH->ACR;  
 16234              		.loc 1 261 0
 16235 0000 034B     		ldr	r3, .L2
 16236 0002 1968     		ldr	r1, [r3, #0]
 16237              	.LVL1:
 262:../../../SDK_embedded/libs/stm32/STM32F10x_StdPeriph_Driver/stm32f10x_flash.c ****   
 263:../../../SDK_embedded/libs/stm32/STM32F10x_StdPeriph_Driver/stm32f10x_flash.c ****   /* Sets the Latency value */
 264:../../../SDK_embedded/libs/stm32/STM32F10x_StdPeriph_Driver/stm32f10x_flash.c ****   tmpreg &= ACR_LATENCY_Mask;
 16238              		.loc 1 264 0
 16239 0004 01F03802 		and	r2, r1, #56
 16240              	.LVL2:
 265:../../../SDK_embedded/libs/stm32/STM32F10x_StdPeriph_Driver/stm32f10x_flash.c ****   tmpreg |= FLASH_Latency;
 16241              		.loc 1 265 0
 16242 0008 1043     		orrs	r0, r0, r2
 16243              	.LVL3:
 266:../../../SDK_embedded/libs/stm32/STM32F10x_StdPeriph_Driver/stm32f10x_flash.c ****   
 267:../../../SDK_embedded/libs/stm32/STM32F10x_StdPeriph_Driver/stm32f10x_flash.c ****   /* Write the ACR register */
 268:../../../SDK_embedded/libs/stm32/STM32F10x_StdPeriph_Driver/stm32f10x_flash.c ****   FLASH->ACR = tmpreg;
 16244              		.loc 1 268 0
 16245 000a 1860     		str	r0, [r3, #0]
 269:../../../SDK_embedded/libs/stm32/STM32F10x_StdPeriph_Driver/stm32f10x_flash.c **** }
 16246              		.loc 1 269 0
 16247 000c 7047     		bx	lr
 16248              	.L3:
 16249 000e 00BF     		.align	2
 16250              	.L2:
 16251 0010 00200240 		.word	1073881088
 16252              		.cfi_endproc
 16253              	.LFE29:
 16255              		.section	.text.FLASH_HalfCycleAccessCmd,"ax",%progbits
 16256              		.align	1
 16257              		.global	FLASH_HalfCycleAccessCmd
 16258              		.thumb
 16259              		.thumb_func
 16261              	FLASH_HalfCycleAccessCmd:
 16262              	.LFB30:
 270:../../../SDK_embedded/libs/stm32/STM32F10x_StdPeriph_Driver/stm32f10x_flash.c **** 
 271:../../../SDK_embedded/libs/stm32/STM32F10x_StdPeriph_Driver/stm32f10x_flash.c **** /**
 272:../../../SDK_embedded/libs/stm32/STM32F10x_StdPeriph_Driver/stm32f10x_flash.c ****   * @brief  Enables or disables the Half cycle flash access.
 273:../../../SDK_embedded/libs/stm32/STM32F10x_StdPeriph_Driver/stm32f10x_flash.c ****   * @note   This function can be used for all STM32F10x devices.
 274:../../../SDK_embedded/libs/stm32/STM32F10x_StdPeriph_Driver/stm32f10x_flash.c ****   * @param  FLASH_HalfCycleAccess: specifies the FLASH Half cycle Access mode.
 275:../../../SDK_embedded/libs/stm32/STM32F10x_StdPeriph_Driver/stm32f10x_flash.c ****   *   This parameter can be one of the following values:
 276:../../../SDK_embedded/libs/stm32/STM32F10x_StdPeriph_Driver/stm32f10x_flash.c ****   *     @arg FLASH_HalfCycleAccess_Enable: FLASH Half Cycle Enable
 277:../../../SDK_embedded/libs/stm32/STM32F10x_StdPeriph_Driver/stm32f10x_flash.c ****   *     @arg FLASH_HalfCycleAccess_Disable: FLASH Half Cycle Disable
 278:../../../SDK_embedded/libs/stm32/STM32F10x_StdPeriph_Driver/stm32f10x_flash.c ****   * @retval None
 279:../../../SDK_embedded/libs/stm32/STM32F10x_StdPeriph_Driver/stm32f10x_flash.c ****   */
 280:../../../SDK_embedded/libs/stm32/STM32F10x_StdPeriph_Driver/stm32f10x_flash.c **** void FLASH_HalfCycleAccessCmd(uint32_t FLASH_HalfCycleAccess)
 281:../../../SDK_embedded/libs/stm32/STM32F10x_StdPeriph_Driver/stm32f10x_flash.c **** {
 16263              		.loc 1 281 0
 16264              		.cfi_startproc
 16265              		@ args = 0, pretend = 0, frame = 0
 16266              		@ frame_needed = 0, uses_anonymous_args = 0
 16267              		@ link register save eliminated.
 16268              	.LVL4:
 282:../../../SDK_embedded/libs/stm32/STM32F10x_StdPeriph_Driver/stm32f10x_flash.c ****   /* Check the parameters */
 283:../../../SDK_embedded/libs/stm32/STM32F10x_StdPeriph_Driver/stm32f10x_flash.c ****   assert_param(IS_FLASH_HALFCYCLEACCESS_STATE(FLASH_HalfCycleAccess));
 284:../../../SDK_embedded/libs/stm32/STM32F10x_StdPeriph_Driver/stm32f10x_flash.c ****   
 285:../../../SDK_embedded/libs/stm32/STM32F10x_StdPeriph_Driver/stm32f10x_flash.c ****   /* Enable or disable the Half cycle access */
 286:../../../SDK_embedded/libs/stm32/STM32F10x_StdPeriph_Driver/stm32f10x_flash.c ****   FLASH->ACR &= ACR_HLFCYA_Mask;
 16269              		.loc 1 286 0
 16270 0000 044B     		ldr	r3, .L5
 16271 0002 1A68     		ldr	r2, [r3, #0]
 16272 0004 22F00801 		bic	r1, r2, #8
 16273 0008 1960     		str	r1, [r3, #0]
 287:../../../SDK_embedded/libs/stm32/STM32F10x_StdPeriph_Driver/stm32f10x_flash.c ****   FLASH->ACR |= FLASH_HalfCycleAccess;
 16274              		.loc 1 287 0
 16275 000a 1A68     		ldr	r2, [r3, #0]
 16276 000c 1043     		orrs	r0, r0, r2
 16277              	.LVL5:
 16278 000e 1860     		str	r0, [r3, #0]
 288:../../../SDK_embedded/libs/stm32/STM32F10x_StdPeriph_Driver/stm32f10x_flash.c **** }
 16279              		.loc 1 288 0
 16280 0010 7047     		bx	lr
 16281              	.L6:
 16282 0012 00BF     		.align	2
 16283              	.L5:
 16284 0014 00200240 		.word	1073881088
 16285              		.cfi_endproc
 16286              	.LFE30:
 16288              		.section	.text.FLASH_PrefetchBufferCmd,"ax",%progbits
 16289              		.align	1
 16290              		.global	FLASH_PrefetchBufferCmd
 16291              		.thumb
 16292              		.thumb_func
 16294              	FLASH_PrefetchBufferCmd:
 16295              	.LFB31:
 289:../../../SDK_embedded/libs/stm32/STM32F10x_StdPeriph_Driver/stm32f10x_flash.c **** 
 290:../../../SDK_embedded/libs/stm32/STM32F10x_StdPeriph_Driver/stm32f10x_flash.c **** /**
 291:../../../SDK_embedded/libs/stm32/STM32F10x_StdPeriph_Driver/stm32f10x_flash.c ****   * @brief  Enables or disables the Prefetch Buffer.
 292:../../../SDK_embedded/libs/stm32/STM32F10x_StdPeriph_Driver/stm32f10x_flash.c ****   * @note   This function can be used for all STM32F10x devices.
 293:../../../SDK_embedded/libs/stm32/STM32F10x_StdPeriph_Driver/stm32f10x_flash.c ****   * @param  FLASH_PrefetchBuffer: specifies the Prefetch buffer status.
 294:../../../SDK_embedded/libs/stm32/STM32F10x_StdPeriph_Driver/stm32f10x_flash.c ****   *   This parameter can be one of the following values:
 295:../../../SDK_embedded/libs/stm32/STM32F10x_StdPeriph_Driver/stm32f10x_flash.c ****   *     @arg FLASH_PrefetchBuffer_Enable: FLASH Prefetch Buffer Enable
 296:../../../SDK_embedded/libs/stm32/STM32F10x_StdPeriph_Driver/stm32f10x_flash.c ****   *     @arg FLASH_PrefetchBuffer_Disable: FLASH Prefetch Buffer Disable
 297:../../../SDK_embedded/libs/stm32/STM32F10x_StdPeriph_Driver/stm32f10x_flash.c ****   * @retval None
 298:../../../SDK_embedded/libs/stm32/STM32F10x_StdPeriph_Driver/stm32f10x_flash.c ****   */
 299:../../../SDK_embedded/libs/stm32/STM32F10x_StdPeriph_Driver/stm32f10x_flash.c **** void FLASH_PrefetchBufferCmd(uint32_t FLASH_PrefetchBuffer)
 300:../../../SDK_embedded/libs/stm32/STM32F10x_StdPeriph_Driver/stm32f10x_flash.c **** {
 16296              		.loc 1 300 0
 16297              		.cfi_startproc
 16298              		@ args = 0, pretend = 0, frame = 0
 16299              		@ frame_needed = 0, uses_anonymous_args = 0
 16300              		@ link register save eliminated.
 16301              	.LVL6:
 301:../../../SDK_embedded/libs/stm32/STM32F10x_StdPeriph_Driver/stm32f10x_flash.c ****   /* Check the parameters */
 302:../../../SDK_embedded/libs/stm32/STM32F10x_StdPeriph_Driver/stm32f10x_flash.c ****   assert_param(IS_FLASH_PREFETCHBUFFER_STATE(FLASH_PrefetchBuffer));
 303:../../../SDK_embedded/libs/stm32/STM32F10x_StdPeriph_Driver/stm32f10x_flash.c ****   
 304:../../../SDK_embedded/libs/stm32/STM32F10x_StdPeriph_Driver/stm32f10x_flash.c ****   /* Enable or disable the Prefetch Buffer */
 305:../../../SDK_embedded/libs/stm32/STM32F10x_StdPeriph_Driver/stm32f10x_flash.c ****   FLASH->ACR &= ACR_PRFTBE_Mask;
 16302              		.loc 1 305 0
 16303 0000 044B     		ldr	r3, .L8
 16304 0002 1A68     		ldr	r2, [r3, #0]
 16305 0004 22F01001 		bic	r1, r2, #16
 16306 0008 1960     		str	r1, [r3, #0]
 306:../../../SDK_embedded/libs/stm32/STM32F10x_StdPeriph_Driver/stm32f10x_flash.c ****   FLASH->ACR |= FLASH_PrefetchBuffer;
 16307              		.loc 1 306 0
 16308 000a 1A68     		ldr	r2, [r3, #0]
 16309 000c 1043     		orrs	r0, r0, r2
 16310              	.LVL7:
 16311 000e 1860     		str	r0, [r3, #0]
 307:../../../SDK_embedded/libs/stm32/STM32F10x_StdPeriph_Driver/stm32f10x_flash.c **** }
 16312              		.loc 1 307 0
 16313 0010 7047     		bx	lr
 16314              	.L9:
 16315 0012 00BF     		.align	2
 16316              	.L8:
 16317 0014 00200240 		.word	1073881088
 16318              		.cfi_endproc
 16319              	.LFE31:
 16321              		.section	.text.FLASH_Unlock,"ax",%progbits
 16322              		.align	1
 16323              		.global	FLASH_Unlock
 16324              		.thumb
 16325              		.thumb_func
 16327              	FLASH_Unlock:
 16328              	.LFB32:
 308:../../../SDK_embedded/libs/stm32/STM32F10x_StdPeriph_Driver/stm32f10x_flash.c **** 
 309:../../../SDK_embedded/libs/stm32/STM32F10x_StdPeriph_Driver/stm32f10x_flash.c **** /**
 310:../../../SDK_embedded/libs/stm32/STM32F10x_StdPeriph_Driver/stm32f10x_flash.c ****   * @brief  Unlocks the FLASH Program Erase Controller.
 311:../../../SDK_embedded/libs/stm32/STM32F10x_StdPeriph_Driver/stm32f10x_flash.c ****   * @note   This function can be used for all STM32F10x devices.
 312:../../../SDK_embedded/libs/stm32/STM32F10x_StdPeriph_Driver/stm32f10x_flash.c ****   *         - For STM32F10X_XL devices this function unlocks Bank1 and Bank2.
 313:../../../SDK_embedded/libs/stm32/STM32F10x_StdPeriph_Driver/stm32f10x_flash.c ****   *         - For all other devices it unlocks Bank1 and it is equivalent 
 314:../../../SDK_embedded/libs/stm32/STM32F10x_StdPeriph_Driver/stm32f10x_flash.c ****   *           to FLASH_UnlockBank1 function.. 
 315:../../../SDK_embedded/libs/stm32/STM32F10x_StdPeriph_Driver/stm32f10x_flash.c ****   * @param  None
 316:../../../SDK_embedded/libs/stm32/STM32F10x_StdPeriph_Driver/stm32f10x_flash.c ****   * @retval None
 317:../../../SDK_embedded/libs/stm32/STM32F10x_StdPeriph_Driver/stm32f10x_flash.c ****   */
 318:../../../SDK_embedded/libs/stm32/STM32F10x_StdPeriph_Driver/stm32f10x_flash.c **** void FLASH_Unlock(void)
 319:../../../SDK_embedded/libs/stm32/STM32F10x_StdPeriph_Driver/stm32f10x_flash.c **** {
 16329              		.loc 1 319 0
 16330              		.cfi_startproc
 16331              		@ args = 0, pretend = 0, frame = 0
 16332              		@ frame_needed = 0, uses_anonymous_args = 0
 16333              		@ link register save eliminated.
 320:../../../SDK_embedded/libs/stm32/STM32F10x_StdPeriph_Driver/stm32f10x_flash.c ****   /* Authorize the FPEC of Bank1 Access */
 321:../../../SDK_embedded/libs/stm32/STM32F10x_StdPeriph_Driver/stm32f10x_flash.c ****   FLASH->KEYR = FLASH_KEY1;
 16334              		.loc 1 321 0
 16335 0000 0348     		ldr	r0, .L11
 16336 0002 044B     		ldr	r3, .L11+4
 322:../../../SDK_embedded/libs/stm32/STM32F10x_StdPeriph_Driver/stm32f10x_flash.c ****   FLASH->KEYR = FLASH_KEY2;
 16337              		.loc 1 322 0
 16338 0004 00F18832 		add	r2, r0, #-2004318072
 321:../../../SDK_embedded/libs/stm32/STM32F10x_StdPeriph_Driver/stm32f10x_flash.c ****   FLASH->KEYR = FLASH_KEY1;
 16339              		.loc 1 321 0
 16340 0008 5860     		str	r0, [r3, #4]
 16341              		.loc 1 322 0
 16342 000a 5A60     		str	r2, [r3, #4]
 323:../../../SDK_embedded/libs/stm32/STM32F10x_StdPeriph_Driver/stm32f10x_flash.c **** 
 324:../../../SDK_embedded/libs/stm32/STM32F10x_StdPeriph_Driver/stm32f10x_flash.c **** #ifdef STM32F10X_XL
 325:../../../SDK_embedded/libs/stm32/STM32F10x_StdPeriph_Driver/stm32f10x_flash.c ****   /* Authorize the FPEC of Bank2 Access */
 326:../../../SDK_embedded/libs/stm32/STM32F10x_StdPeriph_Driver/stm32f10x_flash.c ****   FLASH->KEYR2 = FLASH_KEY1;
 327:../../../SDK_embedded/libs/stm32/STM32F10x_StdPeriph_Driver/stm32f10x_flash.c ****   FLASH->KEYR2 = FLASH_KEY2;
 328:../../../SDK_embedded/libs/stm32/STM32F10x_StdPeriph_Driver/stm32f10x_flash.c **** #endif /* STM32F10X_XL */
 329:../../../SDK_embedded/libs/stm32/STM32F10x_StdPeriph_Driver/stm32f10x_flash.c **** }
 16343              		.loc 1 329 0
 16344 000c 7047     		bx	lr
 16345              	.L12:
 16346 000e 00BF     		.align	2
 16347              	.L11:
 16348 0010 23016745 		.word	1164378403
 16349 0014 00200240 		.word	1073881088
 16350              		.cfi_endproc
 16351              	.LFE32:
 16353              		.section	.text.FLASH_UnlockBank1,"ax",%progbits
 16354              		.align	1
 16355              		.global	FLASH_UnlockBank1
 16356              		.thumb
 16357              		.thumb_func
 16359              	FLASH_UnlockBank1:
 16360              	.LFB33:
 330:../../../SDK_embedded/libs/stm32/STM32F10x_StdPeriph_Driver/stm32f10x_flash.c **** /**
 331:../../../SDK_embedded/libs/stm32/STM32F10x_StdPeriph_Driver/stm32f10x_flash.c ****   * @brief  Unlocks the FLASH Bank1 Program Erase Controller.
 332:../../../SDK_embedded/libs/stm32/STM32F10x_StdPeriph_Driver/stm32f10x_flash.c ****   * @note   This function can be used for all STM32F10x devices.
 333:../../../SDK_embedded/libs/stm32/STM32F10x_StdPeriph_Driver/stm32f10x_flash.c ****   *         - For STM32F10X_XL devices this function unlocks Bank1.
 334:../../../SDK_embedded/libs/stm32/STM32F10x_StdPeriph_Driver/stm32f10x_flash.c ****   *         - For all other devices it unlocks Bank1 and it is 
 335:../../../SDK_embedded/libs/stm32/STM32F10x_StdPeriph_Driver/stm32f10x_flash.c ****   *           equivalent to FLASH_Unlock function.
 336:../../../SDK_embedded/libs/stm32/STM32F10x_StdPeriph_Driver/stm32f10x_flash.c ****   * @param  None
 337:../../../SDK_embedded/libs/stm32/STM32F10x_StdPeriph_Driver/stm32f10x_flash.c ****   * @retval None
 338:../../../SDK_embedded/libs/stm32/STM32F10x_StdPeriph_Driver/stm32f10x_flash.c ****   */
 339:../../../SDK_embedded/libs/stm32/STM32F10x_StdPeriph_Driver/stm32f10x_flash.c **** void FLASH_UnlockBank1(void)
 340:../../../SDK_embedded/libs/stm32/STM32F10x_StdPeriph_Driver/stm32f10x_flash.c **** {
 16361              		.loc 1 340 0
 16362              		.cfi_startproc
 16363              		@ args = 0, pretend = 0, frame = 0
 16364              		@ frame_needed = 0, uses_anonymous_args = 0
 16365              		@ link register save eliminated.
 341:../../../SDK_embedded/libs/stm32/STM32F10x_StdPeriph_Driver/stm32f10x_flash.c ****   /* Authorize the FPEC of Bank1 Access */
 342:../../../SDK_embedded/libs/stm32/STM32F10x_StdPeriph_Driver/stm32f10x_flash.c ****   FLASH->KEYR = FLASH_KEY1;
 16366              		.loc 1 342 0
 16367 0000 0348     		ldr	r0, .L14
 16368 0002 044B     		ldr	r3, .L14+4
 343:../../../SDK_embedded/libs/stm32/STM32F10x_StdPeriph_Driver/stm32f10x_flash.c ****   FLASH->KEYR = FLASH_KEY2;
 16369              		.loc 1 343 0
 16370 0004 00F18832 		add	r2, r0, #-2004318072
 342:../../../SDK_embedded/libs/stm32/STM32F10x_StdPeriph_Driver/stm32f10x_flash.c ****   FLASH->KEYR = FLASH_KEY1;
 16371              		.loc 1 342 0
 16372 0008 5860     		str	r0, [r3, #4]
 16373              		.loc 1 343 0
 16374 000a 5A60     		str	r2, [r3, #4]
 344:../../../SDK_embedded/libs/stm32/STM32F10x_StdPeriph_Driver/stm32f10x_flash.c **** }
 16375              		.loc 1 344 0
 16376 000c 7047     		bx	lr
 16377              	.L15:
 16378 000e 00BF     		.align	2
 16379              	.L14:
 16380 0010 23016745 		.word	1164378403
 16381 0014 00200240 		.word	1073881088
 16382              		.cfi_endproc
 16383              	.LFE33:
 16385              		.section	.text.FLASH_Lock,"ax",%progbits
 16386              		.align	1
 16387              		.global	FLASH_Lock
 16388              		.thumb
 16389              		.thumb_func
 16391              	FLASH_Lock:
 16392              	.LFB34:
 345:../../../SDK_embedded/libs/stm32/STM32F10x_StdPeriph_Driver/stm32f10x_flash.c **** 
 346:../../../SDK_embedded/libs/stm32/STM32F10x_StdPeriph_Driver/stm32f10x_flash.c **** #ifdef STM32F10X_XL
 347:../../../SDK_embedded/libs/stm32/STM32F10x_StdPeriph_Driver/stm32f10x_flash.c **** /**
 348:../../../SDK_embedded/libs/stm32/STM32F10x_StdPeriph_Driver/stm32f10x_flash.c ****   * @brief  Unlocks the FLASH Bank2 Program Erase Controller.
 349:../../../SDK_embedded/libs/stm32/STM32F10x_StdPeriph_Driver/stm32f10x_flash.c ****   * @note   This function can be used only for STM32F10X_XL density devices.
 350:../../../SDK_embedded/libs/stm32/STM32F10x_StdPeriph_Driver/stm32f10x_flash.c ****   * @param  None
 351:../../../SDK_embedded/libs/stm32/STM32F10x_StdPeriph_Driver/stm32f10x_flash.c ****   * @retval None
 352:../../../SDK_embedded/libs/stm32/STM32F10x_StdPeriph_Driver/stm32f10x_flash.c ****   */
 353:../../../SDK_embedded/libs/stm32/STM32F10x_StdPeriph_Driver/stm32f10x_flash.c **** void FLASH_UnlockBank2(void)
 354:../../../SDK_embedded/libs/stm32/STM32F10x_StdPeriph_Driver/stm32f10x_flash.c **** {
 355:../../../SDK_embedded/libs/stm32/STM32F10x_StdPeriph_Driver/stm32f10x_flash.c ****   /* Authorize the FPEC of Bank2 Access */
 356:../../../SDK_embedded/libs/stm32/STM32F10x_StdPeriph_Driver/stm32f10x_flash.c ****   FLASH->KEYR2 = FLASH_KEY1;
 357:../../../SDK_embedded/libs/stm32/STM32F10x_StdPeriph_Driver/stm32f10x_flash.c ****   FLASH->KEYR2 = FLASH_KEY2;
 358:../../../SDK_embedded/libs/stm32/STM32F10x_StdPeriph_Driver/stm32f10x_flash.c **** 
 359:../../../SDK_embedded/libs/stm32/STM32F10x_StdPeriph_Driver/stm32f10x_flash.c **** }
 360:../../../SDK_embedded/libs/stm32/STM32F10x_StdPeriph_Driver/stm32f10x_flash.c **** #endif /* STM32F10X_XL */
 361:../../../SDK_embedded/libs/stm32/STM32F10x_StdPeriph_Driver/stm32f10x_flash.c **** 
 362:../../../SDK_embedded/libs/stm32/STM32F10x_StdPeriph_Driver/stm32f10x_flash.c **** /**
 363:../../../SDK_embedded/libs/stm32/STM32F10x_StdPeriph_Driver/stm32f10x_flash.c ****   * @brief  Locks the FLASH Program Erase Controller.
 364:../../../SDK_embedded/libs/stm32/STM32F10x_StdPeriph_Driver/stm32f10x_flash.c ****   * @note   This function can be used for all STM32F10x devices.
 365:../../../SDK_embedded/libs/stm32/STM32F10x_StdPeriph_Driver/stm32f10x_flash.c ****   *         - For STM32F10X_XL devices this function Locks Bank1 and Bank2.
 366:../../../SDK_embedded/libs/stm32/STM32F10x_StdPeriph_Driver/stm32f10x_flash.c ****   *         - For all other devices it Locks Bank1 and it is equivalent 
 367:../../../SDK_embedded/libs/stm32/STM32F10x_StdPeriph_Driver/stm32f10x_flash.c ****   *           to FLASH_LockBank1 function.
 368:../../../SDK_embedded/libs/stm32/STM32F10x_StdPeriph_Driver/stm32f10x_flash.c ****   * @param  None
 369:../../../SDK_embedded/libs/stm32/STM32F10x_StdPeriph_Driver/stm32f10x_flash.c ****   * @retval None
 370:../../../SDK_embedded/libs/stm32/STM32F10x_StdPeriph_Driver/stm32f10x_flash.c ****   */
 371:../../../SDK_embedded/libs/stm32/STM32F10x_StdPeriph_Driver/stm32f10x_flash.c **** void FLASH_Lock(void)
 372:../../../SDK_embedded/libs/stm32/STM32F10x_StdPeriph_Driver/stm32f10x_flash.c **** {
 16393              		.loc 1 372 0
 16394              		.cfi_startproc
 16395              		@ args = 0, pretend = 0, frame = 0
 16396              		@ frame_needed = 0, uses_anonymous_args = 0
 16397              		@ link register save eliminated.
 373:../../../SDK_embedded/libs/stm32/STM32F10x_StdPeriph_Driver/stm32f10x_flash.c ****   /* Set the Lock Bit to lock the FPEC and the CR of  Bank1 */
 374:../../../SDK_embedded/libs/stm32/STM32F10x_StdPeriph_Driver/stm32f10x_flash.c ****   FLASH->CR |= CR_LOCK_Set;
 16398              		.loc 1 374 0
 16399 0000 024B     		ldr	r3, .L17
 16400 0002 1869     		ldr	r0, [r3, #16]
 16401 0004 40F08002 		orr	r2, r0, #128
 16402 0008 1A61     		str	r2, [r3, #16]
 375:../../../SDK_embedded/libs/stm32/STM32F10x_StdPeriph_Driver/stm32f10x_flash.c **** 
 376:../../../SDK_embedded/libs/stm32/STM32F10x_StdPeriph_Driver/stm32f10x_flash.c **** #ifdef STM32F10X_XL
 377:../../../SDK_embedded/libs/stm32/STM32F10x_StdPeriph_Driver/stm32f10x_flash.c ****   /* Set the Lock Bit to lock the FPEC and the CR of  Bank2 */
 378:../../../SDK_embedded/libs/stm32/STM32F10x_StdPeriph_Driver/stm32f10x_flash.c ****   FLASH->CR2 |= CR_LOCK_Set;
 379:../../../SDK_embedded/libs/stm32/STM32F10x_StdPeriph_Driver/stm32f10x_flash.c **** #endif /* STM32F10X_XL */
 380:../../../SDK_embedded/libs/stm32/STM32F10x_StdPeriph_Driver/stm32f10x_flash.c **** }
 16403              		.loc 1 380 0
 16404 000a 7047     		bx	lr
 16405              	.L18:
 16406              		.align	2
 16407              	.L17:
 16408 000c 00200240 		.word	1073881088
 16409              		.cfi_endproc
 16410              	.LFE34:
 16412              		.section	.text.FLASH_LockBank1,"ax",%progbits
 16413              		.align	1
 16414              		.global	FLASH_LockBank1
 16415              		.thumb
 16416              		.thumb_func
 16418              	FLASH_LockBank1:
 16419              	.LFB35:
 381:../../../SDK_embedded/libs/stm32/STM32F10x_StdPeriph_Driver/stm32f10x_flash.c **** 
 382:../../../SDK_embedded/libs/stm32/STM32F10x_StdPeriph_Driver/stm32f10x_flash.c **** /**
 383:../../../SDK_embedded/libs/stm32/STM32F10x_StdPeriph_Driver/stm32f10x_flash.c ****   * @brief  Locks the FLASH Bank1 Program Erase Controller.
 384:../../../SDK_embedded/libs/stm32/STM32F10x_StdPeriph_Driver/stm32f10x_flash.c ****   * @note   this function can be used for all STM32F10x devices.
 385:../../../SDK_embedded/libs/stm32/STM32F10x_StdPeriph_Driver/stm32f10x_flash.c ****   *         - For STM32F10X_XL devices this function Locks Bank1.
 386:../../../SDK_embedded/libs/stm32/STM32F10x_StdPeriph_Driver/stm32f10x_flash.c ****   *         - For all other devices it Locks Bank1 and it is equivalent 
 387:../../../SDK_embedded/libs/stm32/STM32F10x_StdPeriph_Driver/stm32f10x_flash.c ****   *           to FLASH_Lock function.
 388:../../../SDK_embedded/libs/stm32/STM32F10x_StdPeriph_Driver/stm32f10x_flash.c ****   * @param  None
 389:../../../SDK_embedded/libs/stm32/STM32F10x_StdPeriph_Driver/stm32f10x_flash.c ****   * @retval None
 390:../../../SDK_embedded/libs/stm32/STM32F10x_StdPeriph_Driver/stm32f10x_flash.c ****   */
 391:../../../SDK_embedded/libs/stm32/STM32F10x_StdPeriph_Driver/stm32f10x_flash.c **** void FLASH_LockBank1(void)
 392:../../../SDK_embedded/libs/stm32/STM32F10x_StdPeriph_Driver/stm32f10x_flash.c **** {
 16420              		.loc 1 392 0
 16421              		.cfi_startproc
 16422              		@ args = 0, pretend = 0, frame = 0
 16423              		@ frame_needed = 0, uses_anonymous_args = 0
 16424              		@ link register save eliminated.
 393:../../../SDK_embedded/libs/stm32/STM32F10x_StdPeriph_Driver/stm32f10x_flash.c ****   /* Set the Lock Bit to lock the FPEC and the CR of  Bank1 */
 394:../../../SDK_embedded/libs/stm32/STM32F10x_StdPeriph_Driver/stm32f10x_flash.c ****   FLASH->CR |= CR_LOCK_Set;
 16425              		.loc 1 394 0
 16426 0000 024B     		ldr	r3, .L20
 16427 0002 1869     		ldr	r0, [r3, #16]
 16428 0004 40F08002 		orr	r2, r0, #128
 16429 0008 1A61     		str	r2, [r3, #16]
 395:../../../SDK_embedded/libs/stm32/STM32F10x_StdPeriph_Driver/stm32f10x_flash.c **** }
 16430              		.loc 1 395 0
 16431 000a 7047     		bx	lr
 16432              	.L21:
 16433              		.align	2
 16434              	.L20:
 16435 000c 00200240 		.word	1073881088
 16436              		.cfi_endproc
 16437              	.LFE35:
 16439              		.section	.text.FLASH_GetUserOptionByte,"ax",%progbits
 16440              		.align	1
 16441              		.global	FLASH_GetUserOptionByte
 16442              		.thumb
 16443              		.thumb_func
 16445              	FLASH_GetUserOptionByte:
 16446              	.LFB46:
 396:../../../SDK_embedded/libs/stm32/STM32F10x_StdPeriph_Driver/stm32f10x_flash.c **** 
 397:../../../SDK_embedded/libs/stm32/STM32F10x_StdPeriph_Driver/stm32f10x_flash.c **** #ifdef STM32F10X_XL
 398:../../../SDK_embedded/libs/stm32/STM32F10x_StdPeriph_Driver/stm32f10x_flash.c **** /**
 399:../../../SDK_embedded/libs/stm32/STM32F10x_StdPeriph_Driver/stm32f10x_flash.c ****   * @brief  Locks the FLASH Bank2 Program Erase Controller.
 400:../../../SDK_embedded/libs/stm32/STM32F10x_StdPeriph_Driver/stm32f10x_flash.c ****   * @note   This function can be used only for STM32F10X_XL density devices.
 401:../../../SDK_embedded/libs/stm32/STM32F10x_StdPeriph_Driver/stm32f10x_flash.c ****   * @param  None
 402:../../../SDK_embedded/libs/stm32/STM32F10x_StdPeriph_Driver/stm32f10x_flash.c ****   * @retval None
 403:../../../SDK_embedded/libs/stm32/STM32F10x_StdPeriph_Driver/stm32f10x_flash.c ****   */
 404:../../../SDK_embedded/libs/stm32/STM32F10x_StdPeriph_Driver/stm32f10x_flash.c **** void FLASH_LockBank2(void)
 405:../../../SDK_embedded/libs/stm32/STM32F10x_StdPeriph_Driver/stm32f10x_flash.c **** {
 406:../../../SDK_embedded/libs/stm32/STM32F10x_StdPeriph_Driver/stm32f10x_flash.c ****   /* Set the Lock Bit to lock the FPEC and the CR of  Bank2 */
 407:../../../SDK_embedded/libs/stm32/STM32F10x_StdPeriph_Driver/stm32f10x_flash.c ****   FLASH->CR2 |= CR_LOCK_Set;
 408:../../../SDK_embedded/libs/stm32/STM32F10x_StdPeriph_Driver/stm32f10x_flash.c **** }
 409:../../../SDK_embedded/libs/stm32/STM32F10x_StdPeriph_Driver/stm32f10x_flash.c **** #endif /* STM32F10X_XL */
 410:../../../SDK_embedded/libs/stm32/STM32F10x_StdPeriph_Driver/stm32f10x_flash.c **** 
 411:../../../SDK_embedded/libs/stm32/STM32F10x_StdPeriph_Driver/stm32f10x_flash.c **** /**
 412:../../../SDK_embedded/libs/stm32/STM32F10x_StdPeriph_Driver/stm32f10x_flash.c ****   * @brief  Erases a specified FLASH page.
 413:../../../SDK_embedded/libs/stm32/STM32F10x_StdPeriph_Driver/stm32f10x_flash.c ****   * @note   This function can be used for all STM32F10x devices.
 414:../../../SDK_embedded/libs/stm32/STM32F10x_StdPeriph_Driver/stm32f10x_flash.c ****   * @param  Page_Address: The page address to be erased.
 415:../../../SDK_embedded/libs/stm32/STM32F10x_StdPeriph_Driver/stm32f10x_flash.c ****   * @retval FLASH Status: The returned value can be: FLASH_BUSY, FLASH_ERROR_PG,
 416:../../../SDK_embedded/libs/stm32/STM32F10x_StdPeriph_Driver/stm32f10x_flash.c ****   *   FLASH_ERROR_WRP, FLASH_COMPLETE or FLASH_TIMEOUT.
 417:../../../SDK_embedded/libs/stm32/STM32F10x_StdPeriph_Driver/stm32f10x_flash.c ****   */
 418:../../../SDK_embedded/libs/stm32/STM32F10x_StdPeriph_Driver/stm32f10x_flash.c **** FLASH_Status FLASH_ErasePage(uint32_t Page_Address)
 419:../../../SDK_embedded/libs/stm32/STM32F10x_StdPeriph_Driver/stm32f10x_flash.c **** {
 420:../../../SDK_embedded/libs/stm32/STM32F10x_StdPeriph_Driver/stm32f10x_flash.c ****   FLASH_Status status = FLASH_COMPLETE;
 421:../../../SDK_embedded/libs/stm32/STM32F10x_StdPeriph_Driver/stm32f10x_flash.c ****   /* Check the parameters */
 422:../../../SDK_embedded/libs/stm32/STM32F10x_StdPeriph_Driver/stm32f10x_flash.c ****   assert_param(IS_FLASH_ADDRESS(Page_Address));
 423:../../../SDK_embedded/libs/stm32/STM32F10x_StdPeriph_Driver/stm32f10x_flash.c **** 
 424:../../../SDK_embedded/libs/stm32/STM32F10x_StdPeriph_Driver/stm32f10x_flash.c **** #ifdef STM32F10X_XL
 425:../../../SDK_embedded/libs/stm32/STM32F10x_StdPeriph_Driver/stm32f10x_flash.c ****   if(Page_Address < FLASH_BANK1_END_ADDRESS)  
 426:../../../SDK_embedded/libs/stm32/STM32F10x_StdPeriph_Driver/stm32f10x_flash.c ****   {
 427:../../../SDK_embedded/libs/stm32/STM32F10x_StdPeriph_Driver/stm32f10x_flash.c ****     /* Wait for last operation to be completed */
 428:../../../SDK_embedded/libs/stm32/STM32F10x_StdPeriph_Driver/stm32f10x_flash.c ****     status = FLASH_WaitForLastBank1Operation(EraseTimeout);
 429:../../../SDK_embedded/libs/stm32/STM32F10x_StdPeriph_Driver/stm32f10x_flash.c ****     if(status == FLASH_COMPLETE)
 430:../../../SDK_embedded/libs/stm32/STM32F10x_StdPeriph_Driver/stm32f10x_flash.c ****     { 
 431:../../../SDK_embedded/libs/stm32/STM32F10x_StdPeriph_Driver/stm32f10x_flash.c ****       /* if the previous operation is completed, proceed to erase the page */
 432:../../../SDK_embedded/libs/stm32/STM32F10x_StdPeriph_Driver/stm32f10x_flash.c ****       FLASH->CR|= CR_PER_Set;
 433:../../../SDK_embedded/libs/stm32/STM32F10x_StdPeriph_Driver/stm32f10x_flash.c ****       FLASH->AR = Page_Address; 
 434:../../../SDK_embedded/libs/stm32/STM32F10x_StdPeriph_Driver/stm32f10x_flash.c ****       FLASH->CR|= CR_STRT_Set;
 435:../../../SDK_embedded/libs/stm32/STM32F10x_StdPeriph_Driver/stm32f10x_flash.c ****     
 436:../../../SDK_embedded/libs/stm32/STM32F10x_StdPeriph_Driver/stm32f10x_flash.c ****       /* Wait for last operation to be completed */
 437:../../../SDK_embedded/libs/stm32/STM32F10x_StdPeriph_Driver/stm32f10x_flash.c ****       status = FLASH_WaitForLastBank1Operation(EraseTimeout);
 438:../../../SDK_embedded/libs/stm32/STM32F10x_StdPeriph_Driver/stm32f10x_flash.c ****       if(status != FLASH_TIMEOUT)
 439:../../../SDK_embedded/libs/stm32/STM32F10x_StdPeriph_Driver/stm32f10x_flash.c ****       {
 440:../../../SDK_embedded/libs/stm32/STM32F10x_StdPeriph_Driver/stm32f10x_flash.c ****         /* if the erase operation is completed, disable the PER Bit */
 441:../../../SDK_embedded/libs/stm32/STM32F10x_StdPeriph_Driver/stm32f10x_flash.c ****         FLASH->CR &= CR_PER_Reset;
 442:../../../SDK_embedded/libs/stm32/STM32F10x_StdPeriph_Driver/stm32f10x_flash.c ****       }
 443:../../../SDK_embedded/libs/stm32/STM32F10x_StdPeriph_Driver/stm32f10x_flash.c ****     }
 444:../../../SDK_embedded/libs/stm32/STM32F10x_StdPeriph_Driver/stm32f10x_flash.c ****   }
 445:../../../SDK_embedded/libs/stm32/STM32F10x_StdPeriph_Driver/stm32f10x_flash.c ****   else
 446:../../../SDK_embedded/libs/stm32/STM32F10x_StdPeriph_Driver/stm32f10x_flash.c ****   {
 447:../../../SDK_embedded/libs/stm32/STM32F10x_StdPeriph_Driver/stm32f10x_flash.c ****     /* Wait for last operation to be completed */
 448:../../../SDK_embedded/libs/stm32/STM32F10x_StdPeriph_Driver/stm32f10x_flash.c ****     status = FLASH_WaitForLastBank2Operation(EraseTimeout);
 449:../../../SDK_embedded/libs/stm32/STM32F10x_StdPeriph_Driver/stm32f10x_flash.c ****     if(status == FLASH_COMPLETE)
 450:../../../SDK_embedded/libs/stm32/STM32F10x_StdPeriph_Driver/stm32f10x_flash.c ****     { 
 451:../../../SDK_embedded/libs/stm32/STM32F10x_StdPeriph_Driver/stm32f10x_flash.c ****       /* if the previous operation is completed, proceed to erase the page */
 452:../../../SDK_embedded/libs/stm32/STM32F10x_StdPeriph_Driver/stm32f10x_flash.c ****       FLASH->CR2|= CR_PER_Set;
 453:../../../SDK_embedded/libs/stm32/STM32F10x_StdPeriph_Driver/stm32f10x_flash.c ****       FLASH->AR2 = Page_Address; 
 454:../../../SDK_embedded/libs/stm32/STM32F10x_StdPeriph_Driver/stm32f10x_flash.c ****       FLASH->CR2|= CR_STRT_Set;
 455:../../../SDK_embedded/libs/stm32/STM32F10x_StdPeriph_Driver/stm32f10x_flash.c ****     
 456:../../../SDK_embedded/libs/stm32/STM32F10x_StdPeriph_Driver/stm32f10x_flash.c ****       /* Wait for last operation to be completed */
 457:../../../SDK_embedded/libs/stm32/STM32F10x_StdPeriph_Driver/stm32f10x_flash.c ****       status = FLASH_WaitForLastBank2Operation(EraseTimeout);
 458:../../../SDK_embedded/libs/stm32/STM32F10x_StdPeriph_Driver/stm32f10x_flash.c ****       if(status != FLASH_TIMEOUT)
 459:../../../SDK_embedded/libs/stm32/STM32F10x_StdPeriph_Driver/stm32f10x_flash.c ****       {
 460:../../../SDK_embedded/libs/stm32/STM32F10x_StdPeriph_Driver/stm32f10x_flash.c ****         /* if the erase operation is completed, disable the PER Bit */
 461:../../../SDK_embedded/libs/stm32/STM32F10x_StdPeriph_Driver/stm32f10x_flash.c ****         FLASH->CR2 &= CR_PER_Reset;
 462:../../../SDK_embedded/libs/stm32/STM32F10x_StdPeriph_Driver/stm32f10x_flash.c ****       }
 463:../../../SDK_embedded/libs/stm32/STM32F10x_StdPeriph_Driver/stm32f10x_flash.c ****     }
 464:../../../SDK_embedded/libs/stm32/STM32F10x_StdPeriph_Driver/stm32f10x_flash.c ****   }
 465:../../../SDK_embedded/libs/stm32/STM32F10x_StdPeriph_Driver/stm32f10x_flash.c **** #else
 466:../../../SDK_embedded/libs/stm32/STM32F10x_StdPeriph_Driver/stm32f10x_flash.c ****   /* Wait for last operation to be completed */
 467:../../../SDK_embedded/libs/stm32/STM32F10x_StdPeriph_Driver/stm32f10x_flash.c ****   status = FLASH_WaitForLastOperation(EraseTimeout);
 468:../../../SDK_embedded/libs/stm32/STM32F10x_StdPeriph_Driver/stm32f10x_flash.c ****   
 469:../../../SDK_embedded/libs/stm32/STM32F10x_StdPeriph_Driver/stm32f10x_flash.c ****   if(status == FLASH_COMPLETE)
 470:../../../SDK_embedded/libs/stm32/STM32F10x_StdPeriph_Driver/stm32f10x_flash.c ****   { 
 471:../../../SDK_embedded/libs/stm32/STM32F10x_StdPeriph_Driver/stm32f10x_flash.c ****     /* if the previous operation is completed, proceed to erase the page */
 472:../../../SDK_embedded/libs/stm32/STM32F10x_StdPeriph_Driver/stm32f10x_flash.c ****     FLASH->CR|= CR_PER_Set;
 473:../../../SDK_embedded/libs/stm32/STM32F10x_StdPeriph_Driver/stm32f10x_flash.c ****     FLASH->AR = Page_Address; 
 474:../../../SDK_embedded/libs/stm32/STM32F10x_StdPeriph_Driver/stm32f10x_flash.c ****     FLASH->CR|= CR_STRT_Set;
 475:../../../SDK_embedded/libs/stm32/STM32F10x_StdPeriph_Driver/stm32f10x_flash.c ****     
 476:../../../SDK_embedded/libs/stm32/STM32F10x_StdPeriph_Driver/stm32f10x_flash.c ****     /* Wait for last operation to be completed */
 477:../../../SDK_embedded/libs/stm32/STM32F10x_StdPeriph_Driver/stm32f10x_flash.c ****     status = FLASH_WaitForLastOperation(EraseTimeout);
 478:../../../SDK_embedded/libs/stm32/STM32F10x_StdPeriph_Driver/stm32f10x_flash.c ****     if(status != FLASH_TIMEOUT)
 479:../../../SDK_embedded/libs/stm32/STM32F10x_StdPeriph_Driver/stm32f10x_flash.c ****     {
 480:../../../SDK_embedded/libs/stm32/STM32F10x_StdPeriph_Driver/stm32f10x_flash.c ****       /* if the erase operation is completed, disable the PER Bit */
 481:../../../SDK_embedded/libs/stm32/STM32F10x_StdPeriph_Driver/stm32f10x_flash.c ****       FLASH->CR &= CR_PER_Reset;
 482:../../../SDK_embedded/libs/stm32/STM32F10x_StdPeriph_Driver/stm32f10x_flash.c ****     }
 483:../../../SDK_embedded/libs/stm32/STM32F10x_StdPeriph_Driver/stm32f10x_flash.c ****   }
 484:../../../SDK_embedded/libs/stm32/STM32F10x_StdPeriph_Driver/stm32f10x_flash.c **** #endif /* STM32F10X_XL */
 485:../../../SDK_embedded/libs/stm32/STM32F10x_StdPeriph_Driver/stm32f10x_flash.c **** 
 486:../../../SDK_embedded/libs/stm32/STM32F10x_StdPeriph_Driver/stm32f10x_flash.c ****   /* Return the Erase Status */
 487:../../../SDK_embedded/libs/stm32/STM32F10x_StdPeriph_Driver/stm32f10x_flash.c ****   return status;
 488:../../../SDK_embedded/libs/stm32/STM32F10x_StdPeriph_Driver/stm32f10x_flash.c **** }
 489:../../../SDK_embedded/libs/stm32/STM32F10x_StdPeriph_Driver/stm32f10x_flash.c **** 
 490:../../../SDK_embedded/libs/stm32/STM32F10x_StdPeriph_Driver/stm32f10x_flash.c **** /**
 491:../../../SDK_embedded/libs/stm32/STM32F10x_StdPeriph_Driver/stm32f10x_flash.c ****   * @brief  Erases all FLASH pages.
 492:../../../SDK_embedded/libs/stm32/STM32F10x_StdPeriph_Driver/stm32f10x_flash.c ****   * @note   This function can be used for all STM32F10x devices.
 493:../../../SDK_embedded/libs/stm32/STM32F10x_StdPeriph_Driver/stm32f10x_flash.c ****   * @param  None
 494:../../../SDK_embedded/libs/stm32/STM32F10x_StdPeriph_Driver/stm32f10x_flash.c ****   * @retval FLASH Status: The returned value can be: FLASH_ERROR_PG,
 495:../../../SDK_embedded/libs/stm32/STM32F10x_StdPeriph_Driver/stm32f10x_flash.c ****   *   FLASH_ERROR_WRP, FLASH_COMPLETE or FLASH_TIMEOUT.
 496:../../../SDK_embedded/libs/stm32/STM32F10x_StdPeriph_Driver/stm32f10x_flash.c ****   */
 497:../../../SDK_embedded/libs/stm32/STM32F10x_StdPeriph_Driver/stm32f10x_flash.c **** FLASH_Status FLASH_EraseAllPages(void)
 498:../../../SDK_embedded/libs/stm32/STM32F10x_StdPeriph_Driver/stm32f10x_flash.c **** {
 499:../../../SDK_embedded/libs/stm32/STM32F10x_StdPeriph_Driver/stm32f10x_flash.c ****   FLASH_Status status = FLASH_COMPLETE;
 500:../../../SDK_embedded/libs/stm32/STM32F10x_StdPeriph_Driver/stm32f10x_flash.c **** 
 501:../../../SDK_embedded/libs/stm32/STM32F10x_StdPeriph_Driver/stm32f10x_flash.c **** #ifdef STM32F10X_XL
 502:../../../SDK_embedded/libs/stm32/STM32F10x_StdPeriph_Driver/stm32f10x_flash.c ****   /* Wait for last operation to be completed */
 503:../../../SDK_embedded/libs/stm32/STM32F10x_StdPeriph_Driver/stm32f10x_flash.c ****   status = FLASH_WaitForLastBank1Operation(EraseTimeout);
 504:../../../SDK_embedded/libs/stm32/STM32F10x_StdPeriph_Driver/stm32f10x_flash.c ****   
 505:../../../SDK_embedded/libs/stm32/STM32F10x_StdPeriph_Driver/stm32f10x_flash.c ****   if(status == FLASH_COMPLETE)
 506:../../../SDK_embedded/libs/stm32/STM32F10x_StdPeriph_Driver/stm32f10x_flash.c ****   {
 507:../../../SDK_embedded/libs/stm32/STM32F10x_StdPeriph_Driver/stm32f10x_flash.c ****     /* if the previous operation is completed, proceed to erase all pages */
 508:../../../SDK_embedded/libs/stm32/STM32F10x_StdPeriph_Driver/stm32f10x_flash.c ****      FLASH->CR |= CR_MER_Set;
 509:../../../SDK_embedded/libs/stm32/STM32F10x_StdPeriph_Driver/stm32f10x_flash.c ****      FLASH->CR |= CR_STRT_Set;
 510:../../../SDK_embedded/libs/stm32/STM32F10x_StdPeriph_Driver/stm32f10x_flash.c ****     
 511:../../../SDK_embedded/libs/stm32/STM32F10x_StdPeriph_Driver/stm32f10x_flash.c ****     /* Wait for last operation to be completed */
 512:../../../SDK_embedded/libs/stm32/STM32F10x_StdPeriph_Driver/stm32f10x_flash.c ****     status = FLASH_WaitForLastBank1Operation(EraseTimeout);
 513:../../../SDK_embedded/libs/stm32/STM32F10x_StdPeriph_Driver/stm32f10x_flash.c ****     if(status != FLASH_TIMEOUT)
 514:../../../SDK_embedded/libs/stm32/STM32F10x_StdPeriph_Driver/stm32f10x_flash.c ****     {
 515:../../../SDK_embedded/libs/stm32/STM32F10x_StdPeriph_Driver/stm32f10x_flash.c ****       /* if the erase operation is completed, disable the MER Bit */
 516:../../../SDK_embedded/libs/stm32/STM32F10x_StdPeriph_Driver/stm32f10x_flash.c ****       FLASH->CR &= CR_MER_Reset;
 517:../../../SDK_embedded/libs/stm32/STM32F10x_StdPeriph_Driver/stm32f10x_flash.c ****     }
 518:../../../SDK_embedded/libs/stm32/STM32F10x_StdPeriph_Driver/stm32f10x_flash.c ****   }    
 519:../../../SDK_embedded/libs/stm32/STM32F10x_StdPeriph_Driver/stm32f10x_flash.c ****   if(status == FLASH_COMPLETE)
 520:../../../SDK_embedded/libs/stm32/STM32F10x_StdPeriph_Driver/stm32f10x_flash.c ****   {
 521:../../../SDK_embedded/libs/stm32/STM32F10x_StdPeriph_Driver/stm32f10x_flash.c ****     /* if the previous operation is completed, proceed to erase all pages */
 522:../../../SDK_embedded/libs/stm32/STM32F10x_StdPeriph_Driver/stm32f10x_flash.c ****      FLASH->CR2 |= CR_MER_Set;
 523:../../../SDK_embedded/libs/stm32/STM32F10x_StdPeriph_Driver/stm32f10x_flash.c ****      FLASH->CR2 |= CR_STRT_Set;
 524:../../../SDK_embedded/libs/stm32/STM32F10x_StdPeriph_Driver/stm32f10x_flash.c ****     
 525:../../../SDK_embedded/libs/stm32/STM32F10x_StdPeriph_Driver/stm32f10x_flash.c ****     /* Wait for last operation to be completed */
 526:../../../SDK_embedded/libs/stm32/STM32F10x_StdPeriph_Driver/stm32f10x_flash.c ****     status = FLASH_WaitForLastBank2Operation(EraseTimeout);
 527:../../../SDK_embedded/libs/stm32/STM32F10x_StdPeriph_Driver/stm32f10x_flash.c ****     if(status != FLASH_TIMEOUT)
 528:../../../SDK_embedded/libs/stm32/STM32F10x_StdPeriph_Driver/stm32f10x_flash.c ****     {
 529:../../../SDK_embedded/libs/stm32/STM32F10x_StdPeriph_Driver/stm32f10x_flash.c ****       /* if the erase operation is completed, disable the MER Bit */
 530:../../../SDK_embedded/libs/stm32/STM32F10x_StdPeriph_Driver/stm32f10x_flash.c ****       FLASH->CR2 &= CR_MER_Reset;
 531:../../../SDK_embedded/libs/stm32/STM32F10x_StdPeriph_Driver/stm32f10x_flash.c ****     }
 532:../../../SDK_embedded/libs/stm32/STM32F10x_StdPeriph_Driver/stm32f10x_flash.c ****   }
 533:../../../SDK_embedded/libs/stm32/STM32F10x_StdPeriph_Driver/stm32f10x_flash.c **** #else
 534:../../../SDK_embedded/libs/stm32/STM32F10x_StdPeriph_Driver/stm32f10x_flash.c ****   /* Wait for last operation to be completed */
 535:../../../SDK_embedded/libs/stm32/STM32F10x_StdPeriph_Driver/stm32f10x_flash.c ****   status = FLASH_WaitForLastOperation(EraseTimeout);
 536:../../../SDK_embedded/libs/stm32/STM32F10x_StdPeriph_Driver/stm32f10x_flash.c ****   if(status == FLASH_COMPLETE)
 537:../../../SDK_embedded/libs/stm32/STM32F10x_StdPeriph_Driver/stm32f10x_flash.c ****   {
 538:../../../SDK_embedded/libs/stm32/STM32F10x_StdPeriph_Driver/stm32f10x_flash.c ****     /* if the previous operation is completed, proceed to erase all pages */
 539:../../../SDK_embedded/libs/stm32/STM32F10x_StdPeriph_Driver/stm32f10x_flash.c ****      FLASH->CR |= CR_MER_Set;
 540:../../../SDK_embedded/libs/stm32/STM32F10x_StdPeriph_Driver/stm32f10x_flash.c ****      FLASH->CR |= CR_STRT_Set;
 541:../../../SDK_embedded/libs/stm32/STM32F10x_StdPeriph_Driver/stm32f10x_flash.c ****     
 542:../../../SDK_embedded/libs/stm32/STM32F10x_StdPeriph_Driver/stm32f10x_flash.c ****     /* Wait for last operation to be completed */
 543:../../../SDK_embedded/libs/stm32/STM32F10x_StdPeriph_Driver/stm32f10x_flash.c ****     status = FLASH_WaitForLastOperation(EraseTimeout);
 544:../../../SDK_embedded/libs/stm32/STM32F10x_StdPeriph_Driver/stm32f10x_flash.c ****     if(status != FLASH_TIMEOUT)
 545:../../../SDK_embedded/libs/stm32/STM32F10x_StdPeriph_Driver/stm32f10x_flash.c ****     {
 546:../../../SDK_embedded/libs/stm32/STM32F10x_StdPeriph_Driver/stm32f10x_flash.c ****       /* if the erase operation is completed, disable the MER Bit */
 547:../../../SDK_embedded/libs/stm32/STM32F10x_StdPeriph_Driver/stm32f10x_flash.c ****       FLASH->CR &= CR_MER_Reset;
 548:../../../SDK_embedded/libs/stm32/STM32F10x_StdPeriph_Driver/stm32f10x_flash.c ****     }
 549:../../../SDK_embedded/libs/stm32/STM32F10x_StdPeriph_Driver/stm32f10x_flash.c ****   }
 550:../../../SDK_embedded/libs/stm32/STM32F10x_StdPeriph_Driver/stm32f10x_flash.c **** #endif /* STM32F10X_XL */
 551:../../../SDK_embedded/libs/stm32/STM32F10x_StdPeriph_Driver/stm32f10x_flash.c **** 
 552:../../../SDK_embedded/libs/stm32/STM32F10x_StdPeriph_Driver/stm32f10x_flash.c ****   /* Return the Erase Status */
 553:../../../SDK_embedded/libs/stm32/STM32F10x_StdPeriph_Driver/stm32f10x_flash.c ****   return status;
 554:../../../SDK_embedded/libs/stm32/STM32F10x_StdPeriph_Driver/stm32f10x_flash.c **** }
 555:../../../SDK_embedded/libs/stm32/STM32F10x_StdPeriph_Driver/stm32f10x_flash.c **** 
 556:../../../SDK_embedded/libs/stm32/STM32F10x_StdPeriph_Driver/stm32f10x_flash.c **** /**
 557:../../../SDK_embedded/libs/stm32/STM32F10x_StdPeriph_Driver/stm32f10x_flash.c ****   * @brief  Erases all Bank1 FLASH pages.
 558:../../../SDK_embedded/libs/stm32/STM32F10x_StdPeriph_Driver/stm32f10x_flash.c ****   * @note   This function can be used for all STM32F10x devices.
 559:../../../SDK_embedded/libs/stm32/STM32F10x_StdPeriph_Driver/stm32f10x_flash.c ****   *         - For STM32F10X_XL devices this function erases all Bank1 pages.
 560:../../../SDK_embedded/libs/stm32/STM32F10x_StdPeriph_Driver/stm32f10x_flash.c ****   *         - For all other devices it erases all Bank1 pages and it is equivalent 
 561:../../../SDK_embedded/libs/stm32/STM32F10x_StdPeriph_Driver/stm32f10x_flash.c ****   *           to FLASH_EraseAllPages function.
 562:../../../SDK_embedded/libs/stm32/STM32F10x_StdPeriph_Driver/stm32f10x_flash.c ****   * @param  None
 563:../../../SDK_embedded/libs/stm32/STM32F10x_StdPeriph_Driver/stm32f10x_flash.c ****   * @retval FLASH Status: The returned value can be: FLASH_ERROR_PG,
 564:../../../SDK_embedded/libs/stm32/STM32F10x_StdPeriph_Driver/stm32f10x_flash.c ****   *   FLASH_ERROR_WRP, FLASH_COMPLETE or FLASH_TIMEOUT.
 565:../../../SDK_embedded/libs/stm32/STM32F10x_StdPeriph_Driver/stm32f10x_flash.c ****   */
 566:../../../SDK_embedded/libs/stm32/STM32F10x_StdPeriph_Driver/stm32f10x_flash.c **** FLASH_Status FLASH_EraseAllBank1Pages(void)
 567:../../../SDK_embedded/libs/stm32/STM32F10x_StdPeriph_Driver/stm32f10x_flash.c **** {
 568:../../../SDK_embedded/libs/stm32/STM32F10x_StdPeriph_Driver/stm32f10x_flash.c ****   FLASH_Status status = FLASH_COMPLETE;
 569:../../../SDK_embedded/libs/stm32/STM32F10x_StdPeriph_Driver/stm32f10x_flash.c ****   /* Wait for last operation to be completed */
 570:../../../SDK_embedded/libs/stm32/STM32F10x_StdPeriph_Driver/stm32f10x_flash.c ****   status = FLASH_WaitForLastBank1Operation(EraseTimeout);
 571:../../../SDK_embedded/libs/stm32/STM32F10x_StdPeriph_Driver/stm32f10x_flash.c ****   
 572:../../../SDK_embedded/libs/stm32/STM32F10x_StdPeriph_Driver/stm32f10x_flash.c ****   if(status == FLASH_COMPLETE)
 573:../../../SDK_embedded/libs/stm32/STM32F10x_StdPeriph_Driver/stm32f10x_flash.c ****   {
 574:../../../SDK_embedded/libs/stm32/STM32F10x_StdPeriph_Driver/stm32f10x_flash.c ****     /* if the previous operation is completed, proceed to erase all pages */
 575:../../../SDK_embedded/libs/stm32/STM32F10x_StdPeriph_Driver/stm32f10x_flash.c ****      FLASH->CR |= CR_MER_Set;
 576:../../../SDK_embedded/libs/stm32/STM32F10x_StdPeriph_Driver/stm32f10x_flash.c ****      FLASH->CR |= CR_STRT_Set;
 577:../../../SDK_embedded/libs/stm32/STM32F10x_StdPeriph_Driver/stm32f10x_flash.c ****     
 578:../../../SDK_embedded/libs/stm32/STM32F10x_StdPeriph_Driver/stm32f10x_flash.c ****     /* Wait for last operation to be completed */
 579:../../../SDK_embedded/libs/stm32/STM32F10x_StdPeriph_Driver/stm32f10x_flash.c ****     status = FLASH_WaitForLastBank1Operation(EraseTimeout);
 580:../../../SDK_embedded/libs/stm32/STM32F10x_StdPeriph_Driver/stm32f10x_flash.c ****     if(status != FLASH_TIMEOUT)
 581:../../../SDK_embedded/libs/stm32/STM32F10x_StdPeriph_Driver/stm32f10x_flash.c ****     {
 582:../../../SDK_embedded/libs/stm32/STM32F10x_StdPeriph_Driver/stm32f10x_flash.c ****       /* if the erase operation is completed, disable the MER Bit */
 583:../../../SDK_embedded/libs/stm32/STM32F10x_StdPeriph_Driver/stm32f10x_flash.c ****       FLASH->CR &= CR_MER_Reset;
 584:../../../SDK_embedded/libs/stm32/STM32F10x_StdPeriph_Driver/stm32f10x_flash.c ****     }
 585:../../../SDK_embedded/libs/stm32/STM32F10x_StdPeriph_Driver/stm32f10x_flash.c ****   }    
 586:../../../SDK_embedded/libs/stm32/STM32F10x_StdPeriph_Driver/stm32f10x_flash.c ****   /* Return the Erase Status */
 587:../../../SDK_embedded/libs/stm32/STM32F10x_StdPeriph_Driver/stm32f10x_flash.c ****   return status;
 588:../../../SDK_embedded/libs/stm32/STM32F10x_StdPeriph_Driver/stm32f10x_flash.c **** }
 589:../../../SDK_embedded/libs/stm32/STM32F10x_StdPeriph_Driver/stm32f10x_flash.c **** 
 590:../../../SDK_embedded/libs/stm32/STM32F10x_StdPeriph_Driver/stm32f10x_flash.c **** #ifdef STM32F10X_XL
 591:../../../SDK_embedded/libs/stm32/STM32F10x_StdPeriph_Driver/stm32f10x_flash.c **** /**
 592:../../../SDK_embedded/libs/stm32/STM32F10x_StdPeriph_Driver/stm32f10x_flash.c ****   * @brief  Erases all Bank2 FLASH pages.
 593:../../../SDK_embedded/libs/stm32/STM32F10x_StdPeriph_Driver/stm32f10x_flash.c ****   * @note   This function can be used only for STM32F10x_XL density devices.
 594:../../../SDK_embedded/libs/stm32/STM32F10x_StdPeriph_Driver/stm32f10x_flash.c ****   * @param  None
 595:../../../SDK_embedded/libs/stm32/STM32F10x_StdPeriph_Driver/stm32f10x_flash.c ****   * @retval FLASH Status: The returned value can be: FLASH_ERROR_PG,
 596:../../../SDK_embedded/libs/stm32/STM32F10x_StdPeriph_Driver/stm32f10x_flash.c ****   *   FLASH_ERROR_WRP, FLASH_COMPLETE or FLASH_TIMEOUT.
 597:../../../SDK_embedded/libs/stm32/STM32F10x_StdPeriph_Driver/stm32f10x_flash.c ****   */
 598:../../../SDK_embedded/libs/stm32/STM32F10x_StdPeriph_Driver/stm32f10x_flash.c **** FLASH_Status FLASH_EraseAllBank2Pages(void)
 599:../../../SDK_embedded/libs/stm32/STM32F10x_StdPeriph_Driver/stm32f10x_flash.c **** {
 600:../../../SDK_embedded/libs/stm32/STM32F10x_StdPeriph_Driver/stm32f10x_flash.c ****   FLASH_Status status = FLASH_COMPLETE;
 601:../../../SDK_embedded/libs/stm32/STM32F10x_StdPeriph_Driver/stm32f10x_flash.c ****   /* Wait for last operation to be completed */
 602:../../../SDK_embedded/libs/stm32/STM32F10x_StdPeriph_Driver/stm32f10x_flash.c ****   status = FLASH_WaitForLastBank2Operation(EraseTimeout);
 603:../../../SDK_embedded/libs/stm32/STM32F10x_StdPeriph_Driver/stm32f10x_flash.c ****   
 604:../../../SDK_embedded/libs/stm32/STM32F10x_StdPeriph_Driver/stm32f10x_flash.c ****   if(status == FLASH_COMPLETE)
 605:../../../SDK_embedded/libs/stm32/STM32F10x_StdPeriph_Driver/stm32f10x_flash.c ****   {
 606:../../../SDK_embedded/libs/stm32/STM32F10x_StdPeriph_Driver/stm32f10x_flash.c ****     /* if the previous operation is completed, proceed to erase all pages */
 607:../../../SDK_embedded/libs/stm32/STM32F10x_StdPeriph_Driver/stm32f10x_flash.c ****      FLASH->CR2 |= CR_MER_Set;
 608:../../../SDK_embedded/libs/stm32/STM32F10x_StdPeriph_Driver/stm32f10x_flash.c ****      FLASH->CR2 |= CR_STRT_Set;
 609:../../../SDK_embedded/libs/stm32/STM32F10x_StdPeriph_Driver/stm32f10x_flash.c ****     
 610:../../../SDK_embedded/libs/stm32/STM32F10x_StdPeriph_Driver/stm32f10x_flash.c ****     /* Wait for last operation to be completed */
 611:../../../SDK_embedded/libs/stm32/STM32F10x_StdPeriph_Driver/stm32f10x_flash.c ****     status = FLASH_WaitForLastBank2Operation(EraseTimeout);
 612:../../../SDK_embedded/libs/stm32/STM32F10x_StdPeriph_Driver/stm32f10x_flash.c ****     if(status != FLASH_TIMEOUT)
 613:../../../SDK_embedded/libs/stm32/STM32F10x_StdPeriph_Driver/stm32f10x_flash.c ****     {
 614:../../../SDK_embedded/libs/stm32/STM32F10x_StdPeriph_Driver/stm32f10x_flash.c ****       /* if the erase operation is completed, disable the MER Bit */
 615:../../../SDK_embedded/libs/stm32/STM32F10x_StdPeriph_Driver/stm32f10x_flash.c ****       FLASH->CR2 &= CR_MER_Reset;
 616:../../../SDK_embedded/libs/stm32/STM32F10x_StdPeriph_Driver/stm32f10x_flash.c ****     }
 617:../../../SDK_embedded/libs/stm32/STM32F10x_StdPeriph_Driver/stm32f10x_flash.c ****   }    
 618:../../../SDK_embedded/libs/stm32/STM32F10x_StdPeriph_Driver/stm32f10x_flash.c ****   /* Return the Erase Status */
 619:../../../SDK_embedded/libs/stm32/STM32F10x_StdPeriph_Driver/stm32f10x_flash.c ****   return status;
 620:../../../SDK_embedded/libs/stm32/STM32F10x_StdPeriph_Driver/stm32f10x_flash.c **** }
 621:../../../SDK_embedded/libs/stm32/STM32F10x_StdPeriph_Driver/stm32f10x_flash.c **** #endif /* STM32F10X_XL */
 622:../../../SDK_embedded/libs/stm32/STM32F10x_StdPeriph_Driver/stm32f10x_flash.c **** 
 623:../../../SDK_embedded/libs/stm32/STM32F10x_StdPeriph_Driver/stm32f10x_flash.c **** /**
 624:../../../SDK_embedded/libs/stm32/STM32F10x_StdPeriph_Driver/stm32f10x_flash.c ****   * @brief  Erases the FLASH option bytes.
 625:../../../SDK_embedded/libs/stm32/STM32F10x_StdPeriph_Driver/stm32f10x_flash.c ****   * @note   This functions erases all option bytes except the Read protection (RDP). 
 626:../../../SDK_embedded/libs/stm32/STM32F10x_StdPeriph_Driver/stm32f10x_flash.c ****   * @note   This function can be used for all STM32F10x devices.
 627:../../../SDK_embedded/libs/stm32/STM32F10x_StdPeriph_Driver/stm32f10x_flash.c ****   * @param  None
 628:../../../SDK_embedded/libs/stm32/STM32F10x_StdPeriph_Driver/stm32f10x_flash.c ****   * @retval FLASH Status: The returned value can be: FLASH_ERROR_PG,
 629:../../../SDK_embedded/libs/stm32/STM32F10x_StdPeriph_Driver/stm32f10x_flash.c ****   *   FLASH_ERROR_WRP, FLASH_COMPLETE or FLASH_TIMEOUT.
 630:../../../SDK_embedded/libs/stm32/STM32F10x_StdPeriph_Driver/stm32f10x_flash.c ****   */
 631:../../../SDK_embedded/libs/stm32/STM32F10x_StdPeriph_Driver/stm32f10x_flash.c **** FLASH_Status FLASH_EraseOptionBytes(void)
 632:../../../SDK_embedded/libs/stm32/STM32F10x_StdPeriph_Driver/stm32f10x_flash.c **** {
 633:../../../SDK_embedded/libs/stm32/STM32F10x_StdPeriph_Driver/stm32f10x_flash.c ****   uint16_t rdptmp = RDP_Key;
 634:../../../SDK_embedded/libs/stm32/STM32F10x_StdPeriph_Driver/stm32f10x_flash.c **** 
 635:../../../SDK_embedded/libs/stm32/STM32F10x_StdPeriph_Driver/stm32f10x_flash.c ****   FLASH_Status status = FLASH_COMPLETE;
 636:../../../SDK_embedded/libs/stm32/STM32F10x_StdPeriph_Driver/stm32f10x_flash.c **** 
 637:../../../SDK_embedded/libs/stm32/STM32F10x_StdPeriph_Driver/stm32f10x_flash.c ****   /* Get the actual read protection Option Byte value */ 
 638:../../../SDK_embedded/libs/stm32/STM32F10x_StdPeriph_Driver/stm32f10x_flash.c ****   if(FLASH_GetReadOutProtectionStatus() != RESET)
 639:../../../SDK_embedded/libs/stm32/STM32F10x_StdPeriph_Driver/stm32f10x_flash.c ****   {
 640:../../../SDK_embedded/libs/stm32/STM32F10x_StdPeriph_Driver/stm32f10x_flash.c ****     rdptmp = 0x00;  
 641:../../../SDK_embedded/libs/stm32/STM32F10x_StdPeriph_Driver/stm32f10x_flash.c ****   }
 642:../../../SDK_embedded/libs/stm32/STM32F10x_StdPeriph_Driver/stm32f10x_flash.c **** 
 643:../../../SDK_embedded/libs/stm32/STM32F10x_StdPeriph_Driver/stm32f10x_flash.c ****   /* Wait for last operation to be completed */
 644:../../../SDK_embedded/libs/stm32/STM32F10x_StdPeriph_Driver/stm32f10x_flash.c ****   status = FLASH_WaitForLastOperation(EraseTimeout);
 645:../../../SDK_embedded/libs/stm32/STM32F10x_StdPeriph_Driver/stm32f10x_flash.c ****   if(status == FLASH_COMPLETE)
 646:../../../SDK_embedded/libs/stm32/STM32F10x_StdPeriph_Driver/stm32f10x_flash.c ****   {
 647:../../../SDK_embedded/libs/stm32/STM32F10x_StdPeriph_Driver/stm32f10x_flash.c ****     /* Authorize the small information block programming */
 648:../../../SDK_embedded/libs/stm32/STM32F10x_StdPeriph_Driver/stm32f10x_flash.c ****     FLASH->OPTKEYR = FLASH_KEY1;
 649:../../../SDK_embedded/libs/stm32/STM32F10x_StdPeriph_Driver/stm32f10x_flash.c ****     FLASH->OPTKEYR = FLASH_KEY2;
 650:../../../SDK_embedded/libs/stm32/STM32F10x_StdPeriph_Driver/stm32f10x_flash.c ****     
 651:../../../SDK_embedded/libs/stm32/STM32F10x_StdPeriph_Driver/stm32f10x_flash.c ****     /* if the previous operation is completed, proceed to erase the option bytes */
 652:../../../SDK_embedded/libs/stm32/STM32F10x_StdPeriph_Driver/stm32f10x_flash.c ****     FLASH->CR |= CR_OPTER_Set;
 653:../../../SDK_embedded/libs/stm32/STM32F10x_StdPeriph_Driver/stm32f10x_flash.c ****     FLASH->CR |= CR_STRT_Set;
 654:../../../SDK_embedded/libs/stm32/STM32F10x_StdPeriph_Driver/stm32f10x_flash.c ****     /* Wait for last operation to be completed */
 655:../../../SDK_embedded/libs/stm32/STM32F10x_StdPeriph_Driver/stm32f10x_flash.c ****     status = FLASH_WaitForLastOperation(EraseTimeout);
 656:../../../SDK_embedded/libs/stm32/STM32F10x_StdPeriph_Driver/stm32f10x_flash.c ****     
 657:../../../SDK_embedded/libs/stm32/STM32F10x_StdPeriph_Driver/stm32f10x_flash.c ****     if(status == FLASH_COMPLETE)
 658:../../../SDK_embedded/libs/stm32/STM32F10x_StdPeriph_Driver/stm32f10x_flash.c ****     {
 659:../../../SDK_embedded/libs/stm32/STM32F10x_StdPeriph_Driver/stm32f10x_flash.c ****       /* if the erase operation is completed, disable the OPTER Bit */
 660:../../../SDK_embedded/libs/stm32/STM32F10x_StdPeriph_Driver/stm32f10x_flash.c ****       FLASH->CR &= CR_OPTER_Reset;
 661:../../../SDK_embedded/libs/stm32/STM32F10x_StdPeriph_Driver/stm32f10x_flash.c ****        
 662:../../../SDK_embedded/libs/stm32/STM32F10x_StdPeriph_Driver/stm32f10x_flash.c ****       /* Enable the Option Bytes Programming operation */
 663:../../../SDK_embedded/libs/stm32/STM32F10x_StdPeriph_Driver/stm32f10x_flash.c ****       FLASH->CR |= CR_OPTPG_Set;
 664:../../../SDK_embedded/libs/stm32/STM32F10x_StdPeriph_Driver/stm32f10x_flash.c ****       /* Restore the last read protection Option Byte value */
 665:../../../SDK_embedded/libs/stm32/STM32F10x_StdPeriph_Driver/stm32f10x_flash.c ****       OB->RDP = (uint16_t)rdptmp; 
 666:../../../SDK_embedded/libs/stm32/STM32F10x_StdPeriph_Driver/stm32f10x_flash.c ****       /* Wait for last operation to be completed */
 667:../../../SDK_embedded/libs/stm32/STM32F10x_StdPeriph_Driver/stm32f10x_flash.c ****       status = FLASH_WaitForLastOperation(ProgramTimeout);
 668:../../../SDK_embedded/libs/stm32/STM32F10x_StdPeriph_Driver/stm32f10x_flash.c ****  
 669:../../../SDK_embedded/libs/stm32/STM32F10x_StdPeriph_Driver/stm32f10x_flash.c ****       if(status != FLASH_TIMEOUT)
 670:../../../SDK_embedded/libs/stm32/STM32F10x_StdPeriph_Driver/stm32f10x_flash.c ****       {
 671:../../../SDK_embedded/libs/stm32/STM32F10x_StdPeriph_Driver/stm32f10x_flash.c ****         /* if the program operation is completed, disable the OPTPG Bit */
 672:../../../SDK_embedded/libs/stm32/STM32F10x_StdPeriph_Driver/stm32f10x_flash.c ****         FLASH->CR &= CR_OPTPG_Reset;
 673:../../../SDK_embedded/libs/stm32/STM32F10x_StdPeriph_Driver/stm32f10x_flash.c ****       }
 674:../../../SDK_embedded/libs/stm32/STM32F10x_StdPeriph_Driver/stm32f10x_flash.c ****     }
 675:../../../SDK_embedded/libs/stm32/STM32F10x_StdPeriph_Driver/stm32f10x_flash.c ****     else
 676:../../../SDK_embedded/libs/stm32/STM32F10x_StdPeriph_Driver/stm32f10x_flash.c ****     {
 677:../../../SDK_embedded/libs/stm32/STM32F10x_StdPeriph_Driver/stm32f10x_flash.c ****       if (status != FLASH_TIMEOUT)
 678:../../../SDK_embedded/libs/stm32/STM32F10x_StdPeriph_Driver/stm32f10x_flash.c ****       {
 679:../../../SDK_embedded/libs/stm32/STM32F10x_StdPeriph_Driver/stm32f10x_flash.c ****         /* Disable the OPTPG Bit */
 680:../../../SDK_embedded/libs/stm32/STM32F10x_StdPeriph_Driver/stm32f10x_flash.c ****         FLASH->CR &= CR_OPTPG_Reset;
 681:../../../SDK_embedded/libs/stm32/STM32F10x_StdPeriph_Driver/stm32f10x_flash.c ****       }
 682:../../../SDK_embedded/libs/stm32/STM32F10x_StdPeriph_Driver/stm32f10x_flash.c ****     }  
 683:../../../SDK_embedded/libs/stm32/STM32F10x_StdPeriph_Driver/stm32f10x_flash.c ****   }
 684:../../../SDK_embedded/libs/stm32/STM32F10x_StdPeriph_Driver/stm32f10x_flash.c ****   /* Return the erase status */
 685:../../../SDK_embedded/libs/stm32/STM32F10x_StdPeriph_Driver/stm32f10x_flash.c ****   return status;
 686:../../../SDK_embedded/libs/stm32/STM32F10x_StdPeriph_Driver/stm32f10x_flash.c **** }
 687:../../../SDK_embedded/libs/stm32/STM32F10x_StdPeriph_Driver/stm32f10x_flash.c **** 
 688:../../../SDK_embedded/libs/stm32/STM32F10x_StdPeriph_Driver/stm32f10x_flash.c **** /**
 689:../../../SDK_embedded/libs/stm32/STM32F10x_StdPeriph_Driver/stm32f10x_flash.c ****   * @brief  Programs a word at a specified address.
 690:../../../SDK_embedded/libs/stm32/STM32F10x_StdPeriph_Driver/stm32f10x_flash.c ****   * @note   This function can be used for all STM32F10x devices.
 691:../../../SDK_embedded/libs/stm32/STM32F10x_StdPeriph_Driver/stm32f10x_flash.c ****   * @param  Address: specifies the address to be programmed.
 692:../../../SDK_embedded/libs/stm32/STM32F10x_StdPeriph_Driver/stm32f10x_flash.c ****   * @param  Data: specifies the data to be programmed.
 693:../../../SDK_embedded/libs/stm32/STM32F10x_StdPeriph_Driver/stm32f10x_flash.c ****   * @retval FLASH Status: The returned value can be: FLASH_ERROR_PG,
 694:../../../SDK_embedded/libs/stm32/STM32F10x_StdPeriph_Driver/stm32f10x_flash.c ****   *   FLASH_ERROR_WRP, FLASH_COMPLETE or FLASH_TIMEOUT. 
 695:../../../SDK_embedded/libs/stm32/STM32F10x_StdPeriph_Driver/stm32f10x_flash.c ****   */
 696:../../../SDK_embedded/libs/stm32/STM32F10x_StdPeriph_Driver/stm32f10x_flash.c **** FLASH_Status FLASH_ProgramWord(uint32_t Address, uint32_t Data)
 697:../../../SDK_embedded/libs/stm32/STM32F10x_StdPeriph_Driver/stm32f10x_flash.c **** {
 698:../../../SDK_embedded/libs/stm32/STM32F10x_StdPeriph_Driver/stm32f10x_flash.c ****   FLASH_Status status = FLASH_COMPLETE;
 699:../../../SDK_embedded/libs/stm32/STM32F10x_StdPeriph_Driver/stm32f10x_flash.c ****   __IO uint32_t tmp = 0;
 700:../../../SDK_embedded/libs/stm32/STM32F10x_StdPeriph_Driver/stm32f10x_flash.c **** 
 701:../../../SDK_embedded/libs/stm32/STM32F10x_StdPeriph_Driver/stm32f10x_flash.c ****   /* Check the parameters */
 702:../../../SDK_embedded/libs/stm32/STM32F10x_StdPeriph_Driver/stm32f10x_flash.c ****   assert_param(IS_FLASH_ADDRESS(Address));
 703:../../../SDK_embedded/libs/stm32/STM32F10x_StdPeriph_Driver/stm32f10x_flash.c **** 
 704:../../../SDK_embedded/libs/stm32/STM32F10x_StdPeriph_Driver/stm32f10x_flash.c **** #ifdef STM32F10X_XL
 705:../../../SDK_embedded/libs/stm32/STM32F10x_StdPeriph_Driver/stm32f10x_flash.c ****   if(Address < FLASH_BANK1_END_ADDRESS - 2)
 706:../../../SDK_embedded/libs/stm32/STM32F10x_StdPeriph_Driver/stm32f10x_flash.c ****   { 
 707:../../../SDK_embedded/libs/stm32/STM32F10x_StdPeriph_Driver/stm32f10x_flash.c ****     /* Wait for last operation to be completed */
 708:../../../SDK_embedded/libs/stm32/STM32F10x_StdPeriph_Driver/stm32f10x_flash.c ****     status = FLASH_WaitForLastBank1Operation(ProgramTimeout); 
 709:../../../SDK_embedded/libs/stm32/STM32F10x_StdPeriph_Driver/stm32f10x_flash.c ****     if(status == FLASH_COMPLETE)
 710:../../../SDK_embedded/libs/stm32/STM32F10x_StdPeriph_Driver/stm32f10x_flash.c ****     {
 711:../../../SDK_embedded/libs/stm32/STM32F10x_StdPeriph_Driver/stm32f10x_flash.c ****       /* if the previous operation is completed, proceed to program the new first 
 712:../../../SDK_embedded/libs/stm32/STM32F10x_StdPeriph_Driver/stm32f10x_flash.c ****         half word */
 713:../../../SDK_embedded/libs/stm32/STM32F10x_StdPeriph_Driver/stm32f10x_flash.c ****       FLASH->CR |= CR_PG_Set;
 714:../../../SDK_embedded/libs/stm32/STM32F10x_StdPeriph_Driver/stm32f10x_flash.c ****   
 715:../../../SDK_embedded/libs/stm32/STM32F10x_StdPeriph_Driver/stm32f10x_flash.c ****       *(__IO uint16_t*)Address = (uint16_t)Data;
 716:../../../SDK_embedded/libs/stm32/STM32F10x_StdPeriph_Driver/stm32f10x_flash.c ****       /* Wait for last operation to be completed */
 717:../../../SDK_embedded/libs/stm32/STM32F10x_StdPeriph_Driver/stm32f10x_flash.c ****       status = FLASH_WaitForLastOperation(ProgramTimeout);
 718:../../../SDK_embedded/libs/stm32/STM32F10x_StdPeriph_Driver/stm32f10x_flash.c ****  
 719:../../../SDK_embedded/libs/stm32/STM32F10x_StdPeriph_Driver/stm32f10x_flash.c ****       if(status == FLASH_COMPLETE)
 720:../../../SDK_embedded/libs/stm32/STM32F10x_StdPeriph_Driver/stm32f10x_flash.c ****       {
 721:../../../SDK_embedded/libs/stm32/STM32F10x_StdPeriph_Driver/stm32f10x_flash.c ****         /* if the previous operation is completed, proceed to program the new second 
 722:../../../SDK_embedded/libs/stm32/STM32F10x_StdPeriph_Driver/stm32f10x_flash.c ****         half word */
 723:../../../SDK_embedded/libs/stm32/STM32F10x_StdPeriph_Driver/stm32f10x_flash.c ****         tmp = Address + 2;
 724:../../../SDK_embedded/libs/stm32/STM32F10x_StdPeriph_Driver/stm32f10x_flash.c **** 
 725:../../../SDK_embedded/libs/stm32/STM32F10x_StdPeriph_Driver/stm32f10x_flash.c ****         *(__IO uint16_t*) tmp = Data >> 16;
 726:../../../SDK_embedded/libs/stm32/STM32F10x_StdPeriph_Driver/stm32f10x_flash.c ****     
 727:../../../SDK_embedded/libs/stm32/STM32F10x_StdPeriph_Driver/stm32f10x_flash.c ****         /* Wait for last operation to be completed */
 728:../../../SDK_embedded/libs/stm32/STM32F10x_StdPeriph_Driver/stm32f10x_flash.c ****         status = FLASH_WaitForLastOperation(ProgramTimeout);
 729:../../../SDK_embedded/libs/stm32/STM32F10x_StdPeriph_Driver/stm32f10x_flash.c ****         
 730:../../../SDK_embedded/libs/stm32/STM32F10x_StdPeriph_Driver/stm32f10x_flash.c ****         if(status != FLASH_TIMEOUT)
 731:../../../SDK_embedded/libs/stm32/STM32F10x_StdPeriph_Driver/stm32f10x_flash.c ****         {
 732:../../../SDK_embedded/libs/stm32/STM32F10x_StdPeriph_Driver/stm32f10x_flash.c ****           /* Disable the PG Bit */
 733:../../../SDK_embedded/libs/stm32/STM32F10x_StdPeriph_Driver/stm32f10x_flash.c ****           FLASH->CR &= CR_PG_Reset;
 734:../../../SDK_embedded/libs/stm32/STM32F10x_StdPeriph_Driver/stm32f10x_flash.c ****         }
 735:../../../SDK_embedded/libs/stm32/STM32F10x_StdPeriph_Driver/stm32f10x_flash.c ****       }
 736:../../../SDK_embedded/libs/stm32/STM32F10x_StdPeriph_Driver/stm32f10x_flash.c ****       else
 737:../../../SDK_embedded/libs/stm32/STM32F10x_StdPeriph_Driver/stm32f10x_flash.c ****       {
 738:../../../SDK_embedded/libs/stm32/STM32F10x_StdPeriph_Driver/stm32f10x_flash.c ****         if (status != FLASH_TIMEOUT)
 739:../../../SDK_embedded/libs/stm32/STM32F10x_StdPeriph_Driver/stm32f10x_flash.c ****         {
 740:../../../SDK_embedded/libs/stm32/STM32F10x_StdPeriph_Driver/stm32f10x_flash.c ****           /* Disable the PG Bit */
 741:../../../SDK_embedded/libs/stm32/STM32F10x_StdPeriph_Driver/stm32f10x_flash.c ****           FLASH->CR &= CR_PG_Reset;
 742:../../../SDK_embedded/libs/stm32/STM32F10x_StdPeriph_Driver/stm32f10x_flash.c ****         }
 743:../../../SDK_embedded/libs/stm32/STM32F10x_StdPeriph_Driver/stm32f10x_flash.c ****        }
 744:../../../SDK_embedded/libs/stm32/STM32F10x_StdPeriph_Driver/stm32f10x_flash.c ****     }
 745:../../../SDK_embedded/libs/stm32/STM32F10x_StdPeriph_Driver/stm32f10x_flash.c ****   }
 746:../../../SDK_embedded/libs/stm32/STM32F10x_StdPeriph_Driver/stm32f10x_flash.c ****   else if(Address == (FLASH_BANK1_END_ADDRESS - 1))
 747:../../../SDK_embedded/libs/stm32/STM32F10x_StdPeriph_Driver/stm32f10x_flash.c ****   {
 748:../../../SDK_embedded/libs/stm32/STM32F10x_StdPeriph_Driver/stm32f10x_flash.c ****     /* Wait for last operation to be completed */
 749:../../../SDK_embedded/libs/stm32/STM32F10x_StdPeriph_Driver/stm32f10x_flash.c ****     status = FLASH_WaitForLastBank1Operation(ProgramTimeout);
 750:../../../SDK_embedded/libs/stm32/STM32F10x_StdPeriph_Driver/stm32f10x_flash.c **** 
 751:../../../SDK_embedded/libs/stm32/STM32F10x_StdPeriph_Driver/stm32f10x_flash.c ****     if(status == FLASH_COMPLETE)
 752:../../../SDK_embedded/libs/stm32/STM32F10x_StdPeriph_Driver/stm32f10x_flash.c ****     {
 753:../../../SDK_embedded/libs/stm32/STM32F10x_StdPeriph_Driver/stm32f10x_flash.c ****       /* if the previous operation is completed, proceed to program the new first 
 754:../../../SDK_embedded/libs/stm32/STM32F10x_StdPeriph_Driver/stm32f10x_flash.c ****         half word */
 755:../../../SDK_embedded/libs/stm32/STM32F10x_StdPeriph_Driver/stm32f10x_flash.c ****       FLASH->CR |= CR_PG_Set;
 756:../../../SDK_embedded/libs/stm32/STM32F10x_StdPeriph_Driver/stm32f10x_flash.c ****   
 757:../../../SDK_embedded/libs/stm32/STM32F10x_StdPeriph_Driver/stm32f10x_flash.c ****       *(__IO uint16_t*)Address = (uint16_t)Data;
 758:../../../SDK_embedded/libs/stm32/STM32F10x_StdPeriph_Driver/stm32f10x_flash.c **** 
 759:../../../SDK_embedded/libs/stm32/STM32F10x_StdPeriph_Driver/stm32f10x_flash.c ****       /* Wait for last operation to be completed */
 760:../../../SDK_embedded/libs/stm32/STM32F10x_StdPeriph_Driver/stm32f10x_flash.c ****       status = FLASH_WaitForLastBank1Operation(ProgramTimeout);
 761:../../../SDK_embedded/libs/stm32/STM32F10x_StdPeriph_Driver/stm32f10x_flash.c **** 
 762:../../../SDK_embedded/libs/stm32/STM32F10x_StdPeriph_Driver/stm32f10x_flash.c ****       if(status != FLASH_TIMEOUT)
 763:../../../SDK_embedded/libs/stm32/STM32F10x_StdPeriph_Driver/stm32f10x_flash.c ****       {
 764:../../../SDK_embedded/libs/stm32/STM32F10x_StdPeriph_Driver/stm32f10x_flash.c ****         /* Disable the PG Bit */
 765:../../../SDK_embedded/libs/stm32/STM32F10x_StdPeriph_Driver/stm32f10x_flash.c ****         FLASH->CR &= CR_PG_Reset;
 766:../../../SDK_embedded/libs/stm32/STM32F10x_StdPeriph_Driver/stm32f10x_flash.c ****       }
 767:../../../SDK_embedded/libs/stm32/STM32F10x_StdPeriph_Driver/stm32f10x_flash.c ****     }
 768:../../../SDK_embedded/libs/stm32/STM32F10x_StdPeriph_Driver/stm32f10x_flash.c ****     else
 769:../../../SDK_embedded/libs/stm32/STM32F10x_StdPeriph_Driver/stm32f10x_flash.c ****     {
 770:../../../SDK_embedded/libs/stm32/STM32F10x_StdPeriph_Driver/stm32f10x_flash.c ****       if (status != FLASH_TIMEOUT)
 771:../../../SDK_embedded/libs/stm32/STM32F10x_StdPeriph_Driver/stm32f10x_flash.c ****       {
 772:../../../SDK_embedded/libs/stm32/STM32F10x_StdPeriph_Driver/stm32f10x_flash.c ****         /* Disable the PG Bit */
 773:../../../SDK_embedded/libs/stm32/STM32F10x_StdPeriph_Driver/stm32f10x_flash.c ****         FLASH->CR &= CR_PG_Reset;
 774:../../../SDK_embedded/libs/stm32/STM32F10x_StdPeriph_Driver/stm32f10x_flash.c ****       }
 775:../../../SDK_embedded/libs/stm32/STM32F10x_StdPeriph_Driver/stm32f10x_flash.c ****     }
 776:../../../SDK_embedded/libs/stm32/STM32F10x_StdPeriph_Driver/stm32f10x_flash.c **** 
 777:../../../SDK_embedded/libs/stm32/STM32F10x_StdPeriph_Driver/stm32f10x_flash.c ****     /* Wait for last operation to be completed */
 778:../../../SDK_embedded/libs/stm32/STM32F10x_StdPeriph_Driver/stm32f10x_flash.c ****     status = FLASH_WaitForLastBank2Operation(ProgramTimeout);
 779:../../../SDK_embedded/libs/stm32/STM32F10x_StdPeriph_Driver/stm32f10x_flash.c **** 
 780:../../../SDK_embedded/libs/stm32/STM32F10x_StdPeriph_Driver/stm32f10x_flash.c ****     if(status == FLASH_COMPLETE)
 781:../../../SDK_embedded/libs/stm32/STM32F10x_StdPeriph_Driver/stm32f10x_flash.c ****     {
 782:../../../SDK_embedded/libs/stm32/STM32F10x_StdPeriph_Driver/stm32f10x_flash.c ****       /* if the previous operation is completed, proceed to program the new second 
 783:../../../SDK_embedded/libs/stm32/STM32F10x_StdPeriph_Driver/stm32f10x_flash.c ****       half word */
 784:../../../SDK_embedded/libs/stm32/STM32F10x_StdPeriph_Driver/stm32f10x_flash.c ****       FLASH->CR2 |= CR_PG_Set;
 785:../../../SDK_embedded/libs/stm32/STM32F10x_StdPeriph_Driver/stm32f10x_flash.c ****       tmp = Address + 2;
 786:../../../SDK_embedded/libs/stm32/STM32F10x_StdPeriph_Driver/stm32f10x_flash.c **** 
 787:../../../SDK_embedded/libs/stm32/STM32F10x_StdPeriph_Driver/stm32f10x_flash.c ****       *(__IO uint16_t*) tmp = Data >> 16;
 788:../../../SDK_embedded/libs/stm32/STM32F10x_StdPeriph_Driver/stm32f10x_flash.c ****     
 789:../../../SDK_embedded/libs/stm32/STM32F10x_StdPeriph_Driver/stm32f10x_flash.c ****       /* Wait for last operation to be completed */
 790:../../../SDK_embedded/libs/stm32/STM32F10x_StdPeriph_Driver/stm32f10x_flash.c ****       status = FLASH_WaitForLastBank2Operation(ProgramTimeout);
 791:../../../SDK_embedded/libs/stm32/STM32F10x_StdPeriph_Driver/stm32f10x_flash.c ****         
 792:../../../SDK_embedded/libs/stm32/STM32F10x_StdPeriph_Driver/stm32f10x_flash.c ****       if(status != FLASH_TIMEOUT)
 793:../../../SDK_embedded/libs/stm32/STM32F10x_StdPeriph_Driver/stm32f10x_flash.c ****       {
 794:../../../SDK_embedded/libs/stm32/STM32F10x_StdPeriph_Driver/stm32f10x_flash.c ****         /* Disable the PG Bit */
 795:../../../SDK_embedded/libs/stm32/STM32F10x_StdPeriph_Driver/stm32f10x_flash.c ****         FLASH->CR2 &= CR_PG_Reset;
 796:../../../SDK_embedded/libs/stm32/STM32F10x_StdPeriph_Driver/stm32f10x_flash.c ****       }
 797:../../../SDK_embedded/libs/stm32/STM32F10x_StdPeriph_Driver/stm32f10x_flash.c ****     }
 798:../../../SDK_embedded/libs/stm32/STM32F10x_StdPeriph_Driver/stm32f10x_flash.c ****     else
 799:../../../SDK_embedded/libs/stm32/STM32F10x_StdPeriph_Driver/stm32f10x_flash.c ****     {
 800:../../../SDK_embedded/libs/stm32/STM32F10x_StdPeriph_Driver/stm32f10x_flash.c ****       if (status != FLASH_TIMEOUT)
 801:../../../SDK_embedded/libs/stm32/STM32F10x_StdPeriph_Driver/stm32f10x_flash.c ****       {
 802:../../../SDK_embedded/libs/stm32/STM32F10x_StdPeriph_Driver/stm32f10x_flash.c ****         /* Disable the PG Bit */
 803:../../../SDK_embedded/libs/stm32/STM32F10x_StdPeriph_Driver/stm32f10x_flash.c ****         FLASH->CR2 &= CR_PG_Reset;
 804:../../../SDK_embedded/libs/stm32/STM32F10x_StdPeriph_Driver/stm32f10x_flash.c ****       }
 805:../../../SDK_embedded/libs/stm32/STM32F10x_StdPeriph_Driver/stm32f10x_flash.c ****     }
 806:../../../SDK_embedded/libs/stm32/STM32F10x_StdPeriph_Driver/stm32f10x_flash.c ****   }
 807:../../../SDK_embedded/libs/stm32/STM32F10x_StdPeriph_Driver/stm32f10x_flash.c ****   else
 808:../../../SDK_embedded/libs/stm32/STM32F10x_StdPeriph_Driver/stm32f10x_flash.c ****   {
 809:../../../SDK_embedded/libs/stm32/STM32F10x_StdPeriph_Driver/stm32f10x_flash.c ****     /* Wait for last operation to be completed */
 810:../../../SDK_embedded/libs/stm32/STM32F10x_StdPeriph_Driver/stm32f10x_flash.c ****     status = FLASH_WaitForLastBank2Operation(ProgramTimeout);
 811:../../../SDK_embedded/libs/stm32/STM32F10x_StdPeriph_Driver/stm32f10x_flash.c **** 
 812:../../../SDK_embedded/libs/stm32/STM32F10x_StdPeriph_Driver/stm32f10x_flash.c ****     if(status == FLASH_COMPLETE)
 813:../../../SDK_embedded/libs/stm32/STM32F10x_StdPeriph_Driver/stm32f10x_flash.c ****     {
 814:../../../SDK_embedded/libs/stm32/STM32F10x_StdPeriph_Driver/stm32f10x_flash.c ****       /* if the previous operation is completed, proceed to program the new first 
 815:../../../SDK_embedded/libs/stm32/STM32F10x_StdPeriph_Driver/stm32f10x_flash.c ****         half word */
 816:../../../SDK_embedded/libs/stm32/STM32F10x_StdPeriph_Driver/stm32f10x_flash.c ****       FLASH->CR2 |= CR_PG_Set;
 817:../../../SDK_embedded/libs/stm32/STM32F10x_StdPeriph_Driver/stm32f10x_flash.c ****   
 818:../../../SDK_embedded/libs/stm32/STM32F10x_StdPeriph_Driver/stm32f10x_flash.c ****       *(__IO uint16_t*)Address = (uint16_t)Data;
 819:../../../SDK_embedded/libs/stm32/STM32F10x_StdPeriph_Driver/stm32f10x_flash.c ****       /* Wait for last operation to be completed */
 820:../../../SDK_embedded/libs/stm32/STM32F10x_StdPeriph_Driver/stm32f10x_flash.c ****       status = FLASH_WaitForLastBank2Operation(ProgramTimeout);
 821:../../../SDK_embedded/libs/stm32/STM32F10x_StdPeriph_Driver/stm32f10x_flash.c ****  
 822:../../../SDK_embedded/libs/stm32/STM32F10x_StdPeriph_Driver/stm32f10x_flash.c ****       if(status == FLASH_COMPLETE)
 823:../../../SDK_embedded/libs/stm32/STM32F10x_StdPeriph_Driver/stm32f10x_flash.c ****       {
 824:../../../SDK_embedded/libs/stm32/STM32F10x_StdPeriph_Driver/stm32f10x_flash.c ****         /* if the previous operation is completed, proceed to program the new second 
 825:../../../SDK_embedded/libs/stm32/STM32F10x_StdPeriph_Driver/stm32f10x_flash.c ****         half word */
 826:../../../SDK_embedded/libs/stm32/STM32F10x_StdPeriph_Driver/stm32f10x_flash.c ****         tmp = Address + 2;
 827:../../../SDK_embedded/libs/stm32/STM32F10x_StdPeriph_Driver/stm32f10x_flash.c **** 
 828:../../../SDK_embedded/libs/stm32/STM32F10x_StdPeriph_Driver/stm32f10x_flash.c ****         *(__IO uint16_t*) tmp = Data >> 16;
 829:../../../SDK_embedded/libs/stm32/STM32F10x_StdPeriph_Driver/stm32f10x_flash.c ****     
 830:../../../SDK_embedded/libs/stm32/STM32F10x_StdPeriph_Driver/stm32f10x_flash.c ****         /* Wait for last operation to be completed */
 831:../../../SDK_embedded/libs/stm32/STM32F10x_StdPeriph_Driver/stm32f10x_flash.c ****         status = FLASH_WaitForLastBank2Operation(ProgramTimeout);
 832:../../../SDK_embedded/libs/stm32/STM32F10x_StdPeriph_Driver/stm32f10x_flash.c ****         
 833:../../../SDK_embedded/libs/stm32/STM32F10x_StdPeriph_Driver/stm32f10x_flash.c ****         if(status != FLASH_TIMEOUT)
 834:../../../SDK_embedded/libs/stm32/STM32F10x_StdPeriph_Driver/stm32f10x_flash.c ****         {
 835:../../../SDK_embedded/libs/stm32/STM32F10x_StdPeriph_Driver/stm32f10x_flash.c ****           /* Disable the PG Bit */
 836:../../../SDK_embedded/libs/stm32/STM32F10x_StdPeriph_Driver/stm32f10x_flash.c ****           FLASH->CR2 &= CR_PG_Reset;
 837:../../../SDK_embedded/libs/stm32/STM32F10x_StdPeriph_Driver/stm32f10x_flash.c ****         }
 838:../../../SDK_embedded/libs/stm32/STM32F10x_StdPeriph_Driver/stm32f10x_flash.c ****       }
 839:../../../SDK_embedded/libs/stm32/STM32F10x_StdPeriph_Driver/stm32f10x_flash.c ****       else
 840:../../../SDK_embedded/libs/stm32/STM32F10x_StdPeriph_Driver/stm32f10x_flash.c ****       {
 841:../../../SDK_embedded/libs/stm32/STM32F10x_StdPeriph_Driver/stm32f10x_flash.c ****         if (status != FLASH_TIMEOUT)
 842:../../../SDK_embedded/libs/stm32/STM32F10x_StdPeriph_Driver/stm32f10x_flash.c ****         {
 843:../../../SDK_embedded/libs/stm32/STM32F10x_StdPeriph_Driver/stm32f10x_flash.c ****           /* Disable the PG Bit */
 844:../../../SDK_embedded/libs/stm32/STM32F10x_StdPeriph_Driver/stm32f10x_flash.c ****           FLASH->CR2 &= CR_PG_Reset;
 845:../../../SDK_embedded/libs/stm32/STM32F10x_StdPeriph_Driver/stm32f10x_flash.c ****         }
 846:../../../SDK_embedded/libs/stm32/STM32F10x_StdPeriph_Driver/stm32f10x_flash.c ****       }
 847:../../../SDK_embedded/libs/stm32/STM32F10x_StdPeriph_Driver/stm32f10x_flash.c ****     }
 848:../../../SDK_embedded/libs/stm32/STM32F10x_StdPeriph_Driver/stm32f10x_flash.c ****   }
 849:../../../SDK_embedded/libs/stm32/STM32F10x_StdPeriph_Driver/stm32f10x_flash.c **** #else
 850:../../../SDK_embedded/libs/stm32/STM32F10x_StdPeriph_Driver/stm32f10x_flash.c ****   /* Wait for last operation to be completed */
 851:../../../SDK_embedded/libs/stm32/STM32F10x_StdPeriph_Driver/stm32f10x_flash.c ****   status = FLASH_WaitForLastOperation(ProgramTimeout);
 852:../../../SDK_embedded/libs/stm32/STM32F10x_StdPeriph_Driver/stm32f10x_flash.c ****   
 853:../../../SDK_embedded/libs/stm32/STM32F10x_StdPeriph_Driver/stm32f10x_flash.c ****   if(status == FLASH_COMPLETE)
 854:../../../SDK_embedded/libs/stm32/STM32F10x_StdPeriph_Driver/stm32f10x_flash.c ****   {
 855:../../../SDK_embedded/libs/stm32/STM32F10x_StdPeriph_Driver/stm32f10x_flash.c ****     /* if the previous operation is completed, proceed to program the new first 
 856:../../../SDK_embedded/libs/stm32/STM32F10x_StdPeriph_Driver/stm32f10x_flash.c ****     half word */
 857:../../../SDK_embedded/libs/stm32/STM32F10x_StdPeriph_Driver/stm32f10x_flash.c ****     FLASH->CR |= CR_PG_Set;
 858:../../../SDK_embedded/libs/stm32/STM32F10x_StdPeriph_Driver/stm32f10x_flash.c ****   
 859:../../../SDK_embedded/libs/stm32/STM32F10x_StdPeriph_Driver/stm32f10x_flash.c ****     *(__IO uint16_t*)Address = (uint16_t)Data;
 860:../../../SDK_embedded/libs/stm32/STM32F10x_StdPeriph_Driver/stm32f10x_flash.c ****     /* Wait for last operation to be completed */
 861:../../../SDK_embedded/libs/stm32/STM32F10x_StdPeriph_Driver/stm32f10x_flash.c ****     status = FLASH_WaitForLastOperation(ProgramTimeout);
 862:../../../SDK_embedded/libs/stm32/STM32F10x_StdPeriph_Driver/stm32f10x_flash.c ****  
 863:../../../SDK_embedded/libs/stm32/STM32F10x_StdPeriph_Driver/stm32f10x_flash.c ****     if(status == FLASH_COMPLETE)
 864:../../../SDK_embedded/libs/stm32/STM32F10x_StdPeriph_Driver/stm32f10x_flash.c ****     {
 865:../../../SDK_embedded/libs/stm32/STM32F10x_StdPeriph_Driver/stm32f10x_flash.c ****       /* if the previous operation is completed, proceed to program the new second 
 866:../../../SDK_embedded/libs/stm32/STM32F10x_StdPeriph_Driver/stm32f10x_flash.c ****       half word */
 867:../../../SDK_embedded/libs/stm32/STM32F10x_StdPeriph_Driver/stm32f10x_flash.c ****       tmp = Address + 2;
 868:../../../SDK_embedded/libs/stm32/STM32F10x_StdPeriph_Driver/stm32f10x_flash.c **** 
 869:../../../SDK_embedded/libs/stm32/STM32F10x_StdPeriph_Driver/stm32f10x_flash.c ****       *(__IO uint16_t*) tmp = Data >> 16;
 870:../../../SDK_embedded/libs/stm32/STM32F10x_StdPeriph_Driver/stm32f10x_flash.c ****     
 871:../../../SDK_embedded/libs/stm32/STM32F10x_StdPeriph_Driver/stm32f10x_flash.c ****       /* Wait for last operation to be completed */
 872:../../../SDK_embedded/libs/stm32/STM32F10x_StdPeriph_Driver/stm32f10x_flash.c ****       status = FLASH_WaitForLastOperation(ProgramTimeout);
 873:../../../SDK_embedded/libs/stm32/STM32F10x_StdPeriph_Driver/stm32f10x_flash.c ****         
 874:../../../SDK_embedded/libs/stm32/STM32F10x_StdPeriph_Driver/stm32f10x_flash.c ****       if(status != FLASH_TIMEOUT)
 875:../../../SDK_embedded/libs/stm32/STM32F10x_StdPeriph_Driver/stm32f10x_flash.c ****       {
 876:../../../SDK_embedded/libs/stm32/STM32F10x_StdPeriph_Driver/stm32f10x_flash.c ****         /* Disable the PG Bit */
 877:../../../SDK_embedded/libs/stm32/STM32F10x_StdPeriph_Driver/stm32f10x_flash.c ****         FLASH->CR &= CR_PG_Reset;
 878:../../../SDK_embedded/libs/stm32/STM32F10x_StdPeriph_Driver/stm32f10x_flash.c ****       }
 879:../../../SDK_embedded/libs/stm32/STM32F10x_StdPeriph_Driver/stm32f10x_flash.c ****     }
 880:../../../SDK_embedded/libs/stm32/STM32F10x_StdPeriph_Driver/stm32f10x_flash.c ****     else
 881:../../../SDK_embedded/libs/stm32/STM32F10x_StdPeriph_Driver/stm32f10x_flash.c ****     {
 882:../../../SDK_embedded/libs/stm32/STM32F10x_StdPeriph_Driver/stm32f10x_flash.c ****       if (status != FLASH_TIMEOUT)
 883:../../../SDK_embedded/libs/stm32/STM32F10x_StdPeriph_Driver/stm32f10x_flash.c ****       {
 884:../../../SDK_embedded/libs/stm32/STM32F10x_StdPeriph_Driver/stm32f10x_flash.c ****         /* Disable the PG Bit */
 885:../../../SDK_embedded/libs/stm32/STM32F10x_StdPeriph_Driver/stm32f10x_flash.c ****         FLASH->CR &= CR_PG_Reset;
 886:../../../SDK_embedded/libs/stm32/STM32F10x_StdPeriph_Driver/stm32f10x_flash.c ****       }
 887:../../../SDK_embedded/libs/stm32/STM32F10x_StdPeriph_Driver/stm32f10x_flash.c ****     }
 888:../../../SDK_embedded/libs/stm32/STM32F10x_StdPeriph_Driver/stm32f10x_flash.c ****   }         
 889:../../../SDK_embedded/libs/stm32/STM32F10x_StdPeriph_Driver/stm32f10x_flash.c **** #endif /* STM32F10X_XL */
 890:../../../SDK_embedded/libs/stm32/STM32F10x_StdPeriph_Driver/stm32f10x_flash.c ****    
 891:../../../SDK_embedded/libs/stm32/STM32F10x_StdPeriph_Driver/stm32f10x_flash.c ****   /* Return the Program Status */
 892:../../../SDK_embedded/libs/stm32/STM32F10x_StdPeriph_Driver/stm32f10x_flash.c ****   return status;
 893:../../../SDK_embedded/libs/stm32/STM32F10x_StdPeriph_Driver/stm32f10x_flash.c **** }
 894:../../../SDK_embedded/libs/stm32/STM32F10x_StdPeriph_Driver/stm32f10x_flash.c **** 
 895:../../../SDK_embedded/libs/stm32/STM32F10x_StdPeriph_Driver/stm32f10x_flash.c **** /**
 896:../../../SDK_embedded/libs/stm32/STM32F10x_StdPeriph_Driver/stm32f10x_flash.c ****   * @brief  Programs a half word at a specified address.
 897:../../../SDK_embedded/libs/stm32/STM32F10x_StdPeriph_Driver/stm32f10x_flash.c ****   * @note   This function can be used for all STM32F10x devices.
 898:../../../SDK_embedded/libs/stm32/STM32F10x_StdPeriph_Driver/stm32f10x_flash.c ****   * @param  Address: specifies the address to be programmed.
 899:../../../SDK_embedded/libs/stm32/STM32F10x_StdPeriph_Driver/stm32f10x_flash.c ****   * @param  Data: specifies the data to be programmed.
 900:../../../SDK_embedded/libs/stm32/STM32F10x_StdPeriph_Driver/stm32f10x_flash.c ****   * @retval FLASH Status: The returned value can be: FLASH_ERROR_PG,
 901:../../../SDK_embedded/libs/stm32/STM32F10x_StdPeriph_Driver/stm32f10x_flash.c ****   *   FLASH_ERROR_WRP, FLASH_COMPLETE or FLASH_TIMEOUT. 
 902:../../../SDK_embedded/libs/stm32/STM32F10x_StdPeriph_Driver/stm32f10x_flash.c ****   */
 903:../../../SDK_embedded/libs/stm32/STM32F10x_StdPeriph_Driver/stm32f10x_flash.c **** FLASH_Status FLASH_ProgramHalfWord(uint32_t Address, uint16_t Data)
 904:../../../SDK_embedded/libs/stm32/STM32F10x_StdPeriph_Driver/stm32f10x_flash.c **** {
 905:../../../SDK_embedded/libs/stm32/STM32F10x_StdPeriph_Driver/stm32f10x_flash.c ****   FLASH_Status status = FLASH_COMPLETE;
 906:../../../SDK_embedded/libs/stm32/STM32F10x_StdPeriph_Driver/stm32f10x_flash.c ****   /* Check the parameters */
 907:../../../SDK_embedded/libs/stm32/STM32F10x_StdPeriph_Driver/stm32f10x_flash.c ****   assert_param(IS_FLASH_ADDRESS(Address));
 908:../../../SDK_embedded/libs/stm32/STM32F10x_StdPeriph_Driver/stm32f10x_flash.c **** 
 909:../../../SDK_embedded/libs/stm32/STM32F10x_StdPeriph_Driver/stm32f10x_flash.c **** #ifdef STM32F10X_XL
 910:../../../SDK_embedded/libs/stm32/STM32F10x_StdPeriph_Driver/stm32f10x_flash.c ****   /* Wait for last operation to be completed */
 911:../../../SDK_embedded/libs/stm32/STM32F10x_StdPeriph_Driver/stm32f10x_flash.c ****   status = FLASH_WaitForLastOperation(ProgramTimeout);
 912:../../../SDK_embedded/libs/stm32/STM32F10x_StdPeriph_Driver/stm32f10x_flash.c ****   
 913:../../../SDK_embedded/libs/stm32/STM32F10x_StdPeriph_Driver/stm32f10x_flash.c ****   if(Address < FLASH_BANK1_END_ADDRESS)
 914:../../../SDK_embedded/libs/stm32/STM32F10x_StdPeriph_Driver/stm32f10x_flash.c ****   {
 915:../../../SDK_embedded/libs/stm32/STM32F10x_StdPeriph_Driver/stm32f10x_flash.c ****     if(status == FLASH_COMPLETE)
 916:../../../SDK_embedded/libs/stm32/STM32F10x_StdPeriph_Driver/stm32f10x_flash.c ****     {
 917:../../../SDK_embedded/libs/stm32/STM32F10x_StdPeriph_Driver/stm32f10x_flash.c ****       /* if the previous operation is completed, proceed to program the new data */
 918:../../../SDK_embedded/libs/stm32/STM32F10x_StdPeriph_Driver/stm32f10x_flash.c ****       FLASH->CR |= CR_PG_Set;
 919:../../../SDK_embedded/libs/stm32/STM32F10x_StdPeriph_Driver/stm32f10x_flash.c ****   
 920:../../../SDK_embedded/libs/stm32/STM32F10x_StdPeriph_Driver/stm32f10x_flash.c ****       *(__IO uint16_t*)Address = Data;
 921:../../../SDK_embedded/libs/stm32/STM32F10x_StdPeriph_Driver/stm32f10x_flash.c ****       /* Wait for last operation to be completed */
 922:../../../SDK_embedded/libs/stm32/STM32F10x_StdPeriph_Driver/stm32f10x_flash.c ****       status = FLASH_WaitForLastBank1Operation(ProgramTimeout);
 923:../../../SDK_embedded/libs/stm32/STM32F10x_StdPeriph_Driver/stm32f10x_flash.c ****       if(status != FLASH_TIMEOUT)
 924:../../../SDK_embedded/libs/stm32/STM32F10x_StdPeriph_Driver/stm32f10x_flash.c ****       {
 925:../../../SDK_embedded/libs/stm32/STM32F10x_StdPeriph_Driver/stm32f10x_flash.c ****         /* if the program operation is completed, disable the PG Bit */
 926:../../../SDK_embedded/libs/stm32/STM32F10x_StdPeriph_Driver/stm32f10x_flash.c ****         FLASH->CR &= CR_PG_Reset;
 927:../../../SDK_embedded/libs/stm32/STM32F10x_StdPeriph_Driver/stm32f10x_flash.c ****       }
 928:../../../SDK_embedded/libs/stm32/STM32F10x_StdPeriph_Driver/stm32f10x_flash.c ****     }
 929:../../../SDK_embedded/libs/stm32/STM32F10x_StdPeriph_Driver/stm32f10x_flash.c ****   }
 930:../../../SDK_embedded/libs/stm32/STM32F10x_StdPeriph_Driver/stm32f10x_flash.c ****   else
 931:../../../SDK_embedded/libs/stm32/STM32F10x_StdPeriph_Driver/stm32f10x_flash.c ****   {
 932:../../../SDK_embedded/libs/stm32/STM32F10x_StdPeriph_Driver/stm32f10x_flash.c ****     if(status == FLASH_COMPLETE)
 933:../../../SDK_embedded/libs/stm32/STM32F10x_StdPeriph_Driver/stm32f10x_flash.c ****     {
 934:../../../SDK_embedded/libs/stm32/STM32F10x_StdPeriph_Driver/stm32f10x_flash.c ****       /* if the previous operation is completed, proceed to program the new data */
 935:../../../SDK_embedded/libs/stm32/STM32F10x_StdPeriph_Driver/stm32f10x_flash.c ****       FLASH->CR2 |= CR_PG_Set;
 936:../../../SDK_embedded/libs/stm32/STM32F10x_StdPeriph_Driver/stm32f10x_flash.c ****   
 937:../../../SDK_embedded/libs/stm32/STM32F10x_StdPeriph_Driver/stm32f10x_flash.c ****       *(__IO uint16_t*)Address = Data;
 938:../../../SDK_embedded/libs/stm32/STM32F10x_StdPeriph_Driver/stm32f10x_flash.c ****       /* Wait for last operation to be completed */
 939:../../../SDK_embedded/libs/stm32/STM32F10x_StdPeriph_Driver/stm32f10x_flash.c ****       status = FLASH_WaitForLastBank2Operation(ProgramTimeout);
 940:../../../SDK_embedded/libs/stm32/STM32F10x_StdPeriph_Driver/stm32f10x_flash.c ****       if(status != FLASH_TIMEOUT)
 941:../../../SDK_embedded/libs/stm32/STM32F10x_StdPeriph_Driver/stm32f10x_flash.c ****       {
 942:../../../SDK_embedded/libs/stm32/STM32F10x_StdPeriph_Driver/stm32f10x_flash.c ****         /* if the program operation is completed, disable the PG Bit */
 943:../../../SDK_embedded/libs/stm32/STM32F10x_StdPeriph_Driver/stm32f10x_flash.c ****         FLASH->CR2 &= CR_PG_Reset;
 944:../../../SDK_embedded/libs/stm32/STM32F10x_StdPeriph_Driver/stm32f10x_flash.c ****       }
 945:../../../SDK_embedded/libs/stm32/STM32F10x_StdPeriph_Driver/stm32f10x_flash.c ****     }
 946:../../../SDK_embedded/libs/stm32/STM32F10x_StdPeriph_Driver/stm32f10x_flash.c ****   }
 947:../../../SDK_embedded/libs/stm32/STM32F10x_StdPeriph_Driver/stm32f10x_flash.c **** #else
 948:../../../SDK_embedded/libs/stm32/STM32F10x_StdPeriph_Driver/stm32f10x_flash.c ****   /* Wait for last operation to be completed */
 949:../../../SDK_embedded/libs/stm32/STM32F10x_StdPeriph_Driver/stm32f10x_flash.c ****   status = FLASH_WaitForLastOperation(ProgramTimeout);
 950:../../../SDK_embedded/libs/stm32/STM32F10x_StdPeriph_Driver/stm32f10x_flash.c ****   
 951:../../../SDK_embedded/libs/stm32/STM32F10x_StdPeriph_Driver/stm32f10x_flash.c ****   if(status == FLASH_COMPLETE)
 952:../../../SDK_embedded/libs/stm32/STM32F10x_StdPeriph_Driver/stm32f10x_flash.c ****   {
 953:../../../SDK_embedded/libs/stm32/STM32F10x_StdPeriph_Driver/stm32f10x_flash.c ****     /* if the previous operation is completed, proceed to program the new data */
 954:../../../SDK_embedded/libs/stm32/STM32F10x_StdPeriph_Driver/stm32f10x_flash.c ****     FLASH->CR |= CR_PG_Set;
 955:../../../SDK_embedded/libs/stm32/STM32F10x_StdPeriph_Driver/stm32f10x_flash.c ****   
 956:../../../SDK_embedded/libs/stm32/STM32F10x_StdPeriph_Driver/stm32f10x_flash.c ****     *(__IO uint16_t*)Address = Data;
 957:../../../SDK_embedded/libs/stm32/STM32F10x_StdPeriph_Driver/stm32f10x_flash.c ****     /* Wait for last operation to be completed */
 958:../../../SDK_embedded/libs/stm32/STM32F10x_StdPeriph_Driver/stm32f10x_flash.c ****     status = FLASH_WaitForLastOperation(ProgramTimeout);
 959:../../../SDK_embedded/libs/stm32/STM32F10x_StdPeriph_Driver/stm32f10x_flash.c ****     if(status != FLASH_TIMEOUT)
 960:../../../SDK_embedded/libs/stm32/STM32F10x_StdPeriph_Driver/stm32f10x_flash.c ****     {
 961:../../../SDK_embedded/libs/stm32/STM32F10x_StdPeriph_Driver/stm32f10x_flash.c ****       /* if the program operation is completed, disable the PG Bit */
 962:../../../SDK_embedded/libs/stm32/STM32F10x_StdPeriph_Driver/stm32f10x_flash.c ****       FLASH->CR &= CR_PG_Reset;
 963:../../../SDK_embedded/libs/stm32/STM32F10x_StdPeriph_Driver/stm32f10x_flash.c ****     }
 964:../../../SDK_embedded/libs/stm32/STM32F10x_StdPeriph_Driver/stm32f10x_flash.c ****   } 
 965:../../../SDK_embedded/libs/stm32/STM32F10x_StdPeriph_Driver/stm32f10x_flash.c **** #endif  /* STM32F10X_XL */
 966:../../../SDK_embedded/libs/stm32/STM32F10x_StdPeriph_Driver/stm32f10x_flash.c ****   
 967:../../../SDK_embedded/libs/stm32/STM32F10x_StdPeriph_Driver/stm32f10x_flash.c ****   /* Return the Program Status */
 968:../../../SDK_embedded/libs/stm32/STM32F10x_StdPeriph_Driver/stm32f10x_flash.c ****   return status;
 969:../../../SDK_embedded/libs/stm32/STM32F10x_StdPeriph_Driver/stm32f10x_flash.c **** }
 970:../../../SDK_embedded/libs/stm32/STM32F10x_StdPeriph_Driver/stm32f10x_flash.c **** 
 971:../../../SDK_embedded/libs/stm32/STM32F10x_StdPeriph_Driver/stm32f10x_flash.c **** /**
 972:../../../SDK_embedded/libs/stm32/STM32F10x_StdPeriph_Driver/stm32f10x_flash.c ****   * @brief  Programs a half word at a specified Option Byte Data address.
 973:../../../SDK_embedded/libs/stm32/STM32F10x_StdPeriph_Driver/stm32f10x_flash.c ****   * @note   This function can be used for all STM32F10x devices.
 974:../../../SDK_embedded/libs/stm32/STM32F10x_StdPeriph_Driver/stm32f10x_flash.c ****   * @param  Address: specifies the address to be programmed.
 975:../../../SDK_embedded/libs/stm32/STM32F10x_StdPeriph_Driver/stm32f10x_flash.c ****   *   This parameter can be 0x1FFFF804 or 0x1FFFF806. 
 976:../../../SDK_embedded/libs/stm32/STM32F10x_StdPeriph_Driver/stm32f10x_flash.c ****   * @param  Data: specifies the data to be programmed.
 977:../../../SDK_embedded/libs/stm32/STM32F10x_StdPeriph_Driver/stm32f10x_flash.c ****   * @retval FLASH Status: The returned value can be: FLASH_ERROR_PG,
 978:../../../SDK_embedded/libs/stm32/STM32F10x_StdPeriph_Driver/stm32f10x_flash.c ****   *   FLASH_ERROR_WRP, FLASH_COMPLETE or FLASH_TIMEOUT. 
 979:../../../SDK_embedded/libs/stm32/STM32F10x_StdPeriph_Driver/stm32f10x_flash.c ****   */
 980:../../../SDK_embedded/libs/stm32/STM32F10x_StdPeriph_Driver/stm32f10x_flash.c **** FLASH_Status FLASH_ProgramOptionByteData(uint32_t Address, uint8_t Data)
 981:../../../SDK_embedded/libs/stm32/STM32F10x_StdPeriph_Driver/stm32f10x_flash.c **** {
 982:../../../SDK_embedded/libs/stm32/STM32F10x_StdPeriph_Driver/stm32f10x_flash.c ****   FLASH_Status status = FLASH_COMPLETE;
 983:../../../SDK_embedded/libs/stm32/STM32F10x_StdPeriph_Driver/stm32f10x_flash.c ****   /* Check the parameters */
 984:../../../SDK_embedded/libs/stm32/STM32F10x_StdPeriph_Driver/stm32f10x_flash.c ****   assert_param(IS_OB_DATA_ADDRESS(Address));
 985:../../../SDK_embedded/libs/stm32/STM32F10x_StdPeriph_Driver/stm32f10x_flash.c ****   status = FLASH_WaitForLastOperation(ProgramTimeout);
 986:../../../SDK_embedded/libs/stm32/STM32F10x_StdPeriph_Driver/stm32f10x_flash.c **** 
 987:../../../SDK_embedded/libs/stm32/STM32F10x_StdPeriph_Driver/stm32f10x_flash.c ****   if(status == FLASH_COMPLETE)
 988:../../../SDK_embedded/libs/stm32/STM32F10x_StdPeriph_Driver/stm32f10x_flash.c ****   {
 989:../../../SDK_embedded/libs/stm32/STM32F10x_StdPeriph_Driver/stm32f10x_flash.c ****     /* Authorize the small information block programming */
 990:../../../SDK_embedded/libs/stm32/STM32F10x_StdPeriph_Driver/stm32f10x_flash.c ****     FLASH->OPTKEYR = FLASH_KEY1;
 991:../../../SDK_embedded/libs/stm32/STM32F10x_StdPeriph_Driver/stm32f10x_flash.c ****     FLASH->OPTKEYR = FLASH_KEY2;
 992:../../../SDK_embedded/libs/stm32/STM32F10x_StdPeriph_Driver/stm32f10x_flash.c ****     /* Enables the Option Bytes Programming operation */
 993:../../../SDK_embedded/libs/stm32/STM32F10x_StdPeriph_Driver/stm32f10x_flash.c ****     FLASH->CR |= CR_OPTPG_Set; 
 994:../../../SDK_embedded/libs/stm32/STM32F10x_StdPeriph_Driver/stm32f10x_flash.c ****     *(__IO uint16_t*)Address = Data;
 995:../../../SDK_embedded/libs/stm32/STM32F10x_StdPeriph_Driver/stm32f10x_flash.c ****     
 996:../../../SDK_embedded/libs/stm32/STM32F10x_StdPeriph_Driver/stm32f10x_flash.c ****     /* Wait for last operation to be completed */
 997:../../../SDK_embedded/libs/stm32/STM32F10x_StdPeriph_Driver/stm32f10x_flash.c ****     status = FLASH_WaitForLastOperation(ProgramTimeout);
 998:../../../SDK_embedded/libs/stm32/STM32F10x_StdPeriph_Driver/stm32f10x_flash.c ****     if(status != FLASH_TIMEOUT)
 999:../../../SDK_embedded/libs/stm32/STM32F10x_StdPeriph_Driver/stm32f10x_flash.c ****     {
1000:../../../SDK_embedded/libs/stm32/STM32F10x_StdPeriph_Driver/stm32f10x_flash.c ****       /* if the program operation is completed, disable the OPTPG Bit */
1001:../../../SDK_embedded/libs/stm32/STM32F10x_StdPeriph_Driver/stm32f10x_flash.c ****       FLASH->CR &= CR_OPTPG_Reset;
1002:../../../SDK_embedded/libs/stm32/STM32F10x_StdPeriph_Driver/stm32f10x_flash.c ****     }
1003:../../../SDK_embedded/libs/stm32/STM32F10x_StdPeriph_Driver/stm32f10x_flash.c ****   }
1004:../../../SDK_embedded/libs/stm32/STM32F10x_StdPeriph_Driver/stm32f10x_flash.c ****   /* Return the Option Byte Data Program Status */
1005:../../../SDK_embedded/libs/stm32/STM32F10x_StdPeriph_Driver/stm32f10x_flash.c ****   return status;
1006:../../../SDK_embedded/libs/stm32/STM32F10x_StdPeriph_Driver/stm32f10x_flash.c **** }
1007:../../../SDK_embedded/libs/stm32/STM32F10x_StdPeriph_Driver/stm32f10x_flash.c **** 
1008:../../../SDK_embedded/libs/stm32/STM32F10x_StdPeriph_Driver/stm32f10x_flash.c **** /**
1009:../../../SDK_embedded/libs/stm32/STM32F10x_StdPeriph_Driver/stm32f10x_flash.c ****   * @brief  Write protects the desired pages
1010:../../../SDK_embedded/libs/stm32/STM32F10x_StdPeriph_Driver/stm32f10x_flash.c ****   * @note   This function can be used for all STM32F10x devices.
1011:../../../SDK_embedded/libs/stm32/STM32F10x_StdPeriph_Driver/stm32f10x_flash.c ****   * @param  FLASH_Pages: specifies the address of the pages to be write protected.
1012:../../../SDK_embedded/libs/stm32/STM32F10x_StdPeriph_Driver/stm32f10x_flash.c ****   *   This parameter can be:
1013:../../../SDK_embedded/libs/stm32/STM32F10x_StdPeriph_Driver/stm32f10x_flash.c ****   *     @arg For @b STM32_Low-density_devices: value between FLASH_WRProt_Pages0to3 and FLASH_WRPro
1014:../../../SDK_embedded/libs/stm32/STM32F10x_StdPeriph_Driver/stm32f10x_flash.c ****   *     @arg For @b STM32_Medium-density_devices: value between FLASH_WRProt_Pages0to3
1015:../../../SDK_embedded/libs/stm32/STM32F10x_StdPeriph_Driver/stm32f10x_flash.c ****   *       and FLASH_WRProt_Pages124to127
1016:../../../SDK_embedded/libs/stm32/STM32F10x_StdPeriph_Driver/stm32f10x_flash.c ****   *     @arg For @b STM32_High-density_devices: value between FLASH_WRProt_Pages0to1 and
1017:../../../SDK_embedded/libs/stm32/STM32F10x_StdPeriph_Driver/stm32f10x_flash.c ****   *       FLASH_WRProt_Pages60to61 or FLASH_WRProt_Pages62to255
1018:../../../SDK_embedded/libs/stm32/STM32F10x_StdPeriph_Driver/stm32f10x_flash.c ****   *     @arg For @b STM32_Connectivity_line_devices: value between FLASH_WRProt_Pages0to1 and
1019:../../../SDK_embedded/libs/stm32/STM32F10x_StdPeriph_Driver/stm32f10x_flash.c ****   *       FLASH_WRProt_Pages60to61 or FLASH_WRProt_Pages62to127    
1020:../../../SDK_embedded/libs/stm32/STM32F10x_StdPeriph_Driver/stm32f10x_flash.c ****   *     @arg For @b STM32_XL-density_devices: value between FLASH_WRProt_Pages0to1 and
1021:../../../SDK_embedded/libs/stm32/STM32F10x_StdPeriph_Driver/stm32f10x_flash.c ****   *       FLASH_WRProt_Pages60to61 or FLASH_WRProt_Pages62to511
1022:../../../SDK_embedded/libs/stm32/STM32F10x_StdPeriph_Driver/stm32f10x_flash.c ****   *     @arg FLASH_WRProt_AllPages
1023:../../../SDK_embedded/libs/stm32/STM32F10x_StdPeriph_Driver/stm32f10x_flash.c ****   * @retval FLASH Status: The returned value can be: FLASH_ERROR_PG,
1024:../../../SDK_embedded/libs/stm32/STM32F10x_StdPeriph_Driver/stm32f10x_flash.c ****   *   FLASH_ERROR_WRP, FLASH_COMPLETE or FLASH_TIMEOUT.
1025:../../../SDK_embedded/libs/stm32/STM32F10x_StdPeriph_Driver/stm32f10x_flash.c ****   */
1026:../../../SDK_embedded/libs/stm32/STM32F10x_StdPeriph_Driver/stm32f10x_flash.c **** FLASH_Status FLASH_EnableWriteProtection(uint32_t FLASH_Pages)
1027:../../../SDK_embedded/libs/stm32/STM32F10x_StdPeriph_Driver/stm32f10x_flash.c **** {
1028:../../../SDK_embedded/libs/stm32/STM32F10x_StdPeriph_Driver/stm32f10x_flash.c ****   uint16_t WRP0_Data = 0xFFFF, WRP1_Data = 0xFFFF, WRP2_Data = 0xFFFF, WRP3_Data = 0xFFFF;
1029:../../../SDK_embedded/libs/stm32/STM32F10x_StdPeriph_Driver/stm32f10x_flash.c ****   
1030:../../../SDK_embedded/libs/stm32/STM32F10x_StdPeriph_Driver/stm32f10x_flash.c ****   FLASH_Status status = FLASH_COMPLETE;
1031:../../../SDK_embedded/libs/stm32/STM32F10x_StdPeriph_Driver/stm32f10x_flash.c ****   
1032:../../../SDK_embedded/libs/stm32/STM32F10x_StdPeriph_Driver/stm32f10x_flash.c ****   /* Check the parameters */
1033:../../../SDK_embedded/libs/stm32/STM32F10x_StdPeriph_Driver/stm32f10x_flash.c ****   assert_param(IS_FLASH_WRPROT_PAGE(FLASH_Pages));
1034:../../../SDK_embedded/libs/stm32/STM32F10x_StdPeriph_Driver/stm32f10x_flash.c ****   
1035:../../../SDK_embedded/libs/stm32/STM32F10x_StdPeriph_Driver/stm32f10x_flash.c ****   FLASH_Pages = (uint32_t)(~FLASH_Pages);
1036:../../../SDK_embedded/libs/stm32/STM32F10x_StdPeriph_Driver/stm32f10x_flash.c ****   WRP0_Data = (uint16_t)(FLASH_Pages & WRP0_Mask);
1037:../../../SDK_embedded/libs/stm32/STM32F10x_StdPeriph_Driver/stm32f10x_flash.c ****   WRP1_Data = (uint16_t)((FLASH_Pages & WRP1_Mask) >> 8);
1038:../../../SDK_embedded/libs/stm32/STM32F10x_StdPeriph_Driver/stm32f10x_flash.c ****   WRP2_Data = (uint16_t)((FLASH_Pages & WRP2_Mask) >> 16);
1039:../../../SDK_embedded/libs/stm32/STM32F10x_StdPeriph_Driver/stm32f10x_flash.c ****   WRP3_Data = (uint16_t)((FLASH_Pages & WRP3_Mask) >> 24);
1040:../../../SDK_embedded/libs/stm32/STM32F10x_StdPeriph_Driver/stm32f10x_flash.c ****   
1041:../../../SDK_embedded/libs/stm32/STM32F10x_StdPeriph_Driver/stm32f10x_flash.c ****   /* Wait for last operation to be completed */
1042:../../../SDK_embedded/libs/stm32/STM32F10x_StdPeriph_Driver/stm32f10x_flash.c ****   status = FLASH_WaitForLastOperation(ProgramTimeout);
1043:../../../SDK_embedded/libs/stm32/STM32F10x_StdPeriph_Driver/stm32f10x_flash.c ****   
1044:../../../SDK_embedded/libs/stm32/STM32F10x_StdPeriph_Driver/stm32f10x_flash.c ****   if(status == FLASH_COMPLETE)
1045:../../../SDK_embedded/libs/stm32/STM32F10x_StdPeriph_Driver/stm32f10x_flash.c ****   {
1046:../../../SDK_embedded/libs/stm32/STM32F10x_StdPeriph_Driver/stm32f10x_flash.c ****     /* Authorizes the small information block programming */
1047:../../../SDK_embedded/libs/stm32/STM32F10x_StdPeriph_Driver/stm32f10x_flash.c ****     FLASH->OPTKEYR = FLASH_KEY1;
1048:../../../SDK_embedded/libs/stm32/STM32F10x_StdPeriph_Driver/stm32f10x_flash.c ****     FLASH->OPTKEYR = FLASH_KEY2;
1049:../../../SDK_embedded/libs/stm32/STM32F10x_StdPeriph_Driver/stm32f10x_flash.c ****     FLASH->CR |= CR_OPTPG_Set;
1050:../../../SDK_embedded/libs/stm32/STM32F10x_StdPeriph_Driver/stm32f10x_flash.c ****     if(WRP0_Data != 0xFF)
1051:../../../SDK_embedded/libs/stm32/STM32F10x_StdPeriph_Driver/stm32f10x_flash.c ****     {
1052:../../../SDK_embedded/libs/stm32/STM32F10x_StdPeriph_Driver/stm32f10x_flash.c ****       OB->WRP0 = WRP0_Data;
1053:../../../SDK_embedded/libs/stm32/STM32F10x_StdPeriph_Driver/stm32f10x_flash.c ****       
1054:../../../SDK_embedded/libs/stm32/STM32F10x_StdPeriph_Driver/stm32f10x_flash.c ****       /* Wait for last operation to be completed */
1055:../../../SDK_embedded/libs/stm32/STM32F10x_StdPeriph_Driver/stm32f10x_flash.c ****       status = FLASH_WaitForLastOperation(ProgramTimeout);
1056:../../../SDK_embedded/libs/stm32/STM32F10x_StdPeriph_Driver/stm32f10x_flash.c ****     }
1057:../../../SDK_embedded/libs/stm32/STM32F10x_StdPeriph_Driver/stm32f10x_flash.c ****     if((status == FLASH_COMPLETE) && (WRP1_Data != 0xFF))
1058:../../../SDK_embedded/libs/stm32/STM32F10x_StdPeriph_Driver/stm32f10x_flash.c ****     {
1059:../../../SDK_embedded/libs/stm32/STM32F10x_StdPeriph_Driver/stm32f10x_flash.c ****       OB->WRP1 = WRP1_Data;
1060:../../../SDK_embedded/libs/stm32/STM32F10x_StdPeriph_Driver/stm32f10x_flash.c ****       
1061:../../../SDK_embedded/libs/stm32/STM32F10x_StdPeriph_Driver/stm32f10x_flash.c ****       /* Wait for last operation to be completed */
1062:../../../SDK_embedded/libs/stm32/STM32F10x_StdPeriph_Driver/stm32f10x_flash.c ****       status = FLASH_WaitForLastOperation(ProgramTimeout);
1063:../../../SDK_embedded/libs/stm32/STM32F10x_StdPeriph_Driver/stm32f10x_flash.c ****     }
1064:../../../SDK_embedded/libs/stm32/STM32F10x_StdPeriph_Driver/stm32f10x_flash.c ****     if((status == FLASH_COMPLETE) && (WRP2_Data != 0xFF))
1065:../../../SDK_embedded/libs/stm32/STM32F10x_StdPeriph_Driver/stm32f10x_flash.c ****     {
1066:../../../SDK_embedded/libs/stm32/STM32F10x_StdPeriph_Driver/stm32f10x_flash.c ****       OB->WRP2 = WRP2_Data;
1067:../../../SDK_embedded/libs/stm32/STM32F10x_StdPeriph_Driver/stm32f10x_flash.c ****       
1068:../../../SDK_embedded/libs/stm32/STM32F10x_StdPeriph_Driver/stm32f10x_flash.c ****       /* Wait for last operation to be completed */
1069:../../../SDK_embedded/libs/stm32/STM32F10x_StdPeriph_Driver/stm32f10x_flash.c ****       status = FLASH_WaitForLastOperation(ProgramTimeout);
1070:../../../SDK_embedded/libs/stm32/STM32F10x_StdPeriph_Driver/stm32f10x_flash.c ****     }
1071:../../../SDK_embedded/libs/stm32/STM32F10x_StdPeriph_Driver/stm32f10x_flash.c ****     
1072:../../../SDK_embedded/libs/stm32/STM32F10x_StdPeriph_Driver/stm32f10x_flash.c ****     if((status == FLASH_COMPLETE)&& (WRP3_Data != 0xFF))
1073:../../../SDK_embedded/libs/stm32/STM32F10x_StdPeriph_Driver/stm32f10x_flash.c ****     {
1074:../../../SDK_embedded/libs/stm32/STM32F10x_StdPeriph_Driver/stm32f10x_flash.c ****       OB->WRP3 = WRP3_Data;
1075:../../../SDK_embedded/libs/stm32/STM32F10x_StdPeriph_Driver/stm32f10x_flash.c ****      
1076:../../../SDK_embedded/libs/stm32/STM32F10x_StdPeriph_Driver/stm32f10x_flash.c ****       /* Wait for last operation to be completed */
1077:../../../SDK_embedded/libs/stm32/STM32F10x_StdPeriph_Driver/stm32f10x_flash.c ****       status = FLASH_WaitForLastOperation(ProgramTimeout);
1078:../../../SDK_embedded/libs/stm32/STM32F10x_StdPeriph_Driver/stm32f10x_flash.c ****     }
1079:../../../SDK_embedded/libs/stm32/STM32F10x_StdPeriph_Driver/stm32f10x_flash.c ****           
1080:../../../SDK_embedded/libs/stm32/STM32F10x_StdPeriph_Driver/stm32f10x_flash.c ****     if(status != FLASH_TIMEOUT)
1081:../../../SDK_embedded/libs/stm32/STM32F10x_StdPeriph_Driver/stm32f10x_flash.c ****     {
1082:../../../SDK_embedded/libs/stm32/STM32F10x_StdPeriph_Driver/stm32f10x_flash.c ****       /* if the program operation is completed, disable the OPTPG Bit */
1083:../../../SDK_embedded/libs/stm32/STM32F10x_StdPeriph_Driver/stm32f10x_flash.c ****       FLASH->CR &= CR_OPTPG_Reset;
1084:../../../SDK_embedded/libs/stm32/STM32F10x_StdPeriph_Driver/stm32f10x_flash.c ****     }
1085:../../../SDK_embedded/libs/stm32/STM32F10x_StdPeriph_Driver/stm32f10x_flash.c ****   } 
1086:../../../SDK_embedded/libs/stm32/STM32F10x_StdPeriph_Driver/stm32f10x_flash.c ****   /* Return the write protection operation Status */
1087:../../../SDK_embedded/libs/stm32/STM32F10x_StdPeriph_Driver/stm32f10x_flash.c ****   return status;       
1088:../../../SDK_embedded/libs/stm32/STM32F10x_StdPeriph_Driver/stm32f10x_flash.c **** }
1089:../../../SDK_embedded/libs/stm32/STM32F10x_StdPeriph_Driver/stm32f10x_flash.c **** 
1090:../../../SDK_embedded/libs/stm32/STM32F10x_StdPeriph_Driver/stm32f10x_flash.c **** /**
1091:../../../SDK_embedded/libs/stm32/STM32F10x_StdPeriph_Driver/stm32f10x_flash.c ****   * @brief  Enables or disables the read out protection.
1092:../../../SDK_embedded/libs/stm32/STM32F10x_StdPeriph_Driver/stm32f10x_flash.c ****   * @note   If the user has already programmed the other option bytes before calling 
1093:../../../SDK_embedded/libs/stm32/STM32F10x_StdPeriph_Driver/stm32f10x_flash.c ****   *   this function, he must re-program them since this function erases all option bytes.
1094:../../../SDK_embedded/libs/stm32/STM32F10x_StdPeriph_Driver/stm32f10x_flash.c ****   * @note   This function can be used for all STM32F10x devices.
1095:../../../SDK_embedded/libs/stm32/STM32F10x_StdPeriph_Driver/stm32f10x_flash.c ****   * @param  Newstate: new state of the ReadOut Protection.
1096:../../../SDK_embedded/libs/stm32/STM32F10x_StdPeriph_Driver/stm32f10x_flash.c ****   *   This parameter can be: ENABLE or DISABLE.
1097:../../../SDK_embedded/libs/stm32/STM32F10x_StdPeriph_Driver/stm32f10x_flash.c ****   * @retval FLASH Status: The returned value can be: FLASH_ERROR_PG,
1098:../../../SDK_embedded/libs/stm32/STM32F10x_StdPeriph_Driver/stm32f10x_flash.c ****   *   FLASH_ERROR_WRP, FLASH_COMPLETE or FLASH_TIMEOUT.
1099:../../../SDK_embedded/libs/stm32/STM32F10x_StdPeriph_Driver/stm32f10x_flash.c ****   */
1100:../../../SDK_embedded/libs/stm32/STM32F10x_StdPeriph_Driver/stm32f10x_flash.c **** FLASH_Status FLASH_ReadOutProtection(FunctionalState NewState)
1101:../../../SDK_embedded/libs/stm32/STM32F10x_StdPeriph_Driver/stm32f10x_flash.c **** {
1102:../../../SDK_embedded/libs/stm32/STM32F10x_StdPeriph_Driver/stm32f10x_flash.c ****   FLASH_Status status = FLASH_COMPLETE;
1103:../../../SDK_embedded/libs/stm32/STM32F10x_StdPeriph_Driver/stm32f10x_flash.c ****   /* Check the parameters */
1104:../../../SDK_embedded/libs/stm32/STM32F10x_StdPeriph_Driver/stm32f10x_flash.c ****   assert_param(IS_FUNCTIONAL_STATE(NewState));
1105:../../../SDK_embedded/libs/stm32/STM32F10x_StdPeriph_Driver/stm32f10x_flash.c ****   status = FLASH_WaitForLastOperation(EraseTimeout);
1106:../../../SDK_embedded/libs/stm32/STM32F10x_StdPeriph_Driver/stm32f10x_flash.c ****   if(status == FLASH_COMPLETE)
1107:../../../SDK_embedded/libs/stm32/STM32F10x_StdPeriph_Driver/stm32f10x_flash.c ****   {
1108:../../../SDK_embedded/libs/stm32/STM32F10x_StdPeriph_Driver/stm32f10x_flash.c ****     /* Authorizes the small information block programming */
1109:../../../SDK_embedded/libs/stm32/STM32F10x_StdPeriph_Driver/stm32f10x_flash.c ****     FLASH->OPTKEYR = FLASH_KEY1;
1110:../../../SDK_embedded/libs/stm32/STM32F10x_StdPeriph_Driver/stm32f10x_flash.c ****     FLASH->OPTKEYR = FLASH_KEY2;
1111:../../../SDK_embedded/libs/stm32/STM32F10x_StdPeriph_Driver/stm32f10x_flash.c ****     FLASH->CR |= CR_OPTER_Set;
1112:../../../SDK_embedded/libs/stm32/STM32F10x_StdPeriph_Driver/stm32f10x_flash.c ****     FLASH->CR |= CR_STRT_Set;
1113:../../../SDK_embedded/libs/stm32/STM32F10x_StdPeriph_Driver/stm32f10x_flash.c ****     /* Wait for last operation to be completed */
1114:../../../SDK_embedded/libs/stm32/STM32F10x_StdPeriph_Driver/stm32f10x_flash.c ****     status = FLASH_WaitForLastOperation(EraseTimeout);
1115:../../../SDK_embedded/libs/stm32/STM32F10x_StdPeriph_Driver/stm32f10x_flash.c ****     if(status == FLASH_COMPLETE)
1116:../../../SDK_embedded/libs/stm32/STM32F10x_StdPeriph_Driver/stm32f10x_flash.c ****     {
1117:../../../SDK_embedded/libs/stm32/STM32F10x_StdPeriph_Driver/stm32f10x_flash.c ****       /* if the erase operation is completed, disable the OPTER Bit */
1118:../../../SDK_embedded/libs/stm32/STM32F10x_StdPeriph_Driver/stm32f10x_flash.c ****       FLASH->CR &= CR_OPTER_Reset;
1119:../../../SDK_embedded/libs/stm32/STM32F10x_StdPeriph_Driver/stm32f10x_flash.c ****       /* Enable the Option Bytes Programming operation */
1120:../../../SDK_embedded/libs/stm32/STM32F10x_StdPeriph_Driver/stm32f10x_flash.c ****       FLASH->CR |= CR_OPTPG_Set; 
1121:../../../SDK_embedded/libs/stm32/STM32F10x_StdPeriph_Driver/stm32f10x_flash.c ****       if(NewState != DISABLE)
1122:../../../SDK_embedded/libs/stm32/STM32F10x_StdPeriph_Driver/stm32f10x_flash.c ****       {
1123:../../../SDK_embedded/libs/stm32/STM32F10x_StdPeriph_Driver/stm32f10x_flash.c ****         OB->RDP = 0x00;
1124:../../../SDK_embedded/libs/stm32/STM32F10x_StdPeriph_Driver/stm32f10x_flash.c ****       }
1125:../../../SDK_embedded/libs/stm32/STM32F10x_StdPeriph_Driver/stm32f10x_flash.c ****       else
1126:../../../SDK_embedded/libs/stm32/STM32F10x_StdPeriph_Driver/stm32f10x_flash.c ****       {
1127:../../../SDK_embedded/libs/stm32/STM32F10x_StdPeriph_Driver/stm32f10x_flash.c ****         OB->RDP = RDP_Key;  
1128:../../../SDK_embedded/libs/stm32/STM32F10x_StdPeriph_Driver/stm32f10x_flash.c ****       }
1129:../../../SDK_embedded/libs/stm32/STM32F10x_StdPeriph_Driver/stm32f10x_flash.c ****       /* Wait for last operation to be completed */
1130:../../../SDK_embedded/libs/stm32/STM32F10x_StdPeriph_Driver/stm32f10x_flash.c ****       status = FLASH_WaitForLastOperation(EraseTimeout); 
1131:../../../SDK_embedded/libs/stm32/STM32F10x_StdPeriph_Driver/stm32f10x_flash.c ****     
1132:../../../SDK_embedded/libs/stm32/STM32F10x_StdPeriph_Driver/stm32f10x_flash.c ****       if(status != FLASH_TIMEOUT)
1133:../../../SDK_embedded/libs/stm32/STM32F10x_StdPeriph_Driver/stm32f10x_flash.c ****       {
1134:../../../SDK_embedded/libs/stm32/STM32F10x_StdPeriph_Driver/stm32f10x_flash.c ****         /* if the program operation is completed, disable the OPTPG Bit */
1135:../../../SDK_embedded/libs/stm32/STM32F10x_StdPeriph_Driver/stm32f10x_flash.c ****         FLASH->CR &= CR_OPTPG_Reset;
1136:../../../SDK_embedded/libs/stm32/STM32F10x_StdPeriph_Driver/stm32f10x_flash.c ****       }
1137:../../../SDK_embedded/libs/stm32/STM32F10x_StdPeriph_Driver/stm32f10x_flash.c ****     }
1138:../../../SDK_embedded/libs/stm32/STM32F10x_StdPeriph_Driver/stm32f10x_flash.c ****     else 
1139:../../../SDK_embedded/libs/stm32/STM32F10x_StdPeriph_Driver/stm32f10x_flash.c ****     {
1140:../../../SDK_embedded/libs/stm32/STM32F10x_StdPeriph_Driver/stm32f10x_flash.c ****       if(status != FLASH_TIMEOUT)
1141:../../../SDK_embedded/libs/stm32/STM32F10x_StdPeriph_Driver/stm32f10x_flash.c ****       {
1142:../../../SDK_embedded/libs/stm32/STM32F10x_StdPeriph_Driver/stm32f10x_flash.c ****         /* Disable the OPTER Bit */
1143:../../../SDK_embedded/libs/stm32/STM32F10x_StdPeriph_Driver/stm32f10x_flash.c ****         FLASH->CR &= CR_OPTER_Reset;
1144:../../../SDK_embedded/libs/stm32/STM32F10x_StdPeriph_Driver/stm32f10x_flash.c ****       }
1145:../../../SDK_embedded/libs/stm32/STM32F10x_StdPeriph_Driver/stm32f10x_flash.c ****     }
1146:../../../SDK_embedded/libs/stm32/STM32F10x_StdPeriph_Driver/stm32f10x_flash.c ****   }
1147:../../../SDK_embedded/libs/stm32/STM32F10x_StdPeriph_Driver/stm32f10x_flash.c ****   /* Return the protection operation Status */
1148:../../../SDK_embedded/libs/stm32/STM32F10x_StdPeriph_Driver/stm32f10x_flash.c ****   return status;       
1149:../../../SDK_embedded/libs/stm32/STM32F10x_StdPeriph_Driver/stm32f10x_flash.c **** }
1150:../../../SDK_embedded/libs/stm32/STM32F10x_StdPeriph_Driver/stm32f10x_flash.c **** 
1151:../../../SDK_embedded/libs/stm32/STM32F10x_StdPeriph_Driver/stm32f10x_flash.c **** /**
1152:../../../SDK_embedded/libs/stm32/STM32F10x_StdPeriph_Driver/stm32f10x_flash.c ****   * @brief  Programs the FLASH User Option Byte: IWDG_SW / RST_STOP / RST_STDBY.
1153:../../../SDK_embedded/libs/stm32/STM32F10x_StdPeriph_Driver/stm32f10x_flash.c ****   * @note   This function can be used for all STM32F10x devices.
1154:../../../SDK_embedded/libs/stm32/STM32F10x_StdPeriph_Driver/stm32f10x_flash.c ****   * @param  OB_IWDG: Selects the IWDG mode
1155:../../../SDK_embedded/libs/stm32/STM32F10x_StdPeriph_Driver/stm32f10x_flash.c ****   *   This parameter can be one of the following values:
1156:../../../SDK_embedded/libs/stm32/STM32F10x_StdPeriph_Driver/stm32f10x_flash.c ****   *     @arg OB_IWDG_SW: Software IWDG selected
1157:../../../SDK_embedded/libs/stm32/STM32F10x_StdPeriph_Driver/stm32f10x_flash.c ****   *     @arg OB_IWDG_HW: Hardware IWDG selected
1158:../../../SDK_embedded/libs/stm32/STM32F10x_StdPeriph_Driver/stm32f10x_flash.c ****   * @param  OB_STOP: Reset event when entering STOP mode.
1159:../../../SDK_embedded/libs/stm32/STM32F10x_StdPeriph_Driver/stm32f10x_flash.c ****   *   This parameter can be one of the following values:
1160:../../../SDK_embedded/libs/stm32/STM32F10x_StdPeriph_Driver/stm32f10x_flash.c ****   *     @arg OB_STOP_NoRST: No reset generated when entering in STOP
1161:../../../SDK_embedded/libs/stm32/STM32F10x_StdPeriph_Driver/stm32f10x_flash.c ****   *     @arg OB_STOP_RST: Reset generated when entering in STOP
1162:../../../SDK_embedded/libs/stm32/STM32F10x_StdPeriph_Driver/stm32f10x_flash.c ****   * @param  OB_STDBY: Reset event when entering Standby mode.
1163:../../../SDK_embedded/libs/stm32/STM32F10x_StdPeriph_Driver/stm32f10x_flash.c ****   *   This parameter can be one of the following values:
1164:../../../SDK_embedded/libs/stm32/STM32F10x_StdPeriph_Driver/stm32f10x_flash.c ****   *     @arg OB_STDBY_NoRST: No reset generated when entering in STANDBY
1165:../../../SDK_embedded/libs/stm32/STM32F10x_StdPeriph_Driver/stm32f10x_flash.c ****   *     @arg OB_STDBY_RST: Reset generated when entering in STANDBY
1166:../../../SDK_embedded/libs/stm32/STM32F10x_StdPeriph_Driver/stm32f10x_flash.c ****   * @retval FLASH Status: The returned value can be: FLASH_ERROR_PG, 
1167:../../../SDK_embedded/libs/stm32/STM32F10x_StdPeriph_Driver/stm32f10x_flash.c ****   * FLASH_ERROR_WRP, FLASH_COMPLETE or FLASH_TIMEOUT.
1168:../../../SDK_embedded/libs/stm32/STM32F10x_StdPeriph_Driver/stm32f10x_flash.c ****   */
1169:../../../SDK_embedded/libs/stm32/STM32F10x_StdPeriph_Driver/stm32f10x_flash.c **** FLASH_Status FLASH_UserOptionByteConfig(uint16_t OB_IWDG, uint16_t OB_STOP, uint16_t OB_STDBY)
1170:../../../SDK_embedded/libs/stm32/STM32F10x_StdPeriph_Driver/stm32f10x_flash.c **** {
1171:../../../SDK_embedded/libs/stm32/STM32F10x_StdPeriph_Driver/stm32f10x_flash.c ****   FLASH_Status status = FLASH_COMPLETE; 
1172:../../../SDK_embedded/libs/stm32/STM32F10x_StdPeriph_Driver/stm32f10x_flash.c **** 
1173:../../../SDK_embedded/libs/stm32/STM32F10x_StdPeriph_Driver/stm32f10x_flash.c ****   /* Check the parameters */
1174:../../../SDK_embedded/libs/stm32/STM32F10x_StdPeriph_Driver/stm32f10x_flash.c ****   assert_param(IS_OB_IWDG_SOURCE(OB_IWDG));
1175:../../../SDK_embedded/libs/stm32/STM32F10x_StdPeriph_Driver/stm32f10x_flash.c ****   assert_param(IS_OB_STOP_SOURCE(OB_STOP));
1176:../../../SDK_embedded/libs/stm32/STM32F10x_StdPeriph_Driver/stm32f10x_flash.c ****   assert_param(IS_OB_STDBY_SOURCE(OB_STDBY));
1177:../../../SDK_embedded/libs/stm32/STM32F10x_StdPeriph_Driver/stm32f10x_flash.c **** 
1178:../../../SDK_embedded/libs/stm32/STM32F10x_StdPeriph_Driver/stm32f10x_flash.c ****   /* Authorize the small information block programming */
1179:../../../SDK_embedded/libs/stm32/STM32F10x_StdPeriph_Driver/stm32f10x_flash.c ****   FLASH->OPTKEYR = FLASH_KEY1;
1180:../../../SDK_embedded/libs/stm32/STM32F10x_StdPeriph_Driver/stm32f10x_flash.c ****   FLASH->OPTKEYR = FLASH_KEY2;
1181:../../../SDK_embedded/libs/stm32/STM32F10x_StdPeriph_Driver/stm32f10x_flash.c ****   
1182:../../../SDK_embedded/libs/stm32/STM32F10x_StdPeriph_Driver/stm32f10x_flash.c ****   /* Wait for last operation to be completed */
1183:../../../SDK_embedded/libs/stm32/STM32F10x_StdPeriph_Driver/stm32f10x_flash.c ****   status = FLASH_WaitForLastOperation(ProgramTimeout);
1184:../../../SDK_embedded/libs/stm32/STM32F10x_StdPeriph_Driver/stm32f10x_flash.c ****   
1185:../../../SDK_embedded/libs/stm32/STM32F10x_StdPeriph_Driver/stm32f10x_flash.c ****   if(status == FLASH_COMPLETE)
1186:../../../SDK_embedded/libs/stm32/STM32F10x_StdPeriph_Driver/stm32f10x_flash.c ****   {  
1187:../../../SDK_embedded/libs/stm32/STM32F10x_StdPeriph_Driver/stm32f10x_flash.c ****     /* Enable the Option Bytes Programming operation */
1188:../../../SDK_embedded/libs/stm32/STM32F10x_StdPeriph_Driver/stm32f10x_flash.c ****     FLASH->CR |= CR_OPTPG_Set; 
1189:../../../SDK_embedded/libs/stm32/STM32F10x_StdPeriph_Driver/stm32f10x_flash.c ****            
1190:../../../SDK_embedded/libs/stm32/STM32F10x_StdPeriph_Driver/stm32f10x_flash.c ****     OB->USER = OB_IWDG | (uint16_t)(OB_STOP | (uint16_t)(OB_STDBY | ((uint16_t)0xF8))); 
1191:../../../SDK_embedded/libs/stm32/STM32F10x_StdPeriph_Driver/stm32f10x_flash.c ****   
1192:../../../SDK_embedded/libs/stm32/STM32F10x_StdPeriph_Driver/stm32f10x_flash.c ****     /* Wait for last operation to be completed */
1193:../../../SDK_embedded/libs/stm32/STM32F10x_StdPeriph_Driver/stm32f10x_flash.c ****     status = FLASH_WaitForLastOperation(ProgramTimeout);
1194:../../../SDK_embedded/libs/stm32/STM32F10x_StdPeriph_Driver/stm32f10x_flash.c ****     if(status != FLASH_TIMEOUT)
1195:../../../SDK_embedded/libs/stm32/STM32F10x_StdPeriph_Driver/stm32f10x_flash.c ****     {
1196:../../../SDK_embedded/libs/stm32/STM32F10x_StdPeriph_Driver/stm32f10x_flash.c ****       /* if the program operation is completed, disable the OPTPG Bit */
1197:../../../SDK_embedded/libs/stm32/STM32F10x_StdPeriph_Driver/stm32f10x_flash.c ****       FLASH->CR &= CR_OPTPG_Reset;
1198:../../../SDK_embedded/libs/stm32/STM32F10x_StdPeriph_Driver/stm32f10x_flash.c ****     }
1199:../../../SDK_embedded/libs/stm32/STM32F10x_StdPeriph_Driver/stm32f10x_flash.c ****   }    
1200:../../../SDK_embedded/libs/stm32/STM32F10x_StdPeriph_Driver/stm32f10x_flash.c ****   /* Return the Option Byte program Status */
1201:../../../SDK_embedded/libs/stm32/STM32F10x_StdPeriph_Driver/stm32f10x_flash.c ****   return status;
1202:../../../SDK_embedded/libs/stm32/STM32F10x_StdPeriph_Driver/stm32f10x_flash.c **** }
1203:../../../SDK_embedded/libs/stm32/STM32F10x_StdPeriph_Driver/stm32f10x_flash.c **** 
1204:../../../SDK_embedded/libs/stm32/STM32F10x_StdPeriph_Driver/stm32f10x_flash.c **** #ifdef STM32F10X_XL
1205:../../../SDK_embedded/libs/stm32/STM32F10x_StdPeriph_Driver/stm32f10x_flash.c **** /**
1206:../../../SDK_embedded/libs/stm32/STM32F10x_StdPeriph_Driver/stm32f10x_flash.c ****   * @brief  Configures to boot from Bank1 or Bank2.  
1207:../../../SDK_embedded/libs/stm32/STM32F10x_StdPeriph_Driver/stm32f10x_flash.c ****   * @note   This function can be used only for STM32F10x_XL density devices.
1208:../../../SDK_embedded/libs/stm32/STM32F10x_StdPeriph_Driver/stm32f10x_flash.c ****   * @param  FLASH_BOOT: select the FLASH Bank to boot from.
1209:../../../SDK_embedded/libs/stm32/STM32F10x_StdPeriph_Driver/stm32f10x_flash.c ****   *   This parameter can be one of the following values:
1210:../../../SDK_embedded/libs/stm32/STM32F10x_StdPeriph_Driver/stm32f10x_flash.c ****   *     @arg FLASH_BOOT_Bank1: At startup, if boot pins are set in boot from user Flash
1211:../../../SDK_embedded/libs/stm32/STM32F10x_StdPeriph_Driver/stm32f10x_flash.c ****   *        position and this parameter is selected the device will boot from Bank1(Default).
1212:../../../SDK_embedded/libs/stm32/STM32F10x_StdPeriph_Driver/stm32f10x_flash.c ****   *     @arg FLASH_BOOT_Bank2: At startup, if boot pins are set in boot from user Flash
1213:../../../SDK_embedded/libs/stm32/STM32F10x_StdPeriph_Driver/stm32f10x_flash.c ****   *        position and this parameter is selected the device will boot from Bank2 or Bank1,
1214:../../../SDK_embedded/libs/stm32/STM32F10x_StdPeriph_Driver/stm32f10x_flash.c ****   *        depending on the activation of the bank. The active banks are checked in
1215:../../../SDK_embedded/libs/stm32/STM32F10x_StdPeriph_Driver/stm32f10x_flash.c ****   *        the following order: Bank2, followed by Bank1.
1216:../../../SDK_embedded/libs/stm32/STM32F10x_StdPeriph_Driver/stm32f10x_flash.c ****   *        The active bank is recognized by the value programmed at the base address
1217:../../../SDK_embedded/libs/stm32/STM32F10x_StdPeriph_Driver/stm32f10x_flash.c ****   *        of the respective bank (corresponding to the initial stack pointer value
1218:../../../SDK_embedded/libs/stm32/STM32F10x_StdPeriph_Driver/stm32f10x_flash.c ****   *        in the interrupt vector table).
1219:../../../SDK_embedded/libs/stm32/STM32F10x_StdPeriph_Driver/stm32f10x_flash.c ****   *        For more information, please refer to AN2606 from www.st.com.    
1220:../../../SDK_embedded/libs/stm32/STM32F10x_StdPeriph_Driver/stm32f10x_flash.c ****   * @retval FLASH Status: The returned value can be: FLASH_ERROR_PG, 
1221:../../../SDK_embedded/libs/stm32/STM32F10x_StdPeriph_Driver/stm32f10x_flash.c ****   * FLASH_ERROR_WRP, FLASH_COMPLETE or FLASH_TIMEOUT.
1222:../../../SDK_embedded/libs/stm32/STM32F10x_StdPeriph_Driver/stm32f10x_flash.c ****   */
1223:../../../SDK_embedded/libs/stm32/STM32F10x_StdPeriph_Driver/stm32f10x_flash.c **** FLASH_Status FLASH_BootConfig(uint16_t FLASH_BOOT)
1224:../../../SDK_embedded/libs/stm32/STM32F10x_StdPeriph_Driver/stm32f10x_flash.c **** { 
1225:../../../SDK_embedded/libs/stm32/STM32F10x_StdPeriph_Driver/stm32f10x_flash.c ****   FLASH_Status status = FLASH_COMPLETE; 
1226:../../../SDK_embedded/libs/stm32/STM32F10x_StdPeriph_Driver/stm32f10x_flash.c ****   assert_param(IS_FLASH_BOOT(FLASH_BOOT));
1227:../../../SDK_embedded/libs/stm32/STM32F10x_StdPeriph_Driver/stm32f10x_flash.c ****   /* Authorize the small information block programming */
1228:../../../SDK_embedded/libs/stm32/STM32F10x_StdPeriph_Driver/stm32f10x_flash.c ****   FLASH->OPTKEYR = FLASH_KEY1;
1229:../../../SDK_embedded/libs/stm32/STM32F10x_StdPeriph_Driver/stm32f10x_flash.c ****   FLASH->OPTKEYR = FLASH_KEY2;
1230:../../../SDK_embedded/libs/stm32/STM32F10x_StdPeriph_Driver/stm32f10x_flash.c ****   
1231:../../../SDK_embedded/libs/stm32/STM32F10x_StdPeriph_Driver/stm32f10x_flash.c ****   /* Wait for last operation to be completed */
1232:../../../SDK_embedded/libs/stm32/STM32F10x_StdPeriph_Driver/stm32f10x_flash.c ****   status = FLASH_WaitForLastOperation(ProgramTimeout);
1233:../../../SDK_embedded/libs/stm32/STM32F10x_StdPeriph_Driver/stm32f10x_flash.c ****   
1234:../../../SDK_embedded/libs/stm32/STM32F10x_StdPeriph_Driver/stm32f10x_flash.c ****   if(status == FLASH_COMPLETE)
1235:../../../SDK_embedded/libs/stm32/STM32F10x_StdPeriph_Driver/stm32f10x_flash.c ****   {  
1236:../../../SDK_embedded/libs/stm32/STM32F10x_StdPeriph_Driver/stm32f10x_flash.c ****     /* Enable the Option Bytes Programming operation */
1237:../../../SDK_embedded/libs/stm32/STM32F10x_StdPeriph_Driver/stm32f10x_flash.c ****     FLASH->CR |= CR_OPTPG_Set; 
1238:../../../SDK_embedded/libs/stm32/STM32F10x_StdPeriph_Driver/stm32f10x_flash.c **** 
1239:../../../SDK_embedded/libs/stm32/STM32F10x_StdPeriph_Driver/stm32f10x_flash.c ****     if(FLASH_BOOT == FLASH_BOOT_Bank1)
1240:../../../SDK_embedded/libs/stm32/STM32F10x_StdPeriph_Driver/stm32f10x_flash.c ****     {
1241:../../../SDK_embedded/libs/stm32/STM32F10x_StdPeriph_Driver/stm32f10x_flash.c ****       OB->USER |= OB_USER_BFB2;
1242:../../../SDK_embedded/libs/stm32/STM32F10x_StdPeriph_Driver/stm32f10x_flash.c ****     }
1243:../../../SDK_embedded/libs/stm32/STM32F10x_StdPeriph_Driver/stm32f10x_flash.c ****     else
1244:../../../SDK_embedded/libs/stm32/STM32F10x_StdPeriph_Driver/stm32f10x_flash.c ****     {
1245:../../../SDK_embedded/libs/stm32/STM32F10x_StdPeriph_Driver/stm32f10x_flash.c ****       OB->USER &= (uint16_t)(~(uint16_t)(OB_USER_BFB2));
1246:../../../SDK_embedded/libs/stm32/STM32F10x_StdPeriph_Driver/stm32f10x_flash.c ****     }
1247:../../../SDK_embedded/libs/stm32/STM32F10x_StdPeriph_Driver/stm32f10x_flash.c ****     /* Wait for last operation to be completed */
1248:../../../SDK_embedded/libs/stm32/STM32F10x_StdPeriph_Driver/stm32f10x_flash.c ****     status = FLASH_WaitForLastOperation(ProgramTimeout);
1249:../../../SDK_embedded/libs/stm32/STM32F10x_StdPeriph_Driver/stm32f10x_flash.c ****     if(status != FLASH_TIMEOUT)
1250:../../../SDK_embedded/libs/stm32/STM32F10x_StdPeriph_Driver/stm32f10x_flash.c ****     {
1251:../../../SDK_embedded/libs/stm32/STM32F10x_StdPeriph_Driver/stm32f10x_flash.c ****       /* if the program operation is completed, disable the OPTPG Bit */
1252:../../../SDK_embedded/libs/stm32/STM32F10x_StdPeriph_Driver/stm32f10x_flash.c ****       FLASH->CR &= CR_OPTPG_Reset;
1253:../../../SDK_embedded/libs/stm32/STM32F10x_StdPeriph_Driver/stm32f10x_flash.c ****     }
1254:../../../SDK_embedded/libs/stm32/STM32F10x_StdPeriph_Driver/stm32f10x_flash.c ****   }    
1255:../../../SDK_embedded/libs/stm32/STM32F10x_StdPeriph_Driver/stm32f10x_flash.c ****   /* Return the Option Byte program Status */
1256:../../../SDK_embedded/libs/stm32/STM32F10x_StdPeriph_Driver/stm32f10x_flash.c ****   return status;
1257:../../../SDK_embedded/libs/stm32/STM32F10x_StdPeriph_Driver/stm32f10x_flash.c **** }
1258:../../../SDK_embedded/libs/stm32/STM32F10x_StdPeriph_Driver/stm32f10x_flash.c **** #endif /* STM32F10X_XL */
1259:../../../SDK_embedded/libs/stm32/STM32F10x_StdPeriph_Driver/stm32f10x_flash.c **** 
1260:../../../SDK_embedded/libs/stm32/STM32F10x_StdPeriph_Driver/stm32f10x_flash.c **** /**
1261:../../../SDK_embedded/libs/stm32/STM32F10x_StdPeriph_Driver/stm32f10x_flash.c ****   * @brief  Returns the FLASH User Option Bytes values.
1262:../../../SDK_embedded/libs/stm32/STM32F10x_StdPeriph_Driver/stm32f10x_flash.c ****   * @note   This function can be used for all STM32F10x devices.
1263:../../../SDK_embedded/libs/stm32/STM32F10x_StdPeriph_Driver/stm32f10x_flash.c ****   * @param  None
1264:../../../SDK_embedded/libs/stm32/STM32F10x_StdPeriph_Driver/stm32f10x_flash.c ****   * @retval The FLASH User Option Bytes values:IWDG_SW(Bit0), RST_STOP(Bit1)
1265:../../../SDK_embedded/libs/stm32/STM32F10x_StdPeriph_Driver/stm32f10x_flash.c ****   *   and RST_STDBY(Bit2).
1266:../../../SDK_embedded/libs/stm32/STM32F10x_StdPeriph_Driver/stm32f10x_flash.c ****   */
1267:../../../SDK_embedded/libs/stm32/STM32F10x_StdPeriph_Driver/stm32f10x_flash.c **** uint32_t FLASH_GetUserOptionByte(void)
1268:../../../SDK_embedded/libs/stm32/STM32F10x_StdPeriph_Driver/stm32f10x_flash.c **** {
 16447              		.loc 1 1268 0
 16448              		.cfi_startproc
 16449              		@ args = 0, pretend = 0, frame = 0
 16450              		@ frame_needed = 0, uses_anonymous_args = 0
 16451              		@ link register save eliminated.
1269:../../../SDK_embedded/libs/stm32/STM32F10x_StdPeriph_Driver/stm32f10x_flash.c ****   /* Return the User Option Byte */
1270:../../../SDK_embedded/libs/stm32/STM32F10x_StdPeriph_Driver/stm32f10x_flash.c ****   return (uint32_t)(FLASH->OBR >> 2);
 16452              		.loc 1 1270 0
 16453 0000 014B     		ldr	r3, .L23
 16454 0002 D869     		ldr	r0, [r3, #28]
 16455 0004 8008     		lsrs	r0, r0, #2
1271:../../../SDK_embedded/libs/stm32/STM32F10x_StdPeriph_Driver/stm32f10x_flash.c **** }
 16456              		.loc 1 1271 0
 16457 0006 7047     		bx	lr
 16458              	.L24:
 16459              		.align	2
 16460              	.L23:
 16461 0008 00200240 		.word	1073881088
 16462              		.cfi_endproc
 16463              	.LFE46:
 16465              		.section	.text.FLASH_GetWriteProtectionOptionByte,"ax",%progbits
 16466              		.align	1
 16467              		.global	FLASH_GetWriteProtectionOptionByte
 16468              		.thumb
 16469              		.thumb_func
 16471              	FLASH_GetWriteProtectionOptionByte:
 16472              	.LFB47:
1272:../../../SDK_embedded/libs/stm32/STM32F10x_StdPeriph_Driver/stm32f10x_flash.c **** 
1273:../../../SDK_embedded/libs/stm32/STM32F10x_StdPeriph_Driver/stm32f10x_flash.c **** /**
1274:../../../SDK_embedded/libs/stm32/STM32F10x_StdPeriph_Driver/stm32f10x_flash.c ****   * @brief  Returns the FLASH Write Protection Option Bytes Register value.
1275:../../../SDK_embedded/libs/stm32/STM32F10x_StdPeriph_Driver/stm32f10x_flash.c ****   * @note   This function can be used for all STM32F10x devices.
1276:../../../SDK_embedded/libs/stm32/STM32F10x_StdPeriph_Driver/stm32f10x_flash.c ****   * @param  None
1277:../../../SDK_embedded/libs/stm32/STM32F10x_StdPeriph_Driver/stm32f10x_flash.c ****   * @retval The FLASH Write Protection  Option Bytes Register value
1278:../../../SDK_embedded/libs/stm32/STM32F10x_StdPeriph_Driver/stm32f10x_flash.c ****   */
1279:../../../SDK_embedded/libs/stm32/STM32F10x_StdPeriph_Driver/stm32f10x_flash.c **** uint32_t FLASH_GetWriteProtectionOptionByte(void)
1280:../../../SDK_embedded/libs/stm32/STM32F10x_StdPeriph_Driver/stm32f10x_flash.c **** {
 16473              		.loc 1 1280 0
 16474              		.cfi_startproc
 16475              		@ args = 0, pretend = 0, frame = 0
 16476              		@ frame_needed = 0, uses_anonymous_args = 0
 16477              		@ link register save eliminated.
1281:../../../SDK_embedded/libs/stm32/STM32F10x_StdPeriph_Driver/stm32f10x_flash.c ****   /* Return the Falsh write protection Register value */
1282:../../../SDK_embedded/libs/stm32/STM32F10x_StdPeriph_Driver/stm32f10x_flash.c ****   return (uint32_t)(FLASH->WRPR);
 16478              		.loc 1 1282 0
 16479 0000 014B     		ldr	r3, .L26
 16480 0002 186A     		ldr	r0, [r3, #32]
1283:../../../SDK_embedded/libs/stm32/STM32F10x_StdPeriph_Driver/stm32f10x_flash.c **** }
 16481              		.loc 1 1283 0
 16482 0004 7047     		bx	lr
 16483              	.L27:
 16484 0006 00BF     		.align	2
 16485              	.L26:
 16486 0008 00200240 		.word	1073881088
 16487              		.cfi_endproc
 16488              	.LFE47:
 16490              		.section	.text.FLASH_GetReadOutProtectionStatus,"ax",%progbits
 16491              		.align	1
 16492              		.global	FLASH_GetReadOutProtectionStatus
 16493              		.thumb
 16494              		.thumb_func
 16496              	FLASH_GetReadOutProtectionStatus:
 16497              	.LFB48:
1284:../../../SDK_embedded/libs/stm32/STM32F10x_StdPeriph_Driver/stm32f10x_flash.c **** 
1285:../../../SDK_embedded/libs/stm32/STM32F10x_StdPeriph_Driver/stm32f10x_flash.c **** /**
1286:../../../SDK_embedded/libs/stm32/STM32F10x_StdPeriph_Driver/stm32f10x_flash.c ****   * @brief  Checks whether the FLASH Read Out Protection Status is set or not.
1287:../../../SDK_embedded/libs/stm32/STM32F10x_StdPeriph_Driver/stm32f10x_flash.c ****   * @note   This function can be used for all STM32F10x devices.
1288:../../../SDK_embedded/libs/stm32/STM32F10x_StdPeriph_Driver/stm32f10x_flash.c ****   * @param  None
1289:../../../SDK_embedded/libs/stm32/STM32F10x_StdPeriph_Driver/stm32f10x_flash.c ****   * @retval FLASH ReadOut Protection Status(SET or RESET)
1290:../../../SDK_embedded/libs/stm32/STM32F10x_StdPeriph_Driver/stm32f10x_flash.c ****   */
1291:../../../SDK_embedded/libs/stm32/STM32F10x_StdPeriph_Driver/stm32f10x_flash.c **** FlagStatus FLASH_GetReadOutProtectionStatus(void)
1292:../../../SDK_embedded/libs/stm32/STM32F10x_StdPeriph_Driver/stm32f10x_flash.c **** {
 16498              		.loc 1 1292 0
 16499              		.cfi_startproc
 16500              		@ args = 0, pretend = 0, frame = 0
 16501              		@ frame_needed = 0, uses_anonymous_args = 0
 16502              		@ link register save eliminated.
 16503              	.LVL8:
1293:../../../SDK_embedded/libs/stm32/STM32F10x_StdPeriph_Driver/stm32f10x_flash.c ****   FlagStatus readoutstatus = RESET;
1294:../../../SDK_embedded/libs/stm32/STM32F10x_StdPeriph_Driver/stm32f10x_flash.c ****   if ((FLASH->OBR & RDPRT_Mask) != (uint32_t)RESET)
 16504              		.loc 1 1294 0
 16505 0000 024B     		ldr	r3, .L29
 16506 0002 D869     		ldr	r0, [r3, #28]
 16507              	.LVL9:
 16508 0004 C0F34000 		ubfx	r0, r0, #1, #1
 16509              	.LVL10:
1295:../../../SDK_embedded/libs/stm32/STM32F10x_StdPeriph_Driver/stm32f10x_flash.c ****   {
1296:../../../SDK_embedded/libs/stm32/STM32F10x_StdPeriph_Driver/stm32f10x_flash.c ****     readoutstatus = SET;
1297:../../../SDK_embedded/libs/stm32/STM32F10x_StdPeriph_Driver/stm32f10x_flash.c ****   }
1298:../../../SDK_embedded/libs/stm32/STM32F10x_StdPeriph_Driver/stm32f10x_flash.c ****   else
1299:../../../SDK_embedded/libs/stm32/STM32F10x_StdPeriph_Driver/stm32f10x_flash.c ****   {
1300:../../../SDK_embedded/libs/stm32/STM32F10x_StdPeriph_Driver/stm32f10x_flash.c ****     readoutstatus = RESET;
1301:../../../SDK_embedded/libs/stm32/STM32F10x_StdPeriph_Driver/stm32f10x_flash.c ****   }
1302:../../../SDK_embedded/libs/stm32/STM32F10x_StdPeriph_Driver/stm32f10x_flash.c ****   return readoutstatus;
1303:../../../SDK_embedded/libs/stm32/STM32F10x_StdPeriph_Driver/stm32f10x_flash.c **** }
 16510              		.loc 1 1303 0
 16511 0008 7047     		bx	lr
 16512              	.L30:
 16513 000a 00BF     		.align	2
 16514              	.L29:
 16515 000c 00200240 		.word	1073881088
 16516              		.cfi_endproc
 16517              	.LFE48:
 16519              		.section	.text.FLASH_GetPrefetchBufferStatus,"ax",%progbits
 16520              		.align	1
 16521              		.global	FLASH_GetPrefetchBufferStatus
 16522              		.thumb
 16523              		.thumb_func
 16525              	FLASH_GetPrefetchBufferStatus:
 16526              	.LFB49:
1304:../../../SDK_embedded/libs/stm32/STM32F10x_StdPeriph_Driver/stm32f10x_flash.c **** 
1305:../../../SDK_embedded/libs/stm32/STM32F10x_StdPeriph_Driver/stm32f10x_flash.c **** /**
1306:../../../SDK_embedded/libs/stm32/STM32F10x_StdPeriph_Driver/stm32f10x_flash.c ****   * @brief  Checks whether the FLASH Prefetch Buffer status is set or not.
1307:../../../SDK_embedded/libs/stm32/STM32F10x_StdPeriph_Driver/stm32f10x_flash.c ****   * @note   This function can be used for all STM32F10x devices.
1308:../../../SDK_embedded/libs/stm32/STM32F10x_StdPeriph_Driver/stm32f10x_flash.c ****   * @param  None
1309:../../../SDK_embedded/libs/stm32/STM32F10x_StdPeriph_Driver/stm32f10x_flash.c ****   * @retval FLASH Prefetch Buffer Status (SET or RESET).
1310:../../../SDK_embedded/libs/stm32/STM32F10x_StdPeriph_Driver/stm32f10x_flash.c ****   */
1311:../../../SDK_embedded/libs/stm32/STM32F10x_StdPeriph_Driver/stm32f10x_flash.c **** FlagStatus FLASH_GetPrefetchBufferStatus(void)
1312:../../../SDK_embedded/libs/stm32/STM32F10x_StdPeriph_Driver/stm32f10x_flash.c **** {
 16527              		.loc 1 1312 0
 16528              		.cfi_startproc
 16529              		@ args = 0, pretend = 0, frame = 0
 16530              		@ frame_needed = 0, uses_anonymous_args = 0
 16531              		@ link register save eliminated.
 16532              	.LVL11:
1313:../../../SDK_embedded/libs/stm32/STM32F10x_StdPeriph_Driver/stm32f10x_flash.c ****   FlagStatus bitstatus = RESET;
1314:../../../SDK_embedded/libs/stm32/STM32F10x_StdPeriph_Driver/stm32f10x_flash.c ****   
1315:../../../SDK_embedded/libs/stm32/STM32F10x_StdPeriph_Driver/stm32f10x_flash.c ****   if ((FLASH->ACR & ACR_PRFTBS_Mask) != (uint32_t)RESET)
 16533              		.loc 1 1315 0
 16534 0000 024B     		ldr	r3, .L32
 16535 0002 1868     		ldr	r0, [r3, #0]
 16536              	.LVL12:
 16537 0004 C0F34010 		ubfx	r0, r0, #5, #1
 16538              	.LVL13:
1316:../../../SDK_embedded/libs/stm32/STM32F10x_StdPeriph_Driver/stm32f10x_flash.c ****   {
1317:../../../SDK_embedded/libs/stm32/STM32F10x_StdPeriph_Driver/stm32f10x_flash.c ****     bitstatus = SET;
1318:../../../SDK_embedded/libs/stm32/STM32F10x_StdPeriph_Driver/stm32f10x_flash.c ****   }
1319:../../../SDK_embedded/libs/stm32/STM32F10x_StdPeriph_Driver/stm32f10x_flash.c ****   else
1320:../../../SDK_embedded/libs/stm32/STM32F10x_StdPeriph_Driver/stm32f10x_flash.c ****   {
1321:../../../SDK_embedded/libs/stm32/STM32F10x_StdPeriph_Driver/stm32f10x_flash.c ****     bitstatus = RESET;
1322:../../../SDK_embedded/libs/stm32/STM32F10x_StdPeriph_Driver/stm32f10x_flash.c ****   }
1323:../../../SDK_embedded/libs/stm32/STM32F10x_StdPeriph_Driver/stm32f10x_flash.c ****   /* Return the new state of FLASH Prefetch Buffer Status (SET or RESET) */
1324:../../../SDK_embedded/libs/stm32/STM32F10x_StdPeriph_Driver/stm32f10x_flash.c ****   return bitstatus; 
1325:../../../SDK_embedded/libs/stm32/STM32F10x_StdPeriph_Driver/stm32f10x_flash.c **** }
 16539              		.loc 1 1325 0
 16540 0008 7047     		bx	lr
 16541              	.L33:
 16542 000a 00BF     		.align	2
 16543              	.L32:
 16544 000c 00200240 		.word	1073881088
 16545              		.cfi_endproc
 16546              	.LFE49:
 16548              		.section	.text.FLASH_ITConfig,"ax",%progbits
 16549              		.align	1
 16550              		.global	FLASH_ITConfig
 16551              		.thumb
 16552              		.thumb_func
 16554              	FLASH_ITConfig:
 16555              	.LFB50:
1326:../../../SDK_embedded/libs/stm32/STM32F10x_StdPeriph_Driver/stm32f10x_flash.c **** 
1327:../../../SDK_embedded/libs/stm32/STM32F10x_StdPeriph_Driver/stm32f10x_flash.c **** /**
1328:../../../SDK_embedded/libs/stm32/STM32F10x_StdPeriph_Driver/stm32f10x_flash.c ****   * @brief  Enables or disables the specified FLASH interrupts.
1329:../../../SDK_embedded/libs/stm32/STM32F10x_StdPeriph_Driver/stm32f10x_flash.c ****   * @note   This function can be used for all STM32F10x devices.
1330:../../../SDK_embedded/libs/stm32/STM32F10x_StdPeriph_Driver/stm32f10x_flash.c ****   *         - For STM32F10X_XL devices, enables or disables the specified FLASH interrupts
1331:../../../SDK_embedded/libs/stm32/STM32F10x_StdPeriph_Driver/stm32f10x_flash.c ****               for Bank1 and Bank2.
1332:../../../SDK_embedded/libs/stm32/STM32F10x_StdPeriph_Driver/stm32f10x_flash.c ****   *         - For other devices it enables or disables the specified FLASH interrupts for Bank1.
1333:../../../SDK_embedded/libs/stm32/STM32F10x_StdPeriph_Driver/stm32f10x_flash.c ****   * @param  FLASH_IT: specifies the FLASH interrupt sources to be enabled or disabled.
1334:../../../SDK_embedded/libs/stm32/STM32F10x_StdPeriph_Driver/stm32f10x_flash.c ****   *   This parameter can be any combination of the following values:
1335:../../../SDK_embedded/libs/stm32/STM32F10x_StdPeriph_Driver/stm32f10x_flash.c ****   *     @arg FLASH_IT_ERROR: FLASH Error Interrupt
1336:../../../SDK_embedded/libs/stm32/STM32F10x_StdPeriph_Driver/stm32f10x_flash.c ****   *     @arg FLASH_IT_EOP: FLASH end of operation Interrupt
1337:../../../SDK_embedded/libs/stm32/STM32F10x_StdPeriph_Driver/stm32f10x_flash.c ****   * @param  NewState: new state of the specified Flash interrupts.
1338:../../../SDK_embedded/libs/stm32/STM32F10x_StdPeriph_Driver/stm32f10x_flash.c ****   *   This parameter can be: ENABLE or DISABLE.      
1339:../../../SDK_embedded/libs/stm32/STM32F10x_StdPeriph_Driver/stm32f10x_flash.c ****   * @retval None 
1340:../../../SDK_embedded/libs/stm32/STM32F10x_StdPeriph_Driver/stm32f10x_flash.c ****   */
1341:../../../SDK_embedded/libs/stm32/STM32F10x_StdPeriph_Driver/stm32f10x_flash.c **** void FLASH_ITConfig(uint32_t FLASH_IT, FunctionalState NewState)
1342:../../../SDK_embedded/libs/stm32/STM32F10x_StdPeriph_Driver/stm32f10x_flash.c **** {
 16556              		.loc 1 1342 0
 16557              		.cfi_startproc
 16558              		@ args = 0, pretend = 0, frame = 0
 16559              		@ frame_needed = 0, uses_anonymous_args = 0
 16560              		@ link register save eliminated.
 16561              	.LVL14:
 16562 0000 044B     		ldr	r3, .L38
1343:../../../SDK_embedded/libs/stm32/STM32F10x_StdPeriph_Driver/stm32f10x_flash.c **** #ifdef STM32F10X_XL
1344:../../../SDK_embedded/libs/stm32/STM32F10x_StdPeriph_Driver/stm32f10x_flash.c ****   /* Check the parameters */
1345:../../../SDK_embedded/libs/stm32/STM32F10x_StdPeriph_Driver/stm32f10x_flash.c ****   assert_param(IS_FLASH_IT(FLASH_IT)); 
1346:../../../SDK_embedded/libs/stm32/STM32F10x_StdPeriph_Driver/stm32f10x_flash.c ****   assert_param(IS_FUNCTIONAL_STATE(NewState));
1347:../../../SDK_embedded/libs/stm32/STM32F10x_StdPeriph_Driver/stm32f10x_flash.c **** 
1348:../../../SDK_embedded/libs/stm32/STM32F10x_StdPeriph_Driver/stm32f10x_flash.c ****   if((FLASH_IT & 0x80000000) != 0x0)
1349:../../../SDK_embedded/libs/stm32/STM32F10x_StdPeriph_Driver/stm32f10x_flash.c ****   {
1350:../../../SDK_embedded/libs/stm32/STM32F10x_StdPeriph_Driver/stm32f10x_flash.c ****     if(NewState != DISABLE)
1351:../../../SDK_embedded/libs/stm32/STM32F10x_StdPeriph_Driver/stm32f10x_flash.c ****     {
1352:../../../SDK_embedded/libs/stm32/STM32F10x_StdPeriph_Driver/stm32f10x_flash.c ****       /* Enable the interrupt sources */
1353:../../../SDK_embedded/libs/stm32/STM32F10x_StdPeriph_Driver/stm32f10x_flash.c ****       FLASH->CR2 |= (FLASH_IT & 0x7FFFFFFF);
1354:../../../SDK_embedded/libs/stm32/STM32F10x_StdPeriph_Driver/stm32f10x_flash.c ****     }
1355:../../../SDK_embedded/libs/stm32/STM32F10x_StdPeriph_Driver/stm32f10x_flash.c ****     else
1356:../../../SDK_embedded/libs/stm32/STM32F10x_StdPeriph_Driver/stm32f10x_flash.c ****     {
1357:../../../SDK_embedded/libs/stm32/STM32F10x_StdPeriph_Driver/stm32f10x_flash.c ****       /* Disable the interrupt sources */
1358:../../../SDK_embedded/libs/stm32/STM32F10x_StdPeriph_Driver/stm32f10x_flash.c ****       FLASH->CR2 &= ~(uint32_t)(FLASH_IT & 0x7FFFFFFF);
1359:../../../SDK_embedded/libs/stm32/STM32F10x_StdPeriph_Driver/stm32f10x_flash.c ****     }
1360:../../../SDK_embedded/libs/stm32/STM32F10x_StdPeriph_Driver/stm32f10x_flash.c ****   }
1361:../../../SDK_embedded/libs/stm32/STM32F10x_StdPeriph_Driver/stm32f10x_flash.c ****   else
1362:../../../SDK_embedded/libs/stm32/STM32F10x_StdPeriph_Driver/stm32f10x_flash.c ****   {
1363:../../../SDK_embedded/libs/stm32/STM32F10x_StdPeriph_Driver/stm32f10x_flash.c ****     if(NewState != DISABLE)
1364:../../../SDK_embedded/libs/stm32/STM32F10x_StdPeriph_Driver/stm32f10x_flash.c ****     {
1365:../../../SDK_embedded/libs/stm32/STM32F10x_StdPeriph_Driver/stm32f10x_flash.c ****       /* Enable the interrupt sources */
1366:../../../SDK_embedded/libs/stm32/STM32F10x_StdPeriph_Driver/stm32f10x_flash.c ****       FLASH->CR |= FLASH_IT;
1367:../../../SDK_embedded/libs/stm32/STM32F10x_StdPeriph_Driver/stm32f10x_flash.c ****     }
1368:../../../SDK_embedded/libs/stm32/STM32F10x_StdPeriph_Driver/stm32f10x_flash.c ****     else
1369:../../../SDK_embedded/libs/stm32/STM32F10x_StdPeriph_Driver/stm32f10x_flash.c ****     {
1370:../../../SDK_embedded/libs/stm32/STM32F10x_StdPeriph_Driver/stm32f10x_flash.c ****       /* Disable the interrupt sources */
1371:../../../SDK_embedded/libs/stm32/STM32F10x_StdPeriph_Driver/stm32f10x_flash.c ****       FLASH->CR &= ~(uint32_t)FLASH_IT;
1372:../../../SDK_embedded/libs/stm32/STM32F10x_StdPeriph_Driver/stm32f10x_flash.c ****     }
1373:../../../SDK_embedded/libs/stm32/STM32F10x_StdPeriph_Driver/stm32f10x_flash.c ****   }
1374:../../../SDK_embedded/libs/stm32/STM32F10x_StdPeriph_Driver/stm32f10x_flash.c **** #else
1375:../../../SDK_embedded/libs/stm32/STM32F10x_StdPeriph_Driver/stm32f10x_flash.c ****   /* Check the parameters */
1376:../../../SDK_embedded/libs/stm32/STM32F10x_StdPeriph_Driver/stm32f10x_flash.c ****   assert_param(IS_FLASH_IT(FLASH_IT)); 
1377:../../../SDK_embedded/libs/stm32/STM32F10x_StdPeriph_Driver/stm32f10x_flash.c ****   assert_param(IS_FUNCTIONAL_STATE(NewState));
1378:../../../SDK_embedded/libs/stm32/STM32F10x_StdPeriph_Driver/stm32f10x_flash.c **** 
1379:../../../SDK_embedded/libs/stm32/STM32F10x_StdPeriph_Driver/stm32f10x_flash.c ****   if(NewState != DISABLE)
 16563              		.loc 1 1379 0
 16564 0002 11B1     		cbz	r1, .L35
1380:../../../SDK_embedded/libs/stm32/STM32F10x_StdPeriph_Driver/stm32f10x_flash.c ****   {
1381:../../../SDK_embedded/libs/stm32/STM32F10x_StdPeriph_Driver/stm32f10x_flash.c ****     /* Enable the interrupt sources */
1382:../../../SDK_embedded/libs/stm32/STM32F10x_StdPeriph_Driver/stm32f10x_flash.c ****     FLASH->CR |= FLASH_IT;
 16565              		.loc 1 1382 0
 16566 0004 1A69     		ldr	r2, [r3, #16]
 16567 0006 1043     		orrs	r0, r0, r2
 16568              	.LVL15:
 16569 0008 02E0     		b	.L37
 16570              	.LVL16:
 16571              	.L35:
1383:../../../SDK_embedded/libs/stm32/STM32F10x_StdPeriph_Driver/stm32f10x_flash.c ****   }
1384:../../../SDK_embedded/libs/stm32/STM32F10x_StdPeriph_Driver/stm32f10x_flash.c ****   else
1385:../../../SDK_embedded/libs/stm32/STM32F10x_StdPeriph_Driver/stm32f10x_flash.c ****   {
1386:../../../SDK_embedded/libs/stm32/STM32F10x_StdPeriph_Driver/stm32f10x_flash.c ****     /* Disable the interrupt sources */
1387:../../../SDK_embedded/libs/stm32/STM32F10x_StdPeriph_Driver/stm32f10x_flash.c ****     FLASH->CR &= ~(uint32_t)FLASH_IT;
 16572              		.loc 1 1387 0
 16573 000a 1969     		ldr	r1, [r3, #16]
 16574              	.LVL17:
 16575 000c 21EA0000 		bic	r0, r1, r0
 16576              	.LVL18:
 16577              	.L37:
 16578 0010 1861     		str	r0, [r3, #16]
 16579 0012 7047     		bx	lr
 16580              	.L39:
 16581              		.align	2
 16582              	.L38:
 16583 0014 00200240 		.word	1073881088
 16584              		.cfi_endproc
 16585              	.LFE50:
 16587              		.section	.text.FLASH_GetFlagStatus,"ax",%progbits
 16588              		.align	1
 16589              		.global	FLASH_GetFlagStatus
 16590              		.thumb
 16591              		.thumb_func
 16593              	FLASH_GetFlagStatus:
 16594              	.LFB51:
1388:../../../SDK_embedded/libs/stm32/STM32F10x_StdPeriph_Driver/stm32f10x_flash.c ****   }
1389:../../../SDK_embedded/libs/stm32/STM32F10x_StdPeriph_Driver/stm32f10x_flash.c **** #endif /* STM32F10X_XL */
1390:../../../SDK_embedded/libs/stm32/STM32F10x_StdPeriph_Driver/stm32f10x_flash.c **** }
1391:../../../SDK_embedded/libs/stm32/STM32F10x_StdPeriph_Driver/stm32f10x_flash.c **** 
1392:../../../SDK_embedded/libs/stm32/STM32F10x_StdPeriph_Driver/stm32f10x_flash.c **** /**
1393:../../../SDK_embedded/libs/stm32/STM32F10x_StdPeriph_Driver/stm32f10x_flash.c ****   * @brief  Checks whether the specified FLASH flag is set or not.
1394:../../../SDK_embedded/libs/stm32/STM32F10x_StdPeriph_Driver/stm32f10x_flash.c ****   * @note   This function can be used for all STM32F10x devices.
1395:../../../SDK_embedded/libs/stm32/STM32F10x_StdPeriph_Driver/stm32f10x_flash.c ****   *         - For STM32F10X_XL devices, this function checks whether the specified 
1396:../../../SDK_embedded/libs/stm32/STM32F10x_StdPeriph_Driver/stm32f10x_flash.c ****   *           Bank1 or Bank2 flag is set or not.
1397:../../../SDK_embedded/libs/stm32/STM32F10x_StdPeriph_Driver/stm32f10x_flash.c ****   *         - For other devices, it checks whether the specified Bank1 flag is 
1398:../../../SDK_embedded/libs/stm32/STM32F10x_StdPeriph_Driver/stm32f10x_flash.c ****   *           set or not.
1399:../../../SDK_embedded/libs/stm32/STM32F10x_StdPeriph_Driver/stm32f10x_flash.c ****   * @param  FLASH_FLAG: specifies the FLASH flag to check.
1400:../../../SDK_embedded/libs/stm32/STM32F10x_StdPeriph_Driver/stm32f10x_flash.c ****   *   This parameter can be one of the following values:
1401:../../../SDK_embedded/libs/stm32/STM32F10x_StdPeriph_Driver/stm32f10x_flash.c ****   *     @arg FLASH_FLAG_BSY: FLASH Busy flag           
1402:../../../SDK_embedded/libs/stm32/STM32F10x_StdPeriph_Driver/stm32f10x_flash.c ****   *     @arg FLASH_FLAG_PGERR: FLASH Program error flag       
1403:../../../SDK_embedded/libs/stm32/STM32F10x_StdPeriph_Driver/stm32f10x_flash.c ****   *     @arg FLASH_FLAG_WRPRTERR: FLASH Write protected error flag      
1404:../../../SDK_embedded/libs/stm32/STM32F10x_StdPeriph_Driver/stm32f10x_flash.c ****   *     @arg FLASH_FLAG_EOP: FLASH End of Operation flag           
1405:../../../SDK_embedded/libs/stm32/STM32F10x_StdPeriph_Driver/stm32f10x_flash.c ****   *     @arg FLASH_FLAG_OPTERR:  FLASH Option Byte error flag     
1406:../../../SDK_embedded/libs/stm32/STM32F10x_StdPeriph_Driver/stm32f10x_flash.c ****   * @retval The new state of FLASH_FLAG (SET or RESET).
1407:../../../SDK_embedded/libs/stm32/STM32F10x_StdPeriph_Driver/stm32f10x_flash.c ****   */
1408:../../../SDK_embedded/libs/stm32/STM32F10x_StdPeriph_Driver/stm32f10x_flash.c **** FlagStatus FLASH_GetFlagStatus(uint32_t FLASH_FLAG)
1409:../../../SDK_embedded/libs/stm32/STM32F10x_StdPeriph_Driver/stm32f10x_flash.c **** {
 16595              		.loc 1 1409 0
 16596              		.cfi_startproc
 16597              		@ args = 0, pretend = 0, frame = 0
 16598              		@ frame_needed = 0, uses_anonymous_args = 0
 16599              		@ link register save eliminated.
 16600              	.LVL19:
1410:../../../SDK_embedded/libs/stm32/STM32F10x_StdPeriph_Driver/stm32f10x_flash.c ****   FlagStatus bitstatus = RESET;
1411:../../../SDK_embedded/libs/stm32/STM32F10x_StdPeriph_Driver/stm32f10x_flash.c **** 
1412:../../../SDK_embedded/libs/stm32/STM32F10x_StdPeriph_Driver/stm32f10x_flash.c **** #ifdef STM32F10X_XL
1413:../../../SDK_embedded/libs/stm32/STM32F10x_StdPeriph_Driver/stm32f10x_flash.c ****   /* Check the parameters */
1414:../../../SDK_embedded/libs/stm32/STM32F10x_StdPeriph_Driver/stm32f10x_flash.c ****   assert_param(IS_FLASH_GET_FLAG(FLASH_FLAG)) ;
1415:../../../SDK_embedded/libs/stm32/STM32F10x_StdPeriph_Driver/stm32f10x_flash.c ****   if(FLASH_FLAG == FLASH_FLAG_OPTERR) 
1416:../../../SDK_embedded/libs/stm32/STM32F10x_StdPeriph_Driver/stm32f10x_flash.c ****   {
1417:../../../SDK_embedded/libs/stm32/STM32F10x_StdPeriph_Driver/stm32f10x_flash.c ****     if((FLASH->OBR & FLASH_FLAG_OPTERR) != (uint32_t)RESET)
1418:../../../SDK_embedded/libs/stm32/STM32F10x_StdPeriph_Driver/stm32f10x_flash.c ****     {
1419:../../../SDK_embedded/libs/stm32/STM32F10x_StdPeriph_Driver/stm32f10x_flash.c ****       bitstatus = SET;
1420:../../../SDK_embedded/libs/stm32/STM32F10x_StdPeriph_Driver/stm32f10x_flash.c ****     }
1421:../../../SDK_embedded/libs/stm32/STM32F10x_StdPeriph_Driver/stm32f10x_flash.c ****     else
1422:../../../SDK_embedded/libs/stm32/STM32F10x_StdPeriph_Driver/stm32f10x_flash.c ****     {
1423:../../../SDK_embedded/libs/stm32/STM32F10x_StdPeriph_Driver/stm32f10x_flash.c ****       bitstatus = RESET;
1424:../../../SDK_embedded/libs/stm32/STM32F10x_StdPeriph_Driver/stm32f10x_flash.c ****     }
1425:../../../SDK_embedded/libs/stm32/STM32F10x_StdPeriph_Driver/stm32f10x_flash.c ****   }
1426:../../../SDK_embedded/libs/stm32/STM32F10x_StdPeriph_Driver/stm32f10x_flash.c ****   else
1427:../../../SDK_embedded/libs/stm32/STM32F10x_StdPeriph_Driver/stm32f10x_flash.c ****   {
1428:../../../SDK_embedded/libs/stm32/STM32F10x_StdPeriph_Driver/stm32f10x_flash.c ****     if((FLASH_FLAG & 0x80000000) != 0x0)
1429:../../../SDK_embedded/libs/stm32/STM32F10x_StdPeriph_Driver/stm32f10x_flash.c ****     {
1430:../../../SDK_embedded/libs/stm32/STM32F10x_StdPeriph_Driver/stm32f10x_flash.c ****       if((FLASH->SR2 & FLASH_FLAG) != (uint32_t)RESET)
1431:../../../SDK_embedded/libs/stm32/STM32F10x_StdPeriph_Driver/stm32f10x_flash.c ****       {
1432:../../../SDK_embedded/libs/stm32/STM32F10x_StdPeriph_Driver/stm32f10x_flash.c ****         bitstatus = SET;
1433:../../../SDK_embedded/libs/stm32/STM32F10x_StdPeriph_Driver/stm32f10x_flash.c ****       }
1434:../../../SDK_embedded/libs/stm32/STM32F10x_StdPeriph_Driver/stm32f10x_flash.c ****       else
1435:../../../SDK_embedded/libs/stm32/STM32F10x_StdPeriph_Driver/stm32f10x_flash.c ****       {
1436:../../../SDK_embedded/libs/stm32/STM32F10x_StdPeriph_Driver/stm32f10x_flash.c ****         bitstatus = RESET;
1437:../../../SDK_embedded/libs/stm32/STM32F10x_StdPeriph_Driver/stm32f10x_flash.c ****       }
1438:../../../SDK_embedded/libs/stm32/STM32F10x_StdPeriph_Driver/stm32f10x_flash.c ****     }
1439:../../../SDK_embedded/libs/stm32/STM32F10x_StdPeriph_Driver/stm32f10x_flash.c ****     else
1440:../../../SDK_embedded/libs/stm32/STM32F10x_StdPeriph_Driver/stm32f10x_flash.c ****     {
1441:../../../SDK_embedded/libs/stm32/STM32F10x_StdPeriph_Driver/stm32f10x_flash.c ****       if((FLASH->SR & FLASH_FLAG) != (uint32_t)RESET)
1442:../../../SDK_embedded/libs/stm32/STM32F10x_StdPeriph_Driver/stm32f10x_flash.c ****       {
1443:../../../SDK_embedded/libs/stm32/STM32F10x_StdPeriph_Driver/stm32f10x_flash.c ****         bitstatus = SET;
1444:../../../SDK_embedded/libs/stm32/STM32F10x_StdPeriph_Driver/stm32f10x_flash.c ****       }
1445:../../../SDK_embedded/libs/stm32/STM32F10x_StdPeriph_Driver/stm32f10x_flash.c ****       else
1446:../../../SDK_embedded/libs/stm32/STM32F10x_StdPeriph_Driver/stm32f10x_flash.c ****       {
1447:../../../SDK_embedded/libs/stm32/STM32F10x_StdPeriph_Driver/stm32f10x_flash.c ****         bitstatus = RESET;
1448:../../../SDK_embedded/libs/stm32/STM32F10x_StdPeriph_Driver/stm32f10x_flash.c ****       }
1449:../../../SDK_embedded/libs/stm32/STM32F10x_StdPeriph_Driver/stm32f10x_flash.c ****     }
1450:../../../SDK_embedded/libs/stm32/STM32F10x_StdPeriph_Driver/stm32f10x_flash.c ****   }
1451:../../../SDK_embedded/libs/stm32/STM32F10x_StdPeriph_Driver/stm32f10x_flash.c **** #else
1452:../../../SDK_embedded/libs/stm32/STM32F10x_StdPeriph_Driver/stm32f10x_flash.c ****   /* Check the parameters */
1453:../../../SDK_embedded/libs/stm32/STM32F10x_StdPeriph_Driver/stm32f10x_flash.c ****   assert_param(IS_FLASH_GET_FLAG(FLASH_FLAG)) ;
1454:../../../SDK_embedded/libs/stm32/STM32F10x_StdPeriph_Driver/stm32f10x_flash.c ****   if(FLASH_FLAG == FLASH_FLAG_OPTERR) 
 16601              		.loc 1 1454 0
 16602 0000 0128     		cmp	r0, #1
 16603 0002 064B     		ldr	r3, .L43
 16604 0004 03D1     		bne	.L41
1455:../../../SDK_embedded/libs/stm32/STM32F10x_StdPeriph_Driver/stm32f10x_flash.c ****   {
1456:../../../SDK_embedded/libs/stm32/STM32F10x_StdPeriph_Driver/stm32f10x_flash.c ****     if((FLASH->OBR & FLASH_FLAG_OPTERR) != (uint32_t)RESET)
 16605              		.loc 1 1456 0
 16606 0006 D869     		ldr	r0, [r3, #28]
 16607              	.LVL20:
1457:../../../SDK_embedded/libs/stm32/STM32F10x_StdPeriph_Driver/stm32f10x_flash.c ****     {
1458:../../../SDK_embedded/libs/stm32/STM32F10x_StdPeriph_Driver/stm32f10x_flash.c ****       bitstatus = SET;
1459:../../../SDK_embedded/libs/stm32/STM32F10x_StdPeriph_Driver/stm32f10x_flash.c ****     }
1460:../../../SDK_embedded/libs/stm32/STM32F10x_StdPeriph_Driver/stm32f10x_flash.c ****     else
1461:../../../SDK_embedded/libs/stm32/STM32F10x_StdPeriph_Driver/stm32f10x_flash.c ****     {
1462:../../../SDK_embedded/libs/stm32/STM32F10x_StdPeriph_Driver/stm32f10x_flash.c ****       bitstatus = RESET;
 16608              		.loc 1 1462 0
 16609 0008 00F00100 		and	r0, r0, #1
 16610 000c 7047     		bx	lr
 16611              	.LVL21:
 16612              	.L41:
1463:../../../SDK_embedded/libs/stm32/STM32F10x_StdPeriph_Driver/stm32f10x_flash.c ****     }
1464:../../../SDK_embedded/libs/stm32/STM32F10x_StdPeriph_Driver/stm32f10x_flash.c ****   }
1465:../../../SDK_embedded/libs/stm32/STM32F10x_StdPeriph_Driver/stm32f10x_flash.c ****   else
1466:../../../SDK_embedded/libs/stm32/STM32F10x_StdPeriph_Driver/stm32f10x_flash.c ****   {
1467:../../../SDK_embedded/libs/stm32/STM32F10x_StdPeriph_Driver/stm32f10x_flash.c ****    if((FLASH->SR & FLASH_FLAG) != (uint32_t)RESET)
 16613              		.loc 1 1467 0
 16614 000e DB68     		ldr	r3, [r3, #12]
1462:../../../SDK_embedded/libs/stm32/STM32F10x_StdPeriph_Driver/stm32f10x_flash.c ****       bitstatus = RESET;
 16615              		.loc 1 1462 0
 16616 0010 1842     		tst	r0, r3
 16617 0012 0CBF     		ite	eq
 16618 0014 0020     		moveq	r0, #0
 16619 0016 0120     		movne	r0, #1
 16620              	.LVL22:
1468:../../../SDK_embedded/libs/stm32/STM32F10x_StdPeriph_Driver/stm32f10x_flash.c ****     {
1469:../../../SDK_embedded/libs/stm32/STM32F10x_StdPeriph_Driver/stm32f10x_flash.c ****       bitstatus = SET;
1470:../../../SDK_embedded/libs/stm32/STM32F10x_StdPeriph_Driver/stm32f10x_flash.c ****     }
1471:../../../SDK_embedded/libs/stm32/STM32F10x_StdPeriph_Driver/stm32f10x_flash.c ****     else
1472:../../../SDK_embedded/libs/stm32/STM32F10x_StdPeriph_Driver/stm32f10x_flash.c ****     {
1473:../../../SDK_embedded/libs/stm32/STM32F10x_StdPeriph_Driver/stm32f10x_flash.c ****       bitstatus = RESET;
1474:../../../SDK_embedded/libs/stm32/STM32F10x_StdPeriph_Driver/stm32f10x_flash.c ****     }
1475:../../../SDK_embedded/libs/stm32/STM32F10x_StdPeriph_Driver/stm32f10x_flash.c ****   }
1476:../../../SDK_embedded/libs/stm32/STM32F10x_StdPeriph_Driver/stm32f10x_flash.c **** #endif /* STM32F10X_XL */
1477:../../../SDK_embedded/libs/stm32/STM32F10x_StdPeriph_Driver/stm32f10x_flash.c **** 
1478:../../../SDK_embedded/libs/stm32/STM32F10x_StdPeriph_Driver/stm32f10x_flash.c ****   /* Return the new state of FLASH_FLAG (SET or RESET) */
1479:../../../SDK_embedded/libs/stm32/STM32F10x_StdPeriph_Driver/stm32f10x_flash.c ****   return bitstatus;
1480:../../../SDK_embedded/libs/stm32/STM32F10x_StdPeriph_Driver/stm32f10x_flash.c **** }
 16621              		.loc 1 1480 0
 16622 0018 7047     		bx	lr
 16623              	.L44:
 16624 001a 00BF     		.align	2
 16625              	.L43:
 16626 001c 00200240 		.word	1073881088
 16627              		.cfi_endproc
 16628              	.LFE51:
 16630              		.section	.text.FLASH_ClearFlag,"ax",%progbits
 16631              		.align	1
 16632              		.global	FLASH_ClearFlag
 16633              		.thumb
 16634              		.thumb_func
 16636              	FLASH_ClearFlag:
 16637              	.LFB52:
1481:../../../SDK_embedded/libs/stm32/STM32F10x_StdPeriph_Driver/stm32f10x_flash.c **** 
1482:../../../SDK_embedded/libs/stm32/STM32F10x_StdPeriph_Driver/stm32f10x_flash.c **** /**
1483:../../../SDK_embedded/libs/stm32/STM32F10x_StdPeriph_Driver/stm32f10x_flash.c ****   * @brief  Clears the FLASHs pending flags.
1484:../../../SDK_embedded/libs/stm32/STM32F10x_StdPeriph_Driver/stm32f10x_flash.c ****   * @note   This function can be used for all STM32F10x devices.
1485:../../../SDK_embedded/libs/stm32/STM32F10x_StdPeriph_Driver/stm32f10x_flash.c ****   *         - For STM32F10X_XL devices, this function clears Bank1 or Bank2s pending flags
1486:../../../SDK_embedded/libs/stm32/STM32F10x_StdPeriph_Driver/stm32f10x_flash.c ****   *         - For other devices, it clears Bank1s pending flags.
1487:../../../SDK_embedded/libs/stm32/STM32F10x_StdPeriph_Driver/stm32f10x_flash.c ****   * @param  FLASH_FLAG: specifies the FLASH flags to clear.
1488:../../../SDK_embedded/libs/stm32/STM32F10x_StdPeriph_Driver/stm32f10x_flash.c ****   *   This parameter can be any combination of the following values:         
1489:../../../SDK_embedded/libs/stm32/STM32F10x_StdPeriph_Driver/stm32f10x_flash.c ****   *     @arg FLASH_FLAG_PGERR: FLASH Program error flag       
1490:../../../SDK_embedded/libs/stm32/STM32F10x_StdPeriph_Driver/stm32f10x_flash.c ****   *     @arg FLASH_FLAG_WRPRTERR: FLASH Write protected error flag      
1491:../../../SDK_embedded/libs/stm32/STM32F10x_StdPeriph_Driver/stm32f10x_flash.c ****   *     @arg FLASH_FLAG_EOP: FLASH End of Operation flag           
1492:../../../SDK_embedded/libs/stm32/STM32F10x_StdPeriph_Driver/stm32f10x_flash.c ****   * @retval None
1493:../../../SDK_embedded/libs/stm32/STM32F10x_StdPeriph_Driver/stm32f10x_flash.c ****   */
1494:../../../SDK_embedded/libs/stm32/STM32F10x_StdPeriph_Driver/stm32f10x_flash.c **** void FLASH_ClearFlag(uint32_t FLASH_FLAG)
1495:../../../SDK_embedded/libs/stm32/STM32F10x_StdPeriph_Driver/stm32f10x_flash.c **** {
 16638              		.loc 1 1495 0
 16639              		.cfi_startproc
 16640              		@ args = 0, pretend = 0, frame = 0
 16641              		@ frame_needed = 0, uses_anonymous_args = 0
 16642              		@ link register save eliminated.
 16643              	.LVL23:
1496:../../../SDK_embedded/libs/stm32/STM32F10x_StdPeriph_Driver/stm32f10x_flash.c **** #ifdef STM32F10X_XL
1497:../../../SDK_embedded/libs/stm32/STM32F10x_StdPeriph_Driver/stm32f10x_flash.c ****   /* Check the parameters */
1498:../../../SDK_embedded/libs/stm32/STM32F10x_StdPeriph_Driver/stm32f10x_flash.c ****   assert_param(IS_FLASH_CLEAR_FLAG(FLASH_FLAG)) ;
1499:../../../SDK_embedded/libs/stm32/STM32F10x_StdPeriph_Driver/stm32f10x_flash.c **** 
1500:../../../SDK_embedded/libs/stm32/STM32F10x_StdPeriph_Driver/stm32f10x_flash.c ****   if((FLASH_FLAG & 0x80000000) != 0x0)
1501:../../../SDK_embedded/libs/stm32/STM32F10x_StdPeriph_Driver/stm32f10x_flash.c ****   {
1502:../../../SDK_embedded/libs/stm32/STM32F10x_StdPeriph_Driver/stm32f10x_flash.c ****     /* Clear the flags */
1503:../../../SDK_embedded/libs/stm32/STM32F10x_StdPeriph_Driver/stm32f10x_flash.c ****     FLASH->SR2 = FLASH_FLAG;
1504:../../../SDK_embedded/libs/stm32/STM32F10x_StdPeriph_Driver/stm32f10x_flash.c ****   }
1505:../../../SDK_embedded/libs/stm32/STM32F10x_StdPeriph_Driver/stm32f10x_flash.c ****   else
1506:../../../SDK_embedded/libs/stm32/STM32F10x_StdPeriph_Driver/stm32f10x_flash.c ****   {
1507:../../../SDK_embedded/libs/stm32/STM32F10x_StdPeriph_Driver/stm32f10x_flash.c ****     /* Clear the flags */
1508:../../../SDK_embedded/libs/stm32/STM32F10x_StdPeriph_Driver/stm32f10x_flash.c ****     FLASH->SR = FLASH_FLAG;
1509:../../../SDK_embedded/libs/stm32/STM32F10x_StdPeriph_Driver/stm32f10x_flash.c ****   }  
1510:../../../SDK_embedded/libs/stm32/STM32F10x_StdPeriph_Driver/stm32f10x_flash.c **** 
1511:../../../SDK_embedded/libs/stm32/STM32F10x_StdPeriph_Driver/stm32f10x_flash.c **** #else
1512:../../../SDK_embedded/libs/stm32/STM32F10x_StdPeriph_Driver/stm32f10x_flash.c ****   /* Check the parameters */
1513:../../../SDK_embedded/libs/stm32/STM32F10x_StdPeriph_Driver/stm32f10x_flash.c ****   assert_param(IS_FLASH_CLEAR_FLAG(FLASH_FLAG)) ;
1514:../../../SDK_embedded/libs/stm32/STM32F10x_StdPeriph_Driver/stm32f10x_flash.c ****   
1515:../../../SDK_embedded/libs/stm32/STM32F10x_StdPeriph_Driver/stm32f10x_flash.c ****   /* Clear the flags */
1516:../../../SDK_embedded/libs/stm32/STM32F10x_StdPeriph_Driver/stm32f10x_flash.c ****   FLASH->SR = FLASH_FLAG;
 16644              		.loc 1 1516 0
 16645 0000 014B     		ldr	r3, .L46
 16646 0002 D860     		str	r0, [r3, #12]
1517:../../../SDK_embedded/libs/stm32/STM32F10x_StdPeriph_Driver/stm32f10x_flash.c **** #endif /* STM32F10X_XL */
1518:../../../SDK_embedded/libs/stm32/STM32F10x_StdPeriph_Driver/stm32f10x_flash.c **** }
 16647              		.loc 1 1518 0
 16648 0004 7047     		bx	lr
 16649              	.L47:
 16650 0006 00BF     		.align	2
 16651              	.L46:
 16652 0008 00200240 		.word	1073881088
 16653              		.cfi_endproc
 16654              	.LFE52:
 16656              		.section	.text.FLASH_GetStatus,"ax",%progbits
 16657              		.align	1
 16658              		.global	FLASH_GetStatus
 16659              		.thumb
 16660              		.thumb_func
 16662              	FLASH_GetStatus:
 16663              	.LFB53:
1519:../../../SDK_embedded/libs/stm32/STM32F10x_StdPeriph_Driver/stm32f10x_flash.c **** 
1520:../../../SDK_embedded/libs/stm32/STM32F10x_StdPeriph_Driver/stm32f10x_flash.c **** /**
1521:../../../SDK_embedded/libs/stm32/STM32F10x_StdPeriph_Driver/stm32f10x_flash.c ****   * @brief  Returns the FLASH Status.
1522:../../../SDK_embedded/libs/stm32/STM32F10x_StdPeriph_Driver/stm32f10x_flash.c ****   * @note   This function can be used for all STM32F10x devices, it is equivalent
1523:../../../SDK_embedded/libs/stm32/STM32F10x_StdPeriph_Driver/stm32f10x_flash.c ****   *    to FLASH_GetBank1Status function.
1524:../../../SDK_embedded/libs/stm32/STM32F10x_StdPeriph_Driver/stm32f10x_flash.c ****   * @param  None
1525:../../../SDK_embedded/libs/stm32/STM32F10x_StdPeriph_Driver/stm32f10x_flash.c ****   * @retval FLASH Status: The returned value can be: FLASH_BUSY, FLASH_ERROR_PG,
1526:../../../SDK_embedded/libs/stm32/STM32F10x_StdPeriph_Driver/stm32f10x_flash.c ****   *   FLASH_ERROR_WRP or FLASH_COMPLETE
1527:../../../SDK_embedded/libs/stm32/STM32F10x_StdPeriph_Driver/stm32f10x_flash.c ****   */
1528:../../../SDK_embedded/libs/stm32/STM32F10x_StdPeriph_Driver/stm32f10x_flash.c **** FLASH_Status FLASH_GetStatus(void)
1529:../../../SDK_embedded/libs/stm32/STM32F10x_StdPeriph_Driver/stm32f10x_flash.c **** {
 16664              		.loc 1 1529 0
 16665              		.cfi_startproc
 16666              		@ args = 0, pretend = 0, frame = 0
 16667              		@ frame_needed = 0, uses_anonymous_args = 0
 16668              		@ link register save eliminated.
 16669              	.LVL24:
1530:../../../SDK_embedded/libs/stm32/STM32F10x_StdPeriph_Driver/stm32f10x_flash.c ****   FLASH_Status flashstatus = FLASH_COMPLETE;
1531:../../../SDK_embedded/libs/stm32/STM32F10x_StdPeriph_Driver/stm32f10x_flash.c ****   
1532:../../../SDK_embedded/libs/stm32/STM32F10x_StdPeriph_Driver/stm32f10x_flash.c ****   if((FLASH->SR & FLASH_FLAG_BSY) == FLASH_FLAG_BSY) 
 16670              		.loc 1 1532 0
 16671 0000 084B     		ldr	r3, .L53
 16672 0002 DA68     		ldr	r2, [r3, #12]
 16673 0004 D107     		lsls	r1, r2, #31
 16674 0006 09D4     		bmi	.L50
1533:../../../SDK_embedded/libs/stm32/STM32F10x_StdPeriph_Driver/stm32f10x_flash.c ****   {
1534:../../../SDK_embedded/libs/stm32/STM32F10x_StdPeriph_Driver/stm32f10x_flash.c ****     flashstatus = FLASH_BUSY;
1535:../../../SDK_embedded/libs/stm32/STM32F10x_StdPeriph_Driver/stm32f10x_flash.c ****   }
1536:../../../SDK_embedded/libs/stm32/STM32F10x_StdPeriph_Driver/stm32f10x_flash.c ****   else 
1537:../../../SDK_embedded/libs/stm32/STM32F10x_StdPeriph_Driver/stm32f10x_flash.c ****   {  
1538:../../../SDK_embedded/libs/stm32/STM32F10x_StdPeriph_Driver/stm32f10x_flash.c ****     if((FLASH->SR & FLASH_FLAG_PGERR) != 0)
 16675              		.loc 1 1538 0
 16676 0008 D868     		ldr	r0, [r3, #12]
 16677 000a 4207     		lsls	r2, r0, #29
 16678 000c 08D4     		bmi	.L51
1539:../../../SDK_embedded/libs/stm32/STM32F10x_StdPeriph_Driver/stm32f10x_flash.c ****     { 
1540:../../../SDK_embedded/libs/stm32/STM32F10x_StdPeriph_Driver/stm32f10x_flash.c ****       flashstatus = FLASH_ERROR_PG;
1541:../../../SDK_embedded/libs/stm32/STM32F10x_StdPeriph_Driver/stm32f10x_flash.c ****     }
1542:../../../SDK_embedded/libs/stm32/STM32F10x_StdPeriph_Driver/stm32f10x_flash.c ****     else 
1543:../../../SDK_embedded/libs/stm32/STM32F10x_StdPeriph_Driver/stm32f10x_flash.c ****     {
1544:../../../SDK_embedded/libs/stm32/STM32F10x_StdPeriph_Driver/stm32f10x_flash.c ****       if((FLASH->SR & FLASH_FLAG_WRPRTERR) != 0 )
 16679              		.loc 1 1544 0
 16680 000e DB68     		ldr	r3, [r3, #12]
 16681 0010 13F0100F 		tst	r3, #16
1545:../../../SDK_embedded/libs/stm32/STM32F10x_StdPeriph_Driver/stm32f10x_flash.c ****       {
1546:../../../SDK_embedded/libs/stm32/STM32F10x_StdPeriph_Driver/stm32f10x_flash.c ****         flashstatus = FLASH_ERROR_WRP;
 16682              		.loc 1 1546 0
 16683 0014 0CBF     		ite	eq
 16684 0016 0420     		moveq	r0, #4
 16685 0018 0320     		movne	r0, #3
 16686 001a 7047     		bx	lr
 16687              	.L50:
1534:../../../SDK_embedded/libs/stm32/STM32F10x_StdPeriph_Driver/stm32f10x_flash.c ****     flashstatus = FLASH_BUSY;
 16688              		.loc 1 1534 0
 16689 001c 0120     		movs	r0, #1
 16690 001e 7047     		bx	lr
 16691              	.L51:
1540:../../../SDK_embedded/libs/stm32/STM32F10x_StdPeriph_Driver/stm32f10x_flash.c ****       flashstatus = FLASH_ERROR_PG;
 16692              		.loc 1 1540 0
 16693 0020 0220     		movs	r0, #2
 16694              	.LVL25:
1547:../../../SDK_embedded/libs/stm32/STM32F10x_StdPeriph_Driver/stm32f10x_flash.c ****       }
1548:../../../SDK_embedded/libs/stm32/STM32F10x_StdPeriph_Driver/stm32f10x_flash.c ****       else
1549:../../../SDK_embedded/libs/stm32/STM32F10x_StdPeriph_Driver/stm32f10x_flash.c ****       {
1550:../../../SDK_embedded/libs/stm32/STM32F10x_StdPeriph_Driver/stm32f10x_flash.c ****         flashstatus = FLASH_COMPLETE;
1551:../../../SDK_embedded/libs/stm32/STM32F10x_StdPeriph_Driver/stm32f10x_flash.c ****       }
1552:../../../SDK_embedded/libs/stm32/STM32F10x_StdPeriph_Driver/stm32f10x_flash.c ****     }
1553:../../../SDK_embedded/libs/stm32/STM32F10x_StdPeriph_Driver/stm32f10x_flash.c ****   }
1554:../../../SDK_embedded/libs/stm32/STM32F10x_StdPeriph_Driver/stm32f10x_flash.c ****   /* Return the Flash Status */
1555:../../../SDK_embedded/libs/stm32/STM32F10x_StdPeriph_Driver/stm32f10x_flash.c ****   return flashstatus;
1556:../../../SDK_embedded/libs/stm32/STM32F10x_StdPeriph_Driver/stm32f10x_flash.c **** }
 16695              		.loc 1 1556 0
 16696 0022 7047     		bx	lr
 16697              	.L54:
 16698              		.align	2
 16699              	.L53:
 16700 0024 00200240 		.word	1073881088
 16701              		.cfi_endproc
 16702              	.LFE53:
 16704              		.section	.text.FLASH_GetBank1Status,"ax",%progbits
 16705              		.align	1
 16706              		.global	FLASH_GetBank1Status
 16707              		.thumb
 16708              		.thumb_func
 16710              	FLASH_GetBank1Status:
 16711              	.LFB54:
1557:../../../SDK_embedded/libs/stm32/STM32F10x_StdPeriph_Driver/stm32f10x_flash.c **** 
1558:../../../SDK_embedded/libs/stm32/STM32F10x_StdPeriph_Driver/stm32f10x_flash.c **** /**
1559:../../../SDK_embedded/libs/stm32/STM32F10x_StdPeriph_Driver/stm32f10x_flash.c ****   * @brief  Returns the FLASH Bank1 Status.
1560:../../../SDK_embedded/libs/stm32/STM32F10x_StdPeriph_Driver/stm32f10x_flash.c ****   * @note   This function can be used for all STM32F10x devices, it is equivalent
1561:../../../SDK_embedded/libs/stm32/STM32F10x_StdPeriph_Driver/stm32f10x_flash.c ****   *   to FLASH_GetStatus function.
1562:../../../SDK_embedded/libs/stm32/STM32F10x_StdPeriph_Driver/stm32f10x_flash.c ****   * @param  None
1563:../../../SDK_embedded/libs/stm32/STM32F10x_StdPeriph_Driver/stm32f10x_flash.c ****   * @retval FLASH Status: The returned value can be: FLASH_BUSY, FLASH_ERROR_PG,
1564:../../../SDK_embedded/libs/stm32/STM32F10x_StdPeriph_Driver/stm32f10x_flash.c ****   *   FLASH_ERROR_WRP or FLASH_COMPLETE
1565:../../../SDK_embedded/libs/stm32/STM32F10x_StdPeriph_Driver/stm32f10x_flash.c ****   */
1566:../../../SDK_embedded/libs/stm32/STM32F10x_StdPeriph_Driver/stm32f10x_flash.c **** FLASH_Status FLASH_GetBank1Status(void)
1567:../../../SDK_embedded/libs/stm32/STM32F10x_StdPeriph_Driver/stm32f10x_flash.c **** {
 16712              		.loc 1 1567 0
 16713              		.cfi_startproc
 16714              		@ args = 0, pretend = 0, frame = 0
 16715              		@ frame_needed = 0, uses_anonymous_args = 0
 16716              		@ link register save eliminated.
 16717              	.LVL26:
1568:../../../SDK_embedded/libs/stm32/STM32F10x_StdPeriph_Driver/stm32f10x_flash.c ****   FLASH_Status flashstatus = FLASH_COMPLETE;
1569:../../../SDK_embedded/libs/stm32/STM32F10x_StdPeriph_Driver/stm32f10x_flash.c ****   
1570:../../../SDK_embedded/libs/stm32/STM32F10x_StdPeriph_Driver/stm32f10x_flash.c ****   if((FLASH->SR & FLASH_FLAG_BANK1_BSY) == FLASH_FLAG_BSY) 
 16718              		.loc 1 1570 0
 16719 0000 084B     		ldr	r3, .L61
 16720 0002 DA68     		ldr	r2, [r3, #12]
 16721 0004 D207     		lsls	r2, r2, #31
 16722 0006 09D4     		bmi	.L58
1571:../../../SDK_embedded/libs/stm32/STM32F10x_StdPeriph_Driver/stm32f10x_flash.c ****   {
1572:../../../SDK_embedded/libs/stm32/STM32F10x_StdPeriph_Driver/stm32f10x_flash.c ****     flashstatus = FLASH_BUSY;
1573:../../../SDK_embedded/libs/stm32/STM32F10x_StdPeriph_Driver/stm32f10x_flash.c ****   }
1574:../../../SDK_embedded/libs/stm32/STM32F10x_StdPeriph_Driver/stm32f10x_flash.c ****   else 
1575:../../../SDK_embedded/libs/stm32/STM32F10x_StdPeriph_Driver/stm32f10x_flash.c ****   {  
1576:../../../SDK_embedded/libs/stm32/STM32F10x_StdPeriph_Driver/stm32f10x_flash.c ****     if((FLASH->SR & FLASH_FLAG_BANK1_PGERR) != 0)
 16723              		.loc 1 1576 0
 16724 0008 D868     		ldr	r0, [r3, #12]
 16725 000a 4007     		lsls	r0, r0, #29
 16726 000c 08D4     		bmi	.L59
 16727              	.LBB4:
 16728              	.LBB5:
1577:../../../SDK_embedded/libs/stm32/STM32F10x_StdPeriph_Driver/stm32f10x_flash.c ****     { 
1578:../../../SDK_embedded/libs/stm32/STM32F10x_StdPeriph_Driver/stm32f10x_flash.c ****       flashstatus = FLASH_ERROR_PG;
1579:../../../SDK_embedded/libs/stm32/STM32F10x_StdPeriph_Driver/stm32f10x_flash.c ****     }
1580:../../../SDK_embedded/libs/stm32/STM32F10x_StdPeriph_Driver/stm32f10x_flash.c ****     else 
1581:../../../SDK_embedded/libs/stm32/STM32F10x_StdPeriph_Driver/stm32f10x_flash.c ****     {
1582:../../../SDK_embedded/libs/stm32/STM32F10x_StdPeriph_Driver/stm32f10x_flash.c ****       if((FLASH->SR & FLASH_FLAG_BANK1_WRPRTERR) != 0 )
 16729              		.loc 1 1582 0
 16730 000e DB68     		ldr	r3, [r3, #12]
 16731 0010 13F0100F 		tst	r3, #16
1583:../../../SDK_embedded/libs/stm32/STM32F10x_StdPeriph_Driver/stm32f10x_flash.c ****       {
1584:../../../SDK_embedded/libs/stm32/STM32F10x_StdPeriph_Driver/stm32f10x_flash.c ****         flashstatus = FLASH_ERROR_WRP;
 16732              		.loc 1 1584 0
 16733 0014 0CBF     		ite	eq
 16734 0016 0420     		moveq	r0, #4
 16735 0018 0320     		movne	r0, #3
 16736 001a 7047     		bx	lr
 16737              	.L58:
 16738              	.LBE5:
 16739              	.LBE4:
1572:../../../SDK_embedded/libs/stm32/STM32F10x_StdPeriph_Driver/stm32f10x_flash.c ****     flashstatus = FLASH_BUSY;
 16740              		.loc 1 1572 0
 16741 001c 0120     		movs	r0, #1
 16742 001e 7047     		bx	lr
 16743              	.L59:
1578:../../../SDK_embedded/libs/stm32/STM32F10x_StdPeriph_Driver/stm32f10x_flash.c ****       flashstatus = FLASH_ERROR_PG;
 16744              		.loc 1 1578 0
 16745 0020 0220     		movs	r0, #2
 16746              	.LVL27:
1585:../../../SDK_embedded/libs/stm32/STM32F10x_StdPeriph_Driver/stm32f10x_flash.c ****       }
1586:../../../SDK_embedded/libs/stm32/STM32F10x_StdPeriph_Driver/stm32f10x_flash.c ****       else
1587:../../../SDK_embedded/libs/stm32/STM32F10x_StdPeriph_Driver/stm32f10x_flash.c ****       {
1588:../../../SDK_embedded/libs/stm32/STM32F10x_StdPeriph_Driver/stm32f10x_flash.c ****         flashstatus = FLASH_COMPLETE;
1589:../../../SDK_embedded/libs/stm32/STM32F10x_StdPeriph_Driver/stm32f10x_flash.c ****       }
1590:../../../SDK_embedded/libs/stm32/STM32F10x_StdPeriph_Driver/stm32f10x_flash.c ****     }
1591:../../../SDK_embedded/libs/stm32/STM32F10x_StdPeriph_Driver/stm32f10x_flash.c ****   }
1592:../../../SDK_embedded/libs/stm32/STM32F10x_StdPeriph_Driver/stm32f10x_flash.c ****   /* Return the Flash Status */
1593:../../../SDK_embedded/libs/stm32/STM32F10x_StdPeriph_Driver/stm32f10x_flash.c ****   return flashstatus;
1594:../../../SDK_embedded/libs/stm32/STM32F10x_StdPeriph_Driver/stm32f10x_flash.c **** }
 16747              		.loc 1 1594 0
 16748 0022 7047     		bx	lr
 16749              	.L62:
 16750              		.align	2
 16751              	.L61:
 16752 0024 00200240 		.word	1073881088
 16753              		.cfi_endproc
 16754              	.LFE54:
 16756              		.section	.text.FLASH_WaitForLastOperation,"ax",%progbits
 16757              		.align	1
 16758              		.global	FLASH_WaitForLastOperation
 16759              		.thumb
 16760              		.thumb_func
 16762              	FLASH_WaitForLastOperation:
 16763              	.LFB55:
1595:../../../SDK_embedded/libs/stm32/STM32F10x_StdPeriph_Driver/stm32f10x_flash.c **** 
1596:../../../SDK_embedded/libs/stm32/STM32F10x_StdPeriph_Driver/stm32f10x_flash.c **** #ifdef STM32F10X_XL
1597:../../../SDK_embedded/libs/stm32/STM32F10x_StdPeriph_Driver/stm32f10x_flash.c **** /**
1598:../../../SDK_embedded/libs/stm32/STM32F10x_StdPeriph_Driver/stm32f10x_flash.c ****   * @brief  Returns the FLASH Bank2 Status.
1599:../../../SDK_embedded/libs/stm32/STM32F10x_StdPeriph_Driver/stm32f10x_flash.c ****   * @note   This function can be used for STM32F10x_XL density devices.
1600:../../../SDK_embedded/libs/stm32/STM32F10x_StdPeriph_Driver/stm32f10x_flash.c ****   * @param  None
1601:../../../SDK_embedded/libs/stm32/STM32F10x_StdPeriph_Driver/stm32f10x_flash.c ****   * @retval FLASH Status: The returned value can be: FLASH_BUSY, FLASH_ERROR_PG,
1602:../../../SDK_embedded/libs/stm32/STM32F10x_StdPeriph_Driver/stm32f10x_flash.c ****   *   FLASH_ERROR_WRP or FLASH_COMPLETE
1603:../../../SDK_embedded/libs/stm32/STM32F10x_StdPeriph_Driver/stm32f10x_flash.c ****   */
1604:../../../SDK_embedded/libs/stm32/STM32F10x_StdPeriph_Driver/stm32f10x_flash.c **** FLASH_Status FLASH_GetBank2Status(void)
1605:../../../SDK_embedded/libs/stm32/STM32F10x_StdPeriph_Driver/stm32f10x_flash.c **** {
1606:../../../SDK_embedded/libs/stm32/STM32F10x_StdPeriph_Driver/stm32f10x_flash.c ****   FLASH_Status flashstatus = FLASH_COMPLETE;
1607:../../../SDK_embedded/libs/stm32/STM32F10x_StdPeriph_Driver/stm32f10x_flash.c ****   
1608:../../../SDK_embedded/libs/stm32/STM32F10x_StdPeriph_Driver/stm32f10x_flash.c ****   if((FLASH->SR2 & (FLASH_FLAG_BANK2_BSY & 0x7FFFFFFF)) == (FLASH_FLAG_BANK2_BSY & 0x7FFFFFFF)) 
1609:../../../SDK_embedded/libs/stm32/STM32F10x_StdPeriph_Driver/stm32f10x_flash.c ****   {
1610:../../../SDK_embedded/libs/stm32/STM32F10x_StdPeriph_Driver/stm32f10x_flash.c ****     flashstatus = FLASH_BUSY;
1611:../../../SDK_embedded/libs/stm32/STM32F10x_StdPeriph_Driver/stm32f10x_flash.c ****   }
1612:../../../SDK_embedded/libs/stm32/STM32F10x_StdPeriph_Driver/stm32f10x_flash.c ****   else 
1613:../../../SDK_embedded/libs/stm32/STM32F10x_StdPeriph_Driver/stm32f10x_flash.c ****   {  
1614:../../../SDK_embedded/libs/stm32/STM32F10x_StdPeriph_Driver/stm32f10x_flash.c ****     if((FLASH->SR2 & (FLASH_FLAG_BANK2_PGERR & 0x7FFFFFFF)) != 0)
1615:../../../SDK_embedded/libs/stm32/STM32F10x_StdPeriph_Driver/stm32f10x_flash.c ****     { 
1616:../../../SDK_embedded/libs/stm32/STM32F10x_StdPeriph_Driver/stm32f10x_flash.c ****       flashstatus = FLASH_ERROR_PG;
1617:../../../SDK_embedded/libs/stm32/STM32F10x_StdPeriph_Driver/stm32f10x_flash.c ****     }
1618:../../../SDK_embedded/libs/stm32/STM32F10x_StdPeriph_Driver/stm32f10x_flash.c ****     else 
1619:../../../SDK_embedded/libs/stm32/STM32F10x_StdPeriph_Driver/stm32f10x_flash.c ****     {
1620:../../../SDK_embedded/libs/stm32/STM32F10x_StdPeriph_Driver/stm32f10x_flash.c ****       if((FLASH->SR2 & (FLASH_FLAG_BANK2_WRPRTERR & 0x7FFFFFFF)) != 0 )
1621:../../../SDK_embedded/libs/stm32/STM32F10x_StdPeriph_Driver/stm32f10x_flash.c ****       {
1622:../../../SDK_embedded/libs/stm32/STM32F10x_StdPeriph_Driver/stm32f10x_flash.c ****         flashstatus = FLASH_ERROR_WRP;
1623:../../../SDK_embedded/libs/stm32/STM32F10x_StdPeriph_Driver/stm32f10x_flash.c ****       }
1624:../../../SDK_embedded/libs/stm32/STM32F10x_StdPeriph_Driver/stm32f10x_flash.c ****       else
1625:../../../SDK_embedded/libs/stm32/STM32F10x_StdPeriph_Driver/stm32f10x_flash.c ****       {
1626:../../../SDK_embedded/libs/stm32/STM32F10x_StdPeriph_Driver/stm32f10x_flash.c ****         flashstatus = FLASH_COMPLETE;
1627:../../../SDK_embedded/libs/stm32/STM32F10x_StdPeriph_Driver/stm32f10x_flash.c ****       }
1628:../../../SDK_embedded/libs/stm32/STM32F10x_StdPeriph_Driver/stm32f10x_flash.c ****     }
1629:../../../SDK_embedded/libs/stm32/STM32F10x_StdPeriph_Driver/stm32f10x_flash.c ****   }
1630:../../../SDK_embedded/libs/stm32/STM32F10x_StdPeriph_Driver/stm32f10x_flash.c ****   /* Return the Flash Status */
1631:../../../SDK_embedded/libs/stm32/STM32F10x_StdPeriph_Driver/stm32f10x_flash.c ****   return flashstatus;
1632:../../../SDK_embedded/libs/stm32/STM32F10x_StdPeriph_Driver/stm32f10x_flash.c **** }
1633:../../../SDK_embedded/libs/stm32/STM32F10x_StdPeriph_Driver/stm32f10x_flash.c **** #endif /* STM32F10X_XL */
1634:../../../SDK_embedded/libs/stm32/STM32F10x_StdPeriph_Driver/stm32f10x_flash.c **** /**
1635:../../../SDK_embedded/libs/stm32/STM32F10x_StdPeriph_Driver/stm32f10x_flash.c ****   * @brief  Waits for a Flash operation to complete or a TIMEOUT to occur.
1636:../../../SDK_embedded/libs/stm32/STM32F10x_StdPeriph_Driver/stm32f10x_flash.c ****   * @note   This function can be used for all STM32F10x devices, 
1637:../../../SDK_embedded/libs/stm32/STM32F10x_StdPeriph_Driver/stm32f10x_flash.c ****   *         it is equivalent to FLASH_WaitForLastBank1Operation.
1638:../../../SDK_embedded/libs/stm32/STM32F10x_StdPeriph_Driver/stm32f10x_flash.c ****   *         - For STM32F10X_XL devices this function waits for a Bank1 Flash operation
1639:../../../SDK_embedded/libs/stm32/STM32F10x_StdPeriph_Driver/stm32f10x_flash.c ****   *           to complete or a TIMEOUT to occur.
1640:../../../SDK_embedded/libs/stm32/STM32F10x_StdPeriph_Driver/stm32f10x_flash.c ****   *         - For all other devices it waits for a Flash operation to complete 
1641:../../../SDK_embedded/libs/stm32/STM32F10x_StdPeriph_Driver/stm32f10x_flash.c ****   *           or a TIMEOUT to occur.
1642:../../../SDK_embedded/libs/stm32/STM32F10x_StdPeriph_Driver/stm32f10x_flash.c ****   * @param  Timeout: FLASH progamming Timeout
1643:../../../SDK_embedded/libs/stm32/STM32F10x_StdPeriph_Driver/stm32f10x_flash.c ****   * @retval FLASH Status: The returned value can be: FLASH_ERROR_PG,
1644:../../../SDK_embedded/libs/stm32/STM32F10x_StdPeriph_Driver/stm32f10x_flash.c ****   *   FLASH_ERROR_WRP, FLASH_COMPLETE or FLASH_TIMEOUT.
1645:../../../SDK_embedded/libs/stm32/STM32F10x_StdPeriph_Driver/stm32f10x_flash.c ****   */
1646:../../../SDK_embedded/libs/stm32/STM32F10x_StdPeriph_Driver/stm32f10x_flash.c **** FLASH_Status FLASH_WaitForLastOperation(uint32_t Timeout)
1647:../../../SDK_embedded/libs/stm32/STM32F10x_StdPeriph_Driver/stm32f10x_flash.c **** { 
 16764              		.loc 1 1647 0
 16765              		.cfi_startproc
 16766              		@ args = 0, pretend = 0, frame = 0
 16767              		@ frame_needed = 0, uses_anonymous_args = 0
 16768              	.LVL28:
 16769 0000 38B5     		push	{r3, r4, r5, lr}
 16770              	.LCFI0:
 16771              		.cfi_def_cfa_offset 16
 16772              		.cfi_offset 14, -4
 16773              		.cfi_offset 5, -8
 16774              		.cfi_offset 4, -12
 16775              		.cfi_offset 3, -16
1648:../../../SDK_embedded/libs/stm32/STM32F10x_StdPeriph_Driver/stm32f10x_flash.c ****   FLASH_Status status = FLASH_COMPLETE;
1649:../../../SDK_embedded/libs/stm32/STM32F10x_StdPeriph_Driver/stm32f10x_flash.c ****    
1650:../../../SDK_embedded/libs/stm32/STM32F10x_StdPeriph_Driver/stm32f10x_flash.c ****   /* Check for the Flash Status */
1651:../../../SDK_embedded/libs/stm32/STM32F10x_StdPeriph_Driver/stm32f10x_flash.c ****   status = FLASH_GetBank1Status();
 16776              		.loc 1 1651 0
 16777 0002 0B4D     		ldr	r5, .L68
1647:../../../SDK_embedded/libs/stm32/STM32F10x_StdPeriph_Driver/stm32f10x_flash.c **** { 
 16778              		.loc 1 1647 0
 16779 0004 0446     		mov	r4, r0
 16780              		.loc 1 1651 0
 16781 0006 A847     		blx	r5
 16782              	.LVL29:
1652:../../../SDK_embedded/libs/stm32/STM32F10x_StdPeriph_Driver/stm32f10x_flash.c ****   /* Wait for a Flash operation to complete or a TIMEOUT to occur */
1653:../../../SDK_embedded/libs/stm32/STM32F10x_StdPeriph_Driver/stm32f10x_flash.c ****   while((status == FLASH_BUSY) && (Timeout != 0x00))
 16783              		.loc 1 1653 0
 16784 0008 01E0     		b	.L64
 16785              	.L65:
1654:../../../SDK_embedded/libs/stm32/STM32F10x_StdPeriph_Driver/stm32f10x_flash.c ****   {
1655:../../../SDK_embedded/libs/stm32/STM32F10x_StdPeriph_Driver/stm32f10x_flash.c ****     status = FLASH_GetBank1Status();
 16786              		.loc 1 1655 0
 16787 000a A847     		blx	r5
 16788              	.LVL30:
1656:../../../SDK_embedded/libs/stm32/STM32F10x_StdPeriph_Driver/stm32f10x_flash.c ****     Timeout--;
 16789              		.loc 1 1656 0
 16790 000c 013C     		subs	r4, r4, #1
 16791              	.LVL31:
 16792              	.L64:
1653:../../../SDK_embedded/libs/stm32/STM32F10x_StdPeriph_Driver/stm32f10x_flash.c ****   while((status == FLASH_BUSY) && (Timeout != 0x00))
 16793              		.loc 1 1653 0 discriminator 1
 16794 000e A0F10101 		sub	r1, r0, #1
 16795 0012 4A42     		rsbs	r2, r1, #0
 16796 0014 42EB0103 		adc	r3, r2, r1
 16797 0018 002C     		cmp	r4, #0
 16798 001a 0CBF     		ite	eq
 16799 001c 0023     		moveq	r3, #0
 16800 001e 03F00103 		andne	r3, r3, #1
 16801 0022 002B     		cmp	r3, #0
 16802 0024 F1D1     		bne	.L65
1657:../../../SDK_embedded/libs/stm32/STM32F10x_StdPeriph_Driver/stm32f10x_flash.c ****   }
1658:../../../SDK_embedded/libs/stm32/STM32F10x_StdPeriph_Driver/stm32f10x_flash.c ****   if(Timeout == 0x00 )
1659:../../../SDK_embedded/libs/stm32/STM32F10x_StdPeriph_Driver/stm32f10x_flash.c ****   {
1660:../../../SDK_embedded/libs/stm32/STM32F10x_StdPeriph_Driver/stm32f10x_flash.c ****     status = FLASH_TIMEOUT;
 16803              		.loc 1 1660 0
 16804 0026 002C     		cmp	r4, #0
 16805 0028 08BF     		it	eq
 16806 002a 0520     		moveq	r0, #5
 16807              	.LVL32:
1661:../../../SDK_embedded/libs/stm32/STM32F10x_StdPeriph_Driver/stm32f10x_flash.c ****   }
1662:../../../SDK_embedded/libs/stm32/STM32F10x_StdPeriph_Driver/stm32f10x_flash.c ****   /* Return the operation status */
1663:../../../SDK_embedded/libs/stm32/STM32F10x_StdPeriph_Driver/stm32f10x_flash.c ****   return status;
1664:../../../SDK_embedded/libs/stm32/STM32F10x_StdPeriph_Driver/stm32f10x_flash.c **** }
 16808              		.loc 1 1664 0
 16809 002c 38BD     		pop	{r3, r4, r5, pc}
 16810              	.L69:
 16811 002e 00BF     		.align	2
 16812              	.L68:
 16813 0030 00000000 		.word	FLASH_GetBank1Status
 16814              		.cfi_endproc
 16815              	.LFE55:
 16817              		.section	.text.FLASH_UserOptionByteConfig,"ax",%progbits
 16818              		.align	1
 16819              		.global	FLASH_UserOptionByteConfig
 16820              		.thumb
 16821              		.thumb_func
 16823              	FLASH_UserOptionByteConfig:
 16824              	.LFB45:
1170:../../../SDK_embedded/libs/stm32/STM32F10x_StdPeriph_Driver/stm32f10x_flash.c **** {
 16825              		.loc 1 1170 0
 16826              		.cfi_startproc
 16827              		@ args = 0, pretend = 0, frame = 0
 16828              		@ frame_needed = 0, uses_anonymous_args = 0
 16829              	.LVL33:
 16830 0000 2DE9F041 		push	{r4, r5, r6, r7, r8, lr}
 16831              	.LCFI1:
 16832              		.cfi_def_cfa_offset 24
 16833              		.cfi_offset 14, -4
 16834              		.cfi_offset 8, -8
 16835              		.cfi_offset 7, -12
 16836              		.cfi_offset 6, -16
 16837              		.cfi_offset 5, -20
 16838              		.cfi_offset 4, -24
1170:../../../SDK_embedded/libs/stm32/STM32F10x_StdPeriph_Driver/stm32f10x_flash.c **** {
 16839              		.loc 1 1170 0
 16840 0004 0446     		mov	r4, r0
1179:../../../SDK_embedded/libs/stm32/STM32F10x_StdPeriph_Driver/stm32f10x_flash.c ****   FLASH->OPTKEYR = FLASH_KEY1;
 16841              		.loc 1 1179 0
 16842 0006 1348     		ldr	r0, .L72
 16843              	.LVL34:
 16844 0008 134E     		ldr	r6, .L72+4
1180:../../../SDK_embedded/libs/stm32/STM32F10x_StdPeriph_Driver/stm32f10x_flash.c ****   FLASH->OPTKEYR = FLASH_KEY2;
 16845              		.loc 1 1180 0
 16846 000a 00F18833 		add	r3, r0, #-2004318072
1179:../../../SDK_embedded/libs/stm32/STM32F10x_StdPeriph_Driver/stm32f10x_flash.c ****   FLASH->OPTKEYR = FLASH_KEY1;
 16847              		.loc 1 1179 0
 16848 000e B060     		str	r0, [r6, #8]
1183:../../../SDK_embedded/libs/stm32/STM32F10x_StdPeriph_Driver/stm32f10x_flash.c ****   status = FLASH_WaitForLastOperation(ProgramTimeout);
 16849              		.loc 1 1183 0
 16850 0010 124F     		ldr	r7, .L72+8
1180:../../../SDK_embedded/libs/stm32/STM32F10x_StdPeriph_Driver/stm32f10x_flash.c ****   FLASH->OPTKEYR = FLASH_KEY2;
 16851              		.loc 1 1180 0
 16852 0012 B360     		str	r3, [r6, #8]
1183:../../../SDK_embedded/libs/stm32/STM32F10x_StdPeriph_Driver/stm32f10x_flash.c ****   status = FLASH_WaitForLastOperation(ProgramTimeout);
 16853              		.loc 1 1183 0
 16854 0014 4FF40050 		mov	r0, #8192
1170:../../../SDK_embedded/libs/stm32/STM32F10x_StdPeriph_Driver/stm32f10x_flash.c **** {
 16855              		.loc 1 1170 0
 16856 0018 0D46     		mov	r5, r1
 16857 001a 9046     		mov	r8, r2
1183:../../../SDK_embedded/libs/stm32/STM32F10x_StdPeriph_Driver/stm32f10x_flash.c ****   status = FLASH_WaitForLastOperation(ProgramTimeout);
 16858              		.loc 1 1183 0
 16859 001c B847     		blx	r7
 16860              	.LVL35:
1185:../../../SDK_embedded/libs/stm32/STM32F10x_StdPeriph_Driver/stm32f10x_flash.c ****   if(status == FLASH_COMPLETE)
 16861              		.loc 1 1185 0
 16862 001e 0428     		cmp	r0, #4
 16863 0020 15D1     		bne	.L71
1188:../../../SDK_embedded/libs/stm32/STM32F10x_StdPeriph_Driver/stm32f10x_flash.c ****     FLASH->CR |= CR_OPTPG_Set; 
 16864              		.loc 1 1188 0
 16865 0022 3169     		ldr	r1, [r6, #16]
1190:../../../SDK_embedded/libs/stm32/STM32F10x_StdPeriph_Driver/stm32f10x_flash.c ****     OB->USER = OB_IWDG | (uint16_t)(OB_STOP | (uint16_t)(OB_STDBY | ((uint16_t)0xF8))); 
 16866              		.loc 1 1190 0
 16867 0024 44F0F804 		orr	r4, r4, #248
 16868 0028 0D4B     		ldr	r3, .L72+12
 16869 002a 2543     		orrs	r5, r5, r4
1188:../../../SDK_embedded/libs/stm32/STM32F10x_StdPeriph_Driver/stm32f10x_flash.c ****     FLASH->CR |= CR_OPTPG_Set; 
 16870              		.loc 1 1188 0
 16871 002c 41F01000 		orr	r0, r1, #16
 16872              	.LVL36:
1190:../../../SDK_embedded/libs/stm32/STM32F10x_StdPeriph_Driver/stm32f10x_flash.c ****     OB->USER = OB_IWDG | (uint16_t)(OB_STOP | (uint16_t)(OB_STDBY | ((uint16_t)0xF8))); 
 16873              		.loc 1 1190 0
 16874 0030 48EA0508 		orr	r8, r8, r5
1188:../../../SDK_embedded/libs/stm32/STM32F10x_StdPeriph_Driver/stm32f10x_flash.c ****     FLASH->CR |= CR_OPTPG_Set; 
 16875              		.loc 1 1188 0
 16876 0034 3061     		str	r0, [r6, #16]
1190:../../../SDK_embedded/libs/stm32/STM32F10x_StdPeriph_Driver/stm32f10x_flash.c ****     OB->USER = OB_IWDG | (uint16_t)(OB_STOP | (uint16_t)(OB_STDBY | ((uint16_t)0xF8))); 
 16877              		.loc 1 1190 0
 16878 0036 A3F80280 		strh	r8, [r3, #2]	@ movhi
1193:../../../SDK_embedded/libs/stm32/STM32F10x_StdPeriph_Driver/stm32f10x_flash.c ****     status = FLASH_WaitForLastOperation(ProgramTimeout);
 16879              		.loc 1 1193 0
 16880 003a 4FF40050 		mov	r0, #8192
 16881 003e B847     		blx	r7
 16882              	.LVL37:
1194:../../../SDK_embedded/libs/stm32/STM32F10x_StdPeriph_Driver/stm32f10x_flash.c ****     if(status != FLASH_TIMEOUT)
 16883              		.loc 1 1194 0
 16884 0040 0528     		cmp	r0, #5
1197:../../../SDK_embedded/libs/stm32/STM32F10x_StdPeriph_Driver/stm32f10x_flash.c ****       FLASH->CR &= CR_OPTPG_Reset;
 16885              		.loc 1 1197 0
 16886 0042 1FBF     		itttt	ne
 16887 0044 3269     		ldrne	r2, [r6, #16]
 16888 0046 41F6EF71 		movwne	r1, #8175
 16889 004a 1140     		andne	r1, r2, r1
 16890 004c 3161     		strne	r1, [r6, #16]
 16891              	.LVL38:
 16892              	.L71:
1202:../../../SDK_embedded/libs/stm32/STM32F10x_StdPeriph_Driver/stm32f10x_flash.c **** }
 16893              		.loc 1 1202 0
 16894 004e BDE8F081 		pop	{r4, r5, r6, r7, r8, pc}
 16895              	.L73:
 16896 0052 00BF     		.align	2
 16897              	.L72:
 16898 0054 23016745 		.word	1164378403
 16899 0058 00200240 		.word	1073881088
 16900 005c 00000000 		.word	FLASH_WaitForLastOperation
 16901 0060 00F8FF1F 		.word	536868864
 16902              		.cfi_endproc
 16903              	.LFE45:
 16905              		.section	.text.FLASH_ReadOutProtection,"ax",%progbits
 16906              		.align	1
 16907              		.global	FLASH_ReadOutProtection
 16908              		.thumb
 16909              		.thumb_func
 16911              	FLASH_ReadOutProtection:
 16912              	.LFB44:
1101:../../../SDK_embedded/libs/stm32/STM32F10x_StdPeriph_Driver/stm32f10x_flash.c **** {
 16913              		.loc 1 1101 0
 16914              		.cfi_startproc
 16915              		@ args = 0, pretend = 0, frame = 0
 16916              		@ frame_needed = 0, uses_anonymous_args = 0
 16917              	.LVL39:
 16918 0000 70B5     		push	{r4, r5, r6, lr}
 16919              	.LCFI2:
 16920              		.cfi_def_cfa_offset 16
 16921              		.cfi_offset 14, -4
 16922              		.cfi_offset 6, -8
 16923              		.cfi_offset 5, -12
 16924              		.cfi_offset 4, -16
1101:../../../SDK_embedded/libs/stm32/STM32F10x_StdPeriph_Driver/stm32f10x_flash.c **** {
 16925              		.loc 1 1101 0
 16926 0002 0646     		mov	r6, r0
1105:../../../SDK_embedded/libs/stm32/STM32F10x_StdPeriph_Driver/stm32f10x_flash.c ****   status = FLASH_WaitForLastOperation(EraseTimeout);
 16927              		.loc 1 1105 0
 16928 0004 1E4D     		ldr	r5, .L80
 16929 0006 4FF43020 		mov	r0, #720896
 16930              	.LVL40:
 16931 000a A847     		blx	r5
 16932              	.LVL41:
1106:../../../SDK_embedded/libs/stm32/STM32F10x_StdPeriph_Driver/stm32f10x_flash.c ****   if(status == FLASH_COMPLETE)
 16933              		.loc 1 1106 0
 16934 000c 0428     		cmp	r0, #4
 16935 000e 36D1     		bne	.L75
1109:../../../SDK_embedded/libs/stm32/STM32F10x_StdPeriph_Driver/stm32f10x_flash.c ****     FLASH->OPTKEYR = FLASH_KEY1;
 16936              		.loc 1 1109 0
 16937 0010 1C48     		ldr	r0, .L80+4
 16938              	.LVL42:
 16939 0012 1D4C     		ldr	r4, .L80+8
1110:../../../SDK_embedded/libs/stm32/STM32F10x_StdPeriph_Driver/stm32f10x_flash.c ****     FLASH->OPTKEYR = FLASH_KEY2;
 16940              		.loc 1 1110 0
 16941 0014 00F18833 		add	r3, r0, #-2004318072
1109:../../../SDK_embedded/libs/stm32/STM32F10x_StdPeriph_Driver/stm32f10x_flash.c ****     FLASH->OPTKEYR = FLASH_KEY1;
 16942              		.loc 1 1109 0
 16943 0018 A060     		str	r0, [r4, #8]
1110:../../../SDK_embedded/libs/stm32/STM32F10x_StdPeriph_Driver/stm32f10x_flash.c ****     FLASH->OPTKEYR = FLASH_KEY2;
 16944              		.loc 1 1110 0
 16945 001a A360     		str	r3, [r4, #8]
1111:../../../SDK_embedded/libs/stm32/STM32F10x_StdPeriph_Driver/stm32f10x_flash.c ****     FLASH->CR |= CR_OPTER_Set;
 16946              		.loc 1 1111 0
 16947 001c 2269     		ldr	r2, [r4, #16]
 16948 001e 42F02001 		orr	r1, r2, #32
 16949 0022 2161     		str	r1, [r4, #16]
1112:../../../SDK_embedded/libs/stm32/STM32F10x_StdPeriph_Driver/stm32f10x_flash.c ****     FLASH->CR |= CR_STRT_Set;
 16950              		.loc 1 1112 0
 16951 0024 2069     		ldr	r0, [r4, #16]
 16952 0026 40F04003 		orr	r3, r0, #64
 16953 002a 2361     		str	r3, [r4, #16]
1114:../../../SDK_embedded/libs/stm32/STM32F10x_StdPeriph_Driver/stm32f10x_flash.c ****     status = FLASH_WaitForLastOperation(EraseTimeout);
 16954              		.loc 1 1114 0
 16955 002c 4FF43020 		mov	r0, #720896
 16956 0030 A847     		blx	r5
 16957              	.LVL43:
1115:../../../SDK_embedded/libs/stm32/STM32F10x_StdPeriph_Driver/stm32f10x_flash.c ****     if(status == FLASH_COMPLETE)
 16958              		.loc 1 1115 0
 16959 0032 0428     		cmp	r0, #4
 16960 0034 1CD1     		bne	.L76
1118:../../../SDK_embedded/libs/stm32/STM32F10x_StdPeriph_Driver/stm32f10x_flash.c ****       FLASH->CR &= CR_OPTER_Reset;
 16961              		.loc 1 1118 0
 16962 0036 2069     		ldr	r0, [r4, #16]
 16963              	.LVL44:
 16964 0038 41F6DF7C 		movw	ip, #8159
 16965 003c 00EA0C03 		and	r3, r0, ip
 16966 0040 2361     		str	r3, [r4, #16]
1120:../../../SDK_embedded/libs/stm32/STM32F10x_StdPeriph_Driver/stm32f10x_flash.c ****       FLASH->CR |= CR_OPTPG_Set; 
 16967              		.loc 1 1120 0
 16968 0042 2269     		ldr	r2, [r4, #16]
 16969 0044 114B     		ldr	r3, .L80+12
 16970 0046 42F01001 		orr	r1, r2, #16
 16971 004a 2161     		str	r1, [r4, #16]
1123:../../../SDK_embedded/libs/stm32/STM32F10x_StdPeriph_Driver/stm32f10x_flash.c ****         OB->RDP = 0x00;
 16972              		.loc 1 1123 0
 16973 004c 0022     		movs	r2, #0
1121:../../../SDK_embedded/libs/stm32/STM32F10x_StdPeriph_Driver/stm32f10x_flash.c ****       if(NewState != DISABLE)
 16974              		.loc 1 1121 0
 16975 004e 06B9     		cbnz	r6, .L79
1127:../../../SDK_embedded/libs/stm32/STM32F10x_StdPeriph_Driver/stm32f10x_flash.c ****         OB->RDP = RDP_Key;  
 16976              		.loc 1 1127 0
 16977 0050 A522     		movs	r2, #165
 16978              	.L79:
 16979 0052 1A80     		strh	r2, [r3, #0]	@ movhi
1130:../../../SDK_embedded/libs/stm32/STM32F10x_StdPeriph_Driver/stm32f10x_flash.c ****       status = FLASH_WaitForLastOperation(EraseTimeout); 
 16980              		.loc 1 1130 0
 16981 0054 4FF43020 		mov	r0, #720896
 16982 0058 0949     		ldr	r1, .L80
 16983 005a 8847     		blx	r1
 16984              	.LVL45:
1132:../../../SDK_embedded/libs/stm32/STM32F10x_StdPeriph_Driver/stm32f10x_flash.c ****       if(status != FLASH_TIMEOUT)
 16985              		.loc 1 1132 0
 16986 005c 0528     		cmp	r0, #5
 16987 005e 0ED0     		beq	.L75
1135:../../../SDK_embedded/libs/stm32/STM32F10x_StdPeriph_Driver/stm32f10x_flash.c ****         FLASH->CR &= CR_OPTPG_Reset;
 16988              		.loc 1 1135 0
 16989 0060 094A     		ldr	r2, .L80+8
 16990 0062 41F6EF7E 		movw	lr, #8175
 16991 0066 1169     		ldr	r1, [r2, #16]
 16992 0068 01EA0E03 		and	r3, r1, lr
 16993 006c 1361     		str	r3, [r2, #16]
 16994 006e 70BD     		pop	{r4, r5, r6, pc}
 16995              	.L76:
1140:../../../SDK_embedded/libs/stm32/STM32F10x_StdPeriph_Driver/stm32f10x_flash.c ****       if(status != FLASH_TIMEOUT)
 16996              		.loc 1 1140 0
 16997 0070 0528     		cmp	r0, #5
1143:../../../SDK_embedded/libs/stm32/STM32F10x_StdPeriph_Driver/stm32f10x_flash.c ****         FLASH->CR &= CR_OPTER_Reset;
 16998              		.loc 1 1143 0
 16999 0072 1FBF     		itttt	ne
 17000 0074 2269     		ldrne	r2, [r4, #16]
 17001 0076 41F6DF73 		movwne	r3, #8159
 17002 007a 1340     		andne	r3, r2, r3
 17003 007c 2361     		strne	r3, [r4, #16]
 17004              	.LVL46:
 17005              	.L75:
1149:../../../SDK_embedded/libs/stm32/STM32F10x_StdPeriph_Driver/stm32f10x_flash.c **** }
 17006              		.loc 1 1149 0
 17007 007e 70BD     		pop	{r4, r5, r6, pc}
 17008              	.L81:
 17009              		.align	2
 17010              	.L80:
 17011 0080 00000000 		.word	FLASH_WaitForLastOperation
 17012 0084 23016745 		.word	1164378403
 17013 0088 00200240 		.word	1073881088
 17014 008c 00F8FF1F 		.word	536868864
 17015              		.cfi_endproc
 17016              	.LFE44:
 17018              		.section	.text.FLASH_EnableWriteProtection,"ax",%progbits
 17019              		.align	1
 17020              		.global	FLASH_EnableWriteProtection
 17021              		.thumb
 17022              		.thumb_func
 17024              	FLASH_EnableWriteProtection:
 17025              	.LFB43:
1027:../../../SDK_embedded/libs/stm32/STM32F10x_StdPeriph_Driver/stm32f10x_flash.c **** {
 17026              		.loc 1 1027 0
 17027              		.cfi_startproc
 17028              		@ args = 0, pretend = 0, frame = 0
 17029              		@ frame_needed = 0, uses_anonymous_args = 0
 17030              	.LVL47:
 17031 0000 38B5     		push	{r3, r4, r5, lr}
 17032              	.LCFI3:
 17033              		.cfi_def_cfa_offset 16
 17034              		.cfi_offset 14, -4
 17035              		.cfi_offset 5, -8
 17036              		.cfi_offset 4, -12
 17037              		.cfi_offset 3, -16
1027:../../../SDK_embedded/libs/stm32/STM32F10x_StdPeriph_Driver/stm32f10x_flash.c **** {
 17038              		.loc 1 1027 0
 17039 0002 0446     		mov	r4, r0
 17040              	.LVL48:
1042:../../../SDK_embedded/libs/stm32/STM32F10x_StdPeriph_Driver/stm32f10x_flash.c ****   status = FLASH_WaitForLastOperation(ProgramTimeout);
 17041              		.loc 1 1042 0
 17042 0004 2B4D     		ldr	r5, .L88
 17043 0006 4FF40050 		mov	r0, #8192
 17044              	.LVL49:
 17045 000a A847     		blx	r5
 17046              	.LVL50:
1044:../../../SDK_embedded/libs/stm32/STM32F10x_StdPeriph_Driver/stm32f10x_flash.c ****   if(status == FLASH_COMPLETE)
 17047              		.loc 1 1044 0
 17048 000c 0428     		cmp	r0, #4
 17049 000e 50D1     		bne	.L83
1047:../../../SDK_embedded/libs/stm32/STM32F10x_StdPeriph_Driver/stm32f10x_flash.c ****     FLASH->OPTKEYR = FLASH_KEY1;
 17050              		.loc 1 1047 0
 17051 0010 294B     		ldr	r3, .L88+4
 17052 0012 2A49     		ldr	r1, .L88+8
1035:../../../SDK_embedded/libs/stm32/STM32F10x_StdPeriph_Driver/stm32f10x_flash.c ****   FLASH_Pages = (uint32_t)(~FLASH_Pages);
 17053              		.loc 1 1035 0
 17054 0014 E443     		mvns	r4, r4
 17055              	.LVL51:
1047:../../../SDK_embedded/libs/stm32/STM32F10x_StdPeriph_Driver/stm32f10x_flash.c ****     FLASH->OPTKEYR = FLASH_KEY1;
 17056              		.loc 1 1047 0
 17057 0016 9960     		str	r1, [r3, #8]
1048:../../../SDK_embedded/libs/stm32/STM32F10x_StdPeriph_Driver/stm32f10x_flash.c ****     FLASH->OPTKEYR = FLASH_KEY2;
 17058              		.loc 1 1048 0
 17059 0018 01F18831 		add	r1, r1, #-2004318072
 17060 001c 9960     		str	r1, [r3, #8]
1049:../../../SDK_embedded/libs/stm32/STM32F10x_StdPeriph_Driver/stm32f10x_flash.c ****     FLASH->CR |= CR_OPTPG_Set;
 17061              		.loc 1 1049 0
 17062 001e 1969     		ldr	r1, [r3, #16]
1036:../../../SDK_embedded/libs/stm32/STM32F10x_StdPeriph_Driver/stm32f10x_flash.c ****   WRP0_Data = (uint16_t)(FLASH_Pages & WRP0_Mask);
 17063              		.loc 1 1036 0
 17064 0020 E2B2     		uxtb	r2, r4
1049:../../../SDK_embedded/libs/stm32/STM32F10x_StdPeriph_Driver/stm32f10x_flash.c ****     FLASH->CR |= CR_OPTPG_Set;
 17065              		.loc 1 1049 0
 17066 0022 41F01001 		orr	r1, r1, #16
1050:../../../SDK_embedded/libs/stm32/STM32F10x_StdPeriph_Driver/stm32f10x_flash.c ****     if(WRP0_Data != 0xFF)
 17067              		.loc 1 1050 0
 17068 0026 FF2A     		cmp	r2, #255
1049:../../../SDK_embedded/libs/stm32/STM32F10x_StdPeriph_Driver/stm32f10x_flash.c ****     FLASH->CR |= CR_OPTPG_Set;
 17069              		.loc 1 1049 0
 17070 0028 1961     		str	r1, [r3, #16]
1050:../../../SDK_embedded/libs/stm32/STM32F10x_StdPeriph_Driver/stm32f10x_flash.c ****     if(WRP0_Data != 0xFF)
 17071              		.loc 1 1050 0
 17072 002a 04D0     		beq	.L84
1052:../../../SDK_embedded/libs/stm32/STM32F10x_StdPeriph_Driver/stm32f10x_flash.c ****       OB->WRP0 = WRP0_Data;
 17073              		.loc 1 1052 0
 17074 002c 2448     		ldr	r0, .L88+12
 17075              	.LVL52:
 17076 002e 0281     		strh	r2, [r0, #8]	@ movhi
1055:../../../SDK_embedded/libs/stm32/STM32F10x_StdPeriph_Driver/stm32f10x_flash.c ****       status = FLASH_WaitForLastOperation(ProgramTimeout);
 17077              		.loc 1 1055 0
 17078 0030 4FF40050 		mov	r0, #8192
 17079 0034 A847     		blx	r5
 17080              	.LVL53:
 17081              	.L84:
1037:../../../SDK_embedded/libs/stm32/STM32F10x_StdPeriph_Driver/stm32f10x_flash.c ****   WRP1_Data = (uint16_t)((FLASH_Pages & WRP1_Mask) >> 8);
 17082              		.loc 1 1037 0
 17083 0036 C4F30723 		ubfx	r3, r4, #8, #8
 17084              	.LVL54:
1057:../../../SDK_embedded/libs/stm32/STM32F10x_StdPeriph_Driver/stm32f10x_flash.c ****     if((status == FLASH_COMPLETE) && (WRP1_Data != 0xFF))
 17085              		.loc 1 1057 0
 17086 003a B3F1FF02 		subs	r2, r3, #255
 17087 003e 18BF     		it	ne
 17088 0040 0122     		movne	r2, #1
 17089 0042 0428     		cmp	r0, #4
 17090 0044 14BF     		ite	ne
 17091 0046 0022     		movne	r2, #0
 17092 0048 02F00102 		andeq	r2, r2, #1
 17093 004c 2AB1     		cbz	r2, .L85
1059:../../../SDK_embedded/libs/stm32/STM32F10x_StdPeriph_Driver/stm32f10x_flash.c ****       OB->WRP1 = WRP1_Data;
 17094              		.loc 1 1059 0
 17095 004e 1C49     		ldr	r1, .L88+12
1062:../../../SDK_embedded/libs/stm32/STM32F10x_StdPeriph_Driver/stm32f10x_flash.c ****       status = FLASH_WaitForLastOperation(ProgramTimeout);
 17096              		.loc 1 1062 0
 17097 0050 4FF40050 		mov	r0, #8192
 17098              	.LVL55:
1059:../../../SDK_embedded/libs/stm32/STM32F10x_StdPeriph_Driver/stm32f10x_flash.c ****       OB->WRP1 = WRP1_Data;
 17099              		.loc 1 1059 0
 17100 0054 4B81     		strh	r3, [r1, #10]	@ movhi
1062:../../../SDK_embedded/libs/stm32/STM32F10x_StdPeriph_Driver/stm32f10x_flash.c ****       status = FLASH_WaitForLastOperation(ProgramTimeout);
 17101              		.loc 1 1062 0
 17102 0056 174B     		ldr	r3, .L88
 17103 0058 9847     		blx	r3
 17104              	.LVL56:
 17105              	.L85:
1038:../../../SDK_embedded/libs/stm32/STM32F10x_StdPeriph_Driver/stm32f10x_flash.c ****   WRP2_Data = (uint16_t)((FLASH_Pages & WRP2_Mask) >> 16);
 17106              		.loc 1 1038 0
 17107 005a C4F30743 		ubfx	r3, r4, #16, #8
 17108              	.LVL57:
1064:../../../SDK_embedded/libs/stm32/STM32F10x_StdPeriph_Driver/stm32f10x_flash.c ****     if((status == FLASH_COMPLETE) && (WRP2_Data != 0xFF))
 17109              		.loc 1 1064 0
 17110 005e B3F1FF02 		subs	r2, r3, #255
 17111 0062 18BF     		it	ne
 17112 0064 0122     		movne	r2, #1
 17113 0066 0428     		cmp	r0, #4
 17114 0068 14BF     		ite	ne
 17115 006a 0022     		movne	r2, #0
 17116 006c 02F00102 		andeq	r2, r2, #1
 17117 0070 2AB1     		cbz	r2, .L86
1066:../../../SDK_embedded/libs/stm32/STM32F10x_StdPeriph_Driver/stm32f10x_flash.c ****       OB->WRP2 = WRP2_Data;
 17118              		.loc 1 1066 0
 17119 0072 1348     		ldr	r0, .L88+12
 17120              	.LVL58:
1069:../../../SDK_embedded/libs/stm32/STM32F10x_StdPeriph_Driver/stm32f10x_flash.c ****       status = FLASH_WaitForLastOperation(ProgramTimeout);
 17121              		.loc 1 1069 0
 17122 0074 0F4A     		ldr	r2, .L88
1066:../../../SDK_embedded/libs/stm32/STM32F10x_StdPeriph_Driver/stm32f10x_flash.c ****       OB->WRP2 = WRP2_Data;
 17123              		.loc 1 1066 0
 17124 0076 8381     		strh	r3, [r0, #12]	@ movhi
1069:../../../SDK_embedded/libs/stm32/STM32F10x_StdPeriph_Driver/stm32f10x_flash.c ****       status = FLASH_WaitForLastOperation(ProgramTimeout);
 17125              		.loc 1 1069 0
 17126 0078 4FF40050 		mov	r0, #8192
 17127 007c 9047     		blx	r2
 17128              	.LVL59:
 17129              	.L86:
1039:../../../SDK_embedded/libs/stm32/STM32F10x_StdPeriph_Driver/stm32f10x_flash.c ****   WRP3_Data = (uint16_t)((FLASH_Pages & WRP3_Mask) >> 24);
 17130              		.loc 1 1039 0
 17131 007e 240E     		lsrs	r4, r4, #24
 17132              	.LVL60:
1072:../../../SDK_embedded/libs/stm32/STM32F10x_StdPeriph_Driver/stm32f10x_flash.c ****     if((status == FLASH_COMPLETE)&& (WRP3_Data != 0xFF))
 17133              		.loc 1 1072 0
 17134 0080 B4F1FF03 		subs	r3, r4, #255
 17135 0084 18BF     		it	ne
 17136 0086 0123     		movne	r3, #1
 17137 0088 0428     		cmp	r0, #4
 17138 008a 14BF     		ite	ne
 17139 008c 0023     		movne	r3, #0
 17140 008e 03F00103 		andeq	r3, r3, #1
 17141 0092 2BB1     		cbz	r3, .L87
1074:../../../SDK_embedded/libs/stm32/STM32F10x_StdPeriph_Driver/stm32f10x_flash.c ****       OB->WRP3 = WRP3_Data;
 17142              		.loc 1 1074 0
 17143 0094 0A49     		ldr	r1, .L88+12
1077:../../../SDK_embedded/libs/stm32/STM32F10x_StdPeriph_Driver/stm32f10x_flash.c ****       status = FLASH_WaitForLastOperation(ProgramTimeout);
 17144              		.loc 1 1077 0
 17145 0096 4FF40050 		mov	r0, #8192
 17146              	.LVL61:
1074:../../../SDK_embedded/libs/stm32/STM32F10x_StdPeriph_Driver/stm32f10x_flash.c ****       OB->WRP3 = WRP3_Data;
 17147              		.loc 1 1074 0
 17148 009a CC81     		strh	r4, [r1, #14]	@ movhi
1077:../../../SDK_embedded/libs/stm32/STM32F10x_StdPeriph_Driver/stm32f10x_flash.c ****       status = FLASH_WaitForLastOperation(ProgramTimeout);
 17149              		.loc 1 1077 0
 17150 009c 054B     		ldr	r3, .L88
 17151 009e 9847     		blx	r3
 17152              	.LVL62:
 17153              	.L87:
1080:../../../SDK_embedded/libs/stm32/STM32F10x_StdPeriph_Driver/stm32f10x_flash.c ****     if(status != FLASH_TIMEOUT)
 17154              		.loc 1 1080 0
 17155 00a0 0528     		cmp	r0, #5
1083:../../../SDK_embedded/libs/stm32/STM32F10x_StdPeriph_Driver/stm32f10x_flash.c ****       FLASH->CR &= CR_OPTPG_Reset;
 17156              		.loc 1 1083 0
 17157 00a2 1FBF     		itttt	ne
 17158 00a4 044A     		ldrne	r2, .L88+4
 17159 00a6 41F6EF73 		movwne	r3, #8175
 17160 00aa 1169     		ldrne	r1, [r2, #16]
 17161 00ac 0B40     		andne	r3, r1, r3
 17162 00ae 18BF     		it	ne
 17163 00b0 1361     		strne	r3, [r2, #16]
 17164              	.LVL63:
 17165              	.L83:
1088:../../../SDK_embedded/libs/stm32/STM32F10x_StdPeriph_Driver/stm32f10x_flash.c **** }
 17166              		.loc 1 1088 0
 17167 00b2 38BD     		pop	{r3, r4, r5, pc}
 17168              	.L89:
 17169              		.align	2
 17170              	.L88:
 17171 00b4 00000000 		.word	FLASH_WaitForLastOperation
 17172 00b8 00200240 		.word	1073881088
 17173 00bc 23016745 		.word	1164378403
 17174 00c0 00F8FF1F 		.word	536868864
 17175              		.cfi_endproc
 17176              	.LFE43:
 17178              		.section	.text.FLASH_ProgramOptionByteData,"ax",%progbits
 17179              		.align	1
 17180              		.global	FLASH_ProgramOptionByteData
 17181              		.thumb
 17182              		.thumb_func
 17184              	FLASH_ProgramOptionByteData:
 17185              	.LFB42:
 981:../../../SDK_embedded/libs/stm32/STM32F10x_StdPeriph_Driver/stm32f10x_flash.c **** {
 17186              		.loc 1 981 0
 17187              		.cfi_startproc
 17188              		@ args = 0, pretend = 0, frame = 0
