   1              		.syntax unified
   2              		.cpu cortex-m3
   3              		.fpu softvfp
   4              		.eabi_attribute 20, 1
   5              		.eabi_attribute 21, 1
   6              		.eabi_attribute 23, 3
   7              		.eabi_attribute 24, 1
   8              		.eabi_attribute 25, 1
   9              		.eabi_attribute 26, 1
  10              		.eabi_attribute 30, 4
  11              		.eabi_attribute 18, 4
  12              		.thumb
  13              		.file	"stm32f10x_fsmc.c"
  23              	.Ltext0:
 16618              		.align	1
 16619              		.global	FSMC_NORSRAMDeInit
 16620              		.thumb
 16621              		.thumb_func
 16623              	FSMC_NORSRAMDeInit:
 16624              	.LFB29:
   1:../../../SDK_embedded/libs/stm32/STM32F10x_StdPeriph_Driver/stm32f10x_fsmc.c **** /**
   2:../../../SDK_embedded/libs/stm32/STM32F10x_StdPeriph_Driver/stm32f10x_fsmc.c ****   ******************************************************************************
   3:../../../SDK_embedded/libs/stm32/STM32F10x_StdPeriph_Driver/stm32f10x_fsmc.c ****   * @file    stm32f10x_fsmc.c
   4:../../../SDK_embedded/libs/stm32/STM32F10x_StdPeriph_Driver/stm32f10x_fsmc.c ****   * @author  MCD Application Team
   5:../../../SDK_embedded/libs/stm32/STM32F10x_StdPeriph_Driver/stm32f10x_fsmc.c ****   * @version V3.3.0
   6:../../../SDK_embedded/libs/stm32/STM32F10x_StdPeriph_Driver/stm32f10x_fsmc.c ****   * @date    04/16/2010
   7:../../../SDK_embedded/libs/stm32/STM32F10x_StdPeriph_Driver/stm32f10x_fsmc.c ****   * @brief   This file provides all the FSMC firmware functions.
   8:../../../SDK_embedded/libs/stm32/STM32F10x_StdPeriph_Driver/stm32f10x_fsmc.c ****   ******************************************************************************
   9:../../../SDK_embedded/libs/stm32/STM32F10x_StdPeriph_Driver/stm32f10x_fsmc.c ****   * @copy
  10:../../../SDK_embedded/libs/stm32/STM32F10x_StdPeriph_Driver/stm32f10x_fsmc.c ****   *
  11:../../../SDK_embedded/libs/stm32/STM32F10x_StdPeriph_Driver/stm32f10x_fsmc.c ****   * THE PRESENT FIRMWARE WHICH IS FOR GUIDANCE ONLY AIMS AT PROVIDING CUSTOMERS
  12:../../../SDK_embedded/libs/stm32/STM32F10x_StdPeriph_Driver/stm32f10x_fsmc.c ****   * WITH CODING INFORMATION REGARDING THEIR PRODUCTS IN ORDER FOR THEM TO SAVE
  13:../../../SDK_embedded/libs/stm32/STM32F10x_StdPeriph_Driver/stm32f10x_fsmc.c ****   * TIME. AS A RESULT, STMICROELECTRONICS SHALL NOT BE HELD LIABLE FOR ANY
  14:../../../SDK_embedded/libs/stm32/STM32F10x_StdPeriph_Driver/stm32f10x_fsmc.c ****   * DIRECT, INDIRECT OR CONSEQUENTIAL DAMAGES WITH RESPECT TO ANY CLAIMS ARISING
  15:../../../SDK_embedded/libs/stm32/STM32F10x_StdPeriph_Driver/stm32f10x_fsmc.c ****   * FROM THE CONTENT OF SUCH FIRMWARE AND/OR THE USE MADE BY CUSTOMERS OF THE
  16:../../../SDK_embedded/libs/stm32/STM32F10x_StdPeriph_Driver/stm32f10x_fsmc.c ****   * CODING INFORMATION CONTAINED HEREIN IN CONNECTION WITH THEIR PRODUCTS.
  17:../../../SDK_embedded/libs/stm32/STM32F10x_StdPeriph_Driver/stm32f10x_fsmc.c ****   *
  18:../../../SDK_embedded/libs/stm32/STM32F10x_StdPeriph_Driver/stm32f10x_fsmc.c ****   * <h2><center>&copy; COPYRIGHT 2010 STMicroelectronics</center></h2>
  19:../../../SDK_embedded/libs/stm32/STM32F10x_StdPeriph_Driver/stm32f10x_fsmc.c ****   */ 
  20:../../../SDK_embedded/libs/stm32/STM32F10x_StdPeriph_Driver/stm32f10x_fsmc.c **** 
  21:../../../SDK_embedded/libs/stm32/STM32F10x_StdPeriph_Driver/stm32f10x_fsmc.c **** /* Includes ------------------------------------------------------------------*/
  22:../../../SDK_embedded/libs/stm32/STM32F10x_StdPeriph_Driver/stm32f10x_fsmc.c **** #include "stm32f10x_fsmc.h"
  23:../../../SDK_embedded/libs/stm32/STM32F10x_StdPeriph_Driver/stm32f10x_fsmc.c **** #include "stm32f10x_rcc.h"
  24:../../../SDK_embedded/libs/stm32/STM32F10x_StdPeriph_Driver/stm32f10x_fsmc.c **** 
  25:../../../SDK_embedded/libs/stm32/STM32F10x_StdPeriph_Driver/stm32f10x_fsmc.c **** /** @addtogroup STM32F10x_StdPeriph_Driver
  26:../../../SDK_embedded/libs/stm32/STM32F10x_StdPeriph_Driver/stm32f10x_fsmc.c ****   * @{
  27:../../../SDK_embedded/libs/stm32/STM32F10x_StdPeriph_Driver/stm32f10x_fsmc.c ****   */
  28:../../../SDK_embedded/libs/stm32/STM32F10x_StdPeriph_Driver/stm32f10x_fsmc.c **** 
  29:../../../SDK_embedded/libs/stm32/STM32F10x_StdPeriph_Driver/stm32f10x_fsmc.c **** /** @defgroup FSMC 
  30:../../../SDK_embedded/libs/stm32/STM32F10x_StdPeriph_Driver/stm32f10x_fsmc.c ****   * @brief FSMC driver modules
  31:../../../SDK_embedded/libs/stm32/STM32F10x_StdPeriph_Driver/stm32f10x_fsmc.c ****   * @{
  32:../../../SDK_embedded/libs/stm32/STM32F10x_StdPeriph_Driver/stm32f10x_fsmc.c ****   */ 
  33:../../../SDK_embedded/libs/stm32/STM32F10x_StdPeriph_Driver/stm32f10x_fsmc.c **** 
  34:../../../SDK_embedded/libs/stm32/STM32F10x_StdPeriph_Driver/stm32f10x_fsmc.c **** /** @defgroup FSMC_Private_TypesDefinitions
  35:../../../SDK_embedded/libs/stm32/STM32F10x_StdPeriph_Driver/stm32f10x_fsmc.c ****   * @{
  36:../../../SDK_embedded/libs/stm32/STM32F10x_StdPeriph_Driver/stm32f10x_fsmc.c ****   */ 
  37:../../../SDK_embedded/libs/stm32/STM32F10x_StdPeriph_Driver/stm32f10x_fsmc.c **** /**
  38:../../../SDK_embedded/libs/stm32/STM32F10x_StdPeriph_Driver/stm32f10x_fsmc.c ****   * @}
  39:../../../SDK_embedded/libs/stm32/STM32F10x_StdPeriph_Driver/stm32f10x_fsmc.c ****   */
  40:../../../SDK_embedded/libs/stm32/STM32F10x_StdPeriph_Driver/stm32f10x_fsmc.c **** 
  41:../../../SDK_embedded/libs/stm32/STM32F10x_StdPeriph_Driver/stm32f10x_fsmc.c **** /** @defgroup FSMC_Private_Defines
  42:../../../SDK_embedded/libs/stm32/STM32F10x_StdPeriph_Driver/stm32f10x_fsmc.c ****   * @{
  43:../../../SDK_embedded/libs/stm32/STM32F10x_StdPeriph_Driver/stm32f10x_fsmc.c ****   */
  44:../../../SDK_embedded/libs/stm32/STM32F10x_StdPeriph_Driver/stm32f10x_fsmc.c **** 
  45:../../../SDK_embedded/libs/stm32/STM32F10x_StdPeriph_Driver/stm32f10x_fsmc.c **** /* --------------------- FSMC registers bit mask ---------------------------- */
  46:../../../SDK_embedded/libs/stm32/STM32F10x_StdPeriph_Driver/stm32f10x_fsmc.c **** 
  47:../../../SDK_embedded/libs/stm32/STM32F10x_StdPeriph_Driver/stm32f10x_fsmc.c **** /* FSMC BCRx Mask */
  48:../../../SDK_embedded/libs/stm32/STM32F10x_StdPeriph_Driver/stm32f10x_fsmc.c **** #define BCR_MBKEN_Set                       ((uint32_t)0x00000001)
  49:../../../SDK_embedded/libs/stm32/STM32F10x_StdPeriph_Driver/stm32f10x_fsmc.c **** #define BCR_MBKEN_Reset                     ((uint32_t)0x000FFFFE)
  50:../../../SDK_embedded/libs/stm32/STM32F10x_StdPeriph_Driver/stm32f10x_fsmc.c **** #define BCR_FACCEN_Set                      ((uint32_t)0x00000040)
  51:../../../SDK_embedded/libs/stm32/STM32F10x_StdPeriph_Driver/stm32f10x_fsmc.c **** 
  52:../../../SDK_embedded/libs/stm32/STM32F10x_StdPeriph_Driver/stm32f10x_fsmc.c **** /* FSMC PCRx Mask */
  53:../../../SDK_embedded/libs/stm32/STM32F10x_StdPeriph_Driver/stm32f10x_fsmc.c **** #define PCR_PBKEN_Set                       ((uint32_t)0x00000004)
  54:../../../SDK_embedded/libs/stm32/STM32F10x_StdPeriph_Driver/stm32f10x_fsmc.c **** #define PCR_PBKEN_Reset                     ((uint32_t)0x000FFFFB)
  55:../../../SDK_embedded/libs/stm32/STM32F10x_StdPeriph_Driver/stm32f10x_fsmc.c **** #define PCR_ECCEN_Set                       ((uint32_t)0x00000040)
  56:../../../SDK_embedded/libs/stm32/STM32F10x_StdPeriph_Driver/stm32f10x_fsmc.c **** #define PCR_ECCEN_Reset                     ((uint32_t)0x000FFFBF)
  57:../../../SDK_embedded/libs/stm32/STM32F10x_StdPeriph_Driver/stm32f10x_fsmc.c **** #define PCR_MemoryType_NAND                 ((uint32_t)0x00000008)
  58:../../../SDK_embedded/libs/stm32/STM32F10x_StdPeriph_Driver/stm32f10x_fsmc.c **** /**
  59:../../../SDK_embedded/libs/stm32/STM32F10x_StdPeriph_Driver/stm32f10x_fsmc.c ****   * @}
  60:../../../SDK_embedded/libs/stm32/STM32F10x_StdPeriph_Driver/stm32f10x_fsmc.c ****   */
  61:../../../SDK_embedded/libs/stm32/STM32F10x_StdPeriph_Driver/stm32f10x_fsmc.c **** 
  62:../../../SDK_embedded/libs/stm32/STM32F10x_StdPeriph_Driver/stm32f10x_fsmc.c **** /** @defgroup FSMC_Private_Macros
  63:../../../SDK_embedded/libs/stm32/STM32F10x_StdPeriph_Driver/stm32f10x_fsmc.c ****   * @{
  64:../../../SDK_embedded/libs/stm32/STM32F10x_StdPeriph_Driver/stm32f10x_fsmc.c ****   */
  65:../../../SDK_embedded/libs/stm32/STM32F10x_StdPeriph_Driver/stm32f10x_fsmc.c **** 
  66:../../../SDK_embedded/libs/stm32/STM32F10x_StdPeriph_Driver/stm32f10x_fsmc.c **** /**
  67:../../../SDK_embedded/libs/stm32/STM32F10x_StdPeriph_Driver/stm32f10x_fsmc.c ****   * @}
  68:../../../SDK_embedded/libs/stm32/STM32F10x_StdPeriph_Driver/stm32f10x_fsmc.c ****   */
  69:../../../SDK_embedded/libs/stm32/STM32F10x_StdPeriph_Driver/stm32f10x_fsmc.c **** 
  70:../../../SDK_embedded/libs/stm32/STM32F10x_StdPeriph_Driver/stm32f10x_fsmc.c **** /** @defgroup FSMC_Private_Variables
  71:../../../SDK_embedded/libs/stm32/STM32F10x_StdPeriph_Driver/stm32f10x_fsmc.c ****   * @{
  72:../../../SDK_embedded/libs/stm32/STM32F10x_StdPeriph_Driver/stm32f10x_fsmc.c ****   */
  73:../../../SDK_embedded/libs/stm32/STM32F10x_StdPeriph_Driver/stm32f10x_fsmc.c **** 
  74:../../../SDK_embedded/libs/stm32/STM32F10x_StdPeriph_Driver/stm32f10x_fsmc.c **** /**
  75:../../../SDK_embedded/libs/stm32/STM32F10x_StdPeriph_Driver/stm32f10x_fsmc.c ****   * @}
  76:../../../SDK_embedded/libs/stm32/STM32F10x_StdPeriph_Driver/stm32f10x_fsmc.c ****   */
  77:../../../SDK_embedded/libs/stm32/STM32F10x_StdPeriph_Driver/stm32f10x_fsmc.c **** 
  78:../../../SDK_embedded/libs/stm32/STM32F10x_StdPeriph_Driver/stm32f10x_fsmc.c **** /** @defgroup FSMC_Private_FunctionPrototypes
  79:../../../SDK_embedded/libs/stm32/STM32F10x_StdPeriph_Driver/stm32f10x_fsmc.c ****   * @{
  80:../../../SDK_embedded/libs/stm32/STM32F10x_StdPeriph_Driver/stm32f10x_fsmc.c ****   */
  81:../../../SDK_embedded/libs/stm32/STM32F10x_StdPeriph_Driver/stm32f10x_fsmc.c **** 
  82:../../../SDK_embedded/libs/stm32/STM32F10x_StdPeriph_Driver/stm32f10x_fsmc.c **** /**
  83:../../../SDK_embedded/libs/stm32/STM32F10x_StdPeriph_Driver/stm32f10x_fsmc.c ****   * @}
  84:../../../SDK_embedded/libs/stm32/STM32F10x_StdPeriph_Driver/stm32f10x_fsmc.c ****   */
  85:../../../SDK_embedded/libs/stm32/STM32F10x_StdPeriph_Driver/stm32f10x_fsmc.c **** 
  86:../../../SDK_embedded/libs/stm32/STM32F10x_StdPeriph_Driver/stm32f10x_fsmc.c **** /** @defgroup FSMC_Private_Functions
  87:../../../SDK_embedded/libs/stm32/STM32F10x_StdPeriph_Driver/stm32f10x_fsmc.c ****   * @{
  88:../../../SDK_embedded/libs/stm32/STM32F10x_StdPeriph_Driver/stm32f10x_fsmc.c ****   */
  89:../../../SDK_embedded/libs/stm32/STM32F10x_StdPeriph_Driver/stm32f10x_fsmc.c **** 
  90:../../../SDK_embedded/libs/stm32/STM32F10x_StdPeriph_Driver/stm32f10x_fsmc.c **** /**
  91:../../../SDK_embedded/libs/stm32/STM32F10x_StdPeriph_Driver/stm32f10x_fsmc.c ****   * @brief  Deinitializes the FSMC NOR/SRAM Banks registers to their default 
  92:../../../SDK_embedded/libs/stm32/STM32F10x_StdPeriph_Driver/stm32f10x_fsmc.c ****   *   reset values.
  93:../../../SDK_embedded/libs/stm32/STM32F10x_StdPeriph_Driver/stm32f10x_fsmc.c ****   * @param  FSMC_Bank: specifies the FSMC Bank to be used
  94:../../../SDK_embedded/libs/stm32/STM32F10x_StdPeriph_Driver/stm32f10x_fsmc.c ****   *   This parameter can be one of the following values:
  95:../../../SDK_embedded/libs/stm32/STM32F10x_StdPeriph_Driver/stm32f10x_fsmc.c ****   *     @arg FSMC_Bank1_NORSRAM1: FSMC Bank1 NOR/SRAM1  
  96:../../../SDK_embedded/libs/stm32/STM32F10x_StdPeriph_Driver/stm32f10x_fsmc.c ****   *     @arg FSMC_Bank1_NORSRAM2: FSMC Bank1 NOR/SRAM2 
  97:../../../SDK_embedded/libs/stm32/STM32F10x_StdPeriph_Driver/stm32f10x_fsmc.c ****   *     @arg FSMC_Bank1_NORSRAM3: FSMC Bank1 NOR/SRAM3 
  98:../../../SDK_embedded/libs/stm32/STM32F10x_StdPeriph_Driver/stm32f10x_fsmc.c ****   *     @arg FSMC_Bank1_NORSRAM4: FSMC Bank1 NOR/SRAM4 
  99:../../../SDK_embedded/libs/stm32/STM32F10x_StdPeriph_Driver/stm32f10x_fsmc.c ****   * @retval None
 100:../../../SDK_embedded/libs/stm32/STM32F10x_StdPeriph_Driver/stm32f10x_fsmc.c ****   */
 101:../../../SDK_embedded/libs/stm32/STM32F10x_StdPeriph_Driver/stm32f10x_fsmc.c **** void FSMC_NORSRAMDeInit(uint32_t FSMC_Bank)
 102:../../../SDK_embedded/libs/stm32/STM32F10x_StdPeriph_Driver/stm32f10x_fsmc.c **** {
 16625              		.loc 1 102 0
 16626              		.cfi_startproc
 16627              		@ args = 0, pretend = 0, frame = 0
 16628              		@ frame_needed = 0, uses_anonymous_args = 0
 16629              		@ link register save eliminated.
 16630              	.LVL0:
 16631 0000 4FF02043 		mov	r3, #-1610612736
 103:../../../SDK_embedded/libs/stm32/STM32F10x_StdPeriph_Driver/stm32f10x_fsmc.c ****   /* Check the parameter */
 104:../../../SDK_embedded/libs/stm32/STM32F10x_StdPeriph_Driver/stm32f10x_fsmc.c ****   assert_param(IS_FSMC_NORSRAM_BANK(FSMC_Bank));
 105:../../../SDK_embedded/libs/stm32/STM32F10x_StdPeriph_Driver/stm32f10x_fsmc.c ****   
 106:../../../SDK_embedded/libs/stm32/STM32F10x_StdPeriph_Driver/stm32f10x_fsmc.c ****   /* FSMC_Bank1_NORSRAM1 */
 107:../../../SDK_embedded/libs/stm32/STM32F10x_StdPeriph_Driver/stm32f10x_fsmc.c ****   if(FSMC_Bank == FSMC_Bank1_NORSRAM1)
 16632              		.loc 1 107 0
 16633 0004 18B9     		cbnz	r0, .L2
 108:../../../SDK_embedded/libs/stm32/STM32F10x_StdPeriph_Driver/stm32f10x_fsmc.c ****   {
 109:../../../SDK_embedded/libs/stm32/STM32F10x_StdPeriph_Driver/stm32f10x_fsmc.c ****     FSMC_Bank1->BTCR[FSMC_Bank] = 0x000030DB;    
 16634              		.loc 1 109 0
 16635 0006 43F2DB02 		movw	r2, #12507
 16636 000a 1A60     		str	r2, [r3, #0]
 16637 000c 03E0     		b	.L3
 16638              	.L2:
 110:../../../SDK_embedded/libs/stm32/STM32F10x_StdPeriph_Driver/stm32f10x_fsmc.c ****   }
 111:../../../SDK_embedded/libs/stm32/STM32F10x_StdPeriph_Driver/stm32f10x_fsmc.c ****   /* FSMC_Bank1_NORSRAM2,  FSMC_Bank1_NORSRAM3 or FSMC_Bank1_NORSRAM4 */
 112:../../../SDK_embedded/libs/stm32/STM32F10x_StdPeriph_Driver/stm32f10x_fsmc.c ****   else
 113:../../../SDK_embedded/libs/stm32/STM32F10x_StdPeriph_Driver/stm32f10x_fsmc.c ****   {   
 114:../../../SDK_embedded/libs/stm32/STM32F10x_StdPeriph_Driver/stm32f10x_fsmc.c ****     FSMC_Bank1->BTCR[FSMC_Bank] = 0x000030D2; 
 16639              		.loc 1 114 0
 16640 000e 43F2D201 		movw	r1, #12498
 16641 0012 43F82010 		str	r1, [r3, r0, lsl #2]
 16642              	.L3:
 115:../../../SDK_embedded/libs/stm32/STM32F10x_StdPeriph_Driver/stm32f10x_fsmc.c ****   }
 116:../../../SDK_embedded/libs/stm32/STM32F10x_StdPeriph_Driver/stm32f10x_fsmc.c ****   FSMC_Bank1->BTCR[FSMC_Bank + 1] = 0x0FFFFFFF;
 16643              		.loc 1 116 0
 16644 0016 4FF02042 		mov	r2, #-1610612736
 16645 001a 6FF07043 		mvn	r3, #-268435456
 16646 001e 411C     		adds	r1, r0, #1
 117:../../../SDK_embedded/libs/stm32/STM32F10x_StdPeriph_Driver/stm32f10x_fsmc.c ****   FSMC_Bank1E->BWTR[FSMC_Bank] = 0x0FFFFFFF;  
 16647              		.loc 1 117 0
 16648 0020 02F5827C 		add	ip, r2, #260
 116:../../../SDK_embedded/libs/stm32/STM32F10x_StdPeriph_Driver/stm32f10x_fsmc.c ****   FSMC_Bank1->BTCR[FSMC_Bank + 1] = 0x0FFFFFFF;
 16649              		.loc 1 116 0
 16650 0024 42F82130 		str	r3, [r2, r1, lsl #2]
 16651              		.loc 1 117 0
 16652 0028 4CF82030 		str	r3, [ip, r0, lsl #2]
 118:../../../SDK_embedded/libs/stm32/STM32F10x_StdPeriph_Driver/stm32f10x_fsmc.c **** }
 16653              		.loc 1 118 0
 16654 002c 7047     		bx	lr
 16655              		.cfi_endproc
 16656              	.LFE29:
 16658              		.section	.text.FSMC_NANDDeInit,"ax",%progbits
 16659              		.align	1
 16660              		.global	FSMC_NANDDeInit
 16661              		.thumb
 16662              		.thumb_func
 16664              	FSMC_NANDDeInit:
 16665              	.LFB30:
 119:../../../SDK_embedded/libs/stm32/STM32F10x_StdPeriph_Driver/stm32f10x_fsmc.c **** 
 120:../../../SDK_embedded/libs/stm32/STM32F10x_StdPeriph_Driver/stm32f10x_fsmc.c **** /**
 121:../../../SDK_embedded/libs/stm32/STM32F10x_StdPeriph_Driver/stm32f10x_fsmc.c ****   * @brief  Deinitializes the FSMC NAND Banks registers to their default reset values.
 122:../../../SDK_embedded/libs/stm32/STM32F10x_StdPeriph_Driver/stm32f10x_fsmc.c ****   * @param  FSMC_Bank: specifies the FSMC Bank to be used
 123:../../../SDK_embedded/libs/stm32/STM32F10x_StdPeriph_Driver/stm32f10x_fsmc.c ****   *   This parameter can be one of the following values:
 124:../../../SDK_embedded/libs/stm32/STM32F10x_StdPeriph_Driver/stm32f10x_fsmc.c ****   *     @arg FSMC_Bank2_NAND: FSMC Bank2 NAND 
 125:../../../SDK_embedded/libs/stm32/STM32F10x_StdPeriph_Driver/stm32f10x_fsmc.c ****   *     @arg FSMC_Bank3_NAND: FSMC Bank3 NAND 
 126:../../../SDK_embedded/libs/stm32/STM32F10x_StdPeriph_Driver/stm32f10x_fsmc.c ****   * @retval None
 127:../../../SDK_embedded/libs/stm32/STM32F10x_StdPeriph_Driver/stm32f10x_fsmc.c ****   */
 128:../../../SDK_embedded/libs/stm32/STM32F10x_StdPeriph_Driver/stm32f10x_fsmc.c **** void FSMC_NANDDeInit(uint32_t FSMC_Bank)
 129:../../../SDK_embedded/libs/stm32/STM32F10x_StdPeriph_Driver/stm32f10x_fsmc.c **** {
 16666              		.loc 1 129 0
 16667              		.cfi_startproc
 16668              		@ args = 0, pretend = 0, frame = 0
 16669              		@ frame_needed = 0, uses_anonymous_args = 0
 16670              		@ link register save eliminated.
 16671              	.LVL1:
 130:../../../SDK_embedded/libs/stm32/STM32F10x_StdPeriph_Driver/stm32f10x_fsmc.c ****   /* Check the parameter */
 131:../../../SDK_embedded/libs/stm32/STM32F10x_StdPeriph_Driver/stm32f10x_fsmc.c ****   assert_param(IS_FSMC_NAND_BANK(FSMC_Bank));
 132:../../../SDK_embedded/libs/stm32/STM32F10x_StdPeriph_Driver/stm32f10x_fsmc.c ****   
 133:../../../SDK_embedded/libs/stm32/STM32F10x_StdPeriph_Driver/stm32f10x_fsmc.c ****   if(FSMC_Bank == FSMC_Bank2_NAND)
 16672              		.loc 1 133 0
 16673 0000 1028     		cmp	r0, #16
 134:../../../SDK_embedded/libs/stm32/STM32F10x_StdPeriph_Driver/stm32f10x_fsmc.c ****   {
 135:../../../SDK_embedded/libs/stm32/STM32F10x_StdPeriph_Driver/stm32f10x_fsmc.c ****     /* Set the FSMC_Bank2 registers to their reset values */
 136:../../../SDK_embedded/libs/stm32/STM32F10x_StdPeriph_Driver/stm32f10x_fsmc.c ****     FSMC_Bank2->PCR2 = 0x00000018;
 16674              		.loc 1 136 0
 16675 0002 0CBF     		ite	eq
 16676 0004 064B     		ldreq	r3, .L8
 137:../../../SDK_embedded/libs/stm32/STM32F10x_StdPeriph_Driver/stm32f10x_fsmc.c ****     FSMC_Bank2->SR2 = 0x00000040;
 138:../../../SDK_embedded/libs/stm32/STM32F10x_StdPeriph_Driver/stm32f10x_fsmc.c ****     FSMC_Bank2->PMEM2 = 0xFCFCFCFC;
 139:../../../SDK_embedded/libs/stm32/STM32F10x_StdPeriph_Driver/stm32f10x_fsmc.c ****     FSMC_Bank2->PATT2 = 0xFCFCFCFC;  
 140:../../../SDK_embedded/libs/stm32/STM32F10x_StdPeriph_Driver/stm32f10x_fsmc.c ****   }
 141:../../../SDK_embedded/libs/stm32/STM32F10x_StdPeriph_Driver/stm32f10x_fsmc.c ****   /* FSMC_Bank3_NAND */  
 142:../../../SDK_embedded/libs/stm32/STM32F10x_StdPeriph_Driver/stm32f10x_fsmc.c ****   else
 143:../../../SDK_embedded/libs/stm32/STM32F10x_StdPeriph_Driver/stm32f10x_fsmc.c ****   {
 144:../../../SDK_embedded/libs/stm32/STM32F10x_StdPeriph_Driver/stm32f10x_fsmc.c ****     /* Set the FSMC_Bank3 registers to their reset values */
 145:../../../SDK_embedded/libs/stm32/STM32F10x_StdPeriph_Driver/stm32f10x_fsmc.c ****     FSMC_Bank3->PCR3 = 0x00000018;
 16677              		.loc 1 145 0
 16678 0006 074B     		ldrne	r3, .L8+4
 146:../../../SDK_embedded/libs/stm32/STM32F10x_StdPeriph_Driver/stm32f10x_fsmc.c ****     FSMC_Bank3->SR3 = 0x00000040;
 147:../../../SDK_embedded/libs/stm32/STM32F10x_StdPeriph_Driver/stm32f10x_fsmc.c ****     FSMC_Bank3->PMEM3 = 0xFCFCFCFC;
 16679              		.loc 1 147 0
 16680 0008 4FF0FC32 		mov	r2, #-50529028
 16681 000c 4FF01801 		mov	r1, #24
 16682 0010 4FF04000 		mov	r0, #64
 16683              	.LVL2:
 145:../../../SDK_embedded/libs/stm32/STM32F10x_StdPeriph_Driver/stm32f10x_fsmc.c ****     FSMC_Bank3->PCR3 = 0x00000018;
 16684              		.loc 1 145 0
 16685 0014 1960     		str	r1, [r3, #0]
 146:../../../SDK_embedded/libs/stm32/STM32F10x_StdPeriph_Driver/stm32f10x_fsmc.c ****     FSMC_Bank3->SR3 = 0x00000040;
 16686              		.loc 1 146 0
 16687 0016 5860     		str	r0, [r3, #4]
 16688              		.loc 1 147 0
 16689 0018 9A60     		str	r2, [r3, #8]
 148:../../../SDK_embedded/libs/stm32/STM32F10x_StdPeriph_Driver/stm32f10x_fsmc.c ****     FSMC_Bank3->PATT3 = 0xFCFCFCFC; 
 16690              		.loc 1 148 0
 16691 001a DA60     		str	r2, [r3, #12]
 16692 001c 7047     		bx	lr
 16693              	.L9:
 16694 001e 00BF     		.align	2
 16695              	.L8:
 16696 0020 600000A0 		.word	-1610612640
 16697 0024 800000A0 		.word	-1610612608
 16698              		.cfi_endproc
 16699              	.LFE30:
 16701              		.section	.text.FSMC_PCCARDDeInit,"ax",%progbits
 16702              		.align	1
 16703              		.global	FSMC_PCCARDDeInit
 16704              		.thumb
 16705              		.thumb_func
 16707              	FSMC_PCCARDDeInit:
 16708              	.LFB31:
 149:../../../SDK_embedded/libs/stm32/STM32F10x_StdPeriph_Driver/stm32f10x_fsmc.c ****   }  
 150:../../../SDK_embedded/libs/stm32/STM32F10x_StdPeriph_Driver/stm32f10x_fsmc.c **** }
 151:../../../SDK_embedded/libs/stm32/STM32F10x_StdPeriph_Driver/stm32f10x_fsmc.c **** 
 152:../../../SDK_embedded/libs/stm32/STM32F10x_StdPeriph_Driver/stm32f10x_fsmc.c **** /**
 153:../../../SDK_embedded/libs/stm32/STM32F10x_StdPeriph_Driver/stm32f10x_fsmc.c ****   * @brief  Deinitializes the FSMC PCCARD Bank registers to their default reset values.
 154:../../../SDK_embedded/libs/stm32/STM32F10x_StdPeriph_Driver/stm32f10x_fsmc.c ****   * @param  None                       
 155:../../../SDK_embedded/libs/stm32/STM32F10x_StdPeriph_Driver/stm32f10x_fsmc.c ****   * @retval None
 156:../../../SDK_embedded/libs/stm32/STM32F10x_StdPeriph_Driver/stm32f10x_fsmc.c ****   */
 157:../../../SDK_embedded/libs/stm32/STM32F10x_StdPeriph_Driver/stm32f10x_fsmc.c **** void FSMC_PCCARDDeInit(void)
 158:../../../SDK_embedded/libs/stm32/STM32F10x_StdPeriph_Driver/stm32f10x_fsmc.c **** {
 16709              		.loc 1 158 0
 16710              		.cfi_startproc
 16711              		@ args = 0, pretend = 0, frame = 0
 16712              		@ frame_needed = 0, uses_anonymous_args = 0
 16713              		@ link register save eliminated.
 159:../../../SDK_embedded/libs/stm32/STM32F10x_StdPeriph_Driver/stm32f10x_fsmc.c ****   /* Set the FSMC_Bank4 registers to their reset values */
 160:../../../SDK_embedded/libs/stm32/STM32F10x_StdPeriph_Driver/stm32f10x_fsmc.c ****   FSMC_Bank4->PCR4 = 0x00000018; 
 16714              		.loc 1 160 0
 16715 0000 054B     		ldr	r3, .L11
 161:../../../SDK_embedded/libs/stm32/STM32F10x_StdPeriph_Driver/stm32f10x_fsmc.c ****   FSMC_Bank4->SR4 = 0x00000000;	
 162:../../../SDK_embedded/libs/stm32/STM32F10x_StdPeriph_Driver/stm32f10x_fsmc.c ****   FSMC_Bank4->PMEM4 = 0xFCFCFCFC;
 16716              		.loc 1 162 0
 16717 0002 4FF0FC32 		mov	r2, #-50529028
 160:../../../SDK_embedded/libs/stm32/STM32F10x_StdPeriph_Driver/stm32f10x_fsmc.c ****   FSMC_Bank4->PCR4 = 0x00000018; 
 16718              		.loc 1 160 0
 16719 0006 1821     		movs	r1, #24
 161:../../../SDK_embedded/libs/stm32/STM32F10x_StdPeriph_Driver/stm32f10x_fsmc.c ****   FSMC_Bank4->SR4 = 0x00000000;	
 16720              		.loc 1 161 0
 16721 0008 0020     		movs	r0, #0
 160:../../../SDK_embedded/libs/stm32/STM32F10x_StdPeriph_Driver/stm32f10x_fsmc.c ****   FSMC_Bank4->PCR4 = 0x00000018; 
 16722              		.loc 1 160 0
 16723 000a 1960     		str	r1, [r3, #0]
 161:../../../SDK_embedded/libs/stm32/STM32F10x_StdPeriph_Driver/stm32f10x_fsmc.c ****   FSMC_Bank4->SR4 = 0x00000000;	
 16724              		.loc 1 161 0
 16725 000c 5860     		str	r0, [r3, #4]
 16726              		.loc 1 162 0
 16727 000e 9A60     		str	r2, [r3, #8]
 163:../../../SDK_embedded/libs/stm32/STM32F10x_StdPeriph_Driver/stm32f10x_fsmc.c ****   FSMC_Bank4->PATT4 = 0xFCFCFCFC;
 16728              		.loc 1 163 0
 16729 0010 DA60     		str	r2, [r3, #12]
 164:../../../SDK_embedded/libs/stm32/STM32F10x_StdPeriph_Driver/stm32f10x_fsmc.c ****   FSMC_Bank4->PIO4 = 0xFCFCFCFC;
 16730              		.loc 1 164 0
 16731 0012 1A61     		str	r2, [r3, #16]
 165:../../../SDK_embedded/libs/stm32/STM32F10x_StdPeriph_Driver/stm32f10x_fsmc.c **** }
 16732              		.loc 1 165 0
 16733 0014 7047     		bx	lr
 16734              	.L12:
 16735 0016 00BF     		.align	2
 16736              	.L11:
 16737 0018 A00000A0 		.word	-1610612576
 16738              		.cfi_endproc
 16739              	.LFE31:
 16741              		.section	.text.FSMC_NORSRAMInit,"ax",%progbits
 16742              		.align	1
 16743              		.global	FSMC_NORSRAMInit
 16744              		.thumb
 16745              		.thumb_func
 16747              	FSMC_NORSRAMInit:
 16748              	.LFB32:
 166:../../../SDK_embedded/libs/stm32/STM32F10x_StdPeriph_Driver/stm32f10x_fsmc.c **** 
 167:../../../SDK_embedded/libs/stm32/STM32F10x_StdPeriph_Driver/stm32f10x_fsmc.c **** /**
 168:../../../SDK_embedded/libs/stm32/STM32F10x_StdPeriph_Driver/stm32f10x_fsmc.c ****   * @brief  Initializes the FSMC NOR/SRAM Banks according to the specified
 169:../../../SDK_embedded/libs/stm32/STM32F10x_StdPeriph_Driver/stm32f10x_fsmc.c ****   *   parameters in the FSMC_NORSRAMInitStruct.
 170:../../../SDK_embedded/libs/stm32/STM32F10x_StdPeriph_Driver/stm32f10x_fsmc.c ****   * @param  FSMC_NORSRAMInitStruct : pointer to a FSMC_NORSRAMInitTypeDef
 171:../../../SDK_embedded/libs/stm32/STM32F10x_StdPeriph_Driver/stm32f10x_fsmc.c ****   *   structure that contains the configuration information for 
 172:../../../SDK_embedded/libs/stm32/STM32F10x_StdPeriph_Driver/stm32f10x_fsmc.c ****   *   the FSMC NOR/SRAM specified Banks.                       
 173:../../../SDK_embedded/libs/stm32/STM32F10x_StdPeriph_Driver/stm32f10x_fsmc.c ****   * @retval None
 174:../../../SDK_embedded/libs/stm32/STM32F10x_StdPeriph_Driver/stm32f10x_fsmc.c ****   */
 175:../../../SDK_embedded/libs/stm32/STM32F10x_StdPeriph_Driver/stm32f10x_fsmc.c **** void FSMC_NORSRAMInit(FSMC_NORSRAMInitTypeDef* FSMC_NORSRAMInitStruct)
 176:../../../SDK_embedded/libs/stm32/STM32F10x_StdPeriph_Driver/stm32f10x_fsmc.c **** { 
 16749              		.loc 1 176 0
 16750              		.cfi_startproc
 16751              		@ args = 0, pretend = 0, frame = 0
 16752              		@ frame_needed = 0, uses_anonymous_args = 0
 16753              	.LVL3:
 16754 0000 70B5     		push	{r4, r5, r6, lr}
 16755              	.LCFI0:
 16756              		.cfi_def_cfa_offset 16
 16757              		.cfi_offset 14, -4
 16758              		.cfi_offset 6, -8
 16759              		.cfi_offset 5, -12
 16760              		.cfi_offset 4, -16
 177:../../../SDK_embedded/libs/stm32/STM32F10x_StdPeriph_Driver/stm32f10x_fsmc.c ****   /* Check the parameters */
 178:../../../SDK_embedded/libs/stm32/STM32F10x_StdPeriph_Driver/stm32f10x_fsmc.c ****   assert_param(IS_FSMC_NORSRAM_BANK(FSMC_NORSRAMInitStruct->FSMC_Bank));
 179:../../../SDK_embedded/libs/stm32/STM32F10x_StdPeriph_Driver/stm32f10x_fsmc.c ****   assert_param(IS_FSMC_MUX(FSMC_NORSRAMInitStruct->FSMC_DataAddressMux));
 180:../../../SDK_embedded/libs/stm32/STM32F10x_StdPeriph_Driver/stm32f10x_fsmc.c ****   assert_param(IS_FSMC_MEMORY(FSMC_NORSRAMInitStruct->FSMC_MemoryType));
 181:../../../SDK_embedded/libs/stm32/STM32F10x_StdPeriph_Driver/stm32f10x_fsmc.c ****   assert_param(IS_FSMC_MEMORY_WIDTH(FSMC_NORSRAMInitStruct->FSMC_MemoryDataWidth));
 182:../../../SDK_embedded/libs/stm32/STM32F10x_StdPeriph_Driver/stm32f10x_fsmc.c ****   assert_param(IS_FSMC_BURSTMODE(FSMC_NORSRAMInitStruct->FSMC_BurstAccessMode));
 183:../../../SDK_embedded/libs/stm32/STM32F10x_StdPeriph_Driver/stm32f10x_fsmc.c ****   assert_param(IS_FSMC_WAIT_POLARITY(FSMC_NORSRAMInitStruct->FSMC_WaitSignalPolarity));
 184:../../../SDK_embedded/libs/stm32/STM32F10x_StdPeriph_Driver/stm32f10x_fsmc.c ****   assert_param(IS_FSMC_WRAP_MODE(FSMC_NORSRAMInitStruct->FSMC_WrapMode));
 185:../../../SDK_embedded/libs/stm32/STM32F10x_StdPeriph_Driver/stm32f10x_fsmc.c ****   assert_param(IS_FSMC_WAIT_SIGNAL_ACTIVE(FSMC_NORSRAMInitStruct->FSMC_WaitSignalActive));
 186:../../../SDK_embedded/libs/stm32/STM32F10x_StdPeriph_Driver/stm32f10x_fsmc.c ****   assert_param(IS_FSMC_WRITE_OPERATION(FSMC_NORSRAMInitStruct->FSMC_WriteOperation));
 187:../../../SDK_embedded/libs/stm32/STM32F10x_StdPeriph_Driver/stm32f10x_fsmc.c ****   assert_param(IS_FSMC_WAITE_SIGNAL(FSMC_NORSRAMInitStruct->FSMC_WaitSignal));
 188:../../../SDK_embedded/libs/stm32/STM32F10x_StdPeriph_Driver/stm32f10x_fsmc.c ****   assert_param(IS_FSMC_EXTENDED_MODE(FSMC_NORSRAMInitStruct->FSMC_ExtendedMode));
 189:../../../SDK_embedded/libs/stm32/STM32F10x_StdPeriph_Driver/stm32f10x_fsmc.c ****   assert_param(IS_FSMC_WRITE_BURST(FSMC_NORSRAMInitStruct->FSMC_WriteBurst));  
 190:../../../SDK_embedded/libs/stm32/STM32F10x_StdPeriph_Driver/stm32f10x_fsmc.c ****   assert_param(IS_FSMC_ADDRESS_SETUP_TIME(FSMC_NORSRAMInitStruct->FSMC_ReadWriteTimingStruct->FSMC_
 191:../../../SDK_embedded/libs/stm32/STM32F10x_StdPeriph_Driver/stm32f10x_fsmc.c ****   assert_param(IS_FSMC_ADDRESS_HOLD_TIME(FSMC_NORSRAMInitStruct->FSMC_ReadWriteTimingStruct->FSMC_A
 192:../../../SDK_embedded/libs/stm32/STM32F10x_StdPeriph_Driver/stm32f10x_fsmc.c ****   assert_param(IS_FSMC_DATASETUP_TIME(FSMC_NORSRAMInitStruct->FSMC_ReadWriteTimingStruct->FSMC_Data
 193:../../../SDK_embedded/libs/stm32/STM32F10x_StdPeriph_Driver/stm32f10x_fsmc.c ****   assert_param(IS_FSMC_TURNAROUND_TIME(FSMC_NORSRAMInitStruct->FSMC_ReadWriteTimingStruct->FSMC_Bus
 194:../../../SDK_embedded/libs/stm32/STM32F10x_StdPeriph_Driver/stm32f10x_fsmc.c ****   assert_param(IS_FSMC_CLK_DIV(FSMC_NORSRAMInitStruct->FSMC_ReadWriteTimingStruct->FSMC_CLKDivision
 195:../../../SDK_embedded/libs/stm32/STM32F10x_StdPeriph_Driver/stm32f10x_fsmc.c ****   assert_param(IS_FSMC_DATA_LATENCY(FSMC_NORSRAMInitStruct->FSMC_ReadWriteTimingStruct->FSMC_DataLa
 196:../../../SDK_embedded/libs/stm32/STM32F10x_StdPeriph_Driver/stm32f10x_fsmc.c ****   assert_param(IS_FSMC_ACCESS_MODE(FSMC_NORSRAMInitStruct->FSMC_ReadWriteTimingStruct->FSMC_AccessM
 197:../../../SDK_embedded/libs/stm32/STM32F10x_StdPeriph_Driver/stm32f10x_fsmc.c ****   
 198:../../../SDK_embedded/libs/stm32/STM32F10x_StdPeriph_Driver/stm32f10x_fsmc.c ****   /* Bank1 NOR/SRAM control register configuration */ 
 199:../../../SDK_embedded/libs/stm32/STM32F10x_StdPeriph_Driver/stm32f10x_fsmc.c ****   FSMC_Bank1->BTCR[FSMC_NORSRAMInitStruct->FSMC_Bank] = 
 200:../../../SDK_embedded/libs/stm32/STM32F10x_StdPeriph_Driver/stm32f10x_fsmc.c ****             (uint32_t)FSMC_NORSRAMInitStruct->FSMC_DataAddressMux |
 16761              		.loc 1 200 0
 16762 0002 4368     		ldr	r3, [r0, #4]
 201:../../../SDK_embedded/libs/stm32/STM32F10x_StdPeriph_Driver/stm32f10x_fsmc.c ****             FSMC_NORSRAMInitStruct->FSMC_MemoryType |
 16763              		.loc 1 201 0
 16764 0004 8468     		ldr	r4, [r0, #8]
 16765 0006 C668     		ldr	r6, [r0, #12]
 200:../../../SDK_embedded/libs/stm32/STM32F10x_StdPeriph_Driver/stm32f10x_fsmc.c ****             (uint32_t)FSMC_NORSRAMInitStruct->FSMC_DataAddressMux |
 16766              		.loc 1 200 0
 16767 0008 44EA0305 		orr	r5, r4, r3
 202:../../../SDK_embedded/libs/stm32/STM32F10x_StdPeriph_Driver/stm32f10x_fsmc.c ****             FSMC_NORSRAMInitStruct->FSMC_MemoryDataWidth |
 16768              		.loc 1 202 0
 16769 000c 0369     		ldr	r3, [r0, #16]
 201:../../../SDK_embedded/libs/stm32/STM32F10x_StdPeriph_Driver/stm32f10x_fsmc.c ****             FSMC_NORSRAMInitStruct->FSMC_MemoryType |
 16770              		.loc 1 201 0
 16771 000e 45EA060C 		orr	ip, r5, r6
 203:../../../SDK_embedded/libs/stm32/STM32F10x_StdPeriph_Driver/stm32f10x_fsmc.c ****             FSMC_NORSRAMInitStruct->FSMC_BurstAccessMode |
 16772              		.loc 1 203 0
 16773 0012 4669     		ldr	r6, [r0, #20]
 202:../../../SDK_embedded/libs/stm32/STM32F10x_StdPeriph_Driver/stm32f10x_fsmc.c ****             FSMC_NORSRAMInitStruct->FSMC_MemoryDataWidth |
 16774              		.loc 1 202 0
 16775 0014 4CEA0305 		orr	r5, ip, r3
 204:../../../SDK_embedded/libs/stm32/STM32F10x_StdPeriph_Driver/stm32f10x_fsmc.c ****             FSMC_NORSRAMInitStruct->FSMC_WaitSignalPolarity |
 16776              		.loc 1 204 0
 16777 0018 8369     		ldr	r3, [r0, #24]
 203:../../../SDK_embedded/libs/stm32/STM32F10x_StdPeriph_Driver/stm32f10x_fsmc.c ****             FSMC_NORSRAMInitStruct->FSMC_BurstAccessMode |
 16778              		.loc 1 203 0
 16779 001a 45EA060C 		orr	ip, r5, r6
 205:../../../SDK_embedded/libs/stm32/STM32F10x_StdPeriph_Driver/stm32f10x_fsmc.c ****             FSMC_NORSRAMInitStruct->FSMC_WrapMode |
 16780              		.loc 1 205 0
 16781 001e C669     		ldr	r6, [r0, #28]
 204:../../../SDK_embedded/libs/stm32/STM32F10x_StdPeriph_Driver/stm32f10x_fsmc.c ****             FSMC_NORSRAMInitStruct->FSMC_WaitSignalPolarity |
 16782              		.loc 1 204 0
 16783 0020 4CEA0305 		orr	r5, ip, r3
 206:../../../SDK_embedded/libs/stm32/STM32F10x_StdPeriph_Driver/stm32f10x_fsmc.c ****             FSMC_NORSRAMInitStruct->FSMC_WaitSignalActive |
 16784              		.loc 1 206 0
 16785 0024 036A     		ldr	r3, [r0, #32]
 205:../../../SDK_embedded/libs/stm32/STM32F10x_StdPeriph_Driver/stm32f10x_fsmc.c ****             FSMC_NORSRAMInitStruct->FSMC_WrapMode |
 16786              		.loc 1 205 0
 16787 0026 45EA060C 		orr	ip, r5, r6
 207:../../../SDK_embedded/libs/stm32/STM32F10x_StdPeriph_Driver/stm32f10x_fsmc.c ****             FSMC_NORSRAMInitStruct->FSMC_WriteOperation |
 16788              		.loc 1 207 0
 16789 002a 466A     		ldr	r6, [r0, #36]
 208:../../../SDK_embedded/libs/stm32/STM32F10x_StdPeriph_Driver/stm32f10x_fsmc.c ****             FSMC_NORSRAMInitStruct->FSMC_WaitSignal |
 209:../../../SDK_embedded/libs/stm32/STM32F10x_StdPeriph_Driver/stm32f10x_fsmc.c ****             FSMC_NORSRAMInitStruct->FSMC_ExtendedMode |
 16790              		.loc 1 209 0
 16791 002c 816A     		ldr	r1, [r0, #40]
 206:../../../SDK_embedded/libs/stm32/STM32F10x_StdPeriph_Driver/stm32f10x_fsmc.c ****             FSMC_NORSRAMInitStruct->FSMC_WaitSignalActive |
 16792              		.loc 1 206 0
 16793 002e 4CEA0305 		orr	r5, ip, r3
 207:../../../SDK_embedded/libs/stm32/STM32F10x_StdPeriph_Driver/stm32f10x_fsmc.c ****             FSMC_NORSRAMInitStruct->FSMC_WriteOperation |
 16794              		.loc 1 207 0
 16795 0032 45EA0603 		orr	r3, r5, r6
 16796              		.loc 1 209 0
 16797 0036 C66A     		ldr	r6, [r0, #44]
 199:../../../SDK_embedded/libs/stm32/STM32F10x_StdPeriph_Driver/stm32f10x_fsmc.c ****   FSMC_Bank1->BTCR[FSMC_NORSRAMInitStruct->FSMC_Bank] = 
 16798              		.loc 1 199 0
 16799 0038 0268     		ldr	r2, [r0, #0]
 208:../../../SDK_embedded/libs/stm32/STM32F10x_StdPeriph_Driver/stm32f10x_fsmc.c ****             FSMC_NORSRAMInitStruct->FSMC_WaitSignal |
 16800              		.loc 1 208 0
 16801 003a 43EA010C 		orr	ip, r3, r1
 16802              		.loc 1 209 0
 16803 003e 4CEA0605 		orr	r5, ip, r6
 199:../../../SDK_embedded/libs/stm32/STM32F10x_StdPeriph_Driver/stm32f10x_fsmc.c ****   FSMC_Bank1->BTCR[FSMC_NORSRAMInitStruct->FSMC_Bank] = 
 16804              		.loc 1 199 0
 16805 0042 4FF02043 		mov	r3, #-1610612736
 16806 0046 43F82250 		str	r5, [r3, r2, lsl #2]
 210:../../../SDK_embedded/libs/stm32/STM32F10x_StdPeriph_Driver/stm32f10x_fsmc.c ****             FSMC_NORSRAMInitStruct->FSMC_WriteBurst;
 211:../../../SDK_embedded/libs/stm32/STM32F10x_StdPeriph_Driver/stm32f10x_fsmc.c ****   if(FSMC_NORSRAMInitStruct->FSMC_MemoryType == FSMC_MemoryType_NOR)
 16807              		.loc 1 211 0
 16808 004a 082C     		cmp	r4, #8
 212:../../../SDK_embedded/libs/stm32/STM32F10x_StdPeriph_Driver/stm32f10x_fsmc.c ****   {
 213:../../../SDK_embedded/libs/stm32/STM32F10x_StdPeriph_Driver/stm32f10x_fsmc.c ****     FSMC_Bank1->BTCR[FSMC_NORSRAMInitStruct->FSMC_Bank] |= (uint32_t)BCR_FACCEN_Set;
 16809              		.loc 1 213 0
 16810 004c 02BF     		ittt	eq
 16811 004e 53F82240 		ldreq	r4, [r3, r2, lsl #2]
 16812 0052 44F04004 		orreq	r4, r4, #64
 16813 0056 43F82240 		streq	r4, [r3, r2, lsl #2]
 214:../../../SDK_embedded/libs/stm32/STM32F10x_StdPeriph_Driver/stm32f10x_fsmc.c ****   }
 215:../../../SDK_embedded/libs/stm32/STM32F10x_StdPeriph_Driver/stm32f10x_fsmc.c ****   /* Bank1 NOR/SRAM timing register configuration */
 216:../../../SDK_embedded/libs/stm32/STM32F10x_StdPeriph_Driver/stm32f10x_fsmc.c ****   FSMC_Bank1->BTCR[FSMC_NORSRAMInitStruct->FSMC_Bank+1] = 
 217:../../../SDK_embedded/libs/stm32/STM32F10x_StdPeriph_Driver/stm32f10x_fsmc.c ****             (uint32_t)FSMC_NORSRAMInitStruct->FSMC_ReadWriteTimingStruct->FSMC_AddressSetupTime |
 16814              		.loc 1 217 0
 16815 005a 036B     		ldr	r3, [r0, #48]
 216:../../../SDK_embedded/libs/stm32/STM32F10x_StdPeriph_Driver/stm32f10x_fsmc.c ****   FSMC_Bank1->BTCR[FSMC_NORSRAMInitStruct->FSMC_Bank+1] = 
 16816              		.loc 1 216 0
 16817 005c 541C     		adds	r4, r2, #1
 16818              		.loc 1 217 0
 16819 005e 9E69     		ldr	r6, [r3, #24]
 16820 0060 1D68     		ldr	r5, [r3, #0]
 218:../../../SDK_embedded/libs/stm32/STM32F10x_StdPeriph_Driver/stm32f10x_fsmc.c ****             (FSMC_NORSRAMInitStruct->FSMC_ReadWriteTimingStruct->FSMC_AddressHoldTime << 4) |
 219:../../../SDK_embedded/libs/stm32/STM32F10x_StdPeriph_Driver/stm32f10x_fsmc.c ****             (FSMC_NORSRAMInitStruct->FSMC_ReadWriteTimingStruct->FSMC_DataSetupTime << 8) |
 220:../../../SDK_embedded/libs/stm32/STM32F10x_StdPeriph_Driver/stm32f10x_fsmc.c ****             (FSMC_NORSRAMInitStruct->FSMC_ReadWriteTimingStruct->FSMC_BusTurnAroundDuration << 16) 
 221:../../../SDK_embedded/libs/stm32/STM32F10x_StdPeriph_Driver/stm32f10x_fsmc.c ****             (FSMC_NORSRAMInitStruct->FSMC_ReadWriteTimingStruct->FSMC_CLKDivision << 20) |
 222:../../../SDK_embedded/libs/stm32/STM32F10x_StdPeriph_Driver/stm32f10x_fsmc.c ****             (FSMC_NORSRAMInitStruct->FSMC_ReadWriteTimingStruct->FSMC_DataLatency << 24) |
 223:../../../SDK_embedded/libs/stm32/STM32F10x_StdPeriph_Driver/stm32f10x_fsmc.c ****              FSMC_NORSRAMInitStruct->FSMC_ReadWriteTimingStruct->FSMC_AccessMode;
 224:../../../SDK_embedded/libs/stm32/STM32F10x_StdPeriph_Driver/stm32f10x_fsmc.c ****             
 225:../../../SDK_embedded/libs/stm32/STM32F10x_StdPeriph_Driver/stm32f10x_fsmc.c ****     
 226:../../../SDK_embedded/libs/stm32/STM32F10x_StdPeriph_Driver/stm32f10x_fsmc.c ****   /* Bank1 NOR/SRAM timing register for write configuration, if extended mode is used */
 227:../../../SDK_embedded/libs/stm32/STM32F10x_StdPeriph_Driver/stm32f10x_fsmc.c ****   if(FSMC_NORSRAMInitStruct->FSMC_ExtendedMode == FSMC_ExtendedMode_Enable)
 16821              		.loc 1 227 0
 16822 0062 B1F5804F 		cmp	r1, #16384
 217:../../../SDK_embedded/libs/stm32/STM32F10x_StdPeriph_Driver/stm32f10x_fsmc.c ****             (uint32_t)FSMC_NORSRAMInitStruct->FSMC_ReadWriteTimingStruct->FSMC_AddressSetupTime |
 16823              		.loc 1 217 0
 16824 0066 46EA050C 		orr	ip, r6, r5
 218:../../../SDK_embedded/libs/stm32/STM32F10x_StdPeriph_Driver/stm32f10x_fsmc.c ****             (FSMC_NORSRAMInitStruct->FSMC_ReadWriteTimingStruct->FSMC_AddressHoldTime << 4) |
 16825              		.loc 1 218 0
 16826 006a 5E68     		ldr	r6, [r3, #4]
 219:../../../SDK_embedded/libs/stm32/STM32F10x_StdPeriph_Driver/stm32f10x_fsmc.c ****             (FSMC_NORSRAMInitStruct->FSMC_ReadWriteTimingStruct->FSMC_DataSetupTime << 8) |
 16827              		.loc 1 219 0
 16828 006c 9D68     		ldr	r5, [r3, #8]
 218:../../../SDK_embedded/libs/stm32/STM32F10x_StdPeriph_Driver/stm32f10x_fsmc.c ****             (FSMC_NORSRAMInitStruct->FSMC_ReadWriteTimingStruct->FSMC_AddressHoldTime << 4) |
 16829              		.loc 1 218 0
 16830 006e 4CEA061C 		orr	ip, ip, r6, lsl #4
 220:../../../SDK_embedded/libs/stm32/STM32F10x_StdPeriph_Driver/stm32f10x_fsmc.c ****             (FSMC_NORSRAMInitStruct->FSMC_ReadWriteTimingStruct->FSMC_BusTurnAroundDuration << 16) 
 16831              		.loc 1 220 0
 16832 0072 DE68     		ldr	r6, [r3, #12]
 219:../../../SDK_embedded/libs/stm32/STM32F10x_StdPeriph_Driver/stm32f10x_fsmc.c ****             (FSMC_NORSRAMInitStruct->FSMC_ReadWriteTimingStruct->FSMC_DataSetupTime << 8) |
 16833              		.loc 1 219 0
 16834 0074 4CEA0525 		orr	r5, ip, r5, lsl #8
 220:../../../SDK_embedded/libs/stm32/STM32F10x_StdPeriph_Driver/stm32f10x_fsmc.c ****             (FSMC_NORSRAMInitStruct->FSMC_ReadWriteTimingStruct->FSMC_BusTurnAroundDuration << 16) 
 16835              		.loc 1 220 0
 16836 0078 45EA064C 		orr	ip, r5, r6, lsl #16
 221:../../../SDK_embedded/libs/stm32/STM32F10x_StdPeriph_Driver/stm32f10x_fsmc.c ****             (FSMC_NORSRAMInitStruct->FSMC_ReadWriteTimingStruct->FSMC_CLKDivision << 20) |
 16837              		.loc 1 221 0
 16838 007c 1E69     		ldr	r6, [r3, #16]
 222:../../../SDK_embedded/libs/stm32/STM32F10x_StdPeriph_Driver/stm32f10x_fsmc.c ****             (FSMC_NORSRAMInitStruct->FSMC_ReadWriteTimingStruct->FSMC_DataLatency << 24) |
 16839              		.loc 1 222 0
 16840 007e 5B69     		ldr	r3, [r3, #20]
 221:../../../SDK_embedded/libs/stm32/STM32F10x_StdPeriph_Driver/stm32f10x_fsmc.c ****             (FSMC_NORSRAMInitStruct->FSMC_ReadWriteTimingStruct->FSMC_CLKDivision << 20) |
 16841              		.loc 1 221 0
 16842 0080 4CEA0655 		orr	r5, ip, r6, lsl #20
 222:../../../SDK_embedded/libs/stm32/STM32F10x_StdPeriph_Driver/stm32f10x_fsmc.c ****             (FSMC_NORSRAMInitStruct->FSMC_ReadWriteTimingStruct->FSMC_DataLatency << 24) |
 16843              		.loc 1 222 0
 16844 0084 45EA0365 		orr	r5, r5, r3, lsl #24
 216:../../../SDK_embedded/libs/stm32/STM32F10x_StdPeriph_Driver/stm32f10x_fsmc.c ****   FSMC_Bank1->BTCR[FSMC_NORSRAMInitStruct->FSMC_Bank+1] = 
 16845              		.loc 1 216 0
 16846 0088 4FF02043 		mov	r3, #-1610612736
 16847 008c 43F82450 		str	r5, [r3, r4, lsl #2]
 228:../../../SDK_embedded/libs/stm32/STM32F10x_StdPeriph_Driver/stm32f10x_fsmc.c ****   {
 229:../../../SDK_embedded/libs/stm32/STM32F10x_StdPeriph_Driver/stm32f10x_fsmc.c ****     assert_param(IS_FSMC_ADDRESS_SETUP_TIME(FSMC_NORSRAMInitStruct->FSMC_WriteTimingStruct->FSMC_Ad
 230:../../../SDK_embedded/libs/stm32/STM32F10x_StdPeriph_Driver/stm32f10x_fsmc.c ****     assert_param(IS_FSMC_ADDRESS_HOLD_TIME(FSMC_NORSRAMInitStruct->FSMC_WriteTimingStruct->FSMC_Add
 231:../../../SDK_embedded/libs/stm32/STM32F10x_StdPeriph_Driver/stm32f10x_fsmc.c ****     assert_param(IS_FSMC_DATASETUP_TIME(FSMC_NORSRAMInitStruct->FSMC_WriteTimingStruct->FSMC_DataSe
 232:../../../SDK_embedded/libs/stm32/STM32F10x_StdPeriph_Driver/stm32f10x_fsmc.c ****     assert_param(IS_FSMC_CLK_DIV(FSMC_NORSRAMInitStruct->FSMC_WriteTimingStruct->FSMC_CLKDivision))
 233:../../../SDK_embedded/libs/stm32/STM32F10x_StdPeriph_Driver/stm32f10x_fsmc.c ****     assert_param(IS_FSMC_DATA_LATENCY(FSMC_NORSRAMInitStruct->FSMC_WriteTimingStruct->FSMC_DataLate
 234:../../../SDK_embedded/libs/stm32/STM32F10x_StdPeriph_Driver/stm32f10x_fsmc.c ****     assert_param(IS_FSMC_ACCESS_MODE(FSMC_NORSRAMInitStruct->FSMC_WriteTimingStruct->FSMC_AccessMod
 235:../../../SDK_embedded/libs/stm32/STM32F10x_StdPeriph_Driver/stm32f10x_fsmc.c ****     FSMC_Bank1E->BWTR[FSMC_NORSRAMInitStruct->FSMC_Bank] = 
 236:../../../SDK_embedded/libs/stm32/STM32F10x_StdPeriph_Driver/stm32f10x_fsmc.c ****               (uint32_t)FSMC_NORSRAMInitStruct->FSMC_WriteTimingStruct->FSMC_AddressSetupTime |
 237:../../../SDK_embedded/libs/stm32/STM32F10x_StdPeriph_Driver/stm32f10x_fsmc.c ****               (FSMC_NORSRAMInitStruct->FSMC_WriteTimingStruct->FSMC_AddressHoldTime << 4 )|
 238:../../../SDK_embedded/libs/stm32/STM32F10x_StdPeriph_Driver/stm32f10x_fsmc.c ****               (FSMC_NORSRAMInitStruct->FSMC_WriteTimingStruct->FSMC_DataSetupTime << 8) |
 239:../../../SDK_embedded/libs/stm32/STM32F10x_StdPeriph_Driver/stm32f10x_fsmc.c ****               (FSMC_NORSRAMInitStruct->FSMC_WriteTimingStruct->FSMC_CLKDivision << 20) |
 240:../../../SDK_embedded/libs/stm32/STM32F10x_StdPeriph_Driver/stm32f10x_fsmc.c ****               (FSMC_NORSRAMInitStruct->FSMC_WriteTimingStruct->FSMC_DataLatency << 24) |
 241:../../../SDK_embedded/libs/stm32/STM32F10x_StdPeriph_Driver/stm32f10x_fsmc.c ****                FSMC_NORSRAMInitStruct->FSMC_WriteTimingStruct->FSMC_AccessMode;
 242:../../../SDK_embedded/libs/stm32/STM32F10x_StdPeriph_Driver/stm32f10x_fsmc.c ****   }
 243:../../../SDK_embedded/libs/stm32/STM32F10x_StdPeriph_Driver/stm32f10x_fsmc.c ****   else
 244:../../../SDK_embedded/libs/stm32/STM32F10x_StdPeriph_Driver/stm32f10x_fsmc.c ****   {
 245:../../../SDK_embedded/libs/stm32/STM32F10x_StdPeriph_Driver/stm32f10x_fsmc.c ****     FSMC_Bank1E->BWTR[FSMC_NORSRAMInitStruct->FSMC_Bank] = 0x0FFFFFFF;
 16848              		.loc 1 245 0
 16849 0090 18BF     		it	ne
 16850 0092 6FF07041 		mvnne	r1, #-268435456
 227:../../../SDK_embedded/libs/stm32/STM32F10x_StdPeriph_Driver/stm32f10x_fsmc.c ****   if(FSMC_NORSRAMInitStruct->FSMC_ExtendedMode == FSMC_ExtendedMode_Enable)
 16851              		.loc 1 227 0
 16852 0096 10D1     		bne	.L17
 236:../../../SDK_embedded/libs/stm32/STM32F10x_StdPeriph_Driver/stm32f10x_fsmc.c ****               (uint32_t)FSMC_NORSRAMInitStruct->FSMC_WriteTimingStruct->FSMC_AddressSetupTime |
 16853              		.loc 1 236 0
 16854 0098 436B     		ldr	r3, [r0, #52]
 16855 009a 9869     		ldr	r0, [r3, #24]
 16856              	.LVL4:
 16857 009c 1968     		ldr	r1, [r3, #0]
 16858 009e 40EA0101 		orr	r1, r0, r1
 237:../../../SDK_embedded/libs/stm32/STM32F10x_StdPeriph_Driver/stm32f10x_fsmc.c ****               (FSMC_NORSRAMInitStruct->FSMC_WriteTimingStruct->FSMC_AddressHoldTime << 4 )|
 16859              		.loc 1 237 0
 16860 00a2 5868     		ldr	r0, [r3, #4]
 16861 00a4 41EA001C 		orr	ip, r1, r0, lsl #4
 238:../../../SDK_embedded/libs/stm32/STM32F10x_StdPeriph_Driver/stm32f10x_fsmc.c ****               (FSMC_NORSRAMInitStruct->FSMC_WriteTimingStruct->FSMC_DataSetupTime << 8) |
 16862              		.loc 1 238 0
 16863 00a8 9868     		ldr	r0, [r3, #8]
 239:../../../SDK_embedded/libs/stm32/STM32F10x_StdPeriph_Driver/stm32f10x_fsmc.c ****               (FSMC_NORSRAMInitStruct->FSMC_WriteTimingStruct->FSMC_CLKDivision << 20) |
 16864              		.loc 1 239 0
 16865 00aa 1969     		ldr	r1, [r3, #16]
 238:../../../SDK_embedded/libs/stm32/STM32F10x_StdPeriph_Driver/stm32f10x_fsmc.c ****               (FSMC_NORSRAMInitStruct->FSMC_WriteTimingStruct->FSMC_DataSetupTime << 8) |
 16866              		.loc 1 238 0
 16867 00ac 4CEA002C 		orr	ip, ip, r0, lsl #8
 240:../../../SDK_embedded/libs/stm32/STM32F10x_StdPeriph_Driver/stm32f10x_fsmc.c ****               (FSMC_NORSRAMInitStruct->FSMC_WriteTimingStruct->FSMC_DataLatency << 24) |
 16868              		.loc 1 240 0
 16869 00b0 5869     		ldr	r0, [r3, #20]
 239:../../../SDK_embedded/libs/stm32/STM32F10x_StdPeriph_Driver/stm32f10x_fsmc.c ****               (FSMC_NORSRAMInitStruct->FSMC_WriteTimingStruct->FSMC_CLKDivision << 20) |
 16870              		.loc 1 239 0
 16871 00b2 4CEA0151 		orr	r1, ip, r1, lsl #20
 240:../../../SDK_embedded/libs/stm32/STM32F10x_StdPeriph_Driver/stm32f10x_fsmc.c ****               (FSMC_NORSRAMInitStruct->FSMC_WriteTimingStruct->FSMC_DataLatency << 24) |
 16872              		.loc 1 240 0
 16873 00b6 41EA0061 		orr	r1, r1, r0, lsl #24
 16874              	.L17:
 16875              		.loc 1 245 0
 16876 00ba 024B     		ldr	r3, .L18
 16877 00bc 43F82210 		str	r1, [r3, r2, lsl #2]
 16878 00c0 70BD     		pop	{r4, r5, r6, pc}
 16879              	.L19:
 16880 00c2 00BF     		.align	2
 16881              	.L18:
 16882 00c4 040100A0 		.word	-1610612476
 16883              		.cfi_endproc
 16884              	.LFE32:
 16886              		.section	.text.FSMC_NANDInit,"ax",%progbits
 16887              		.align	1
 16888              		.global	FSMC_NANDInit
 16889              		.thumb
 16890              		.thumb_func
 16892              	FSMC_NANDInit:
 16893              	.LFB33:
 246:../../../SDK_embedded/libs/stm32/STM32F10x_StdPeriph_Driver/stm32f10x_fsmc.c ****   }
 247:../../../SDK_embedded/libs/stm32/STM32F10x_StdPeriph_Driver/stm32f10x_fsmc.c **** }
 248:../../../SDK_embedded/libs/stm32/STM32F10x_StdPeriph_Driver/stm32f10x_fsmc.c **** 
 249:../../../SDK_embedded/libs/stm32/STM32F10x_StdPeriph_Driver/stm32f10x_fsmc.c **** /**
 250:../../../SDK_embedded/libs/stm32/STM32F10x_StdPeriph_Driver/stm32f10x_fsmc.c ****   * @brief  Initializes the FSMC NAND Banks according to the specified 
 251:../../../SDK_embedded/libs/stm32/STM32F10x_StdPeriph_Driver/stm32f10x_fsmc.c ****   *   parameters in the FSMC_NANDInitStruct.
 252:../../../SDK_embedded/libs/stm32/STM32F10x_StdPeriph_Driver/stm32f10x_fsmc.c ****   * @param  FSMC_NANDInitStruct : pointer to a FSMC_NANDInitTypeDef 
 253:../../../SDK_embedded/libs/stm32/STM32F10x_StdPeriph_Driver/stm32f10x_fsmc.c ****   *   structure that contains the configuration information for the FSMC NAND specified Banks.     
 254:../../../SDK_embedded/libs/stm32/STM32F10x_StdPeriph_Driver/stm32f10x_fsmc.c ****   * @retval None
 255:../../../SDK_embedded/libs/stm32/STM32F10x_StdPeriph_Driver/stm32f10x_fsmc.c ****   */
 256:../../../SDK_embedded/libs/stm32/STM32F10x_StdPeriph_Driver/stm32f10x_fsmc.c **** void FSMC_NANDInit(FSMC_NANDInitTypeDef* FSMC_NANDInitStruct)
 257:../../../SDK_embedded/libs/stm32/STM32F10x_StdPeriph_Driver/stm32f10x_fsmc.c **** {
 16894              		.loc 1 257 0
 16895              		.cfi_startproc
 16896              		@ args = 0, pretend = 0, frame = 0
 16897              		@ frame_needed = 0, uses_anonymous_args = 0
 16898              	.LVL5:
 258:../../../SDK_embedded/libs/stm32/STM32F10x_StdPeriph_Driver/stm32f10x_fsmc.c ****   uint32_t tmppcr = 0x00000000, tmppmem = 0x00000000, tmppatt = 0x00000000; 
 259:../../../SDK_embedded/libs/stm32/STM32F10x_StdPeriph_Driver/stm32f10x_fsmc.c ****     
 260:../../../SDK_embedded/libs/stm32/STM32F10x_StdPeriph_Driver/stm32f10x_fsmc.c ****   /* Check the parameters */
 261:../../../SDK_embedded/libs/stm32/STM32F10x_StdPeriph_Driver/stm32f10x_fsmc.c ****   assert_param( IS_FSMC_NAND_BANK(FSMC_NANDInitStruct->FSMC_Bank));
 262:../../../SDK_embedded/libs/stm32/STM32F10x_StdPeriph_Driver/stm32f10x_fsmc.c ****   assert_param( IS_FSMC_WAIT_FEATURE(FSMC_NANDInitStruct->FSMC_Waitfeature));
 263:../../../SDK_embedded/libs/stm32/STM32F10x_StdPeriph_Driver/stm32f10x_fsmc.c ****   assert_param( IS_FSMC_MEMORY_WIDTH(FSMC_NANDInitStruct->FSMC_MemoryDataWidth));
 264:../../../SDK_embedded/libs/stm32/STM32F10x_StdPeriph_Driver/stm32f10x_fsmc.c ****   assert_param( IS_FSMC_ECC_STATE(FSMC_NANDInitStruct->FSMC_ECC));
 265:../../../SDK_embedded/libs/stm32/STM32F10x_StdPeriph_Driver/stm32f10x_fsmc.c ****   assert_param( IS_FSMC_ECCPAGE_SIZE(FSMC_NANDInitStruct->FSMC_ECCPageSize));
 266:../../../SDK_embedded/libs/stm32/STM32F10x_StdPeriph_Driver/stm32f10x_fsmc.c ****   assert_param( IS_FSMC_TCLR_TIME(FSMC_NANDInitStruct->FSMC_TCLRSetupTime));
 267:../../../SDK_embedded/libs/stm32/STM32F10x_StdPeriph_Driver/stm32f10x_fsmc.c ****   assert_param( IS_FSMC_TAR_TIME(FSMC_NANDInitStruct->FSMC_TARSetupTime));
 268:../../../SDK_embedded/libs/stm32/STM32F10x_StdPeriph_Driver/stm32f10x_fsmc.c ****   assert_param(IS_FSMC_SETUP_TIME(FSMC_NANDInitStruct->FSMC_CommonSpaceTimingStruct->FSMC_SetupTime
 269:../../../SDK_embedded/libs/stm32/STM32F10x_StdPeriph_Driver/stm32f10x_fsmc.c ****   assert_param(IS_FSMC_WAIT_TIME(FSMC_NANDInitStruct->FSMC_CommonSpaceTimingStruct->FSMC_WaitSetupT
 270:../../../SDK_embedded/libs/stm32/STM32F10x_StdPeriph_Driver/stm32f10x_fsmc.c ****   assert_param(IS_FSMC_HOLD_TIME(FSMC_NANDInitStruct->FSMC_CommonSpaceTimingStruct->FSMC_HoldSetupT
 271:../../../SDK_embedded/libs/stm32/STM32F10x_StdPeriph_Driver/stm32f10x_fsmc.c ****   assert_param(IS_FSMC_HIZ_TIME(FSMC_NANDInitStruct->FSMC_CommonSpaceTimingStruct->FSMC_HiZSetupTim
 272:../../../SDK_embedded/libs/stm32/STM32F10x_StdPeriph_Driver/stm32f10x_fsmc.c ****   assert_param(IS_FSMC_SETUP_TIME(FSMC_NANDInitStruct->FSMC_AttributeSpaceTimingStruct->FSMC_SetupT
 273:../../../SDK_embedded/libs/stm32/STM32F10x_StdPeriph_Driver/stm32f10x_fsmc.c ****   assert_param(IS_FSMC_WAIT_TIME(FSMC_NANDInitStruct->FSMC_AttributeSpaceTimingStruct->FSMC_WaitSet
 274:../../../SDK_embedded/libs/stm32/STM32F10x_StdPeriph_Driver/stm32f10x_fsmc.c ****   assert_param(IS_FSMC_HOLD_TIME(FSMC_NANDInitStruct->FSMC_AttributeSpaceTimingStruct->FSMC_HoldSet
 275:../../../SDK_embedded/libs/stm32/STM32F10x_StdPeriph_Driver/stm32f10x_fsmc.c ****   assert_param(IS_FSMC_HIZ_TIME(FSMC_NANDInitStruct->FSMC_AttributeSpaceTimingStruct->FSMC_HiZSetup
 276:../../../SDK_embedded/libs/stm32/STM32F10x_StdPeriph_Driver/stm32f10x_fsmc.c ****   
 277:../../../SDK_embedded/libs/stm32/STM32F10x_StdPeriph_Driver/stm32f10x_fsmc.c ****   /* Set the tmppcr value according to FSMC_NANDInitStruct parameters */
 278:../../../SDK_embedded/libs/stm32/STM32F10x_StdPeriph_Driver/stm32f10x_fsmc.c ****   tmppcr = (uint32_t)FSMC_NANDInitStruct->FSMC_Waitfeature |
 279:../../../SDK_embedded/libs/stm32/STM32F10x_StdPeriph_Driver/stm32f10x_fsmc.c ****             PCR_MemoryType_NAND |
 16899              		.loc 1 279 0
 16900 0000 4168     		ldr	r1, [r0, #4]
 16901 0002 8268     		ldr	r2, [r0, #8]
 257:../../../SDK_embedded/libs/stm32/STM32F10x_StdPeriph_Driver/stm32f10x_fsmc.c **** {
 16902              		.loc 1 257 0
 16903 0004 30B5     		push	{r4, r5, lr}
 16904              	.LCFI1:
 16905              		.cfi_def_cfa_offset 12
 16906              		.cfi_offset 14, -4
 16907              		.cfi_offset 5, -8
 16908              		.cfi_offset 4, -12
 16909              		.loc 1 279 0
 16910 0006 41EA020C 		orr	ip, r1, r2
 280:../../../SDK_embedded/libs/stm32/STM32F10x_StdPeriph_Driver/stm32f10x_fsmc.c ****             FSMC_NANDInitStruct->FSMC_MemoryDataWidth |
 281:../../../SDK_embedded/libs/stm32/STM32F10x_StdPeriph_Driver/stm32f10x_fsmc.c ****             FSMC_NANDInitStruct->FSMC_ECC |
 16911              		.loc 1 281 0
 16912 000a C568     		ldr	r5, [r0, #12]
 282:../../../SDK_embedded/libs/stm32/STM32F10x_StdPeriph_Driver/stm32f10x_fsmc.c ****             FSMC_NANDInitStruct->FSMC_ECCPageSize |
 16913              		.loc 1 282 0
 16914 000c 0369     		ldr	r3, [r0, #16]
 280:../../../SDK_embedded/libs/stm32/STM32F10x_StdPeriph_Driver/stm32f10x_fsmc.c ****             FSMC_NANDInitStruct->FSMC_MemoryDataWidth |
 16915              		.loc 1 280 0
 16916 000e 4CF00804 		orr	r4, ip, #8
 283:../../../SDK_embedded/libs/stm32/STM32F10x_StdPeriph_Driver/stm32f10x_fsmc.c ****             (FSMC_NANDInitStruct->FSMC_TCLRSetupTime << 9 )|
 16917              		.loc 1 283 0
 16918 0012 4169     		ldr	r1, [r0, #20]
 281:../../../SDK_embedded/libs/stm32/STM32F10x_StdPeriph_Driver/stm32f10x_fsmc.c ****             FSMC_NANDInitStruct->FSMC_ECC |
 16919              		.loc 1 281 0
 16920 0014 44EA0502 		orr	r2, r4, r5
 282:../../../SDK_embedded/libs/stm32/STM32F10x_StdPeriph_Driver/stm32f10x_fsmc.c ****             FSMC_NANDInitStruct->FSMC_ECCPageSize |
 16921              		.loc 1 282 0
 16922 0018 42EA030C 		orr	ip, r2, r3
 284:../../../SDK_embedded/libs/stm32/STM32F10x_StdPeriph_Driver/stm32f10x_fsmc.c ****             (FSMC_NANDInitStruct->FSMC_TARSetupTime << 13);
 16923              		.loc 1 284 0
 16924 001c 8569     		ldr	r5, [r0, #24]
 283:../../../SDK_embedded/libs/stm32/STM32F10x_StdPeriph_Driver/stm32f10x_fsmc.c ****             (FSMC_NANDInitStruct->FSMC_TCLRSetupTime << 9 )|
 16925              		.loc 1 283 0
 16926 001e 4CEA4124 		orr	r4, ip, r1, lsl #9
 278:../../../SDK_embedded/libs/stm32/STM32F10x_StdPeriph_Driver/stm32f10x_fsmc.c ****   tmppcr = (uint32_t)FSMC_NANDInitStruct->FSMC_Waitfeature |
 16927              		.loc 1 278 0
 16928 0022 44EA4534 		orr	r4, r4, r5, lsl #13
 16929              	.LVL6:
 285:../../../SDK_embedded/libs/stm32/STM32F10x_StdPeriph_Driver/stm32f10x_fsmc.c ****             
 286:../../../SDK_embedded/libs/stm32/STM32F10x_StdPeriph_Driver/stm32f10x_fsmc.c ****   /* Set tmppmem value according to FSMC_CommonSpaceTimingStructure parameters */
 287:../../../SDK_embedded/libs/stm32/STM32F10x_StdPeriph_Driver/stm32f10x_fsmc.c ****   tmppmem = (uint32_t)FSMC_NANDInitStruct->FSMC_CommonSpaceTimingStruct->FSMC_SetupTime |
 16930              		.loc 1 287 0
 16931 0026 C569     		ldr	r5, [r0, #28]
 288:../../../SDK_embedded/libs/stm32/STM32F10x_StdPeriph_Driver/stm32f10x_fsmc.c ****             (FSMC_NANDInitStruct->FSMC_CommonSpaceTimingStruct->FSMC_WaitSetupTime << 8) |
 289:../../../SDK_embedded/libs/stm32/STM32F10x_StdPeriph_Driver/stm32f10x_fsmc.c ****             (FSMC_NANDInitStruct->FSMC_CommonSpaceTimingStruct->FSMC_HoldSetupTime << 16)|
 16932              		.loc 1 289 0
 16933 0028 AA68     		ldr	r2, [r5, #8]
 288:../../../SDK_embedded/libs/stm32/STM32F10x_StdPeriph_Driver/stm32f10x_fsmc.c ****             (FSMC_NANDInitStruct->FSMC_CommonSpaceTimingStruct->FSMC_WaitSetupTime << 8) |
 16934              		.loc 1 288 0
 16935 002a 6B68     		ldr	r3, [r5, #4]
 16936              		.loc 1 289 0
 16937 002c 1104     		lsls	r1, r2, #16
 288:../../../SDK_embedded/libs/stm32/STM32F10x_StdPeriph_Driver/stm32f10x_fsmc.c ****             (FSMC_NANDInitStruct->FSMC_CommonSpaceTimingStruct->FSMC_WaitSetupTime << 8) |
 16938              		.loc 1 288 0
 16939 002e 2A68     		ldr	r2, [r5, #0]
 287:../../../SDK_embedded/libs/stm32/STM32F10x_StdPeriph_Driver/stm32f10x_fsmc.c ****   tmppmem = (uint32_t)FSMC_NANDInitStruct->FSMC_CommonSpaceTimingStruct->FSMC_SetupTime |
 16940              		.loc 1 287 0
 16941 0030 41EA032C 		orr	ip, r1, r3, lsl #8
 290:../../../SDK_embedded/libs/stm32/STM32F10x_StdPeriph_Driver/stm32f10x_fsmc.c ****             (FSMC_NANDInitStruct->FSMC_CommonSpaceTimingStruct->FSMC_HiZSetupTime << 24); 
 16942              		.loc 1 290 0
 16943 0034 EB68     		ldr	r3, [r5, #12]
 288:../../../SDK_embedded/libs/stm32/STM32F10x_StdPeriph_Driver/stm32f10x_fsmc.c ****             (FSMC_NANDInitStruct->FSMC_CommonSpaceTimingStruct->FSMC_WaitSetupTime << 8) |
 16944              		.loc 1 288 0
 16945 0036 4CEA0201 		orr	r1, ip, r2
 287:../../../SDK_embedded/libs/stm32/STM32F10x_StdPeriph_Driver/stm32f10x_fsmc.c ****   tmppmem = (uint32_t)FSMC_NANDInitStruct->FSMC_CommonSpaceTimingStruct->FSMC_SetupTime |
 16946              		.loc 1 287 0
 16947 003a 41EA0361 		orr	r1, r1, r3, lsl #24
 16948              	.LVL7:
 291:../../../SDK_embedded/libs/stm32/STM32F10x_StdPeriph_Driver/stm32f10x_fsmc.c ****             
 292:../../../SDK_embedded/libs/stm32/STM32F10x_StdPeriph_Driver/stm32f10x_fsmc.c ****   /* Set tmppatt value according to FSMC_AttributeSpaceTimingStructure parameters */
 293:../../../SDK_embedded/libs/stm32/STM32F10x_StdPeriph_Driver/stm32f10x_fsmc.c ****   tmppatt = (uint32_t)FSMC_NANDInitStruct->FSMC_AttributeSpaceTimingStruct->FSMC_SetupTime |
 16949              		.loc 1 293 0
 16950 003e 036A     		ldr	r3, [r0, #32]
 294:../../../SDK_embedded/libs/stm32/STM32F10x_StdPeriph_Driver/stm32f10x_fsmc.c ****             (FSMC_NANDInitStruct->FSMC_AttributeSpaceTimingStruct->FSMC_WaitSetupTime << 8) |
 295:../../../SDK_embedded/libs/stm32/STM32F10x_StdPeriph_Driver/stm32f10x_fsmc.c ****             (FSMC_NANDInitStruct->FSMC_AttributeSpaceTimingStruct->FSMC_HoldSetupTime << 16)|
 16951              		.loc 1 295 0
 16952 0040 9A68     		ldr	r2, [r3, #8]
 294:../../../SDK_embedded/libs/stm32/STM32F10x_StdPeriph_Driver/stm32f10x_fsmc.c ****             (FSMC_NANDInitStruct->FSMC_AttributeSpaceTimingStruct->FSMC_WaitSetupTime << 8) |
 16953              		.loc 1 294 0
 16954 0042 5D68     		ldr	r5, [r3, #4]
 16955              		.loc 1 295 0
 16956 0044 1204     		lsls	r2, r2, #16
 293:../../../SDK_embedded/libs/stm32/STM32F10x_StdPeriph_Driver/stm32f10x_fsmc.c ****   tmppatt = (uint32_t)FSMC_NANDInitStruct->FSMC_AttributeSpaceTimingStruct->FSMC_SetupTime |
 16957              		.loc 1 293 0
 16958 0046 42EA052C 		orr	ip, r2, r5, lsl #8
 294:../../../SDK_embedded/libs/stm32/STM32F10x_StdPeriph_Driver/stm32f10x_fsmc.c ****             (FSMC_NANDInitStruct->FSMC_AttributeSpaceTimingStruct->FSMC_WaitSetupTime << 8) |
 16959              		.loc 1 294 0
 16960 004a 1D68     		ldr	r5, [r3, #0]
 296:../../../SDK_embedded/libs/stm32/STM32F10x_StdPeriph_Driver/stm32f10x_fsmc.c ****             (FSMC_NANDInitStruct->FSMC_AttributeSpaceTimingStruct->FSMC_HiZSetupTime << 24);
 16961              		.loc 1 296 0
 16962 004c DA68     		ldr	r2, [r3, #12]
 297:../../../SDK_embedded/libs/stm32/STM32F10x_StdPeriph_Driver/stm32f10x_fsmc.c ****   
 298:../../../SDK_embedded/libs/stm32/STM32F10x_StdPeriph_Driver/stm32f10x_fsmc.c ****   if(FSMC_NANDInitStruct->FSMC_Bank == FSMC_Bank2_NAND)
 16963              		.loc 1 298 0
 16964 004e 0368     		ldr	r3, [r0, #0]
 294:../../../SDK_embedded/libs/stm32/STM32F10x_StdPeriph_Driver/stm32f10x_fsmc.c ****             (FSMC_NANDInitStruct->FSMC_AttributeSpaceTimingStruct->FSMC_WaitSetupTime << 8) |
 16965              		.loc 1 294 0
 16966 0050 4CEA050C 		orr	ip, ip, r5
 16967              		.loc 1 298 0
 16968 0054 102B     		cmp	r3, #16
 299:../../../SDK_embedded/libs/stm32/STM32F10x_StdPeriph_Driver/stm32f10x_fsmc.c ****   {
 300:../../../SDK_embedded/libs/stm32/STM32F10x_StdPeriph_Driver/stm32f10x_fsmc.c ****     /* FSMC_Bank2_NAND registers configuration */
 301:../../../SDK_embedded/libs/stm32/STM32F10x_StdPeriph_Driver/stm32f10x_fsmc.c ****     FSMC_Bank2->PCR2 = tmppcr;
 16969              		.loc 1 301 0
 16970 0056 0CBF     		ite	eq
 16971 0058 034B     		ldreq	r3, .L24
 302:../../../SDK_embedded/libs/stm32/STM32F10x_StdPeriph_Driver/stm32f10x_fsmc.c ****     FSMC_Bank2->PMEM2 = tmppmem;
 303:../../../SDK_embedded/libs/stm32/STM32F10x_StdPeriph_Driver/stm32f10x_fsmc.c ****     FSMC_Bank2->PATT2 = tmppatt;
 304:../../../SDK_embedded/libs/stm32/STM32F10x_StdPeriph_Driver/stm32f10x_fsmc.c ****   }
 305:../../../SDK_embedded/libs/stm32/STM32F10x_StdPeriph_Driver/stm32f10x_fsmc.c ****   else
 306:../../../SDK_embedded/libs/stm32/STM32F10x_StdPeriph_Driver/stm32f10x_fsmc.c ****   {
 307:../../../SDK_embedded/libs/stm32/STM32F10x_StdPeriph_Driver/stm32f10x_fsmc.c ****     /* FSMC_Bank3_NAND registers configuration */
 308:../../../SDK_embedded/libs/stm32/STM32F10x_StdPeriph_Driver/stm32f10x_fsmc.c ****     FSMC_Bank3->PCR3 = tmppcr;
 16972              		.loc 1 308 0
 16973 005a 044B     		ldrne	r3, .L24+4
 293:../../../SDK_embedded/libs/stm32/STM32F10x_StdPeriph_Driver/stm32f10x_fsmc.c ****   tmppatt = (uint32_t)FSMC_NANDInitStruct->FSMC_AttributeSpaceTimingStruct->FSMC_SetupTime |
 16974              		.loc 1 293 0
 16975 005c 4CEA0262 		orr	r2, ip, r2, lsl #24
 16976              	.LVL8:
 16977              		.loc 1 308 0
 16978 0060 1C60     		str	r4, [r3, #0]
 309:../../../SDK_embedded/libs/stm32/STM32F10x_StdPeriph_Driver/stm32f10x_fsmc.c ****     FSMC_Bank3->PMEM3 = tmppmem;
 16979              		.loc 1 309 0
 16980 0062 9960     		str	r1, [r3, #8]
 310:../../../SDK_embedded/libs/stm32/STM32F10x_StdPeriph_Driver/stm32f10x_fsmc.c ****     FSMC_Bank3->PATT3 = tmppatt;
 16981              		.loc 1 310 0
 16982 0064 DA60     		str	r2, [r3, #12]
 16983 0066 30BD     		pop	{r4, r5, pc}
 16984              	.L25:
 16985              		.align	2
 16986              	.L24:
 16987 0068 600000A0 		.word	-1610612640
 16988 006c 800000A0 		.word	-1610612608
 16989              		.cfi_endproc
 16990              	.LFE33:
 16992              		.section	.text.FSMC_PCCARDInit,"ax",%progbits
 16993              		.align	1
 16994              		.global	FSMC_PCCARDInit
 16995              		.thumb
 16996              		.thumb_func
 16998              	FSMC_PCCARDInit:
 16999              	.LFB34:
 311:../../../SDK_embedded/libs/stm32/STM32F10x_StdPeriph_Driver/stm32f10x_fsmc.c ****   }
 312:../../../SDK_embedded/libs/stm32/STM32F10x_StdPeriph_Driver/stm32f10x_fsmc.c **** }
 313:../../../SDK_embedded/libs/stm32/STM32F10x_StdPeriph_Driver/stm32f10x_fsmc.c **** 
 314:../../../SDK_embedded/libs/stm32/STM32F10x_StdPeriph_Driver/stm32f10x_fsmc.c **** /**
 315:../../../SDK_embedded/libs/stm32/STM32F10x_StdPeriph_Driver/stm32f10x_fsmc.c ****   * @brief  Initializes the FSMC PCCARD Bank according to the specified 
 316:../../../SDK_embedded/libs/stm32/STM32F10x_StdPeriph_Driver/stm32f10x_fsmc.c ****   *   parameters in the FSMC_PCCARDInitStruct.
 317:../../../SDK_embedded/libs/stm32/STM32F10x_StdPeriph_Driver/stm32f10x_fsmc.c ****   * @param  FSMC_PCCARDInitStruct : pointer to a FSMC_PCCARDInitTypeDef
 318:../../../SDK_embedded/libs/stm32/STM32F10x_StdPeriph_Driver/stm32f10x_fsmc.c ****   *   structure that contains the configuration information for the FSMC PCCARD Bank.              
 319:../../../SDK_embedded/libs/stm32/STM32F10x_StdPeriph_Driver/stm32f10x_fsmc.c ****   * @retval None
 320:../../../SDK_embedded/libs/stm32/STM32F10x_StdPeriph_Driver/stm32f10x_fsmc.c ****   */
 321:../../../SDK_embedded/libs/stm32/STM32F10x_StdPeriph_Driver/stm32f10x_fsmc.c **** void FSMC_PCCARDInit(FSMC_PCCARDInitTypeDef* FSMC_PCCARDInitStruct)
 322:../../../SDK_embedded/libs/stm32/STM32F10x_StdPeriph_Driver/stm32f10x_fsmc.c **** {
 17000              		.loc 1 322 0
 17001              		.cfi_startproc
 17002              		@ args = 0, pretend = 0, frame = 0
 17003              		@ frame_needed = 0, uses_anonymous_args = 0
 17004              	.LVL9:
 323:../../../SDK_embedded/libs/stm32/STM32F10x_StdPeriph_Driver/stm32f10x_fsmc.c ****   /* Check the parameters */
 324:../../../SDK_embedded/libs/stm32/STM32F10x_StdPeriph_Driver/stm32f10x_fsmc.c ****   assert_param(IS_FSMC_WAIT_FEATURE(FSMC_PCCARDInitStruct->FSMC_Waitfeature));
 325:../../../SDK_embedded/libs/stm32/STM32F10x_StdPeriph_Driver/stm32f10x_fsmc.c ****   assert_param(IS_FSMC_TCLR_TIME(FSMC_PCCARDInitStruct->FSMC_TCLRSetupTime));
 326:../../../SDK_embedded/libs/stm32/STM32F10x_StdPeriph_Driver/stm32f10x_fsmc.c ****   assert_param(IS_FSMC_TAR_TIME(FSMC_PCCARDInitStruct->FSMC_TARSetupTime));
 327:../../../SDK_embedded/libs/stm32/STM32F10x_StdPeriph_Driver/stm32f10x_fsmc.c ****  
 328:../../../SDK_embedded/libs/stm32/STM32F10x_StdPeriph_Driver/stm32f10x_fsmc.c ****   assert_param(IS_FSMC_SETUP_TIME(FSMC_PCCARDInitStruct->FSMC_CommonSpaceTimingStruct->FSMC_SetupTi
 329:../../../SDK_embedded/libs/stm32/STM32F10x_StdPeriph_Driver/stm32f10x_fsmc.c ****   assert_param(IS_FSMC_WAIT_TIME(FSMC_PCCARDInitStruct->FSMC_CommonSpaceTimingStruct->FSMC_WaitSetu
 330:../../../SDK_embedded/libs/stm32/STM32F10x_StdPeriph_Driver/stm32f10x_fsmc.c ****   assert_param(IS_FSMC_HOLD_TIME(FSMC_PCCARDInitStruct->FSMC_CommonSpaceTimingStruct->FSMC_HoldSetu
 331:../../../SDK_embedded/libs/stm32/STM32F10x_StdPeriph_Driver/stm32f10x_fsmc.c ****   assert_param(IS_FSMC_HIZ_TIME(FSMC_PCCARDInitStruct->FSMC_CommonSpaceTimingStruct->FSMC_HiZSetupT
 332:../../../SDK_embedded/libs/stm32/STM32F10x_StdPeriph_Driver/stm32f10x_fsmc.c ****   
 333:../../../SDK_embedded/libs/stm32/STM32F10x_StdPeriph_Driver/stm32f10x_fsmc.c ****   assert_param(IS_FSMC_SETUP_TIME(FSMC_PCCARDInitStruct->FSMC_AttributeSpaceTimingStruct->FSMC_Setu
 334:../../../SDK_embedded/libs/stm32/STM32F10x_StdPeriph_Driver/stm32f10x_fsmc.c ****   assert_param(IS_FSMC_WAIT_TIME(FSMC_PCCARDInitStruct->FSMC_AttributeSpaceTimingStruct->FSMC_WaitS
 335:../../../SDK_embedded/libs/stm32/STM32F10x_StdPeriph_Driver/stm32f10x_fsmc.c ****   assert_param(IS_FSMC_HOLD_TIME(FSMC_PCCARDInitStruct->FSMC_AttributeSpaceTimingStruct->FSMC_HoldS
 336:../../../SDK_embedded/libs/stm32/STM32F10x_StdPeriph_Driver/stm32f10x_fsmc.c ****   assert_param(IS_FSMC_HIZ_TIME(FSMC_PCCARDInitStruct->FSMC_AttributeSpaceTimingStruct->FSMC_HiZSet
 337:../../../SDK_embedded/libs/stm32/STM32F10x_StdPeriph_Driver/stm32f10x_fsmc.c ****   assert_param(IS_FSMC_SETUP_TIME(FSMC_PCCARDInitStruct->FSMC_IOSpaceTimingStruct->FSMC_SetupTime))
 338:../../../SDK_embedded/libs/stm32/STM32F10x_StdPeriph_Driver/stm32f10x_fsmc.c ****   assert_param(IS_FSMC_WAIT_TIME(FSMC_PCCARDInitStruct->FSMC_IOSpaceTimingStruct->FSMC_WaitSetupTim
 339:../../../SDK_embedded/libs/stm32/STM32F10x_StdPeriph_Driver/stm32f10x_fsmc.c ****   assert_param(IS_FSMC_HOLD_TIME(FSMC_PCCARDInitStruct->FSMC_IOSpaceTimingStruct->FSMC_HoldSetupTim
 340:../../../SDK_embedded/libs/stm32/STM32F10x_StdPeriph_Driver/stm32f10x_fsmc.c ****   assert_param(IS_FSMC_HIZ_TIME(FSMC_PCCARDInitStruct->FSMC_IOSpaceTimingStruct->FSMC_HiZSetupTime)
 341:../../../SDK_embedded/libs/stm32/STM32F10x_StdPeriph_Driver/stm32f10x_fsmc.c ****   
 342:../../../SDK_embedded/libs/stm32/STM32F10x_StdPeriph_Driver/stm32f10x_fsmc.c ****   /* Set the PCR4 register value according to FSMC_PCCARDInitStruct parameters */
 343:../../../SDK_embedded/libs/stm32/STM32F10x_StdPeriph_Driver/stm32f10x_fsmc.c ****   FSMC_Bank4->PCR4 = (uint32_t)FSMC_PCCARDInitStruct->FSMC_Waitfeature |
 344:../../../SDK_embedded/libs/stm32/STM32F10x_StdPeriph_Driver/stm32f10x_fsmc.c ****                      FSMC_MemoryDataWidth_16b |  
 17005              		.loc 1 344 0
 17006 0000 0268     		ldr	r2, [r0, #0]
 345:../../../SDK_embedded/libs/stm32/STM32F10x_StdPeriph_Driver/stm32f10x_fsmc.c ****                      (FSMC_PCCARDInitStruct->FSMC_TCLRSetupTime << 9) |
 17007              		.loc 1 345 0
 17008 0002 4168     		ldr	r1, [r0, #4]
 346:../../../SDK_embedded/libs/stm32/STM32F10x_StdPeriph_Driver/stm32f10x_fsmc.c ****                      (FSMC_PCCARDInitStruct->FSMC_TARSetupTime << 13);
 17009              		.loc 1 346 0
 17010 0004 8368     		ldr	r3, [r0, #8]
 322:../../../SDK_embedded/libs/stm32/STM32F10x_StdPeriph_Driver/stm32f10x_fsmc.c **** {
 17011              		.loc 1 322 0
 17012 0006 10B5     		push	{r4, lr}
 17013              	.LCFI2:
 17014              		.cfi_def_cfa_offset 8
 17015              		.cfi_offset 14, -4
 17016              		.cfi_offset 4, -8
 344:../../../SDK_embedded/libs/stm32/STM32F10x_StdPeriph_Driver/stm32f10x_fsmc.c ****                      FSMC_MemoryDataWidth_16b |  
 17017              		.loc 1 344 0
 17018 0008 42F01004 		orr	r4, r2, #16
 345:../../../SDK_embedded/libs/stm32/STM32F10x_StdPeriph_Driver/stm32f10x_fsmc.c ****                      (FSMC_PCCARDInitStruct->FSMC_TCLRSetupTime << 9) |
 17019              		.loc 1 345 0
 17020 000c 44EA412C 		orr	ip, r4, r1, lsl #9
 17021 0010 4CEA4332 		orr	r2, ip, r3, lsl #13
 343:../../../SDK_embedded/libs/stm32/STM32F10x_StdPeriph_Driver/stm32f10x_fsmc.c ****   FSMC_Bank4->PCR4 = (uint32_t)FSMC_PCCARDInitStruct->FSMC_Waitfeature |
 17022              		.loc 1 343 0
 17023 0014 144B     		ldr	r3, .L27
 17024 0016 1A60     		str	r2, [r3, #0]
 347:../../../SDK_embedded/libs/stm32/STM32F10x_StdPeriph_Driver/stm32f10x_fsmc.c ****             
 348:../../../SDK_embedded/libs/stm32/STM32F10x_StdPeriph_Driver/stm32f10x_fsmc.c ****   /* Set PMEM4 register value according to FSMC_CommonSpaceTimingStructure parameters */
 349:../../../SDK_embedded/libs/stm32/STM32F10x_StdPeriph_Driver/stm32f10x_fsmc.c ****   FSMC_Bank4->PMEM4 = (uint32_t)FSMC_PCCARDInitStruct->FSMC_CommonSpaceTimingStruct->FSMC_SetupTime
 17025              		.loc 1 349 0
 17026 0018 C268     		ldr	r2, [r0, #12]
 350:../../../SDK_embedded/libs/stm32/STM32F10x_StdPeriph_Driver/stm32f10x_fsmc.c ****                       (FSMC_PCCARDInitStruct->FSMC_CommonSpaceTimingStruct->FSMC_WaitSetupTime << 8
 351:../../../SDK_embedded/libs/stm32/STM32F10x_StdPeriph_Driver/stm32f10x_fsmc.c ****                       (FSMC_PCCARDInitStruct->FSMC_CommonSpaceTimingStruct->FSMC_HoldSetupTime << 1
 17027              		.loc 1 351 0
 17028 001a 9168     		ldr	r1, [r2, #8]
 350:../../../SDK_embedded/libs/stm32/STM32F10x_StdPeriph_Driver/stm32f10x_fsmc.c ****                       (FSMC_PCCARDInitStruct->FSMC_CommonSpaceTimingStruct->FSMC_WaitSetupTime << 8
 17029              		.loc 1 350 0
 17030 001c 5468     		ldr	r4, [r2, #4]
 17031              		.loc 1 351 0
 17032 001e 0904     		lsls	r1, r1, #16
 349:../../../SDK_embedded/libs/stm32/STM32F10x_StdPeriph_Driver/stm32f10x_fsmc.c ****   FSMC_Bank4->PMEM4 = (uint32_t)FSMC_PCCARDInitStruct->FSMC_CommonSpaceTimingStruct->FSMC_SetupTime
 17033              		.loc 1 349 0
 17034 0020 41EA0421 		orr	r1, r1, r4, lsl #8
 350:../../../SDK_embedded/libs/stm32/STM32F10x_StdPeriph_Driver/stm32f10x_fsmc.c ****                       (FSMC_PCCARDInitStruct->FSMC_CommonSpaceTimingStruct->FSMC_WaitSetupTime << 8
 17035              		.loc 1 350 0
 17036 0024 1468     		ldr	r4, [r2, #0]
 17037 0026 41EA040C 		orr	ip, r1, r4
 352:../../../SDK_embedded/libs/stm32/STM32F10x_StdPeriph_Driver/stm32f10x_fsmc.c ****                       (FSMC_PCCARDInitStruct->FSMC_CommonSpaceTimingStruct->FSMC_HiZSetupTime << 24
 17038              		.loc 1 352 0
 17039 002a D468     		ldr	r4, [r2, #12]
 351:../../../SDK_embedded/libs/stm32/STM32F10x_StdPeriph_Driver/stm32f10x_fsmc.c ****                       (FSMC_PCCARDInitStruct->FSMC_CommonSpaceTimingStruct->FSMC_HoldSetupTime << 1
 17040              		.loc 1 351 0
 17041 002c 4CEA0462 		orr	r2, ip, r4, lsl #24
 349:../../../SDK_embedded/libs/stm32/STM32F10x_StdPeriph_Driver/stm32f10x_fsmc.c ****   FSMC_Bank4->PMEM4 = (uint32_t)FSMC_PCCARDInitStruct->FSMC_CommonSpaceTimingStruct->FSMC_SetupTime
 17042              		.loc 1 349 0
 17043 0030 9A60     		str	r2, [r3, #8]
 353:../../../SDK_embedded/libs/stm32/STM32F10x_StdPeriph_Driver/stm32f10x_fsmc.c ****             
 354:../../../SDK_embedded/libs/stm32/STM32F10x_StdPeriph_Driver/stm32f10x_fsmc.c ****   /* Set PATT4 register value according to FSMC_AttributeSpaceTimingStructure parameters */
 355:../../../SDK_embedded/libs/stm32/STM32F10x_StdPeriph_Driver/stm32f10x_fsmc.c ****   FSMC_Bank4->PATT4 = (uint32_t)FSMC_PCCARDInitStruct->FSMC_AttributeSpaceTimingStruct->FSMC_SetupT
 17044              		.loc 1 355 0
 17045 0032 0269     		ldr	r2, [r0, #16]
 356:../../../SDK_embedded/libs/stm32/STM32F10x_StdPeriph_Driver/stm32f10x_fsmc.c ****                       (FSMC_PCCARDInitStruct->FSMC_AttributeSpaceTimingStruct->FSMC_WaitSetupTime <
 357:../../../SDK_embedded/libs/stm32/STM32F10x_StdPeriph_Driver/stm32f10x_fsmc.c ****                       (FSMC_PCCARDInitStruct->FSMC_AttributeSpaceTimingStruct->FSMC_HoldSetupTime <
 17046              		.loc 1 357 0
 17047 0034 9168     		ldr	r1, [r2, #8]
 356:../../../SDK_embedded/libs/stm32/STM32F10x_StdPeriph_Driver/stm32f10x_fsmc.c ****                       (FSMC_PCCARDInitStruct->FSMC_AttributeSpaceTimingStruct->FSMC_WaitSetupTime <
 17048              		.loc 1 356 0
 17049 0036 5468     		ldr	r4, [r2, #4]
 17050              		.loc 1 357 0
 17051 0038 0904     		lsls	r1, r1, #16
 355:../../../SDK_embedded/libs/stm32/STM32F10x_StdPeriph_Driver/stm32f10x_fsmc.c ****   FSMC_Bank4->PATT4 = (uint32_t)FSMC_PCCARDInitStruct->FSMC_AttributeSpaceTimingStruct->FSMC_SetupT
 17052              		.loc 1 355 0
 17053 003a 41EA0421 		orr	r1, r1, r4, lsl #8
 356:../../../SDK_embedded/libs/stm32/STM32F10x_StdPeriph_Driver/stm32f10x_fsmc.c ****                       (FSMC_PCCARDInitStruct->FSMC_AttributeSpaceTimingStruct->FSMC_WaitSetupTime <
 17054              		.loc 1 356 0
 17055 003e 1468     		ldr	r4, [r2, #0]
 358:../../../SDK_embedded/libs/stm32/STM32F10x_StdPeriph_Driver/stm32f10x_fsmc.c ****                       (FSMC_PCCARDInitStruct->FSMC_AttributeSpaceTimingStruct->FSMC_HiZSetupTime <<
 17056              		.loc 1 358 0
 17057 0040 D268     		ldr	r2, [r2, #12]
 356:../../../SDK_embedded/libs/stm32/STM32F10x_StdPeriph_Driver/stm32f10x_fsmc.c ****                       (FSMC_PCCARDInitStruct->FSMC_AttributeSpaceTimingStruct->FSMC_WaitSetupTime <
 17058              		.loc 1 356 0
 17059 0042 41EA040C 		orr	ip, r1, r4
 357:../../../SDK_embedded/libs/stm32/STM32F10x_StdPeriph_Driver/stm32f10x_fsmc.c ****                       (FSMC_PCCARDInitStruct->FSMC_AttributeSpaceTimingStruct->FSMC_HoldSetupTime <
 17060              		.loc 1 357 0
 17061 0046 4CEA0262 		orr	r2, ip, r2, lsl #24
 355:../../../SDK_embedded/libs/stm32/STM32F10x_StdPeriph_Driver/stm32f10x_fsmc.c ****   FSMC_Bank4->PATT4 = (uint32_t)FSMC_PCCARDInitStruct->FSMC_AttributeSpaceTimingStruct->FSMC_SetupT
 17062              		.loc 1 355 0
 17063 004a DA60     		str	r2, [r3, #12]
 359:../../../SDK_embedded/libs/stm32/STM32F10x_StdPeriph_Driver/stm32f10x_fsmc.c ****             
 360:../../../SDK_embedded/libs/stm32/STM32F10x_StdPeriph_Driver/stm32f10x_fsmc.c ****   /* Set PIO4 register value according to FSMC_IOSpaceTimingStructure parameters */
 361:../../../SDK_embedded/libs/stm32/STM32F10x_StdPeriph_Driver/stm32f10x_fsmc.c ****   FSMC_Bank4->PIO4 = (uint32_t)FSMC_PCCARDInitStruct->FSMC_IOSpaceTimingStruct->FSMC_SetupTime |
 17064              		.loc 1 361 0
 17065 004c 4269     		ldr	r2, [r0, #20]
 362:../../../SDK_embedded/libs/stm32/STM32F10x_StdPeriph_Driver/stm32f10x_fsmc.c ****                      (FSMC_PCCARDInitStruct->FSMC_IOSpaceTimingStruct->FSMC_WaitSetupTime << 8) |
 363:../../../SDK_embedded/libs/stm32/STM32F10x_StdPeriph_Driver/stm32f10x_fsmc.c ****                      (FSMC_PCCARDInitStruct->FSMC_IOSpaceTimingStruct->FSMC_HoldSetupTime << 16)|
 17066              		.loc 1 363 0
 17067 004e 9168     		ldr	r1, [r2, #8]
 362:../../../SDK_embedded/libs/stm32/STM32F10x_StdPeriph_Driver/stm32f10x_fsmc.c ****                      (FSMC_PCCARDInitStruct->FSMC_IOSpaceTimingStruct->FSMC_WaitSetupTime << 8) |
 17068              		.loc 1 362 0
 17069 0050 5068     		ldr	r0, [r2, #4]
 17070              	.LVL10:
 17071              		.loc 1 363 0
 17072 0052 0904     		lsls	r1, r1, #16
 361:../../../SDK_embedded/libs/stm32/STM32F10x_StdPeriph_Driver/stm32f10x_fsmc.c ****   FSMC_Bank4->PIO4 = (uint32_t)FSMC_PCCARDInitStruct->FSMC_IOSpaceTimingStruct->FSMC_SetupTime |
 17073              		.loc 1 361 0
 17074 0054 41EA002C 		orr	ip, r1, r0, lsl #8
 362:../../../SDK_embedded/libs/stm32/STM32F10x_StdPeriph_Driver/stm32f10x_fsmc.c ****                      (FSMC_PCCARDInitStruct->FSMC_IOSpaceTimingStruct->FSMC_WaitSetupTime << 8) |
 17075              		.loc 1 362 0
 17076 0058 1068     		ldr	r0, [r2, #0]
 17077 005a 4CEA0001 		orr	r1, ip, r0
 364:../../../SDK_embedded/libs/stm32/STM32F10x_StdPeriph_Driver/stm32f10x_fsmc.c ****                      (FSMC_PCCARDInitStruct->FSMC_IOSpaceTimingStruct->FSMC_HiZSetupTime << 24);   
 17078              		.loc 1 364 0
 17079 005e D068     		ldr	r0, [r2, #12]
 363:../../../SDK_embedded/libs/stm32/STM32F10x_StdPeriph_Driver/stm32f10x_fsmc.c ****                      (FSMC_PCCARDInitStruct->FSMC_IOSpaceTimingStruct->FSMC_HoldSetupTime << 16)|
 17080              		.loc 1 363 0
 17081 0060 41EA0062 		orr	r2, r1, r0, lsl #24
 361:../../../SDK_embedded/libs/stm32/STM32F10x_StdPeriph_Driver/stm32f10x_fsmc.c ****   FSMC_Bank4->PIO4 = (uint32_t)FSMC_PCCARDInitStruct->FSMC_IOSpaceTimingStruct->FSMC_SetupTime |
 17082              		.loc 1 361 0
 17083 0064 1A61     		str	r2, [r3, #16]
 365:../../../SDK_embedded/libs/stm32/STM32F10x_StdPeriph_Driver/stm32f10x_fsmc.c **** }
 17084              		.loc 1 365 0
 17085 0066 10BD     		pop	{r4, pc}
 17086              	.L28:
 17087              		.align	2
 17088              	.L27:
 17089 0068 A00000A0 		.word	-1610612576
 17090              		.cfi_endproc
 17091              	.LFE34:
 17093              		.section	.text.FSMC_NORSRAMStructInit,"ax",%progbits
 17094              		.align	1
 17095              		.global	FSMC_NORSRAMStructInit
 17096              		.thumb
 17097              		.thumb_func
 17099              	FSMC_NORSRAMStructInit:
 17100              	.LFB35:
 366:../../../SDK_embedded/libs/stm32/STM32F10x_StdPeriph_Driver/stm32f10x_fsmc.c **** 
 367:../../../SDK_embedded/libs/stm32/STM32F10x_StdPeriph_Driver/stm32f10x_fsmc.c **** /**
 368:../../../SDK_embedded/libs/stm32/STM32F10x_StdPeriph_Driver/stm32f10x_fsmc.c ****   * @brief  Fills each FSMC_NORSRAMInitStruct member with its default value.
 369:../../../SDK_embedded/libs/stm32/STM32F10x_StdPeriph_Driver/stm32f10x_fsmc.c ****   * @param  FSMC_NORSRAMInitStruct: pointer to a FSMC_NORSRAMInitTypeDef 
 370:../../../SDK_embedded/libs/stm32/STM32F10x_StdPeriph_Driver/stm32f10x_fsmc.c ****   *   structure which will be initialized.
 371:../../../SDK_embedded/libs/stm32/STM32F10x_StdPeriph_Driver/stm32f10x_fsmc.c ****   * @retval None
 372:../../../SDK_embedded/libs/stm32/STM32F10x_StdPeriph_Driver/stm32f10x_fsmc.c ****   */
 373:../../../SDK_embedded/libs/stm32/STM32F10x_StdPeriph_Driver/stm32f10x_fsmc.c **** void FSMC_NORSRAMStructInit(FSMC_NORSRAMInitTypeDef* FSMC_NORSRAMInitStruct)
 374:../../../SDK_embedded/libs/stm32/STM32F10x_StdPeriph_Driver/stm32f10x_fsmc.c **** {  
 17101              		.loc 1 374 0
 17102              		.cfi_startproc
 17103              		@ args = 0, pretend = 0, frame = 0
 17104              		@ frame_needed = 0, uses_anonymous_args = 0
 17105              	.LVL11:
 375:../../../SDK_embedded/libs/stm32/STM32F10x_StdPeriph_Driver/stm32f10x_fsmc.c ****   /* Reset NOR/SRAM Init structure parameters values */
 376:../../../SDK_embedded/libs/stm32/STM32F10x_StdPeriph_Driver/stm32f10x_fsmc.c ****   FSMC_NORSRAMInitStruct->FSMC_Bank = FSMC_Bank1_NORSRAM1;
 377:../../../SDK_embedded/libs/stm32/STM32F10x_StdPeriph_Driver/stm32f10x_fsmc.c ****   FSMC_NORSRAMInitStruct->FSMC_DataAddressMux = FSMC_DataAddressMux_Enable;
 17106              		.loc 1 377 0
 17107 0000 0221     		movs	r1, #2
 374:../../../SDK_embedded/libs/stm32/STM32F10x_StdPeriph_Driver/stm32f10x_fsmc.c **** {  
 17108              		.loc 1 374 0
 17109 0002 10B5     		push	{r4, lr}
 17110              	.LCFI3:
 17111              		.cfi_def_cfa_offset 8
 17112              		.cfi_offset 14, -4
 17113              		.cfi_offset 4, -8
 17114              		.loc 1 377 0
 17115 0004 4160     		str	r1, [r0, #4]
 378:../../../SDK_embedded/libs/stm32/STM32F10x_StdPeriph_Driver/stm32f10x_fsmc.c ****   FSMC_NORSRAMInitStruct->FSMC_MemoryType = FSMC_MemoryType_SRAM;
 379:../../../SDK_embedded/libs/stm32/STM32F10x_StdPeriph_Driver/stm32f10x_fsmc.c ****   FSMC_NORSRAMInitStruct->FSMC_MemoryDataWidth = FSMC_MemoryDataWidth_8b;
 380:../../../SDK_embedded/libs/stm32/STM32F10x_StdPeriph_Driver/stm32f10x_fsmc.c ****   FSMC_NORSRAMInitStruct->FSMC_BurstAccessMode = FSMC_BurstAccessMode_Disable;
 381:../../../SDK_embedded/libs/stm32/STM32F10x_StdPeriph_Driver/stm32f10x_fsmc.c ****   FSMC_NORSRAMInitStruct->FSMC_WaitSignalPolarity = FSMC_WaitSignalPolarity_Low;
 382:../../../SDK_embedded/libs/stm32/STM32F10x_StdPeriph_Driver/stm32f10x_fsmc.c ****   FSMC_NORSRAMInitStruct->FSMC_WrapMode = FSMC_WrapMode_Disable;
 383:../../../SDK_embedded/libs/stm32/STM32F10x_StdPeriph_Driver/stm32f10x_fsmc.c ****   FSMC_NORSRAMInitStruct->FSMC_WaitSignalActive = FSMC_WaitSignalActive_BeforeWaitState;
 384:../../../SDK_embedded/libs/stm32/STM32F10x_StdPeriph_Driver/stm32f10x_fsmc.c ****   FSMC_NORSRAMInitStruct->FSMC_WriteOperation = FSMC_WriteOperation_Enable;
 17116              		.loc 1 384 0
 17117 0006 4FF48052 		mov	r2, #4096
 385:../../../SDK_embedded/libs/stm32/STM32F10x_StdPeriph_Driver/stm32f10x_fsmc.c ****   FSMC_NORSRAMInitStruct->FSMC_WaitSignal = FSMC_WaitSignal_Enable;
 386:../../../SDK_embedded/libs/stm32/STM32F10x_StdPeriph_Driver/stm32f10x_fsmc.c ****   FSMC_NORSRAMInitStruct->FSMC_ExtendedMode = FSMC_ExtendedMode_Disable;
 387:../../../SDK_embedded/libs/stm32/STM32F10x_StdPeriph_Driver/stm32f10x_fsmc.c ****   FSMC_NORSRAMInitStruct->FSMC_WriteBurst = FSMC_WriteBurst_Disable;
 388:../../../SDK_embedded/libs/stm32/STM32F10x_StdPeriph_Driver/stm32f10x_fsmc.c ****   FSMC_NORSRAMInitStruct->FSMC_ReadWriteTimingStruct->FSMC_AddressSetupTime = 0xF;
 17118              		.loc 1 388 0
 17119 000a 016B     		ldr	r1, [r0, #48]
 385:../../../SDK_embedded/libs/stm32/STM32F10x_StdPeriph_Driver/stm32f10x_fsmc.c ****   FSMC_NORSRAMInitStruct->FSMC_WaitSignal = FSMC_WaitSignal_Enable;
 17120              		.loc 1 385 0
 17121 000c 4FF40054 		mov	r4, #8192
 384:../../../SDK_embedded/libs/stm32/STM32F10x_StdPeriph_Driver/stm32f10x_fsmc.c ****   FSMC_NORSRAMInitStruct->FSMC_WriteOperation = FSMC_WriteOperation_Enable;
 17122              		.loc 1 384 0
 17123 0010 0262     		str	r2, [r0, #32]
 385:../../../SDK_embedded/libs/stm32/STM32F10x_StdPeriph_Driver/stm32f10x_fsmc.c ****   FSMC_NORSRAMInitStruct->FSMC_WaitSignal = FSMC_WaitSignal_Enable;
 17124              		.loc 1 385 0
 17125 0012 4462     		str	r4, [r0, #36]
 376:../../../SDK_embedded/libs/stm32/STM32F10x_StdPeriph_Driver/stm32f10x_fsmc.c ****   FSMC_NORSRAMInitStruct->FSMC_Bank = FSMC_Bank1_NORSRAM1;
 17126              		.loc 1 376 0
 17127 0014 0023     		movs	r3, #0
 17128              		.loc 1 388 0
 17129 0016 0F22     		movs	r2, #15
 389:../../../SDK_embedded/libs/stm32/STM32F10x_StdPeriph_Driver/stm32f10x_fsmc.c ****   FSMC_NORSRAMInitStruct->FSMC_ReadWriteTimingStruct->FSMC_AddressHoldTime = 0xF;
 390:../../../SDK_embedded/libs/stm32/STM32F10x_StdPeriph_Driver/stm32f10x_fsmc.c ****   FSMC_NORSRAMInitStruct->FSMC_ReadWriteTimingStruct->FSMC_DataSetupTime = 0xFF;
 17130              		.loc 1 390 0
 17131 0018 FF24     		movs	r4, #255
 376:../../../SDK_embedded/libs/stm32/STM32F10x_StdPeriph_Driver/stm32f10x_fsmc.c ****   FSMC_NORSRAMInitStruct->FSMC_Bank = FSMC_Bank1_NORSRAM1;
 17132              		.loc 1 376 0
 17133 001a 0360     		str	r3, [r0, #0]
 378:../../../SDK_embedded/libs/stm32/STM32F10x_StdPeriph_Driver/stm32f10x_fsmc.c ****   FSMC_NORSRAMInitStruct->FSMC_MemoryType = FSMC_MemoryType_SRAM;
 17134              		.loc 1 378 0
 17135 001c 8360     		str	r3, [r0, #8]
 379:../../../SDK_embedded/libs/stm32/STM32F10x_StdPeriph_Driver/stm32f10x_fsmc.c ****   FSMC_NORSRAMInitStruct->FSMC_MemoryDataWidth = FSMC_MemoryDataWidth_8b;
 17136              		.loc 1 379 0
 17137 001e C360     		str	r3, [r0, #12]
 380:../../../SDK_embedded/libs/stm32/STM32F10x_StdPeriph_Driver/stm32f10x_fsmc.c ****   FSMC_NORSRAMInitStruct->FSMC_BurstAccessMode = FSMC_BurstAccessMode_Disable;
 17138              		.loc 1 380 0
 17139 0020 0361     		str	r3, [r0, #16]
 381:../../../SDK_embedded/libs/stm32/STM32F10x_StdPeriph_Driver/stm32f10x_fsmc.c ****   FSMC_NORSRAMInitStruct->FSMC_WaitSignalPolarity = FSMC_WaitSignalPolarity_Low;
 17140              		.loc 1 381 0
 17141 0022 4361     		str	r3, [r0, #20]
 382:../../../SDK_embedded/libs/stm32/STM32F10x_StdPeriph_Driver/stm32f10x_fsmc.c ****   FSMC_NORSRAMInitStruct->FSMC_WrapMode = FSMC_WrapMode_Disable;
 17142              		.loc 1 382 0
 17143 0024 8361     		str	r3, [r0, #24]
 383:../../../SDK_embedded/libs/stm32/STM32F10x_StdPeriph_Driver/stm32f10x_fsmc.c ****   FSMC_NORSRAMInitStruct->FSMC_WaitSignalActive = FSMC_WaitSignalActive_BeforeWaitState;
 17144              		.loc 1 383 0
 17145 0026 C361     		str	r3, [r0, #28]
 386:../../../SDK_embedded/libs/stm32/STM32F10x_StdPeriph_Driver/stm32f10x_fsmc.c ****   FSMC_NORSRAMInitStruct->FSMC_ExtendedMode = FSMC_ExtendedMode_Disable;
 17146              		.loc 1 386 0
 17147 0028 8362     		str	r3, [r0, #40]
 387:../../../SDK_embedded/libs/stm32/STM32F10x_StdPeriph_Driver/stm32f10x_fsmc.c ****   FSMC_NORSRAMInitStruct->FSMC_WriteBurst = FSMC_WriteBurst_Disable;
 17148              		.loc 1 387 0
 17149 002a C362     		str	r3, [r0, #44]
 388:../../../SDK_embedded/libs/stm32/STM32F10x_StdPeriph_Driver/stm32f10x_fsmc.c ****   FSMC_NORSRAMInitStruct->FSMC_ReadWriteTimingStruct->FSMC_AddressSetupTime = 0xF;
 17150              		.loc 1 388 0
 17151 002c 0A60     		str	r2, [r1, #0]
 389:../../../SDK_embedded/libs/stm32/STM32F10x_StdPeriph_Driver/stm32f10x_fsmc.c ****   FSMC_NORSRAMInitStruct->FSMC_ReadWriteTimingStruct->FSMC_AddressHoldTime = 0xF;
 17152              		.loc 1 389 0
 17153 002e 4A60     		str	r2, [r1, #4]
 17154              		.loc 1 390 0
 17155 0030 8C60     		str	r4, [r1, #8]
 391:../../../SDK_embedded/libs/stm32/STM32F10x_StdPeriph_Driver/stm32f10x_fsmc.c ****   FSMC_NORSRAMInitStruct->FSMC_ReadWriteTimingStruct->FSMC_BusTurnAroundDuration = 0xF;
 17156              		.loc 1 391 0
 17157 0032 CA60     		str	r2, [r1, #12]
 392:../../../SDK_embedded/libs/stm32/STM32F10x_StdPeriph_Driver/stm32f10x_fsmc.c ****   FSMC_NORSRAMInitStruct->FSMC_ReadWriteTimingStruct->FSMC_CLKDivision = 0xF;
 17158              		.loc 1 392 0
 17159 0034 0A61     		str	r2, [r1, #16]
 393:../../../SDK_embedded/libs/stm32/STM32F10x_StdPeriph_Driver/stm32f10x_fsmc.c ****   FSMC_NORSRAMInitStruct->FSMC_ReadWriteTimingStruct->FSMC_DataLatency = 0xF;
 17160              		.loc 1 393 0
 17161 0036 4A61     		str	r2, [r1, #20]
 394:../../../SDK_embedded/libs/stm32/STM32F10x_StdPeriph_Driver/stm32f10x_fsmc.c ****   FSMC_NORSRAMInitStruct->FSMC_ReadWriteTimingStruct->FSMC_AccessMode = FSMC_AccessMode_A; 
 17162              		.loc 1 394 0
 17163 0038 8B61     		str	r3, [r1, #24]
 395:../../../SDK_embedded/libs/stm32/STM32F10x_StdPeriph_Driver/stm32f10x_fsmc.c ****   FSMC_NORSRAMInitStruct->FSMC_WriteTimingStruct->FSMC_AddressSetupTime = 0xF;
 17164              		.loc 1 395 0
 17165 003a 416B     		ldr	r1, [r0, #52]
 17166 003c 0A60     		str	r2, [r1, #0]
 396:../../../SDK_embedded/libs/stm32/STM32F10x_StdPeriph_Driver/stm32f10x_fsmc.c ****   FSMC_NORSRAMInitStruct->FSMC_WriteTimingStruct->FSMC_AddressHoldTime = 0xF;
 17167              		.loc 1 396 0
 17168 003e 4A60     		str	r2, [r1, #4]
 397:../../../SDK_embedded/libs/stm32/STM32F10x_StdPeriph_Driver/stm32f10x_fsmc.c ****   FSMC_NORSRAMInitStruct->FSMC_WriteTimingStruct->FSMC_DataSetupTime = 0xFF;
 17169              		.loc 1 397 0
 17170 0040 8C60     		str	r4, [r1, #8]
 398:../../../SDK_embedded/libs/stm32/STM32F10x_StdPeriph_Driver/stm32f10x_fsmc.c ****   FSMC_NORSRAMInitStruct->FSMC_WriteTimingStruct->FSMC_BusTurnAroundDuration = 0xF;
 17171              		.loc 1 398 0
 17172 0042 CA60     		str	r2, [r1, #12]
 399:../../../SDK_embedded/libs/stm32/STM32F10x_StdPeriph_Driver/stm32f10x_fsmc.c ****   FSMC_NORSRAMInitStruct->FSMC_WriteTimingStruct->FSMC_CLKDivision = 0xF;
 17173              		.loc 1 399 0
 17174 0044 0A61     		str	r2, [r1, #16]
 400:../../../SDK_embedded/libs/stm32/STM32F10x_StdPeriph_Driver/stm32f10x_fsmc.c ****   FSMC_NORSRAMInitStruct->FSMC_WriteTimingStruct->FSMC_DataLatency = 0xF;
 17175              		.loc 1 400 0
 17176 0046 4A61     		str	r2, [r1, #20]
 401:../../../SDK_embedded/libs/stm32/STM32F10x_StdPeriph_Driver/stm32f10x_fsmc.c ****   FSMC_NORSRAMInitStruct->FSMC_WriteTimingStruct->FSMC_AccessMode = FSMC_AccessMode_A;
 17177              		.loc 1 401 0
 17178 0048 8B61     		str	r3, [r1, #24]
 402:../../../SDK_embedded/libs/stm32/STM32F10x_StdPeriph_Driver/stm32f10x_fsmc.c **** }
 17179              		.loc 1 402 0
 17180 004a 10BD     		pop	{r4, pc}
 17181              		.cfi_endproc
 17182              	.LFE35:
 17184              		.section	.text.FSMC_NANDStructInit,"ax",%progbits
 17185              		.align	1
 17186              		.global	FSMC_NANDStructInit
 17187              		.thumb
 17188              		.thumb_func
 17190              	FSMC_NANDStructInit:
 17191              	.LFB36:
 403:../../../SDK_embedded/libs/stm32/STM32F10x_StdPeriph_Driver/stm32f10x_fsmc.c **** 
 404:../../../SDK_embedded/libs/stm32/STM32F10x_StdPeriph_Driver/stm32f10x_fsmc.c **** /**
 405:../../../SDK_embedded/libs/stm32/STM32F10x_StdPeriph_Driver/stm32f10x_fsmc.c ****   * @brief  Fills each FSMC_NANDInitStruct member with its default value.
 406:../../../SDK_embedded/libs/stm32/STM32F10x_StdPeriph_Driver/stm32f10x_fsmc.c ****   * @param  FSMC_NANDInitStruct: pointer to a FSMC_NANDInitTypeDef 
 407:../../../SDK_embedded/libs/stm32/STM32F10x_StdPeriph_Driver/stm32f10x_fsmc.c ****   *   structure which will be initialized.
 408:../../../SDK_embedded/libs/stm32/STM32F10x_StdPeriph_Driver/stm32f10x_fsmc.c ****   * @retval None
 409:../../../SDK_embedded/libs/stm32/STM32F10x_StdPeriph_Driver/stm32f10x_fsmc.c ****   */
 410:../../../SDK_embedded/libs/stm32/STM32F10x_StdPeriph_Driver/stm32f10x_fsmc.c **** void FSMC_NANDStructInit(FSMC_NANDInitTypeDef* FSMC_NANDInitStruct)
 411:../../../SDK_embedded/libs/stm32/STM32F10x_StdPeriph_Driver/stm32f10x_fsmc.c **** { 
 17192              		.loc 1 411 0
 17193              		.cfi_startproc
 17194              		@ args = 0, pretend = 0, frame = 0
 17195              		@ frame_needed = 0, uses_anonymous_args = 0
 17196              		@ link register save eliminated.
 17197              	.LVL12:
 412:../../../SDK_embedded/libs/stm32/STM32F10x_StdPeriph_Driver/stm32f10x_fsmc.c ****   /* Reset NAND Init structure parameters values */
 413:../../../SDK_embedded/libs/stm32/STM32F10x_StdPeriph_Driver/stm32f10x_fsmc.c ****   FSMC_NANDInitStruct->FSMC_Bank = FSMC_Bank2_NAND;
 414:../../../SDK_embedded/libs/stm32/STM32F10x_StdPeriph_Driver/stm32f10x_fsmc.c ****   FSMC_NANDInitStruct->FSMC_Waitfeature = FSMC_Waitfeature_Disable;
 17198              		.loc 1 414 0
 17199 0000 0022     		movs	r2, #0
 17200 0002 4260     		str	r2, [r0, #4]
 415:../../../SDK_embedded/libs/stm32/STM32F10x_StdPeriph_Driver/stm32f10x_fsmc.c ****   FSMC_NANDInitStruct->FSMC_MemoryDataWidth = FSMC_MemoryDataWidth_8b;
 17201              		.loc 1 415 0
 17202 0004 8260     		str	r2, [r0, #8]
 416:../../../SDK_embedded/libs/stm32/STM32F10x_StdPeriph_Driver/stm32f10x_fsmc.c ****   FSMC_NANDInitStruct->FSMC_ECC = FSMC_ECC_Disable;
 17203              		.loc 1 416 0
 17204 0006 C260     		str	r2, [r0, #12]
 417:../../../SDK_embedded/libs/stm32/STM32F10x_StdPeriph_Driver/stm32f10x_fsmc.c ****   FSMC_NANDInitStruct->FSMC_ECCPageSize = FSMC_ECCPageSize_256Bytes;
 17205              		.loc 1 417 0
 17206 0008 0261     		str	r2, [r0, #16]
 418:../../../SDK_embedded/libs/stm32/STM32F10x_StdPeriph_Driver/stm32f10x_fsmc.c ****   FSMC_NANDInitStruct->FSMC_TCLRSetupTime = 0x0;
 17207              		.loc 1 418 0
 17208 000a 4261     		str	r2, [r0, #20]
 419:../../../SDK_embedded/libs/stm32/STM32F10x_StdPeriph_Driver/stm32f10x_fsmc.c ****   FSMC_NANDInitStruct->FSMC_TARSetupTime = 0x0;
 17209              		.loc 1 419 0
 17210 000c 8261     		str	r2, [r0, #24]
 420:../../../SDK_embedded/libs/stm32/STM32F10x_StdPeriph_Driver/stm32f10x_fsmc.c ****   FSMC_NANDInitStruct->FSMC_CommonSpaceTimingStruct->FSMC_SetupTime = 0xFC;
 17211              		.loc 1 420 0
 17212 000e C169     		ldr	r1, [r0, #28]
 421:../../../SDK_embedded/libs/stm32/STM32F10x_StdPeriph_Driver/stm32f10x_fsmc.c ****   FSMC_NANDInitStruct->FSMC_CommonSpaceTimingStruct->FSMC_WaitSetupTime = 0xFC;
 422:../../../SDK_embedded/libs/stm32/STM32F10x_StdPeriph_Driver/stm32f10x_fsmc.c ****   FSMC_NANDInitStruct->FSMC_CommonSpaceTimingStruct->FSMC_HoldSetupTime = 0xFC;
 423:../../../SDK_embedded/libs/stm32/STM32F10x_StdPeriph_Driver/stm32f10x_fsmc.c ****   FSMC_NANDInitStruct->FSMC_CommonSpaceTimingStruct->FSMC_HiZSetupTime = 0xFC;
 424:../../../SDK_embedded/libs/stm32/STM32F10x_StdPeriph_Driver/stm32f10x_fsmc.c ****   FSMC_NANDInitStruct->FSMC_AttributeSpaceTimingStruct->FSMC_SetupTime = 0xFC;
 17213              		.loc 1 424 0
 17214 0010 026A     		ldr	r2, [r0, #32]
 413:../../../SDK_embedded/libs/stm32/STM32F10x_StdPeriph_Driver/stm32f10x_fsmc.c ****   FSMC_NANDInitStruct->FSMC_Bank = FSMC_Bank2_NAND;
 17215              		.loc 1 413 0
 17216 0012 1023     		movs	r3, #16
 17217 0014 0360     		str	r3, [r0, #0]
 420:../../../SDK_embedded/libs/stm32/STM32F10x_StdPeriph_Driver/stm32f10x_fsmc.c ****   FSMC_NANDInitStruct->FSMC_CommonSpaceTimingStruct->FSMC_SetupTime = 0xFC;
 17218              		.loc 1 420 0
 17219 0016 FC23     		movs	r3, #252
 17220 0018 0B60     		str	r3, [r1, #0]
 421:../../../SDK_embedded/libs/stm32/STM32F10x_StdPeriph_Driver/stm32f10x_fsmc.c ****   FSMC_NANDInitStruct->FSMC_CommonSpaceTimingStruct->FSMC_WaitSetupTime = 0xFC;
 17221              		.loc 1 421 0
 17222 001a 4B60     		str	r3, [r1, #4]
 422:../../../SDK_embedded/libs/stm32/STM32F10x_StdPeriph_Driver/stm32f10x_fsmc.c ****   FSMC_NANDInitStruct->FSMC_CommonSpaceTimingStruct->FSMC_HoldSetupTime = 0xFC;
 17223              		.loc 1 422 0
 17224 001c 8B60     		str	r3, [r1, #8]
 423:../../../SDK_embedded/libs/stm32/STM32F10x_StdPeriph_Driver/stm32f10x_fsmc.c ****   FSMC_NANDInitStruct->FSMC_CommonSpaceTimingStruct->FSMC_HiZSetupTime = 0xFC;
 17225              		.loc 1 423 0
 17226 001e CB60     		str	r3, [r1, #12]
 17227              		.loc 1 424 0
 17228 0020 1360     		str	r3, [r2, #0]
 425:../../../SDK_embedded/libs/stm32/STM32F10x_StdPeriph_Driver/stm32f10x_fsmc.c ****   FSMC_NANDInitStruct->FSMC_AttributeSpaceTimingStruct->FSMC_WaitSetupTime = 0xFC;
 17229              		.loc 1 425 0
 17230 0022 5360     		str	r3, [r2, #4]
 426:../../../SDK_embedded/libs/stm32/STM32F10x_StdPeriph_Driver/stm32f10x_fsmc.c ****   FSMC_NANDInitStruct->FSMC_AttributeSpaceTimingStruct->FSMC_HoldSetupTime = 0xFC;
 17231              		.loc 1 426 0
 17232 0024 9360     		str	r3, [r2, #8]
 427:../../../SDK_embedded/libs/stm32/STM32F10x_StdPeriph_Driver/stm32f10x_fsmc.c ****   FSMC_NANDInitStruct->FSMC_AttributeSpaceTimingStruct->FSMC_HiZSetupTime = 0xFC;	  
 17233              		.loc 1 427 0
 17234 0026 D360     		str	r3, [r2, #12]
 428:../../../SDK_embedded/libs/stm32/STM32F10x_StdPeriph_Driver/stm32f10x_fsmc.c **** }
 17235              		.loc 1 428 0
 17236 0028 7047     		bx	lr
 17237              		.cfi_endproc
 17238              	.LFE36:
 17240              		.section	.text.FSMC_PCCARDStructInit,"ax",%progbits
 17241              		.align	1
 17242              		.global	FSMC_PCCARDStructInit
 17243              		.thumb
 17244              		.thumb_func
 17246              	FSMC_PCCARDStructInit:
 17247              	.LFB37:
 429:../../../SDK_embedded/libs/stm32/STM32F10x_StdPeriph_Driver/stm32f10x_fsmc.c **** 
 430:../../../SDK_embedded/libs/stm32/STM32F10x_StdPeriph_Driver/stm32f10x_fsmc.c **** /**
 431:../../../SDK_embedded/libs/stm32/STM32F10x_StdPeriph_Driver/stm32f10x_fsmc.c ****   * @brief  Fills each FSMC_PCCARDInitStruct member with its default value.
 432:../../../SDK_embedded/libs/stm32/STM32F10x_StdPeriph_Driver/stm32f10x_fsmc.c ****   * @param  FSMC_PCCARDInitStruct: pointer to a FSMC_PCCARDInitTypeDef 
 433:../../../SDK_embedded/libs/stm32/STM32F10x_StdPeriph_Driver/stm32f10x_fsmc.c ****   *   structure which will be initialized.
 434:../../../SDK_embedded/libs/stm32/STM32F10x_StdPeriph_Driver/stm32f10x_fsmc.c ****   * @retval None
 435:../../../SDK_embedded/libs/stm32/STM32F10x_StdPeriph_Driver/stm32f10x_fsmc.c ****   */
 436:../../../SDK_embedded/libs/stm32/STM32F10x_StdPeriph_Driver/stm32f10x_fsmc.c **** void FSMC_PCCARDStructInit(FSMC_PCCARDInitTypeDef* FSMC_PCCARDInitStruct)
 437:../../../SDK_embedded/libs/stm32/STM32F10x_StdPeriph_Driver/stm32f10x_fsmc.c **** {
 17248              		.loc 1 437 0
 17249              		.cfi_startproc
 17250              		@ args = 0, pretend = 0, frame = 0
 17251              		@ frame_needed = 0, uses_anonymous_args = 0
 17252              		@ link register save eliminated.
 17253              	.LVL13:
 438:../../../SDK_embedded/libs/stm32/STM32F10x_StdPeriph_Driver/stm32f10x_fsmc.c ****   /* Reset PCCARD Init structure parameters values */
 439:../../../SDK_embedded/libs/stm32/STM32F10x_StdPeriph_Driver/stm32f10x_fsmc.c ****   FSMC_PCCARDInitStruct->FSMC_Waitfeature = FSMC_Waitfeature_Disable;
 440:../../../SDK_embedded/libs/stm32/STM32F10x_StdPeriph_Driver/stm32f10x_fsmc.c ****   FSMC_PCCARDInitStruct->FSMC_TCLRSetupTime = 0x0;
 441:../../../SDK_embedded/libs/stm32/STM32F10x_StdPeriph_Driver/stm32f10x_fsmc.c ****   FSMC_PCCARDInitStruct->FSMC_TARSetupTime = 0x0;
 442:../../../SDK_embedded/libs/stm32/STM32F10x_StdPeriph_Driver/stm32f10x_fsmc.c ****   FSMC_PCCARDInitStruct->FSMC_CommonSpaceTimingStruct->FSMC_SetupTime = 0xFC;
 17254              		.loc 1 442 0
 17255 0000 C268     		ldr	r2, [r0, #12]
 439:../../../SDK_embedded/libs/stm32/STM32F10x_StdPeriph_Driver/stm32f10x_fsmc.c ****   FSMC_PCCARDInitStruct->FSMC_Waitfeature = FSMC_Waitfeature_Disable;
 17256              		.loc 1 439 0
 17257 0002 0023     		movs	r3, #0
 17258 0004 0360     		str	r3, [r0, #0]
 440:../../../SDK_embedded/libs/stm32/STM32F10x_StdPeriph_Driver/stm32f10x_fsmc.c ****   FSMC_PCCARDInitStruct->FSMC_TCLRSetupTime = 0x0;
 17259              		.loc 1 440 0
 17260 0006 4360     		str	r3, [r0, #4]
 441:../../../SDK_embedded/libs/stm32/STM32F10x_StdPeriph_Driver/stm32f10x_fsmc.c ****   FSMC_PCCARDInitStruct->FSMC_TARSetupTime = 0x0;
 17261              		.loc 1 441 0
 17262 0008 8360     		str	r3, [r0, #8]
 17263              		.loc 1 442 0
 17264 000a FC23     		movs	r3, #252
 443:../../../SDK_embedded/libs/stm32/STM32F10x_StdPeriph_Driver/stm32f10x_fsmc.c ****   FSMC_PCCARDInitStruct->FSMC_CommonSpaceTimingStruct->FSMC_WaitSetupTime = 0xFC;
 444:../../../SDK_embedded/libs/stm32/STM32F10x_StdPeriph_Driver/stm32f10x_fsmc.c ****   FSMC_PCCARDInitStruct->FSMC_CommonSpaceTimingStruct->FSMC_HoldSetupTime = 0xFC;
 445:../../../SDK_embedded/libs/stm32/STM32F10x_StdPeriph_Driver/stm32f10x_fsmc.c ****   FSMC_PCCARDInitStruct->FSMC_CommonSpaceTimingStruct->FSMC_HiZSetupTime = 0xFC;
 446:../../../SDK_embedded/libs/stm32/STM32F10x_StdPeriph_Driver/stm32f10x_fsmc.c ****   FSMC_PCCARDInitStruct->FSMC_AttributeSpaceTimingStruct->FSMC_SetupTime = 0xFC;
 17265              		.loc 1 446 0
 17266 000c 0169     		ldr	r1, [r0, #16]
 442:../../../SDK_embedded/libs/stm32/STM32F10x_StdPeriph_Driver/stm32f10x_fsmc.c ****   FSMC_PCCARDInitStruct->FSMC_CommonSpaceTimingStruct->FSMC_SetupTime = 0xFC;
 17267              		.loc 1 442 0
 17268 000e 1360     		str	r3, [r2, #0]
 443:../../../SDK_embedded/libs/stm32/STM32F10x_StdPeriph_Driver/stm32f10x_fsmc.c ****   FSMC_PCCARDInitStruct->FSMC_CommonSpaceTimingStruct->FSMC_WaitSetupTime = 0xFC;
 17269              		.loc 1 443 0
 17270 0010 5360     		str	r3, [r2, #4]
 444:../../../SDK_embedded/libs/stm32/STM32F10x_StdPeriph_Driver/stm32f10x_fsmc.c ****   FSMC_PCCARDInitStruct->FSMC_CommonSpaceTimingStruct->FSMC_HoldSetupTime = 0xFC;
 17271              		.loc 1 444 0
 17272 0012 9360     		str	r3, [r2, #8]
 445:../../../SDK_embedded/libs/stm32/STM32F10x_StdPeriph_Driver/stm32f10x_fsmc.c ****   FSMC_PCCARDInitStruct->FSMC_CommonSpaceTimingStruct->FSMC_HiZSetupTime = 0xFC;
 17273              		.loc 1 445 0
 17274 0014 D360     		str	r3, [r2, #12]
 447:../../../SDK_embedded/libs/stm32/STM32F10x_StdPeriph_Driver/stm32f10x_fsmc.c ****   FSMC_PCCARDInitStruct->FSMC_AttributeSpaceTimingStruct->FSMC_WaitSetupTime = 0xFC;
 448:../../../SDK_embedded/libs/stm32/STM32F10x_StdPeriph_Driver/stm32f10x_fsmc.c ****   FSMC_PCCARDInitStruct->FSMC_AttributeSpaceTimingStruct->FSMC_HoldSetupTime = 0xFC;
 449:../../../SDK_embedded/libs/stm32/STM32F10x_StdPeriph_Driver/stm32f10x_fsmc.c ****   FSMC_PCCARDInitStruct->FSMC_AttributeSpaceTimingStruct->FSMC_HiZSetupTime = 0xFC;	
 450:../../../SDK_embedded/libs/stm32/STM32F10x_StdPeriph_Driver/stm32f10x_fsmc.c ****   FSMC_PCCARDInitStruct->FSMC_IOSpaceTimingStruct->FSMC_SetupTime = 0xFC;
 17275              		.loc 1 450 0
 17276 0016 4269     		ldr	r2, [r0, #20]
 446:../../../SDK_embedded/libs/stm32/STM32F10x_StdPeriph_Driver/stm32f10x_fsmc.c ****   FSMC_PCCARDInitStruct->FSMC_AttributeSpaceTimingStruct->FSMC_SetupTime = 0xFC;
 17277              		.loc 1 446 0
 17278 0018 0B60     		str	r3, [r1, #0]
 447:../../../SDK_embedded/libs/stm32/STM32F10x_StdPeriph_Driver/stm32f10x_fsmc.c ****   FSMC_PCCARDInitStruct->FSMC_AttributeSpaceTimingStruct->FSMC_WaitSetupTime = 0xFC;
 17279              		.loc 1 447 0
 17280 001a 4B60     		str	r3, [r1, #4]
 448:../../../SDK_embedded/libs/stm32/STM32F10x_StdPeriph_Driver/stm32f10x_fsmc.c ****   FSMC_PCCARDInitStruct->FSMC_AttributeSpaceTimingStruct->FSMC_HoldSetupTime = 0xFC;
 17281              		.loc 1 448 0
 17282 001c 8B60     		str	r3, [r1, #8]
 449:../../../SDK_embedded/libs/stm32/STM32F10x_StdPeriph_Driver/stm32f10x_fsmc.c ****   FSMC_PCCARDInitStruct->FSMC_AttributeSpaceTimingStruct->FSMC_HiZSetupTime = 0xFC;	
 17283              		.loc 1 449 0
 17284 001e CB60     		str	r3, [r1, #12]
 17285              		.loc 1 450 0
 17286 0020 1360     		str	r3, [r2, #0]
 451:../../../SDK_embedded/libs/stm32/STM32F10x_StdPeriph_Driver/stm32f10x_fsmc.c ****   FSMC_PCCARDInitStruct->FSMC_IOSpaceTimingStruct->FSMC_WaitSetupTime = 0xFC;
 17287              		.loc 1 451 0
 17288 0022 5360     		str	r3, [r2, #4]
 452:../../../SDK_embedded/libs/stm32/STM32F10x_StdPeriph_Driver/stm32f10x_fsmc.c ****   FSMC_PCCARDInitStruct->FSMC_IOSpaceTimingStruct->FSMC_HoldSetupTime = 0xFC;
 17289              		.loc 1 452 0
 17290 0024 9360     		str	r3, [r2, #8]
 453:../../../SDK_embedded/libs/stm32/STM32F10x_StdPeriph_Driver/stm32f10x_fsmc.c ****   FSMC_PCCARDInitStruct->FSMC_IOSpaceTimingStruct->FSMC_HiZSetupTime = 0xFC;
 17291              		.loc 1 453 0
 17292 0026 D360     		str	r3, [r2, #12]
 454:../../../SDK_embedded/libs/stm32/STM32F10x_StdPeriph_Driver/stm32f10x_fsmc.c **** }
 17293              		.loc 1 454 0
 17294 0028 7047     		bx	lr
 17295              		.cfi_endproc
 17296              	.LFE37:
 17298              		.section	.text.FSMC_NORSRAMCmd,"ax",%progbits
 17299              		.align	1
 17300              		.global	FSMC_NORSRAMCmd
 17301              		.thumb
 17302              		.thumb_func
 17304              	FSMC_NORSRAMCmd:
 17305              	.LFB38:
 455:../../../SDK_embedded/libs/stm32/STM32F10x_StdPeriph_Driver/stm32f10x_fsmc.c **** 
 456:../../../SDK_embedded/libs/stm32/STM32F10x_StdPeriph_Driver/stm32f10x_fsmc.c **** /**
 457:../../../SDK_embedded/libs/stm32/STM32F10x_StdPeriph_Driver/stm32f10x_fsmc.c ****   * @brief  Enables or disables the specified NOR/SRAM Memory Bank.
 458:../../../SDK_embedded/libs/stm32/STM32F10x_StdPeriph_Driver/stm32f10x_fsmc.c ****   * @param  FSMC_Bank: specifies the FSMC Bank to be used
 459:../../../SDK_embedded/libs/stm32/STM32F10x_StdPeriph_Driver/stm32f10x_fsmc.c ****   *   This parameter can be one of the following values:
 460:../../../SDK_embedded/libs/stm32/STM32F10x_StdPeriph_Driver/stm32f10x_fsmc.c ****   *     @arg FSMC_Bank1_NORSRAM1: FSMC Bank1 NOR/SRAM1  
 461:../../../SDK_embedded/libs/stm32/STM32F10x_StdPeriph_Driver/stm32f10x_fsmc.c ****   *     @arg FSMC_Bank1_NORSRAM2: FSMC Bank1 NOR/SRAM2 
 462:../../../SDK_embedded/libs/stm32/STM32F10x_StdPeriph_Driver/stm32f10x_fsmc.c ****   *     @arg FSMC_Bank1_NORSRAM3: FSMC Bank1 NOR/SRAM3 
 463:../../../SDK_embedded/libs/stm32/STM32F10x_StdPeriph_Driver/stm32f10x_fsmc.c ****   *     @arg FSMC_Bank1_NORSRAM4: FSMC Bank1 NOR/SRAM4 
 464:../../../SDK_embedded/libs/stm32/STM32F10x_StdPeriph_Driver/stm32f10x_fsmc.c ****   * @param  NewState: new state of the FSMC_Bank. This parameter can be: ENABLE or DISABLE.
 465:../../../SDK_embedded/libs/stm32/STM32F10x_StdPeriph_Driver/stm32f10x_fsmc.c ****   * @retval None
 466:../../../SDK_embedded/libs/stm32/STM32F10x_StdPeriph_Driver/stm32f10x_fsmc.c ****   */
 467:../../../SDK_embedded/libs/stm32/STM32F10x_StdPeriph_Driver/stm32f10x_fsmc.c **** void FSMC_NORSRAMCmd(uint32_t FSMC_Bank, FunctionalState NewState)
 468:../../../SDK_embedded/libs/stm32/STM32F10x_StdPeriph_Driver/stm32f10x_fsmc.c **** {
 17306              		.loc 1 468 0
 17307              		.cfi_startproc
 17308              		@ args = 0, pretend = 0, frame = 0
 17309              		@ frame_needed = 0, uses_anonymous_args = 0
 17310              		@ link register save eliminated.
 17311              	.LVL14:
 17312 0000 4FF02043 		mov	r3, #-1610612736
 469:../../../SDK_embedded/libs/stm32/STM32F10x_StdPeriph_Driver/stm32f10x_fsmc.c ****   assert_param(IS_FSMC_NORSRAM_BANK(FSMC_Bank));
 470:../../../SDK_embedded/libs/stm32/STM32F10x_StdPeriph_Driver/stm32f10x_fsmc.c ****   assert_param(IS_FUNCTIONAL_STATE(NewState));
 471:../../../SDK_embedded/libs/stm32/STM32F10x_StdPeriph_Driver/stm32f10x_fsmc.c ****   
 472:../../../SDK_embedded/libs/stm32/STM32F10x_StdPeriph_Driver/stm32f10x_fsmc.c ****   if (NewState != DISABLE)
 17313              		.loc 1 472 0
 17314 0004 21B1     		cbz	r1, .L33
 473:../../../SDK_embedded/libs/stm32/STM32F10x_StdPeriph_Driver/stm32f10x_fsmc.c ****   {
 474:../../../SDK_embedded/libs/stm32/STM32F10x_StdPeriph_Driver/stm32f10x_fsmc.c ****     /* Enable the selected NOR/SRAM Bank by setting the PBKEN bit in the BCRx register */
 475:../../../SDK_embedded/libs/stm32/STM32F10x_StdPeriph_Driver/stm32f10x_fsmc.c ****     FSMC_Bank1->BTCR[FSMC_Bank] |= BCR_MBKEN_Set;
 17315              		.loc 1 475 0
 17316 0006 53F82020 		ldr	r2, [r3, r0, lsl #2]
 17317 000a 42F00102 		orr	r2, r2, #1
 17318 000e 04E0     		b	.L35
 17319              	.L33:
 476:../../../SDK_embedded/libs/stm32/STM32F10x_StdPeriph_Driver/stm32f10x_fsmc.c ****   }
 477:../../../SDK_embedded/libs/stm32/STM32F10x_StdPeriph_Driver/stm32f10x_fsmc.c ****   else
 478:../../../SDK_embedded/libs/stm32/STM32F10x_StdPeriph_Driver/stm32f10x_fsmc.c ****   {
 479:../../../SDK_embedded/libs/stm32/STM32F10x_StdPeriph_Driver/stm32f10x_fsmc.c ****     /* Disable the selected NOR/SRAM Bank by clearing the PBKEN bit in the BCRx register */
 480:../../../SDK_embedded/libs/stm32/STM32F10x_StdPeriph_Driver/stm32f10x_fsmc.c ****     FSMC_Bank1->BTCR[FSMC_Bank] &= BCR_MBKEN_Reset;
 17320              		.loc 1 480 0
 17321 0010 53F82010 		ldr	r1, [r3, r0, lsl #2]
 17322              	.LVL15:
 17323 0014 024A     		ldr	r2, .L36
 17324 0016 01EA0202 		and	r2, r1, r2
 17325              	.L35:
 17326 001a 43F82020 		str	r2, [r3, r0, lsl #2]
 17327 001e 7047     		bx	lr
 17328              	.L37:
 17329              		.align	2
 17330              	.L36:
 17331 0020 FEFF0F00 		.word	1048574
 17332              		.cfi_endproc
 17333              	.LFE38:
 17335              		.section	.text.FSMC_NANDCmd,"ax",%progbits
 17336              		.align	1
 17337              		.global	FSMC_NANDCmd
 17338              		.thumb
 17339              		.thumb_func
 17341              	FSMC_NANDCmd:
 17342              	.LFB39:
 481:../../../SDK_embedded/libs/stm32/STM32F10x_StdPeriph_Driver/stm32f10x_fsmc.c ****   }
 482:../../../SDK_embedded/libs/stm32/STM32F10x_StdPeriph_Driver/stm32f10x_fsmc.c **** }
 483:../../../SDK_embedded/libs/stm32/STM32F10x_StdPeriph_Driver/stm32f10x_fsmc.c **** 
 484:../../../SDK_embedded/libs/stm32/STM32F10x_StdPeriph_Driver/stm32f10x_fsmc.c **** /**
 485:../../../SDK_embedded/libs/stm32/STM32F10x_StdPeriph_Driver/stm32f10x_fsmc.c ****   * @brief  Enables or disables the specified NAND Memory Bank.
 486:../../../SDK_embedded/libs/stm32/STM32F10x_StdPeriph_Driver/stm32f10x_fsmc.c ****   * @param  FSMC_Bank: specifies the FSMC Bank to be used
 487:../../../SDK_embedded/libs/stm32/STM32F10x_StdPeriph_Driver/stm32f10x_fsmc.c ****   *   This parameter can be one of the following values:
 488:../../../SDK_embedded/libs/stm32/STM32F10x_StdPeriph_Driver/stm32f10x_fsmc.c ****   *     @arg FSMC_Bank2_NAND: FSMC Bank2 NAND 
 489:../../../SDK_embedded/libs/stm32/STM32F10x_StdPeriph_Driver/stm32f10x_fsmc.c ****   *     @arg FSMC_Bank3_NAND: FSMC Bank3 NAND
 490:../../../SDK_embedded/libs/stm32/STM32F10x_StdPeriph_Driver/stm32f10x_fsmc.c ****   * @param  NewState: new state of the FSMC_Bank. This parameter can be: ENABLE or DISABLE.
 491:../../../SDK_embedded/libs/stm32/STM32F10x_StdPeriph_Driver/stm32f10x_fsmc.c ****   * @retval None
 492:../../../SDK_embedded/libs/stm32/STM32F10x_StdPeriph_Driver/stm32f10x_fsmc.c ****   */
 493:../../../SDK_embedded/libs/stm32/STM32F10x_StdPeriph_Driver/stm32f10x_fsmc.c **** void FSMC_NANDCmd(uint32_t FSMC_Bank, FunctionalState NewState)
 494:../../../SDK_embedded/libs/stm32/STM32F10x_StdPeriph_Driver/stm32f10x_fsmc.c **** {
 17343              		.loc 1 494 0
 17344              		.cfi_startproc
 17345              		@ args = 0, pretend = 0, frame = 0
 17346              		@ frame_needed = 0, uses_anonymous_args = 0
 17347              		@ link register save eliminated.
 17348              	.LVL16:
 495:../../../SDK_embedded/libs/stm32/STM32F10x_StdPeriph_Driver/stm32f10x_fsmc.c ****   assert_param(IS_FSMC_NAND_BANK(FSMC_Bank));
 496:../../../SDK_embedded/libs/stm32/STM32F10x_StdPeriph_Driver/stm32f10x_fsmc.c ****   assert_param(IS_FUNCTIONAL_STATE(NewState));
 497:../../../SDK_embedded/libs/stm32/STM32F10x_StdPeriph_Driver/stm32f10x_fsmc.c ****   
 498:../../../SDK_embedded/libs/stm32/STM32F10x_StdPeriph_Driver/stm32f10x_fsmc.c ****   if (NewState != DISABLE)
 17349              		.loc 1 498 0
 17350 0000 41B1     		cbz	r1, .L39
 499:../../../SDK_embedded/libs/stm32/STM32F10x_StdPeriph_Driver/stm32f10x_fsmc.c ****   {
 500:../../../SDK_embedded/libs/stm32/STM32F10x_StdPeriph_Driver/stm32f10x_fsmc.c ****     /* Enable the selected NAND Bank by setting the PBKEN bit in the PCRx register */
 501:../../../SDK_embedded/libs/stm32/STM32F10x_StdPeriph_Driver/stm32f10x_fsmc.c ****     if(FSMC_Bank == FSMC_Bank2_NAND)
 17351              		.loc 1 501 0
 17352 0002 1028     		cmp	r0, #16
 502:../../../SDK_embedded/libs/stm32/STM32F10x_StdPeriph_Driver/stm32f10x_fsmc.c ****     {
 503:../../../SDK_embedded/libs/stm32/STM32F10x_StdPeriph_Driver/stm32f10x_fsmc.c ****       FSMC_Bank2->PCR2 |= PCR_PBKEN_Set;
 17353              		.loc 1 503 0
 17354 0004 0CBF     		ite	eq
 17355 0006 084B     		ldreq	r3, .L45
 504:../../../SDK_embedded/libs/stm32/STM32F10x_StdPeriph_Driver/stm32f10x_fsmc.c ****     }
 505:../../../SDK_embedded/libs/stm32/STM32F10x_StdPeriph_Driver/stm32f10x_fsmc.c ****     else
 506:../../../SDK_embedded/libs/stm32/STM32F10x_StdPeriph_Driver/stm32f10x_fsmc.c ****     {
 507:../../../SDK_embedded/libs/stm32/STM32F10x_StdPeriph_Driver/stm32f10x_fsmc.c ****       FSMC_Bank3->PCR3 |= PCR_PBKEN_Set;
 17356              		.loc 1 507 0
 17357 0008 084B     		ldrne	r3, .L45+4
 17358 000a 1868     		ldr	r0, [r3, #0]
 17359              	.LVL17:
 17360 000c 40F00402 		orr	r2, r0, #4
 17361 0010 1A60     		str	r2, [r3, #0]
 17362 0012 7047     		bx	lr
 17363              	.LVL18:
 17364              	.L39:
 508:../../../SDK_embedded/libs/stm32/STM32F10x_StdPeriph_Driver/stm32f10x_fsmc.c ****     }
 509:../../../SDK_embedded/libs/stm32/STM32F10x_StdPeriph_Driver/stm32f10x_fsmc.c ****   }
 510:../../../SDK_embedded/libs/stm32/STM32F10x_StdPeriph_Driver/stm32f10x_fsmc.c ****   else
 511:../../../SDK_embedded/libs/stm32/STM32F10x_StdPeriph_Driver/stm32f10x_fsmc.c ****   {
 512:../../../SDK_embedded/libs/stm32/STM32F10x_StdPeriph_Driver/stm32f10x_fsmc.c ****     /* Disable the selected NAND Bank by clearing the PBKEN bit in the PCRx register */
 513:../../../SDK_embedded/libs/stm32/STM32F10x_StdPeriph_Driver/stm32f10x_fsmc.c ****     if(FSMC_Bank == FSMC_Bank2_NAND)
 17365              		.loc 1 513 0
 17366 0014 1028     		cmp	r0, #16
 514:../../../SDK_embedded/libs/stm32/STM32F10x_StdPeriph_Driver/stm32f10x_fsmc.c ****     {
 515:../../../SDK_embedded/libs/stm32/STM32F10x_StdPeriph_Driver/stm32f10x_fsmc.c ****       FSMC_Bank2->PCR2 &= PCR_PBKEN_Reset;
 17367              		.loc 1 515 0
 17368 0016 0CBF     		ite	eq
 17369 0018 034A     		ldreq	r2, .L45
 516:../../../SDK_embedded/libs/stm32/STM32F10x_StdPeriph_Driver/stm32f10x_fsmc.c ****     }
 517:../../../SDK_embedded/libs/stm32/STM32F10x_StdPeriph_Driver/stm32f10x_fsmc.c ****     else
 518:../../../SDK_embedded/libs/stm32/STM32F10x_StdPeriph_Driver/stm32f10x_fsmc.c ****     {
 519:../../../SDK_embedded/libs/stm32/STM32F10x_StdPeriph_Driver/stm32f10x_fsmc.c ****       FSMC_Bank3->PCR3 &= PCR_PBKEN_Reset;
 17370              		.loc 1 519 0
 17371 001a 044A     		ldrne	r2, .L45+4
 17372 001c 0448     		ldr	r0, .L45+8
 17373              	.LVL19:
 17374 001e 1168     		ldr	r1, [r2, #0]
 17375              	.LVL20:
 17376 0020 01EA0003 		and	r3, r1, r0
 17377 0024 1360     		str	r3, [r2, #0]
 17378 0026 7047     		bx	lr
 17379              	.L46:
 17380              		.align	2
 17381              	.L45:
 17382 0028 600000A0 		.word	-1610612640
 17383 002c 800000A0 		.word	-1610612608
 17384 0030 FBFF0F00 		.word	1048571
 17385              		.cfi_endproc
 17386              	.LFE39:
 17388              		.section	.text.FSMC_PCCARDCmd,"ax",%progbits
 17389              		.align	1
 17390              		.global	FSMC_PCCARDCmd
 17391              		.thumb
 17392              		.thumb_func
 17394              	FSMC_PCCARDCmd:
 17395              	.LFB40:
 520:../../../SDK_embedded/libs/stm32/STM32F10x_StdPeriph_Driver/stm32f10x_fsmc.c ****     }
 521:../../../SDK_embedded/libs/stm32/STM32F10x_StdPeriph_Driver/stm32f10x_fsmc.c ****   }
 522:../../../SDK_embedded/libs/stm32/STM32F10x_StdPeriph_Driver/stm32f10x_fsmc.c **** }
 523:../../../SDK_embedded/libs/stm32/STM32F10x_StdPeriph_Driver/stm32f10x_fsmc.c **** 
 524:../../../SDK_embedded/libs/stm32/STM32F10x_StdPeriph_Driver/stm32f10x_fsmc.c **** /**
 525:../../../SDK_embedded/libs/stm32/STM32F10x_StdPeriph_Driver/stm32f10x_fsmc.c ****   * @brief  Enables or disables the PCCARD Memory Bank.
 526:../../../SDK_embedded/libs/stm32/STM32F10x_StdPeriph_Driver/stm32f10x_fsmc.c ****   * @param  NewState: new state of the PCCARD Memory Bank.  
 527:../../../SDK_embedded/libs/stm32/STM32F10x_StdPeriph_Driver/stm32f10x_fsmc.c ****   *   This parameter can be: ENABLE or DISABLE.
 528:../../../SDK_embedded/libs/stm32/STM32F10x_StdPeriph_Driver/stm32f10x_fsmc.c ****   * @retval None
 529:../../../SDK_embedded/libs/stm32/STM32F10x_StdPeriph_Driver/stm32f10x_fsmc.c ****   */
 530:../../../SDK_embedded/libs/stm32/STM32F10x_StdPeriph_Driver/stm32f10x_fsmc.c **** void FSMC_PCCARDCmd(FunctionalState NewState)
 531:../../../SDK_embedded/libs/stm32/STM32F10x_StdPeriph_Driver/stm32f10x_fsmc.c **** {
 17396              		.loc 1 531 0
 17397              		.cfi_startproc
 17398              		@ args = 0, pretend = 0, frame = 0
 17399              		@ frame_needed = 0, uses_anonymous_args = 0
 17400              		@ link register save eliminated.
 17401              	.LVL21:
 17402 0000 054B     		ldr	r3, .L51
 532:../../../SDK_embedded/libs/stm32/STM32F10x_StdPeriph_Driver/stm32f10x_fsmc.c ****   assert_param(IS_FUNCTIONAL_STATE(NewState));
 533:../../../SDK_embedded/libs/stm32/STM32F10x_StdPeriph_Driver/stm32f10x_fsmc.c ****   
 534:../../../SDK_embedded/libs/stm32/STM32F10x_StdPeriph_Driver/stm32f10x_fsmc.c ****   if (NewState != DISABLE)
 17403              		.loc 1 534 0
 17404 0002 18B1     		cbz	r0, .L48
 535:../../../SDK_embedded/libs/stm32/STM32F10x_StdPeriph_Driver/stm32f10x_fsmc.c ****   {
 536:../../../SDK_embedded/libs/stm32/STM32F10x_StdPeriph_Driver/stm32f10x_fsmc.c ****     /* Enable the PCCARD Bank by setting the PBKEN bit in the PCR4 register */
 537:../../../SDK_embedded/libs/stm32/STM32F10x_StdPeriph_Driver/stm32f10x_fsmc.c ****     FSMC_Bank4->PCR4 |= PCR_PBKEN_Set;
 17405              		.loc 1 537 0
 17406 0004 1A68     		ldr	r2, [r3, #0]
 17407 0006 42F00402 		orr	r2, r2, #4
 17408 000a 03E0     		b	.L50
 17409              	.L48:
 538:../../../SDK_embedded/libs/stm32/STM32F10x_StdPeriph_Driver/stm32f10x_fsmc.c ****   }
 539:../../../SDK_embedded/libs/stm32/STM32F10x_StdPeriph_Driver/stm32f10x_fsmc.c ****   else
 540:../../../SDK_embedded/libs/stm32/STM32F10x_StdPeriph_Driver/stm32f10x_fsmc.c ****   {
 541:../../../SDK_embedded/libs/stm32/STM32F10x_StdPeriph_Driver/stm32f10x_fsmc.c ****     /* Disable the PCCARD Bank by clearing the PBKEN bit in the PCR4 register */
 542:../../../SDK_embedded/libs/stm32/STM32F10x_StdPeriph_Driver/stm32f10x_fsmc.c ****     FSMC_Bank4->PCR4 &= PCR_PBKEN_Reset;
 17410              		.loc 1 542 0
 17411 000c 1968     		ldr	r1, [r3, #0]
 17412 000e 0348     		ldr	r0, .L51+4
 17413              	.LVL22:
 17414 0010 01EA0002 		and	r2, r1, r0
 17415              	.L50:
 17416 0014 1A60     		str	r2, [r3, #0]
 17417 0016 7047     		bx	lr
 17418              	.L52:
 17419              		.align	2
 17420              	.L51:
 17421 0018 A00000A0 		.word	-1610612576
 17422 001c FBFF0F00 		.word	1048571
 17423              		.cfi_endproc
 17424              	.LFE40:
 17426              		.section	.text.FSMC_NANDECCCmd,"ax",%progbits
 17427              		.align	1
 17428              		.global	FSMC_NANDECCCmd
 17429              		.thumb
 17430              		.thumb_func
 17432              	FSMC_NANDECCCmd:
 17433              	.LFB41:
 543:../../../SDK_embedded/libs/stm32/STM32F10x_StdPeriph_Driver/stm32f10x_fsmc.c ****   }
 544:../../../SDK_embedded/libs/stm32/STM32F10x_StdPeriph_Driver/stm32f10x_fsmc.c **** }
 545:../../../SDK_embedded/libs/stm32/STM32F10x_StdPeriph_Driver/stm32f10x_fsmc.c **** 
 546:../../../SDK_embedded/libs/stm32/STM32F10x_StdPeriph_Driver/stm32f10x_fsmc.c **** /**
 547:../../../SDK_embedded/libs/stm32/STM32F10x_StdPeriph_Driver/stm32f10x_fsmc.c ****   * @brief  Enables or disables the FSMC NAND ECC feature.
 548:../../../SDK_embedded/libs/stm32/STM32F10x_StdPeriph_Driver/stm32f10x_fsmc.c ****   * @param  FSMC_Bank: specifies the FSMC Bank to be used
 549:../../../SDK_embedded/libs/stm32/STM32F10x_StdPeriph_Driver/stm32f10x_fsmc.c ****   *   This parameter can be one of the following values:
 550:../../../SDK_embedded/libs/stm32/STM32F10x_StdPeriph_Driver/stm32f10x_fsmc.c ****   *     @arg FSMC_Bank2_NAND: FSMC Bank2 NAND 
 551:../../../SDK_embedded/libs/stm32/STM32F10x_StdPeriph_Driver/stm32f10x_fsmc.c ****   *     @arg FSMC_Bank3_NAND: FSMC Bank3 NAND
 552:../../../SDK_embedded/libs/stm32/STM32F10x_StdPeriph_Driver/stm32f10x_fsmc.c ****   * @param  NewState: new state of the FSMC NAND ECC feature.  
 553:../../../SDK_embedded/libs/stm32/STM32F10x_StdPeriph_Driver/stm32f10x_fsmc.c ****   *   This parameter can be: ENABLE or DISABLE.
 554:../../../SDK_embedded/libs/stm32/STM32F10x_StdPeriph_Driver/stm32f10x_fsmc.c ****   * @retval None
 555:../../../SDK_embedded/libs/stm32/STM32F10x_StdPeriph_Driver/stm32f10x_fsmc.c ****   */
 556:../../../SDK_embedded/libs/stm32/STM32F10x_StdPeriph_Driver/stm32f10x_fsmc.c **** void FSMC_NANDECCCmd(uint32_t FSMC_Bank, FunctionalState NewState)
 557:../../../SDK_embedded/libs/stm32/STM32F10x_StdPeriph_Driver/stm32f10x_fsmc.c **** {
 17434              		.loc 1 557 0
 17435              		.cfi_startproc
 17436              		@ args = 0, pretend = 0, frame = 0
 17437              		@ frame_needed = 0, uses_anonymous_args = 0
 17438              		@ link register save eliminated.
 17439              	.LVL23:
 558:../../../SDK_embedded/libs/stm32/STM32F10x_StdPeriph_Driver/stm32f10x_fsmc.c ****   assert_param(IS_FSMC_NAND_BANK(FSMC_Bank));
 559:../../../SDK_embedded/libs/stm32/STM32F10x_StdPeriph_Driver/stm32f10x_fsmc.c ****   assert_param(IS_FUNCTIONAL_STATE(NewState));
 560:../../../SDK_embedded/libs/stm32/STM32F10x_StdPeriph_Driver/stm32f10x_fsmc.c ****   
 561:../../../SDK_embedded/libs/stm32/STM32F10x_StdPeriph_Driver/stm32f10x_fsmc.c ****   if (NewState != DISABLE)
 17440              		.loc 1 561 0
 17441 0000 41B1     		cbz	r1, .L54
 562:../../../SDK_embedded/libs/stm32/STM32F10x_StdPeriph_Driver/stm32f10x_fsmc.c ****   {
 563:../../../SDK_embedded/libs/stm32/STM32F10x_StdPeriph_Driver/stm32f10x_fsmc.c ****     /* Enable the selected NAND Bank ECC function by setting the ECCEN bit in the PCRx register */
 564:../../../SDK_embedded/libs/stm32/STM32F10x_StdPeriph_Driver/stm32f10x_fsmc.c ****     if(FSMC_Bank == FSMC_Bank2_NAND)
 17442              		.loc 1 564 0
 17443 0002 1028     		cmp	r0, #16
 565:../../../SDK_embedded/libs/stm32/STM32F10x_StdPeriph_Driver/stm32f10x_fsmc.c ****     {
 566:../../../SDK_embedded/libs/stm32/STM32F10x_StdPeriph_Driver/stm32f10x_fsmc.c ****       FSMC_Bank2->PCR2 |= PCR_ECCEN_Set;
 17444              		.loc 1 566 0
 17445 0004 0CBF     		ite	eq
 17446 0006 084B     		ldreq	r3, .L60
 567:../../../SDK_embedded/libs/stm32/STM32F10x_StdPeriph_Driver/stm32f10x_fsmc.c ****     }
 568:../../../SDK_embedded/libs/stm32/STM32F10x_StdPeriph_Driver/stm32f10x_fsmc.c ****     else
 569:../../../SDK_embedded/libs/stm32/STM32F10x_StdPeriph_Driver/stm32f10x_fsmc.c ****     {
 570:../../../SDK_embedded/libs/stm32/STM32F10x_StdPeriph_Driver/stm32f10x_fsmc.c ****       FSMC_Bank3->PCR3 |= PCR_ECCEN_Set;
 17447              		.loc 1 570 0
 17448 0008 084B     		ldrne	r3, .L60+4
 17449 000a 1868     		ldr	r0, [r3, #0]
 17450              	.LVL24:
 17451 000c 40F04002 		orr	r2, r0, #64
 17452 0010 1A60     		str	r2, [r3, #0]
 17453 0012 7047     		bx	lr
 17454              	.LVL25:
 17455              	.L54:
 571:../../../SDK_embedded/libs/stm32/STM32F10x_StdPeriph_Driver/stm32f10x_fsmc.c ****     }
 572:../../../SDK_embedded/libs/stm32/STM32F10x_StdPeriph_Driver/stm32f10x_fsmc.c ****   }
 573:../../../SDK_embedded/libs/stm32/STM32F10x_StdPeriph_Driver/stm32f10x_fsmc.c ****   else
 574:../../../SDK_embedded/libs/stm32/STM32F10x_StdPeriph_Driver/stm32f10x_fsmc.c ****   {
 575:../../../SDK_embedded/libs/stm32/STM32F10x_StdPeriph_Driver/stm32f10x_fsmc.c ****     /* Disable the selected NAND Bank ECC function by clearing the ECCEN bit in the PCRx register *
 576:../../../SDK_embedded/libs/stm32/STM32F10x_StdPeriph_Driver/stm32f10x_fsmc.c ****     if(FSMC_Bank == FSMC_Bank2_NAND)
 17456              		.loc 1 576 0
 17457 0014 1028     		cmp	r0, #16
 577:../../../SDK_embedded/libs/stm32/STM32F10x_StdPeriph_Driver/stm32f10x_fsmc.c ****     {
 578:../../../SDK_embedded/libs/stm32/STM32F10x_StdPeriph_Driver/stm32f10x_fsmc.c ****       FSMC_Bank2->PCR2 &= PCR_ECCEN_Reset;
 17458              		.loc 1 578 0
 17459 0016 0CBF     		ite	eq
 17460 0018 034A     		ldreq	r2, .L60
 579:../../../SDK_embedded/libs/stm32/STM32F10x_StdPeriph_Driver/stm32f10x_fsmc.c ****     }
 580:../../../SDK_embedded/libs/stm32/STM32F10x_StdPeriph_Driver/stm32f10x_fsmc.c ****     else
 581:../../../SDK_embedded/libs/stm32/STM32F10x_StdPeriph_Driver/stm32f10x_fsmc.c ****     {
 582:../../../SDK_embedded/libs/stm32/STM32F10x_StdPeriph_Driver/stm32f10x_fsmc.c ****       FSMC_Bank3->PCR3 &= PCR_ECCEN_Reset;
 17461              		.loc 1 582 0
 17462 001a 044A     		ldrne	r2, .L60+4
 17463 001c 0448     		ldr	r0, .L60+8
 17464              	.LVL26:
 17465 001e 1168     		ldr	r1, [r2, #0]
 17466              	.LVL27:
 17467 0020 01EA0003 		and	r3, r1, r0
 17468 0024 1360     		str	r3, [r2, #0]
 17469 0026 7047     		bx	lr
 17470              	.L61:
 17471              		.align	2
 17472              	.L60:
 17473 0028 600000A0 		.word	-1610612640
 17474 002c 800000A0 		.word	-1610612608
 17475 0030 BFFF0F00 		.word	1048511
 17476              		.cfi_endproc
 17477              	.LFE41:
 17479              		.section	.text.FSMC_GetECC,"ax",%progbits
 17480              		.align	1
 17481              		.global	FSMC_GetECC
 17482              		.thumb
 17483              		.thumb_func
 17485              	FSMC_GetECC:
 17486              	.LFB42:
 583:../../../SDK_embedded/libs/stm32/STM32F10x_StdPeriph_Driver/stm32f10x_fsmc.c ****     }
 584:../../../SDK_embedded/libs/stm32/STM32F10x_StdPeriph_Driver/stm32f10x_fsmc.c ****   }
 585:../../../SDK_embedded/libs/stm32/STM32F10x_StdPeriph_Driver/stm32f10x_fsmc.c **** }
 586:../../../SDK_embedded/libs/stm32/STM32F10x_StdPeriph_Driver/stm32f10x_fsmc.c **** 
 587:../../../SDK_embedded/libs/stm32/STM32F10x_StdPeriph_Driver/stm32f10x_fsmc.c **** /**
 588:../../../SDK_embedded/libs/stm32/STM32F10x_StdPeriph_Driver/stm32f10x_fsmc.c ****   * @brief  Returns the error correction code register value.
 589:../../../SDK_embedded/libs/stm32/STM32F10x_StdPeriph_Driver/stm32f10x_fsmc.c ****   * @param  FSMC_Bank: specifies the FSMC Bank to be used
 590:../../../SDK_embedded/libs/stm32/STM32F10x_StdPeriph_Driver/stm32f10x_fsmc.c ****   *   This parameter can be one of the following values:
 591:../../../SDK_embedded/libs/stm32/STM32F10x_StdPeriph_Driver/stm32f10x_fsmc.c ****   *     @arg FSMC_Bank2_NAND: FSMC Bank2 NAND 
 592:../../../SDK_embedded/libs/stm32/STM32F10x_StdPeriph_Driver/stm32f10x_fsmc.c ****   *     @arg FSMC_Bank3_NAND: FSMC Bank3 NAND
 593:../../../SDK_embedded/libs/stm32/STM32F10x_StdPeriph_Driver/stm32f10x_fsmc.c ****   * @retval The Error Correction Code (ECC) value.
 594:../../../SDK_embedded/libs/stm32/STM32F10x_StdPeriph_Driver/stm32f10x_fsmc.c ****   */
 595:../../../SDK_embedded/libs/stm32/STM32F10x_StdPeriph_Driver/stm32f10x_fsmc.c **** uint32_t FSMC_GetECC(uint32_t FSMC_Bank)
 596:../../../SDK_embedded/libs/stm32/STM32F10x_StdPeriph_Driver/stm32f10x_fsmc.c **** {
 17487              		.loc 1 596 0
 17488              		.cfi_startproc
 17489              		@ args = 0, pretend = 0, frame = 0
 17490              		@ frame_needed = 0, uses_anonymous_args = 0
 17491              		@ link register save eliminated.
 17492              	.LVL28:
 597:../../../SDK_embedded/libs/stm32/STM32F10x_StdPeriph_Driver/stm32f10x_fsmc.c ****   uint32_t eccval = 0x00000000;
 598:../../../SDK_embedded/libs/stm32/STM32F10x_StdPeriph_Driver/stm32f10x_fsmc.c ****   
 599:../../../SDK_embedded/libs/stm32/STM32F10x_StdPeriph_Driver/stm32f10x_fsmc.c ****   if(FSMC_Bank == FSMC_Bank2_NAND)
 17493              		.loc 1 599 0
 17494 0000 1028     		cmp	r0, #16
 600:../../../SDK_embedded/libs/stm32/STM32F10x_StdPeriph_Driver/stm32f10x_fsmc.c ****   {
 601:../../../SDK_embedded/libs/stm32/STM32F10x_StdPeriph_Driver/stm32f10x_fsmc.c ****     /* Get the ECCR2 register value */
 602:../../../SDK_embedded/libs/stm32/STM32F10x_StdPeriph_Driver/stm32f10x_fsmc.c ****     eccval = FSMC_Bank2->ECCR2;
 17495              		.loc 1 602 0
 17496 0002 0BBF     		itete	eq
 17497 0004 024B     		ldreq	r3, .L65
 603:../../../SDK_embedded/libs/stm32/STM32F10x_StdPeriph_Driver/stm32f10x_fsmc.c ****   }
 604:../../../SDK_embedded/libs/stm32/STM32F10x_StdPeriph_Driver/stm32f10x_fsmc.c ****   else
 605:../../../SDK_embedded/libs/stm32/STM32F10x_StdPeriph_Driver/stm32f10x_fsmc.c ****   {
 606:../../../SDK_embedded/libs/stm32/STM32F10x_StdPeriph_Driver/stm32f10x_fsmc.c ****     /* Get the ECCR3 register value */
 607:../../../SDK_embedded/libs/stm32/STM32F10x_StdPeriph_Driver/stm32f10x_fsmc.c ****     eccval = FSMC_Bank3->ECCR3;
 17498              		.loc 1 607 0
 17499 0006 034B     		ldrne	r3, .L65+4
 602:../../../SDK_embedded/libs/stm32/STM32F10x_StdPeriph_Driver/stm32f10x_fsmc.c ****     eccval = FSMC_Bank2->ECCR2;
 17500              		.loc 1 602 0
 17501 0008 5869     		ldreq	r0, [r3, #20]
 17502              	.LVL29:
 17503              		.loc 1 607 0
 17504 000a 5869     		ldrne	r0, [r3, #20]
 17505              	.LVL30:
 608:../../../SDK_embedded/libs/stm32/STM32F10x_StdPeriph_Driver/stm32f10x_fsmc.c ****   }
 609:../../../SDK_embedded/libs/stm32/STM32F10x_StdPeriph_Driver/stm32f10x_fsmc.c ****   /* Return the error correction code value */
 610:../../../SDK_embedded/libs/stm32/STM32F10x_StdPeriph_Driver/stm32f10x_fsmc.c ****   return(eccval);
 611:../../../SDK_embedded/libs/stm32/STM32F10x_StdPeriph_Driver/stm32f10x_fsmc.c **** }
 17506              		.loc 1 611 0
 17507 000c 7047     		bx	lr
 17508              	.L66:
 17509 000e 00BF     		.align	2
 17510              	.L65:
 17511 0010 600000A0 		.word	-1610612640
 17512 0014 800000A0 		.word	-1610612608
 17513              		.cfi_endproc
 17514              	.LFE42:
 17516              		.section	.text.FSMC_ITConfig,"ax",%progbits
 17517              		.align	1
 17518              		.global	FSMC_ITConfig
 17519              		.thumb
 17520              		.thumb_func
 17522              	FSMC_ITConfig:
 17523              	.LFB43:
 612:../../../SDK_embedded/libs/stm32/STM32F10x_StdPeriph_Driver/stm32f10x_fsmc.c **** 
 613:../../../SDK_embedded/libs/stm32/STM32F10x_StdPeriph_Driver/stm32f10x_fsmc.c **** /**
 614:../../../SDK_embedded/libs/stm32/STM32F10x_StdPeriph_Driver/stm32f10x_fsmc.c ****   * @brief  Enables or disables the specified FSMC interrupts.
 615:../../../SDK_embedded/libs/stm32/STM32F10x_StdPeriph_Driver/stm32f10x_fsmc.c ****   * @param  FSMC_Bank: specifies the FSMC Bank to be used
 616:../../../SDK_embedded/libs/stm32/STM32F10x_StdPeriph_Driver/stm32f10x_fsmc.c ****   *   This parameter can be one of the following values:
 617:../../../SDK_embedded/libs/stm32/STM32F10x_StdPeriph_Driver/stm32f10x_fsmc.c ****   *     @arg FSMC_Bank2_NAND: FSMC Bank2 NAND 
 618:../../../SDK_embedded/libs/stm32/STM32F10x_StdPeriph_Driver/stm32f10x_fsmc.c ****   *     @arg FSMC_Bank3_NAND: FSMC Bank3 NAND
 619:../../../SDK_embedded/libs/stm32/STM32F10x_StdPeriph_Driver/stm32f10x_fsmc.c ****   *     @arg FSMC_Bank4_PCCARD: FSMC Bank4 PCCARD
 620:../../../SDK_embedded/libs/stm32/STM32F10x_StdPeriph_Driver/stm32f10x_fsmc.c ****   * @param  FSMC_IT: specifies the FSMC interrupt sources to be enabled or disabled.
 621:../../../SDK_embedded/libs/stm32/STM32F10x_StdPeriph_Driver/stm32f10x_fsmc.c ****   *   This parameter can be any combination of the following values:
 622:../../../SDK_embedded/libs/stm32/STM32F10x_StdPeriph_Driver/stm32f10x_fsmc.c ****   *     @arg FSMC_IT_RisingEdge: Rising edge detection interrupt. 
 623:../../../SDK_embedded/libs/stm32/STM32F10x_StdPeriph_Driver/stm32f10x_fsmc.c ****   *     @arg FSMC_IT_Level: Level edge detection interrupt.
 624:../../../SDK_embedded/libs/stm32/STM32F10x_StdPeriph_Driver/stm32f10x_fsmc.c ****   *     @arg FSMC_IT_FallingEdge: Falling edge detection interrupt.
 625:../../../SDK_embedded/libs/stm32/STM32F10x_StdPeriph_Driver/stm32f10x_fsmc.c ****   * @param  NewState: new state of the specified FSMC interrupts.
 626:../../../SDK_embedded/libs/stm32/STM32F10x_StdPeriph_Driver/stm32f10x_fsmc.c ****   *   This parameter can be: ENABLE or DISABLE.
 627:../../../SDK_embedded/libs/stm32/STM32F10x_StdPeriph_Driver/stm32f10x_fsmc.c ****   * @retval None
 628:../../../SDK_embedded/libs/stm32/STM32F10x_StdPeriph_Driver/stm32f10x_fsmc.c ****   */
 629:../../../SDK_embedded/libs/stm32/STM32F10x_StdPeriph_Driver/stm32f10x_fsmc.c **** void FSMC_ITConfig(uint32_t FSMC_Bank, uint32_t FSMC_IT, FunctionalState NewState)
 630:../../../SDK_embedded/libs/stm32/STM32F10x_StdPeriph_Driver/stm32f10x_fsmc.c **** {
 17524              		.loc 1 630 0
 17525              		.cfi_startproc
 17526              		@ args = 0, pretend = 0, frame = 0
 17527              		@ frame_needed = 0, uses_anonymous_args = 0
 17528              		@ link register save eliminated.
 17529              	.LVL31:
 631:../../../SDK_embedded/libs/stm32/STM32F10x_StdPeriph_Driver/stm32f10x_fsmc.c ****   assert_param(IS_FSMC_IT_BANK(FSMC_Bank));
 632:../../../SDK_embedded/libs/stm32/STM32F10x_StdPeriph_Driver/stm32f10x_fsmc.c ****   assert_param(IS_FSMC_IT(FSMC_IT));	
 633:../../../SDK_embedded/libs/stm32/STM32F10x_StdPeriph_Driver/stm32f10x_fsmc.c ****   assert_param(IS_FUNCTIONAL_STATE(NewState));
 634:../../../SDK_embedded/libs/stm32/STM32F10x_StdPeriph_Driver/stm32f10x_fsmc.c ****   
 635:../../../SDK_embedded/libs/stm32/STM32F10x_StdPeriph_Driver/stm32f10x_fsmc.c ****   if (NewState != DISABLE)
 17530              		.loc 1 635 0
 17531 0000 5AB1     		cbz	r2, .L68
 636:../../../SDK_embedded/libs/stm32/STM32F10x_StdPeriph_Driver/stm32f10x_fsmc.c ****   {
 637:../../../SDK_embedded/libs/stm32/STM32F10x_StdPeriph_Driver/stm32f10x_fsmc.c ****     /* Enable the selected FSMC_Bank2 interrupts */
 638:../../../SDK_embedded/libs/stm32/STM32F10x_StdPeriph_Driver/stm32f10x_fsmc.c ****     if(FSMC_Bank == FSMC_Bank2_NAND)
 17532              		.loc 1 638 0
 17533 0002 1028     		cmp	r0, #16
 639:../../../SDK_embedded/libs/stm32/STM32F10x_StdPeriph_Driver/stm32f10x_fsmc.c ****     {
 640:../../../SDK_embedded/libs/stm32/STM32F10x_StdPeriph_Driver/stm32f10x_fsmc.c ****       FSMC_Bank2->SR2 |= FSMC_IT;
 17534              		.loc 1 640 0
 17535 0004 08BF     		it	eq
 17536 0006 0E4B     		ldreq	r3, .L77
 638:../../../SDK_embedded/libs/stm32/STM32F10x_StdPeriph_Driver/stm32f10x_fsmc.c ****     if(FSMC_Bank == FSMC_Bank2_NAND)
 17537              		.loc 1 638 0
 17538 0008 04D0     		beq	.L75
 641:../../../SDK_embedded/libs/stm32/STM32F10x_StdPeriph_Driver/stm32f10x_fsmc.c ****     }
 642:../../../SDK_embedded/libs/stm32/STM32F10x_StdPeriph_Driver/stm32f10x_fsmc.c ****     /* Enable the selected FSMC_Bank3 interrupts */
 643:../../../SDK_embedded/libs/stm32/STM32F10x_StdPeriph_Driver/stm32f10x_fsmc.c ****     else if (FSMC_Bank == FSMC_Bank3_NAND)
 17539              		.loc 1 643 0
 17540 000a B0F5807F 		cmp	r0, #256
 644:../../../SDK_embedded/libs/stm32/STM32F10x_StdPeriph_Driver/stm32f10x_fsmc.c ****     {
 645:../../../SDK_embedded/libs/stm32/STM32F10x_StdPeriph_Driver/stm32f10x_fsmc.c ****       FSMC_Bank3->SR3 |= FSMC_IT;
 646:../../../SDK_embedded/libs/stm32/STM32F10x_StdPeriph_Driver/stm32f10x_fsmc.c ****     }
 647:../../../SDK_embedded/libs/stm32/STM32F10x_StdPeriph_Driver/stm32f10x_fsmc.c ****     /* Enable the selected FSMC_Bank4 interrupts */
 648:../../../SDK_embedded/libs/stm32/STM32F10x_StdPeriph_Driver/stm32f10x_fsmc.c ****     else
 649:../../../SDK_embedded/libs/stm32/STM32F10x_StdPeriph_Driver/stm32f10x_fsmc.c ****     {
 650:../../../SDK_embedded/libs/stm32/STM32F10x_StdPeriph_Driver/stm32f10x_fsmc.c ****       FSMC_Bank4->SR4 |= FSMC_IT;    
 17541              		.loc 1 650 0
 17542 000e 14BF     		ite	ne
 17543 0010 0C4B     		ldrne	r3, .L77+4
 645:../../../SDK_embedded/libs/stm32/STM32F10x_StdPeriph_Driver/stm32f10x_fsmc.c ****       FSMC_Bank3->SR3 |= FSMC_IT;
 17544              		.loc 1 645 0
 17545 0012 0D4B     		ldreq	r3, .L77+8
 17546              	.L75:
 17547 0014 5A68     		ldr	r2, [r3, #4]
 17548              	.LVL32:
 17549 0016 1143     		orrs	r1, r1, r2
 17550              	.LVL33:
 17551 0018 0FE0     		b	.L74
 17552              	.LVL34:
 17553              	.L68:
 651:../../../SDK_embedded/libs/stm32/STM32F10x_StdPeriph_Driver/stm32f10x_fsmc.c ****     }
 652:../../../SDK_embedded/libs/stm32/STM32F10x_StdPeriph_Driver/stm32f10x_fsmc.c ****   }
 653:../../../SDK_embedded/libs/stm32/STM32F10x_StdPeriph_Driver/stm32f10x_fsmc.c ****   else
 654:../../../SDK_embedded/libs/stm32/STM32F10x_StdPeriph_Driver/stm32f10x_fsmc.c ****   {
 655:../../../SDK_embedded/libs/stm32/STM32F10x_StdPeriph_Driver/stm32f10x_fsmc.c ****     /* Disable the selected FSMC_Bank2 interrupts */
 656:../../../SDK_embedded/libs/stm32/STM32F10x_StdPeriph_Driver/stm32f10x_fsmc.c ****     if(FSMC_Bank == FSMC_Bank2_NAND)
 17554              		.loc 1 656 0
 17555 001a 1028     		cmp	r0, #16
 17556 001c 04D1     		bne	.L72
 657:../../../SDK_embedded/libs/stm32/STM32F10x_StdPeriph_Driver/stm32f10x_fsmc.c ****     {
 658:../../../SDK_embedded/libs/stm32/STM32F10x_StdPeriph_Driver/stm32f10x_fsmc.c ****       
 659:../../../SDK_embedded/libs/stm32/STM32F10x_StdPeriph_Driver/stm32f10x_fsmc.c ****       FSMC_Bank2->SR2 &= (uint32_t)~FSMC_IT;
 17557              		.loc 1 659 0
 17558 001e 084B     		ldr	r3, .L77
 17559 0020 5868     		ldr	r0, [r3, #4]
 17560              	.LVL35:
 17561 0022 20EA0101 		bic	r1, r0, r1
 17562              	.LVL36:
 17563 0026 08E0     		b	.L74
 17564              	.LVL37:
 17565              	.L72:
 660:../../../SDK_embedded/libs/stm32/STM32F10x_StdPeriph_Driver/stm32f10x_fsmc.c ****     }
 661:../../../SDK_embedded/libs/stm32/STM32F10x_StdPeriph_Driver/stm32f10x_fsmc.c ****     /* Disable the selected FSMC_Bank3 interrupts */
 662:../../../SDK_embedded/libs/stm32/STM32F10x_StdPeriph_Driver/stm32f10x_fsmc.c ****     else if (FSMC_Bank == FSMC_Bank3_NAND)
 17566              		.loc 1 662 0
 17567 0028 B0F5807F 		cmp	r0, #256
 663:../../../SDK_embedded/libs/stm32/STM32F10x_StdPeriph_Driver/stm32f10x_fsmc.c ****     {
 664:../../../SDK_embedded/libs/stm32/STM32F10x_StdPeriph_Driver/stm32f10x_fsmc.c ****       FSMC_Bank3->SR3 &= (uint32_t)~FSMC_IT;
 17568              		.loc 1 664 0
 17569 002c 0CBF     		ite	eq
 17570 002e 064B     		ldreq	r3, .L77+8
 665:../../../SDK_embedded/libs/stm32/STM32F10x_StdPeriph_Driver/stm32f10x_fsmc.c ****     }
 666:../../../SDK_embedded/libs/stm32/STM32F10x_StdPeriph_Driver/stm32f10x_fsmc.c ****     /* Disable the selected FSMC_Bank4 interrupts */
 667:../../../SDK_embedded/libs/stm32/STM32F10x_StdPeriph_Driver/stm32f10x_fsmc.c ****     else
 668:../../../SDK_embedded/libs/stm32/STM32F10x_StdPeriph_Driver/stm32f10x_fsmc.c ****     {
 669:../../../SDK_embedded/libs/stm32/STM32F10x_StdPeriph_Driver/stm32f10x_fsmc.c ****       FSMC_Bank4->SR4 &= (uint32_t)~FSMC_IT;    
 17571              		.loc 1 669 0
 17572 0030 044B     		ldrne	r3, .L77+4
 17573 0032 6FEA0101 		mvn	r1, r1
 17574              	.LVL38:
 17575 0036 5A68     		ldr	r2, [r3, #4]
 17576              	.LVL39:
 17577 0038 1140     		ands	r1, r1, r2
 17578              	.LVL40:
 17579              	.L74:
 17580 003a 5960     		str	r1, [r3, #4]
 17581 003c 7047     		bx	lr
 17582              	.L78:
 17583 003e 00BF     		.align	2
 17584              	.L77:
 17585 0040 600000A0 		.word	-1610612640
 17586 0044 A00000A0 		.word	-1610612576
 17587 0048 800000A0 		.word	-1610612608
 17588              		.cfi_endproc
 17589              	.LFE43:
 17591              		.section	.text.FSMC_GetFlagStatus,"ax",%progbits
 17592              		.align	1
 17593              		.global	FSMC_GetFlagStatus
 17594              		.thumb
 17595              		.thumb_func
 17597              	FSMC_GetFlagStatus:
 17598              	.LFB44:
 670:../../../SDK_embedded/libs/stm32/STM32F10x_StdPeriph_Driver/stm32f10x_fsmc.c ****     }
 671:../../../SDK_embedded/libs/stm32/STM32F10x_StdPeriph_Driver/stm32f10x_fsmc.c ****   }
 672:../../../SDK_embedded/libs/stm32/STM32F10x_StdPeriph_Driver/stm32f10x_fsmc.c **** }
 673:../../../SDK_embedded/libs/stm32/STM32F10x_StdPeriph_Driver/stm32f10x_fsmc.c **** 
 674:../../../SDK_embedded/libs/stm32/STM32F10x_StdPeriph_Driver/stm32f10x_fsmc.c **** /**
 675:../../../SDK_embedded/libs/stm32/STM32F10x_StdPeriph_Driver/stm32f10x_fsmc.c ****   * @brief  Checks whether the specified FSMC flag is set or not.
 676:../../../SDK_embedded/libs/stm32/STM32F10x_StdPeriph_Driver/stm32f10x_fsmc.c ****   * @param  FSMC_Bank: specifies the FSMC Bank to be used
 677:../../../SDK_embedded/libs/stm32/STM32F10x_StdPeriph_Driver/stm32f10x_fsmc.c ****   *   This parameter can be one of the following values:
 678:../../../SDK_embedded/libs/stm32/STM32F10x_StdPeriph_Driver/stm32f10x_fsmc.c ****   *     @arg FSMC_Bank2_NAND: FSMC Bank2 NAND 
 679:../../../SDK_embedded/libs/stm32/STM32F10x_StdPeriph_Driver/stm32f10x_fsmc.c ****   *     @arg FSMC_Bank3_NAND: FSMC Bank3 NAND
 680:../../../SDK_embedded/libs/stm32/STM32F10x_StdPeriph_Driver/stm32f10x_fsmc.c ****   *     @arg FSMC_Bank4_PCCARD: FSMC Bank4 PCCARD
 681:../../../SDK_embedded/libs/stm32/STM32F10x_StdPeriph_Driver/stm32f10x_fsmc.c ****   * @param  FSMC_FLAG: specifies the flag to check.
 682:../../../SDK_embedded/libs/stm32/STM32F10x_StdPeriph_Driver/stm32f10x_fsmc.c ****   *   This parameter can be one of the following values:
 683:../../../SDK_embedded/libs/stm32/STM32F10x_StdPeriph_Driver/stm32f10x_fsmc.c ****   *     @arg FSMC_FLAG_RisingEdge: Rising egde detection Flag.
 684:../../../SDK_embedded/libs/stm32/STM32F10x_StdPeriph_Driver/stm32f10x_fsmc.c ****   *     @arg FSMC_FLAG_Level: Level detection Flag.
 685:../../../SDK_embedded/libs/stm32/STM32F10x_StdPeriph_Driver/stm32f10x_fsmc.c ****   *     @arg FSMC_FLAG_FallingEdge: Falling egde detection Flag.
 686:../../../SDK_embedded/libs/stm32/STM32F10x_StdPeriph_Driver/stm32f10x_fsmc.c ****   *     @arg FSMC_FLAG_FEMPT: Fifo empty Flag. 
 687:../../../SDK_embedded/libs/stm32/STM32F10x_StdPeriph_Driver/stm32f10x_fsmc.c ****   * @retval The new state of FSMC_FLAG (SET or RESET).
 688:../../../SDK_embedded/libs/stm32/STM32F10x_StdPeriph_Driver/stm32f10x_fsmc.c ****   */
 689:../../../SDK_embedded/libs/stm32/STM32F10x_StdPeriph_Driver/stm32f10x_fsmc.c **** FlagStatus FSMC_GetFlagStatus(uint32_t FSMC_Bank, uint32_t FSMC_FLAG)
 690:../../../SDK_embedded/libs/stm32/STM32F10x_StdPeriph_Driver/stm32f10x_fsmc.c **** {
 17599              		.loc 1 690 0
 17600              		.cfi_startproc
 17601              		@ args = 0, pretend = 0, frame = 0
 17602              		@ frame_needed = 0, uses_anonymous_args = 0
 17603              		@ link register save eliminated.
 17604              	.LVL41:
 691:../../../SDK_embedded/libs/stm32/STM32F10x_StdPeriph_Driver/stm32f10x_fsmc.c ****   FlagStatus bitstatus = RESET;
 692:../../../SDK_embedded/libs/stm32/STM32F10x_StdPeriph_Driver/stm32f10x_fsmc.c ****   uint32_t tmpsr = 0x00000000;
 693:../../../SDK_embedded/libs/stm32/STM32F10x_StdPeriph_Driver/stm32f10x_fsmc.c ****   
 694:../../../SDK_embedded/libs/stm32/STM32F10x_StdPeriph_Driver/stm32f10x_fsmc.c ****   /* Check the parameters */
 695:../../../SDK_embedded/libs/stm32/STM32F10x_StdPeriph_Driver/stm32f10x_fsmc.c ****   assert_param(IS_FSMC_GETFLAG_BANK(FSMC_Bank));
 696:../../../SDK_embedded/libs/stm32/STM32F10x_StdPeriph_Driver/stm32f10x_fsmc.c ****   assert_param(IS_FSMC_GET_FLAG(FSMC_FLAG));
 697:../../../SDK_embedded/libs/stm32/STM32F10x_StdPeriph_Driver/stm32f10x_fsmc.c ****   
 698:../../../SDK_embedded/libs/stm32/STM32F10x_StdPeriph_Driver/stm32f10x_fsmc.c ****   if(FSMC_Bank == FSMC_Bank2_NAND)
 17605              		.loc 1 698 0
 17606 0000 1028     		cmp	r0, #16
 699:../../../SDK_embedded/libs/stm32/STM32F10x_StdPeriph_Driver/stm32f10x_fsmc.c ****   {
 700:../../../SDK_embedded/libs/stm32/STM32F10x_StdPeriph_Driver/stm32f10x_fsmc.c ****     tmpsr = FSMC_Bank2->SR2;
 17607              		.loc 1 700 0
 17608 0002 08BF     		it	eq
 17609 0004 064B     		ldreq	r3, .L84
 698:../../../SDK_embedded/libs/stm32/STM32F10x_StdPeriph_Driver/stm32f10x_fsmc.c ****   if(FSMC_Bank == FSMC_Bank2_NAND)
 17610              		.loc 1 698 0
 17611 0006 04D0     		beq	.L83
 701:../../../SDK_embedded/libs/stm32/STM32F10x_StdPeriph_Driver/stm32f10x_fsmc.c ****   }  
 702:../../../SDK_embedded/libs/stm32/STM32F10x_StdPeriph_Driver/stm32f10x_fsmc.c ****   else if(FSMC_Bank == FSMC_Bank3_NAND)
 17612              		.loc 1 702 0
 17613 0008 B0F5807F 		cmp	r0, #256
 703:../../../SDK_embedded/libs/stm32/STM32F10x_StdPeriph_Driver/stm32f10x_fsmc.c ****   {
 704:../../../SDK_embedded/libs/stm32/STM32F10x_StdPeriph_Driver/stm32f10x_fsmc.c ****     tmpsr = FSMC_Bank3->SR3;
 17614              		.loc 1 704 0
 17615 000c 0CBF     		ite	eq
 17616 000e 054B     		ldreq	r3, .L84+4
 705:../../../SDK_embedded/libs/stm32/STM32F10x_StdPeriph_Driver/stm32f10x_fsmc.c ****   }
 706:../../../SDK_embedded/libs/stm32/STM32F10x_StdPeriph_Driver/stm32f10x_fsmc.c ****   /* FSMC_Bank4_PCCARD*/
 707:../../../SDK_embedded/libs/stm32/STM32F10x_StdPeriph_Driver/stm32f10x_fsmc.c ****   else
 708:../../../SDK_embedded/libs/stm32/STM32F10x_StdPeriph_Driver/stm32f10x_fsmc.c ****   {
 709:../../../SDK_embedded/libs/stm32/STM32F10x_StdPeriph_Driver/stm32f10x_fsmc.c ****     tmpsr = FSMC_Bank4->SR4;
 17617              		.loc 1 709 0
 17618 0010 054B     		ldrne	r3, .L84+8
 17619              	.L83:
 17620 0012 5B68     		ldr	r3, [r3, #4]
 17621              	.LVL42:
 710:../../../SDK_embedded/libs/stm32/STM32F10x_StdPeriph_Driver/stm32f10x_fsmc.c ****   } 
 711:../../../SDK_embedded/libs/stm32/STM32F10x_StdPeriph_Driver/stm32f10x_fsmc.c ****   
 712:../../../SDK_embedded/libs/stm32/STM32F10x_StdPeriph_Driver/stm32f10x_fsmc.c ****   /* Get the flag status */
 713:../../../SDK_embedded/libs/stm32/STM32F10x_StdPeriph_Driver/stm32f10x_fsmc.c ****   if ((tmpsr & FSMC_FLAG) != (uint16_t)RESET )
 714:../../../SDK_embedded/libs/stm32/STM32F10x_StdPeriph_Driver/stm32f10x_fsmc.c ****   {
 715:../../../SDK_embedded/libs/stm32/STM32F10x_StdPeriph_Driver/stm32f10x_fsmc.c ****     bitstatus = SET;
 17622              		.loc 1 715 0
 17623 0014 0B42     		tst	r3, r1
 709:../../../SDK_embedded/libs/stm32/STM32F10x_StdPeriph_Driver/stm32f10x_fsmc.c ****     tmpsr = FSMC_Bank4->SR4;
 17624              		.loc 1 709 0
 17625 0016 0CBF     		ite	eq
 17626 0018 0020     		moveq	r0, #0
 17627 001a 0120     		movne	r0, #1
 17628              	.LVL43:
 716:../../../SDK_embedded/libs/stm32/STM32F10x_StdPeriph_Driver/stm32f10x_fsmc.c ****   }
 717:../../../SDK_embedded/libs/stm32/STM32F10x_StdPeriph_Driver/stm32f10x_fsmc.c ****   else
 718:../../../SDK_embedded/libs/stm32/STM32F10x_StdPeriph_Driver/stm32f10x_fsmc.c ****   {
 719:../../../SDK_embedded/libs/stm32/STM32F10x_StdPeriph_Driver/stm32f10x_fsmc.c ****     bitstatus = RESET;
 720:../../../SDK_embedded/libs/stm32/STM32F10x_StdPeriph_Driver/stm32f10x_fsmc.c ****   }
 721:../../../SDK_embedded/libs/stm32/STM32F10x_StdPeriph_Driver/stm32f10x_fsmc.c ****   /* Return the flag status */
 722:../../../SDK_embedded/libs/stm32/STM32F10x_StdPeriph_Driver/stm32f10x_fsmc.c ****   return bitstatus;
 723:../../../SDK_embedded/libs/stm32/STM32F10x_StdPeriph_Driver/stm32f10x_fsmc.c **** }
 17629              		.loc 1 723 0
 17630 001c 7047     		bx	lr
 17631              	.L85:
 17632 001e 00BF     		.align	2
 17633              	.L84:
 17634 0020 600000A0 		.word	-1610612640
 17635 0024 800000A0 		.word	-1610612608
 17636 0028 A00000A0 		.word	-1610612576
 17637              		.cfi_endproc
 17638              	.LFE44:
 17640              		.section	.text.FSMC_ClearFlag,"ax",%progbits
 17641              		.align	1
 17642              		.global	FSMC_ClearFlag
 17643              		.thumb
 17644              		.thumb_func
 17646              	FSMC_ClearFlag:
 17647              	.LFB45:
 724:../../../SDK_embedded/libs/stm32/STM32F10x_StdPeriph_Driver/stm32f10x_fsmc.c **** 
 725:../../../SDK_embedded/libs/stm32/STM32F10x_StdPeriph_Driver/stm32f10x_fsmc.c **** /**
 726:../../../SDK_embedded/libs/stm32/STM32F10x_StdPeriph_Driver/stm32f10x_fsmc.c ****   * @brief  Clears the FSMCs pending flags.
 727:../../../SDK_embedded/libs/stm32/STM32F10x_StdPeriph_Driver/stm32f10x_fsmc.c ****   * @param  FSMC_Bank: specifies the FSMC Bank to be used
 728:../../../SDK_embedded/libs/stm32/STM32F10x_StdPeriph_Driver/stm32f10x_fsmc.c ****   *   This parameter can be one of the following values:
 729:../../../SDK_embedded/libs/stm32/STM32F10x_StdPeriph_Driver/stm32f10x_fsmc.c ****   *     @arg FSMC_Bank2_NAND: FSMC Bank2 NAND 
 730:../../../SDK_embedded/libs/stm32/STM32F10x_StdPeriph_Driver/stm32f10x_fsmc.c ****   *     @arg FSMC_Bank3_NAND: FSMC Bank3 NAND
 731:../../../SDK_embedded/libs/stm32/STM32F10x_StdPeriph_Driver/stm32f10x_fsmc.c ****   *     @arg FSMC_Bank4_PCCARD: FSMC Bank4 PCCARD
 732:../../../SDK_embedded/libs/stm32/STM32F10x_StdPeriph_Driver/stm32f10x_fsmc.c ****   * @param  FSMC_FLAG: specifies the flag to clear.
 733:../../../SDK_embedded/libs/stm32/STM32F10x_StdPeriph_Driver/stm32f10x_fsmc.c ****   *   This parameter can be any combination of the following values:
 734:../../../SDK_embedded/libs/stm32/STM32F10x_StdPeriph_Driver/stm32f10x_fsmc.c ****   *     @arg FSMC_FLAG_RisingEdge: Rising egde detection Flag.
 735:../../../SDK_embedded/libs/stm32/STM32F10x_StdPeriph_Driver/stm32f10x_fsmc.c ****   *     @arg FSMC_FLAG_Level: Level detection Flag.
 736:../../../SDK_embedded/libs/stm32/STM32F10x_StdPeriph_Driver/stm32f10x_fsmc.c ****   *     @arg FSMC_FLAG_FallingEdge: Falling egde detection Flag.
 737:../../../SDK_embedded/libs/stm32/STM32F10x_StdPeriph_Driver/stm32f10x_fsmc.c ****   * @retval None
 738:../../../SDK_embedded/libs/stm32/STM32F10x_StdPeriph_Driver/stm32f10x_fsmc.c ****   */
 739:../../../SDK_embedded/libs/stm32/STM32F10x_StdPeriph_Driver/stm32f10x_fsmc.c **** void FSMC_ClearFlag(uint32_t FSMC_Bank, uint32_t FSMC_FLAG)
 740:../../../SDK_embedded/libs/stm32/STM32F10x_StdPeriph_Driver/stm32f10x_fsmc.c **** {
 17648              		.loc 1 740 0
 17649              		.cfi_startproc
 17650              		@ args = 0, pretend = 0, frame = 0
 17651              		@ frame_needed = 0, uses_anonymous_args = 0
 17652              		@ link register save eliminated.
 17653              	.LVL44:
 741:../../../SDK_embedded/libs/stm32/STM32F10x_StdPeriph_Driver/stm32f10x_fsmc.c ****  /* Check the parameters */
 742:../../../SDK_embedded/libs/stm32/STM32F10x_StdPeriph_Driver/stm32f10x_fsmc.c ****   assert_param(IS_FSMC_GETFLAG_BANK(FSMC_Bank));
 743:../../../SDK_embedded/libs/stm32/STM32F10x_StdPeriph_Driver/stm32f10x_fsmc.c ****   assert_param(IS_FSMC_CLEAR_FLAG(FSMC_FLAG)) ;
 744:../../../SDK_embedded/libs/stm32/STM32F10x_StdPeriph_Driver/stm32f10x_fsmc.c ****     
 745:../../../SDK_embedded/libs/stm32/STM32F10x_StdPeriph_Driver/stm32f10x_fsmc.c ****   if(FSMC_Bank == FSMC_Bank2_NAND)
 17654              		.loc 1 745 0
 17655 0000 1028     		cmp	r0, #16
 17656 0002 04D1     		bne	.L87
 746:../../../SDK_embedded/libs/stm32/STM32F10x_StdPeriph_Driver/stm32f10x_fsmc.c ****   {
 747:../../../SDK_embedded/libs/stm32/STM32F10x_StdPeriph_Driver/stm32f10x_fsmc.c ****     FSMC_Bank2->SR2 &= ~FSMC_FLAG; 
 17657              		.loc 1 747 0
 17658 0004 074B     		ldr	r3, .L92
 17659 0006 5A68     		ldr	r2, [r3, #4]
 17660 0008 22EA0101 		bic	r1, r2, r1
 17661              	.LVL45:
 17662 000c 08E0     		b	.L90
 17663              	.LVL46:
 17664              	.L87:
 748:../../../SDK_embedded/libs/stm32/STM32F10x_StdPeriph_Driver/stm32f10x_fsmc.c ****   }  
 749:../../../SDK_embedded/libs/stm32/STM32F10x_StdPeriph_Driver/stm32f10x_fsmc.c ****   else if(FSMC_Bank == FSMC_Bank3_NAND)
 17665              		.loc 1 749 0
 17666 000e B0F5807F 		cmp	r0, #256
 750:../../../SDK_embedded/libs/stm32/STM32F10x_StdPeriph_Driver/stm32f10x_fsmc.c ****   {
 751:../../../SDK_embedded/libs/stm32/STM32F10x_StdPeriph_Driver/stm32f10x_fsmc.c ****     FSMC_Bank3->SR3 &= ~FSMC_FLAG;
 17667              		.loc 1 751 0
 17668 0012 0CBF     		ite	eq
 17669 0014 044B     		ldreq	r3, .L92+4
 752:../../../SDK_embedded/libs/stm32/STM32F10x_StdPeriph_Driver/stm32f10x_fsmc.c ****   }
 753:../../../SDK_embedded/libs/stm32/STM32F10x_StdPeriph_Driver/stm32f10x_fsmc.c ****   /* FSMC_Bank4_PCCARD*/
 754:../../../SDK_embedded/libs/stm32/STM32F10x_StdPeriph_Driver/stm32f10x_fsmc.c ****   else
 755:../../../SDK_embedded/libs/stm32/STM32F10x_StdPeriph_Driver/stm32f10x_fsmc.c ****   {
 756:../../../SDK_embedded/libs/stm32/STM32F10x_StdPeriph_Driver/stm32f10x_fsmc.c ****     FSMC_Bank4->SR4 &= ~FSMC_FLAG;
 17670              		.loc 1 756 0
 17671 0016 054B     		ldrne	r3, .L92+8
 17672 0018 6FEA0101 		mvn	r1, r1
 17673              	.LVL47:
 17674 001c 5868     		ldr	r0, [r3, #4]
 17675              	.LVL48:
 17676 001e 0140     		ands	r1, r1, r0
 17677              	.LVL49:
 17678              	.L90:
 17679 0020 5960     		str	r1, [r3, #4]
 17680 0022 7047     		bx	lr
 17681              	.L93:
 17682              		.align	2
 17683              	.L92:
 17684 0024 600000A0 		.word	-1610612640
 17685 0028 800000A0 		.word	-1610612608
 17686 002c A00000A0 		.word	-1610612576
 17687              		.cfi_endproc
 17688              	.LFE45:
 17690              		.section	.text.FSMC_GetITStatus,"ax",%progbits
 17691              		.align	1
 17692              		.global	FSMC_GetITStatus
 17693              		.thumb
 17694              		.thumb_func
 17696              	FSMC_GetITStatus:
 17697              	.LFB46:
 757:../../../SDK_embedded/libs/stm32/STM32F10x_StdPeriph_Driver/stm32f10x_fsmc.c ****   }
 758:../../../SDK_embedded/libs/stm32/STM32F10x_StdPeriph_Driver/stm32f10x_fsmc.c **** }
 759:../../../SDK_embedded/libs/stm32/STM32F10x_StdPeriph_Driver/stm32f10x_fsmc.c **** 
 760:../../../SDK_embedded/libs/stm32/STM32F10x_StdPeriph_Driver/stm32f10x_fsmc.c **** /**
 761:../../../SDK_embedded/libs/stm32/STM32F10x_StdPeriph_Driver/stm32f10x_fsmc.c ****   * @brief  Checks whether the specified FSMC interrupt has occurred or not.
 762:../../../SDK_embedded/libs/stm32/STM32F10x_StdPeriph_Driver/stm32f10x_fsmc.c ****   * @param  FSMC_Bank: specifies the FSMC Bank to be used
 763:../../../SDK_embedded/libs/stm32/STM32F10x_StdPeriph_Driver/stm32f10x_fsmc.c ****   *   This parameter can be one of the following values:
 764:../../../SDK_embedded/libs/stm32/STM32F10x_StdPeriph_Driver/stm32f10x_fsmc.c ****   *     @arg FSMC_Bank2_NAND: FSMC Bank2 NAND 
 765:../../../SDK_embedded/libs/stm32/STM32F10x_StdPeriph_Driver/stm32f10x_fsmc.c ****   *     @arg FSMC_Bank3_NAND: FSMC Bank3 NAND
 766:../../../SDK_embedded/libs/stm32/STM32F10x_StdPeriph_Driver/stm32f10x_fsmc.c ****   *     @arg FSMC_Bank4_PCCARD: FSMC Bank4 PCCARD
 767:../../../SDK_embedded/libs/stm32/STM32F10x_StdPeriph_Driver/stm32f10x_fsmc.c ****   * @param  FSMC_IT: specifies the FSMC interrupt source to check.
 768:../../../SDK_embedded/libs/stm32/STM32F10x_StdPeriph_Driver/stm32f10x_fsmc.c ****   *   This parameter can be one of the following values:
 769:../../../SDK_embedded/libs/stm32/STM32F10x_StdPeriph_Driver/stm32f10x_fsmc.c ****   *     @arg FSMC_IT_RisingEdge: Rising edge detection interrupt. 
 770:../../../SDK_embedded/libs/stm32/STM32F10x_StdPeriph_Driver/stm32f10x_fsmc.c ****   *     @arg FSMC_IT_Level: Level edge detection interrupt.
 771:../../../SDK_embedded/libs/stm32/STM32F10x_StdPeriph_Driver/stm32f10x_fsmc.c ****   *     @arg FSMC_IT_FallingEdge: Falling edge detection interrupt. 
 772:../../../SDK_embedded/libs/stm32/STM32F10x_StdPeriph_Driver/stm32f10x_fsmc.c ****   * @retval The new state of FSMC_IT (SET or RESET).
 773:../../../SDK_embedded/libs/stm32/STM32F10x_StdPeriph_Driver/stm32f10x_fsmc.c ****   */
 774:../../../SDK_embedded/libs/stm32/STM32F10x_StdPeriph_Driver/stm32f10x_fsmc.c **** ITStatus FSMC_GetITStatus(uint32_t FSMC_Bank, uint32_t FSMC_IT)
 775:../../../SDK_embedded/libs/stm32/STM32F10x_StdPeriph_Driver/stm32f10x_fsmc.c **** {
 17698              		.loc 1 775 0
 17699              		.cfi_startproc
 17700              		@ args = 0, pretend = 0, frame = 0
 17701              		@ frame_needed = 0, uses_anonymous_args = 0
 17702              		@ link register save eliminated.
 17703              	.LVL50:
 776:../../../SDK_embedded/libs/stm32/STM32F10x_StdPeriph_Driver/stm32f10x_fsmc.c ****   ITStatus bitstatus = RESET;
 777:../../../SDK_embedded/libs/stm32/STM32F10x_StdPeriph_Driver/stm32f10x_fsmc.c ****   uint32_t tmpsr = 0x0, itstatus = 0x0, itenable = 0x0; 
 778:../../../SDK_embedded/libs/stm32/STM32F10x_StdPeriph_Driver/stm32f10x_fsmc.c ****   
 779:../../../SDK_embedded/libs/stm32/STM32F10x_StdPeriph_Driver/stm32f10x_fsmc.c ****   /* Check the parameters */
 780:../../../SDK_embedded/libs/stm32/STM32F10x_StdPeriph_Driver/stm32f10x_fsmc.c ****   assert_param(IS_FSMC_IT_BANK(FSMC_Bank));
 781:../../../SDK_embedded/libs/stm32/STM32F10x_StdPeriph_Driver/stm32f10x_fsmc.c ****   assert_param(IS_FSMC_GET_IT(FSMC_IT));
 782:../../../SDK_embedded/libs/stm32/STM32F10x_StdPeriph_Driver/stm32f10x_fsmc.c ****   
 783:../../../SDK_embedded/libs/stm32/STM32F10x_StdPeriph_Driver/stm32f10x_fsmc.c ****   if(FSMC_Bank == FSMC_Bank2_NAND)
 17704              		.loc 1 783 0
 17705 0000 1028     		cmp	r0, #16
 784:../../../SDK_embedded/libs/stm32/STM32F10x_StdPeriph_Driver/stm32f10x_fsmc.c ****   {
 785:../../../SDK_embedded/libs/stm32/STM32F10x_StdPeriph_Driver/stm32f10x_fsmc.c ****     tmpsr = FSMC_Bank2->SR2;
 17706              		.loc 1 785 0
 17707 0002 08BF     		it	eq
 17708 0004 094B     		ldreq	r3, .L99
 783:../../../SDK_embedded/libs/stm32/STM32F10x_StdPeriph_Driver/stm32f10x_fsmc.c ****   if(FSMC_Bank == FSMC_Bank2_NAND)
 17709              		.loc 1 783 0
 17710 0006 04D0     		beq	.L98
 786:../../../SDK_embedded/libs/stm32/STM32F10x_StdPeriph_Driver/stm32f10x_fsmc.c ****   }  
 787:../../../SDK_embedded/libs/stm32/STM32F10x_StdPeriph_Driver/stm32f10x_fsmc.c ****   else if(FSMC_Bank == FSMC_Bank3_NAND)
 17711              		.loc 1 787 0
 17712 0008 B0F5807F 		cmp	r0, #256
 788:../../../SDK_embedded/libs/stm32/STM32F10x_StdPeriph_Driver/stm32f10x_fsmc.c ****   {
 789:../../../SDK_embedded/libs/stm32/STM32F10x_StdPeriph_Driver/stm32f10x_fsmc.c ****     tmpsr = FSMC_Bank3->SR3;
 17713              		.loc 1 789 0
 17714 000c 0CBF     		ite	eq
 17715 000e 084B     		ldreq	r3, .L99+4
 790:../../../SDK_embedded/libs/stm32/STM32F10x_StdPeriph_Driver/stm32f10x_fsmc.c ****   }
 791:../../../SDK_embedded/libs/stm32/STM32F10x_StdPeriph_Driver/stm32f10x_fsmc.c ****   /* FSMC_Bank4_PCCARD*/
 792:../../../SDK_embedded/libs/stm32/STM32F10x_StdPeriph_Driver/stm32f10x_fsmc.c ****   else
 793:../../../SDK_embedded/libs/stm32/STM32F10x_StdPeriph_Driver/stm32f10x_fsmc.c ****   {
 794:../../../SDK_embedded/libs/stm32/STM32F10x_StdPeriph_Driver/stm32f10x_fsmc.c ****     tmpsr = FSMC_Bank4->SR4;
 17716              		.loc 1 794 0
 17717 0010 084B     		ldrne	r3, .L99+8
 17718              	.L98:
 17719 0012 5B68     		ldr	r3, [r3, #4]
 17720              	.LVL51:
 795:../../../SDK_embedded/libs/stm32/STM32F10x_StdPeriph_Driver/stm32f10x_fsmc.c ****   } 
 796:../../../SDK_embedded/libs/stm32/STM32F10x_StdPeriph_Driver/stm32f10x_fsmc.c ****   
 797:../../../SDK_embedded/libs/stm32/STM32F10x_StdPeriph_Driver/stm32f10x_fsmc.c ****   itstatus = tmpsr & FSMC_IT;
 798:../../../SDK_embedded/libs/stm32/STM32F10x_StdPeriph_Driver/stm32f10x_fsmc.c ****   
 799:../../../SDK_embedded/libs/stm32/STM32F10x_StdPeriph_Driver/stm32f10x_fsmc.c ****   itenable = tmpsr & (FSMC_IT >> 3);
 800:../../../SDK_embedded/libs/stm32/STM32F10x_StdPeriph_Driver/stm32f10x_fsmc.c ****   if ((itstatus != (uint32_t)RESET)  && (itenable != (uint32_t)RESET))
 17721              		.loc 1 800 0
 17722 0014 13EAD102 		ands	r2, r3, r1, lsr #3
 17723 0018 0CBF     		ite	eq
 17724 001a 0020     		moveq	r0, #0
 17725 001c 0120     		movne	r0, #1
 17726              	.LVL52:
 17727 001e 0B42     		tst	r3, r1
 794:../../../SDK_embedded/libs/stm32/STM32F10x_StdPeriph_Driver/stm32f10x_fsmc.c ****     tmpsr = FSMC_Bank4->SR4;
 17728              		.loc 1 794 0
 17729 0020 0CBF     		ite	eq
 17730 0022 0020     		moveq	r0, #0
 17731 0024 00F00100 		andne	r0, r0, #1
 801:../../../SDK_embedded/libs/stm32/STM32F10x_StdPeriph_Driver/stm32f10x_fsmc.c ****   {
 802:../../../SDK_embedded/libs/stm32/STM32F10x_StdPeriph_Driver/stm32f10x_fsmc.c ****     bitstatus = SET;
 803:../../../SDK_embedded/libs/stm32/STM32F10x_StdPeriph_Driver/stm32f10x_fsmc.c ****   }
 804:../../../SDK_embedded/libs/stm32/STM32F10x_StdPeriph_Driver/stm32f10x_fsmc.c ****   else
 805:../../../SDK_embedded/libs/stm32/STM32F10x_StdPeriph_Driver/stm32f10x_fsmc.c ****   {
 806:../../../SDK_embedded/libs/stm32/STM32F10x_StdPeriph_Driver/stm32f10x_fsmc.c ****     bitstatus = RESET;
 807:../../../SDK_embedded/libs/stm32/STM32F10x_StdPeriph_Driver/stm32f10x_fsmc.c ****   }
 808:../../../SDK_embedded/libs/stm32/STM32F10x_StdPeriph_Driver/stm32f10x_fsmc.c ****   return bitstatus; 
 809:../../../SDK_embedded/libs/stm32/STM32F10x_StdPeriph_Driver/stm32f10x_fsmc.c **** }
 17732              		.loc 1 809 0
 17733 0028 7047     		bx	lr
 17734              	.L100:
 17735 002a 00BF     		.align	2
 17736              	.L99:
 17737 002c 600000A0 		.word	-1610612640
 17738 0030 800000A0 		.word	-1610612608
 17739 0034 A00000A0 		.word	-1610612576
 17740              		.cfi_endproc
 17741              	.LFE46:
 17743              		.section	.text.FSMC_ClearITPendingBit,"ax",%progbits
 17744              		.align	1
 17745              		.global	FSMC_ClearITPendingBit
 17746              		.thumb
 17747              		.thumb_func
 17749              	FSMC_ClearITPendingBit:
 17750              	.LFB47:
 810:../../../SDK_embedded/libs/stm32/STM32F10x_StdPeriph_Driver/stm32f10x_fsmc.c **** 
 811:../../../SDK_embedded/libs/stm32/STM32F10x_StdPeriph_Driver/stm32f10x_fsmc.c **** /**
 812:../../../SDK_embedded/libs/stm32/STM32F10x_StdPeriph_Driver/stm32f10x_fsmc.c ****   * @brief  Clears the FSMCs interrupt pending bits.
 813:../../../SDK_embedded/libs/stm32/STM32F10x_StdPeriph_Driver/stm32f10x_fsmc.c ****   * @param  FSMC_Bank: specifies the FSMC Bank to be used
 814:../../../SDK_embedded/libs/stm32/STM32F10x_StdPeriph_Driver/stm32f10x_fsmc.c ****   *   This parameter can be one of the following values:
 815:../../../SDK_embedded/libs/stm32/STM32F10x_StdPeriph_Driver/stm32f10x_fsmc.c ****   *     @arg FSMC_Bank2_NAND: FSMC Bank2 NAND 
 816:../../../SDK_embedded/libs/stm32/STM32F10x_StdPeriph_Driver/stm32f10x_fsmc.c ****   *     @arg FSMC_Bank3_NAND: FSMC Bank3 NAND
 817:../../../SDK_embedded/libs/stm32/STM32F10x_StdPeriph_Driver/stm32f10x_fsmc.c ****   *     @arg FSMC_Bank4_PCCARD: FSMC Bank4 PCCARD
 818:../../../SDK_embedded/libs/stm32/STM32F10x_StdPeriph_Driver/stm32f10x_fsmc.c ****   * @param  FSMC_IT: specifies the interrupt pending bit to clear.
 819:../../../SDK_embedded/libs/stm32/STM32F10x_StdPeriph_Driver/stm32f10x_fsmc.c ****   *   This parameter can be any combination of the following values:
 820:../../../SDK_embedded/libs/stm32/STM32F10x_StdPeriph_Driver/stm32f10x_fsmc.c ****   *     @arg FSMC_IT_RisingEdge: Rising edge detection interrupt. 
 821:../../../SDK_embedded/libs/stm32/STM32F10x_StdPeriph_Driver/stm32f10x_fsmc.c ****   *     @arg FSMC_IT_Level: Level edge detection interrupt.
 822:../../../SDK_embedded/libs/stm32/STM32F10x_StdPeriph_Driver/stm32f10x_fsmc.c ****   *     @arg FSMC_IT_FallingEdge: Falling edge detection interrupt.
 823:../../../SDK_embedded/libs/stm32/STM32F10x_StdPeriph_Driver/stm32f10x_fsmc.c ****   * @retval None
 824:../../../SDK_embedded/libs/stm32/STM32F10x_StdPeriph_Driver/stm32f10x_fsmc.c ****   */
 825:../../../SDK_embedded/libs/stm32/STM32F10x_StdPeriph_Driver/stm32f10x_fsmc.c **** void FSMC_ClearITPendingBit(uint32_t FSMC_Bank, uint32_t FSMC_IT)
 826:../../../SDK_embedded/libs/stm32/STM32F10x_StdPeriph_Driver/stm32f10x_fsmc.c **** {
 17751              		.loc 1 826 0
 17752              		.cfi_startproc
 17753              		@ args = 0, pretend = 0, frame = 0
 17754              		@ frame_needed = 0, uses_anonymous_args = 0
 17755              		@ link register save eliminated.
 17756              	.LVL53:
 827:../../../SDK_embedded/libs/stm32/STM32F10x_StdPeriph_Driver/stm32f10x_fsmc.c ****   /* Check the parameters */
 828:../../../SDK_embedded/libs/stm32/STM32F10x_StdPeriph_Driver/stm32f10x_fsmc.c ****   assert_param(IS_FSMC_IT_BANK(FSMC_Bank));
 829:../../../SDK_embedded/libs/stm32/STM32F10x_StdPeriph_Driver/stm32f10x_fsmc.c ****   assert_param(IS_FSMC_IT(FSMC_IT));
 830:../../../SDK_embedded/libs/stm32/STM32F10x_StdPeriph_Driver/stm32f10x_fsmc.c ****     
 831:../../../SDK_embedded/libs/stm32/STM32F10x_StdPeriph_Driver/stm32f10x_fsmc.c ****   if(FSMC_Bank == FSMC_Bank2_NAND)
 17757              		.loc 1 831 0
 17758 0000 1028     		cmp	r0, #16
 17759 0002 04D1     		bne	.L102
 832:../../../SDK_embedded/libs/stm32/STM32F10x_StdPeriph_Driver/stm32f10x_fsmc.c ****   {
 833:../../../SDK_embedded/libs/stm32/STM32F10x_StdPeriph_Driver/stm32f10x_fsmc.c ****     FSMC_Bank2->SR2 &= ~(FSMC_IT >> 3); 
 17760              		.loc 1 833 0
 17761 0004 084B     		ldr	r3, .L107
 17762 0006 5A68     		ldr	r2, [r3, #4]
 17763 0008 22EAD101 		bic	r1, r2, r1, lsr #3
 17764              	.LVL54:
 17765 000c 09E0     		b	.L105
 17766              	.LVL55:
 17767              	.L102:
 834:../../../SDK_embedded/libs/stm32/STM32F10x_StdPeriph_Driver/stm32f10x_fsmc.c ****   }  
 835:../../../SDK_embedded/libs/stm32/STM32F10x_StdPeriph_Driver/stm32f10x_fsmc.c ****   else if(FSMC_Bank == FSMC_Bank3_NAND)
 17768              		.loc 1 835 0
 17769 000e B0F5807F 		cmp	r0, #256
 836:../../../SDK_embedded/libs/stm32/STM32F10x_StdPeriph_Driver/stm32f10x_fsmc.c ****   {
 837:../../../SDK_embedded/libs/stm32/STM32F10x_StdPeriph_Driver/stm32f10x_fsmc.c ****     FSMC_Bank3->SR3 &= ~(FSMC_IT >> 3);
 17770              		.loc 1 837 0
 17771 0012 0CBF     		ite	eq
 17772 0014 054B     		ldreq	r3, .L107+4
 838:../../../SDK_embedded/libs/stm32/STM32F10x_StdPeriph_Driver/stm32f10x_fsmc.c ****   }
 839:../../../SDK_embedded/libs/stm32/STM32F10x_StdPeriph_Driver/stm32f10x_fsmc.c ****   /* FSMC_Bank4_PCCARD*/
 840:../../../SDK_embedded/libs/stm32/STM32F10x_StdPeriph_Driver/stm32f10x_fsmc.c ****   else
 841:../../../SDK_embedded/libs/stm32/STM32F10x_StdPeriph_Driver/stm32f10x_fsmc.c ****   {
 842:../../../SDK_embedded/libs/stm32/STM32F10x_StdPeriph_Driver/stm32f10x_fsmc.c ****     FSMC_Bank4->SR4 &= ~(FSMC_IT >> 3);
 17773              		.loc 1 842 0
 17774 0016 064B     		ldrne	r3, .L107+8
 17775 0018 4FEAD101 		lsr	r1, r1, #3
 17776              	.LVL56:
 17777 001c 5868     		ldr	r0, [r3, #4]
 17778              	.LVL57:
 17779 001e 20EA0101 		bic	r1, r0, r1
 17780              	.L105:
 17781 0022 5960     		str	r1, [r3, #4]
 17782 0024 7047     		bx	lr
 17783              	.L108:
 17784 0026 00BF     		.align	2
 17785              	.L107:
 17786 0028 600000A0 		.word	-1610612640
 17787 002c 800000A0 		.word	-1610612608
 17788 0030 A00000A0 		.word	-1610612576
 17789              		.cfi_endproc
 17790              	.LFE47:
 17792              		.text
 17793              	.Letext0: