   1              		.syntax unified
   2              		.cpu cortex-m3
   3              		.fpu softvfp
   4              		.eabi_attribute 20, 1
   5              		.eabi_attribute 21, 1
   6              		.eabi_attribute 23, 3
   7              		.eabi_attribute 24, 1
   8              		.eabi_attribute 25, 1
   9              		.eabi_attribute 26, 1
  10              		.eabi_attribute 30, 4
  11              		.eabi_attribute 18, 4
  12              		.thumb
  13              		.file	"stm32f10x_it.c"
  23              	.Ltext0:
 20129              		.align	1
 20130              		.global	NMIException
 20131              		.thumb
 20132              		.thumb_func
 20134              	NMIException:
 20135              	.LFB30:
   1:stm32f10x_it.c **** /******************** (C) COPYRIGHT 2008 STMicroelectronics ********************
   2:stm32f10x_it.c **** * File Name          : stm32f10x_it.c
   3:stm32f10x_it.c **** * Author             : MCD Application Team
   4:stm32f10x_it.c **** * Version            : V2.2.1
   5:stm32f10x_it.c **** * Date               : 09/22/2008
   6:stm32f10x_it.c **** * Description        : Main Interrupt Service Routines.
   7:stm32f10x_it.c **** *                      This file provides template for all exceptions handler
   8:stm32f10x_it.c **** *                      and peripherals interrupt service routine.
   9:stm32f10x_it.c **** ********************************************************************************
  10:stm32f10x_it.c **** * THE PRESENT FIRMWARE WHICH IS FOR GUIDANCE ONLY AIMS AT PROVIDING CUSTOMERS
  11:stm32f10x_it.c **** * WITH CODING INFORMATION REGARDING THEIR PRODUCTS IN ORDER FOR THEM TO SAVE TIME.
  12:stm32f10x_it.c **** * AS A RESULT, STMICROELECTRONICS SHALL NOT BE HELD LIABLE FOR ANY DIRECT,
  13:stm32f10x_it.c **** * INDIRECT OR CONSEQUENTIAL DAMAGES WITH RESPECT TO ANY CLAIMS ARISING FROM THE
  14:stm32f10x_it.c **** * CONTENT OF SUCH FIRMWARE AND/OR THE USE MADE BY CUSTOMERS OF THE CODING
  15:stm32f10x_it.c **** * INFORMATION CONTAINED HEREIN IN CONNECTION WITH THEIR PRODUCTS.
  16:stm32f10x_it.c **** *******************************************************************************/
  17:stm32f10x_it.c **** 
  18:stm32f10x_it.c **** /* Includes ------------------------------------------------------------------*/
  19:stm32f10x_it.c **** #include "appdefs.h"
  20:stm32f10x_it.c **** #include "stm32f10x_it.h"
  21:stm32f10x_it.c **** #include "usb_istr.h"
  22:stm32f10x_it.c **** 
  23:stm32f10x_it.c **** #include "can.h"
  24:stm32f10x_it.c **** #include "sdcard.h"
  25:stm32f10x_it.c **** 
  26:stm32f10x_it.c **** 
  27:stm32f10x_it.c **** /* Private typedef -----------------------------------------------------------*/
  28:stm32f10x_it.c **** /* Private define ------------------------------------------------------------*/
  29:stm32f10x_it.c **** /* Private macro -------------------------------------------------------------*/
  30:stm32f10x_it.c **** /* Private variables ---------------------------------------------------------*/
  31:stm32f10x_it.c **** /* Private function prototypes -----------------------------------------------*/
  32:stm32f10x_it.c **** /* Private functions ---------------------------------------------------------*/
  33:stm32f10x_it.c **** 
  34:stm32f10x_it.c **** /*******************************************************************************
  35:stm32f10x_it.c **** * Function Name  : NMIException
  36:stm32f10x_it.c **** * Description    : This function handles NMI exception.
  37:stm32f10x_it.c **** * Input          : None
  38:stm32f10x_it.c **** * Output         : None
  39:stm32f10x_it.c **** * Return         : None
  40:stm32f10x_it.c **** *******************************************************************************/
  41:stm32f10x_it.c **** void NMIException(void)
  42:stm32f10x_it.c **** {}
 20136              		.loc 1 42 0
 20137              		.cfi_startproc
 20138              		@ args = 0, pretend = 0, frame = 0
 20139              		@ frame_needed = 0, uses_anonymous_args = 0
 20140              		@ link register save eliminated.
 20141              		.loc 1 42 0
 20142 0000 7047     		bx	lr
 20143              		.cfi_endproc
 20144              	.LFE30:
 20146              		.section	.text.HardFaultException,"ax",%progbits
 20147              		.align	1
 20148              		.global	HardFaultException
 20149              		.thumb
 20150              		.thumb_func
 20152              	HardFaultException:
 20153              	.LFB31:
  43:stm32f10x_it.c **** 
  44:stm32f10x_it.c **** /*******************************************************************************
  45:stm32f10x_it.c **** * Function Name  : HardFaultException
  46:stm32f10x_it.c **** * Description    : This function handles Hard Fault exception.
  47:stm32f10x_it.c **** * Input          : None
  48:stm32f10x_it.c **** * Output         : None
  49:stm32f10x_it.c **** * Return         : None
  50:stm32f10x_it.c **** *******************************************************************************/
  51:stm32f10x_it.c **** void HardFaultException(void)
  52:stm32f10x_it.c **** {
 20154              		.loc 1 52 0
 20155              		.cfi_startproc
 20156              		@ Volatile: function does not return.
 20157              		@ args = 0, pretend = 0, frame = 0
 20158              		@ frame_needed = 0, uses_anonymous_args = 0
 20159              		@ link register save eliminated.
 20160              	.L3:
  53:stm32f10x_it.c ****   /* Go to infinite loop when Hard Fault exception occurs */
  54:stm32f10x_it.c ****   while (1)
  55:stm32f10x_it.c ****   {
  56:stm32f10x_it.c ****     asm volatile  ("nop");
 20161              		.loc 1 56 0 discriminator 1
 20162              	@ 56 "stm32f10x_it.c" 1
 20163 0000 00BF     		nop
 20164              	@ 0 "" 2
 20165              		.thumb
 20166 0002 FDE7     		b	.L3
 20167              		.cfi_endproc
 20168              	.LFE31:
 20170              		.section	.text.MemManageException,"ax",%progbits
 20171              		.align	1
 20172              		.global	MemManageException
 20173              		.thumb
 20174              		.thumb_func
 20176              	MemManageException:
 20177              	.LFB32:
  57:stm32f10x_it.c ****   }
  58:stm32f10x_it.c **** }
  59:stm32f10x_it.c **** 
  60:stm32f10x_it.c **** /*******************************************************************************
  61:stm32f10x_it.c **** * Function Name  : MemManageException
  62:stm32f10x_it.c **** * Description    : This function handles Memory Manage exception.
  63:stm32f10x_it.c **** * Input          : None
  64:stm32f10x_it.c **** * Output         : None
  65:stm32f10x_it.c **** * Return         : None
  66:stm32f10x_it.c **** *******************************************************************************/
  67:stm32f10x_it.c **** void MemManageException(void)
  68:stm32f10x_it.c **** {
 20178              		.loc 1 68 0
 20179              		.cfi_startproc
 20180              		@ Volatile: function does not return.
 20181              		@ args = 0, pretend = 0, frame = 0
 20182              		@ frame_needed = 0, uses_anonymous_args = 0
 20183              		@ link register save eliminated.
 20184              	.L5:
 20185 0000 FEE7     		b	.L5
 20186              		.cfi_endproc
 20187              	.LFE32:
 20189              		.section	.text.BusFaultException,"ax",%progbits
 20190              		.align	1
 20191              		.global	BusFaultException
 20192              		.thumb
 20193              		.thumb_func
 20195              	BusFaultException:
 20196              	.LFB33:
  69:stm32f10x_it.c ****   /* Go to infinite loop when Memory Manage exception occurs */
  70:stm32f10x_it.c ****   while (1)
  71:stm32f10x_it.c ****   {}
  72:stm32f10x_it.c **** }
  73:stm32f10x_it.c **** 
  74:stm32f10x_it.c **** /*******************************************************************************
  75:stm32f10x_it.c **** * Function Name  : BusFaultException
  76:stm32f10x_it.c **** * Description    : This function handles Bus Fault exception.
  77:stm32f10x_it.c **** * Input          : None
  78:stm32f10x_it.c **** * Output         : None
  79:stm32f10x_it.c **** * Return         : None
  80:stm32f10x_it.c **** *******************************************************************************/
  81:stm32f10x_it.c **** void BusFaultException(void)
  82:stm32f10x_it.c **** {
 20197              		.loc 1 82 0
 20198              		.cfi_startproc
 20199              		@ Volatile: function does not return.
 20200              		@ args = 0, pretend = 0, frame = 0
 20201              		@ frame_needed = 0, uses_anonymous_args = 0
 20202              		@ link register save eliminated.
 20203              	.L7:
 20204 0000 FEE7     		b	.L7
 20205              		.cfi_endproc
 20206              	.LFE33:
 20208              		.section	.text.UsageFaultException,"ax",%progbits
 20209              		.align	1
 20210              		.global	UsageFaultException
 20211              		.thumb
 20212              		.thumb_func
 20214              	UsageFaultException:
 20215              	.LFB34:
  83:stm32f10x_it.c ****   /* Go to infinite loop when Bus Fault exception occurs */
  84:stm32f10x_it.c ****   while (1)
  85:stm32f10x_it.c ****   {}
  86:stm32f10x_it.c **** }
  87:stm32f10x_it.c **** 
  88:stm32f10x_it.c **** /*******************************************************************************
  89:stm32f10x_it.c **** * Function Name  : UsageFaultException
  90:stm32f10x_it.c **** * Description    : This function handles Usage Fault exception.
  91:stm32f10x_it.c **** * Input          : None
  92:stm32f10x_it.c **** * Output         : None
  93:stm32f10x_it.c **** * Return         : None
  94:stm32f10x_it.c **** *******************************************************************************/
  95:stm32f10x_it.c **** void UsageFaultException(void)
  96:stm32f10x_it.c **** {
 20216              		.loc 1 96 0
 20217              		.cfi_startproc
 20218              		@ Volatile: function does not return.
 20219              		@ args = 0, pretend = 0, frame = 0
 20220              		@ frame_needed = 0, uses_anonymous_args = 0
 20221              		@ link register save eliminated.
 20222              	.L9:
 20223 0000 FEE7     		b	.L9
 20224              		.cfi_endproc
 20225              	.LFE34:
 20227              		.section	.text.DebugMonitor,"ax",%progbits
 20228              		.align	1
 20229              		.global	DebugMonitor
 20230              		.thumb
 20231              		.thumb_func
 20233              	DebugMonitor:
 20234              	.LFB35:
  97:stm32f10x_it.c ****   /* Go to infinite loop when Usage Fault exception occurs */
  98:stm32f10x_it.c ****   while (1)
  99:stm32f10x_it.c ****   {}
 100:stm32f10x_it.c **** }
 101:stm32f10x_it.c **** 
 102:stm32f10x_it.c **** /*******************************************************************************
 103:stm32f10x_it.c **** * Function Name  : DebugMonitor
 104:stm32f10x_it.c **** * Description    : This function handles Debug Monitor exception.
 105:stm32f10x_it.c **** * Input          : None
 106:stm32f10x_it.c **** * Output         : None
 107:stm32f10x_it.c **** * Return         : None
 108:stm32f10x_it.c **** *******************************************************************************/
 109:stm32f10x_it.c **** void DebugMonitor(void)
 110:stm32f10x_it.c **** {}
 20235              		.loc 1 110 0
 20236              		.cfi_startproc
 20237              		@ args = 0, pretend = 0, frame = 0
 20238              		@ frame_needed = 0, uses_anonymous_args = 0
 20239              		@ link register save eliminated.
 20240              		.loc 1 110 0
 20241 0000 7047     		bx	lr
 20242              		.cfi_endproc
 20243              	.LFE35:
 20245              		.section	.text.SVCHandler,"ax",%progbits
 20246              		.align	1
 20247              		.global	SVCHandler
 20248              		.thumb
 20249              		.thumb_func
 20251              	SVCHandler:
 20252              	.LFB36:
 111:stm32f10x_it.c **** 
 112:stm32f10x_it.c **** /*******************************************************************************
 113:stm32f10x_it.c **** * Function Name  : SVCHandler
 114:stm32f10x_it.c **** * Description    : This function handles SVCall exception.
 115:stm32f10x_it.c **** * Input          : None
 116:stm32f10x_it.c **** * Output         : None
 117:stm32f10x_it.c **** * Return         : None
 118:stm32f10x_it.c **** *******************************************************************************/
 119:stm32f10x_it.c **** void SVCHandler(void)
 120:stm32f10x_it.c **** {
 20253              		.loc 1 120 0
 20254              		.cfi_startproc
 20255              		@ args = 0, pretend = 0, frame = 0
 20256              		@ frame_needed = 0, uses_anonymous_args = 0
 20257              		@ link register save eliminated.
 121:stm32f10x_it.c **** }
 20258              		.loc 1 121 0
 20259 0000 7047     		bx	lr
 20260              		.cfi_endproc
 20261              	.LFE36:
 20263              		.section	.text.PendSVC,"ax",%progbits
 20264              		.align	1
 20265              		.global	PendSVC
 20266              		.thumb
 20267              		.thumb_func
 20269              	PendSVC:
 20270              	.LFB37:
 122:stm32f10x_it.c **** 
 123:stm32f10x_it.c **** /*******************************************************************************
 124:stm32f10x_it.c **** * Function Name  : PendSVC
 125:stm32f10x_it.c **** * Description    : This function handles PendSVC exception.
 126:stm32f10x_it.c **** * Input          : None
 127:stm32f10x_it.c **** * Output         : None
 128:stm32f10x_it.c **** * Return         : None
 129:stm32f10x_it.c **** *******************************************************************************/
 130:stm32f10x_it.c **** void PendSVC(void)
 131:stm32f10x_it.c **** {}
 20271              		.loc 1 131 0
 20272              		.cfi_startproc
 20273              		@ args = 0, pretend = 0, frame = 0
 20274              		@ frame_needed = 0, uses_anonymous_args = 0
 20275              		@ link register save eliminated.
 20276              		.loc 1 131 0
 20277 0000 7047     		bx	lr
 20278              		.cfi_endproc
 20279              	.LFE37:
 20281              		.section	.text.SysTickHandler,"ax",%progbits
 20282              		.align	1
 20283              		.global	SysTickHandler
 20284              		.thumb
 20285              		.thumb_func
 20287              	SysTickHandler:
 20288              	.LFB38:
 132:stm32f10x_it.c **** 
 133:stm32f10x_it.c **** /*******************************************************************************
 134:stm32f10x_it.c **** * Function Name  : SysTickHandler
 135:stm32f10x_it.c **** * Description    : This function handles SysTick Handler.
 136:stm32f10x_it.c **** * Input          : None
 137:stm32f10x_it.c **** * Output         : None
 138:stm32f10x_it.c **** * Return         : None
 139:stm32f10x_it.c **** *******************************************************************************/
 140:stm32f10x_it.c **** void SysTickHandler(void)
 141:stm32f10x_it.c **** {}
 20289              		.loc 1 141 0
 20290              		.cfi_startproc
 20291              		@ args = 0, pretend = 0, frame = 0
 20292              		@ frame_needed = 0, uses_anonymous_args = 0
 20293              		@ link register save eliminated.
 20294              		.loc 1 141 0
 20295 0000 7047     		bx	lr
 20296              		.cfi_endproc
 20297              	.LFE38:
 20299              		.section	.text.WWDG_IRQHandler,"ax",%progbits
 20300              		.align	1
 20301              		.global	WWDG_IRQHandler
 20302              		.thumb
 20303              		.thumb_func
 20305              	WWDG_IRQHandler:
 20306              	.LFB39:
 142:stm32f10x_it.c **** 
 143:stm32f10x_it.c **** /*******************************************************************************
 144:stm32f10x_it.c **** * Function Name  : WWDG_IRQHandler
 145:stm32f10x_it.c **** * Description    : This function handles WWDG interrupt request.
 146:stm32f10x_it.c **** * Input          : None
 147:stm32f10x_it.c **** * Output         : None
 148:stm32f10x_it.c **** * Return         : None
 149:stm32f10x_it.c **** *******************************************************************************/
 150:stm32f10x_it.c **** void WWDG_IRQHandler(void)
 151:stm32f10x_it.c **** {}
 20307              		.loc 1 151 0
 20308              		.cfi_startproc
 20309              		@ args = 0, pretend = 0, frame = 0
 20310              		@ frame_needed = 0, uses_anonymous_args = 0
 20311              		@ link register save eliminated.
 20312              		.loc 1 151 0
 20313 0000 7047     		bx	lr
 20314              		.cfi_endproc
 20315              	.LFE39:
 20317              		.section	.text.PVD_IRQHandler,"ax",%progbits
 20318              		.align	1
 20319              		.global	PVD_IRQHandler
 20320              		.thumb
 20321              		.thumb_func
 20323              	PVD_IRQHandler:
 20324              	.LFB40:
 152:stm32f10x_it.c **** 
 153:stm32f10x_it.c **** /*******************************************************************************
 154:stm32f10x_it.c **** * Function Name  : PVD_IRQHandler
 155:stm32f10x_it.c **** * Description    : This function handles PVD interrupt request.
 156:stm32f10x_it.c **** * Input          : None
 157:stm32f10x_it.c **** * Output         : None
 158:stm32f10x_it.c **** * Return         : None
 159:stm32f10x_it.c **** *******************************************************************************/
 160:stm32f10x_it.c **** void PVD_IRQHandler(void)
 161:stm32f10x_it.c **** {}
 20325              		.loc 1 161 0
 20326              		.cfi_startproc
 20327              		@ args = 0, pretend = 0, frame = 0
 20328              		@ frame_needed = 0, uses_anonymous_args = 0
 20329              		@ link register save eliminated.
 20330              		.loc 1 161 0
 20331 0000 7047     		bx	lr
 20332              		.cfi_endproc
 20333              	.LFE40:
 20335              		.section	.text.TAMPER_IRQHandler,"ax",%progbits
 20336              		.align	1
 20337              		.global	TAMPER_IRQHandler
 20338              		.thumb
 20339              		.thumb_func
 20341              	TAMPER_IRQHandler:
 20342              	.LFB41:
 162:stm32f10x_it.c **** 
 163:stm32f10x_it.c **** /*******************************************************************************
 164:stm32f10x_it.c **** * Function Name  : TAMPER_IRQHandler
 165:stm32f10x_it.c **** * Description    : This function handles Tamper interrupt request.
 166:stm32f10x_it.c **** * Input          : None
 167:stm32f10x_it.c **** * Output         : None
 168:stm32f10x_it.c **** * Return         : None
 169:stm32f10x_it.c **** *******************************************************************************/
 170:stm32f10x_it.c **** void TAMPER_IRQHandler(void)
 171:stm32f10x_it.c **** {}
 20343              		.loc 1 171 0
 20344              		.cfi_startproc
 20345              		@ args = 0, pretend = 0, frame = 0
 20346              		@ frame_needed = 0, uses_anonymous_args = 0
 20347              		@ link register save eliminated.
 20348              		.loc 1 171 0
 20349 0000 7047     		bx	lr
 20350              		.cfi_endproc
 20351              	.LFE41:
 20353              		.section	.text.RTC_IRQHandler,"ax",%progbits
 20354              		.align	1
 20355              		.global	RTC_IRQHandler
 20356              		.thumb
 20357              		.thumb_func
 20359              	RTC_IRQHandler:
 20360              	.LFB42:
 172:stm32f10x_it.c **** 
 173:stm32f10x_it.c **** /*******************************************************************************
 174:stm32f10x_it.c **** * Function Name  : RTC_IRQHandler
 175:stm32f10x_it.c **** * Description    : This function handles RTC global interrupt request.
 176:stm32f10x_it.c **** * Input          : None
 177:stm32f10x_it.c **** * Output         : None
 178:stm32f10x_it.c **** * Return         : None
 179:stm32f10x_it.c **** *******************************************************************************/
 180:stm32f10x_it.c **** void RTC_IRQHandler(void)
 181:stm32f10x_it.c **** {}
 20361              		.loc 1 181 0
 20362              		.cfi_startproc
 20363              		@ args = 0, pretend = 0, frame = 0
 20364              		@ frame_needed = 0, uses_anonymous_args = 0
 20365              		@ link register save eliminated.
 20366              		.loc 1 181 0
 20367 0000 7047     		bx	lr
 20368              		.cfi_endproc
 20369              	.LFE42:
 20371              		.section	.text.FLASH_IRQHandler,"ax",%progbits
 20372              		.align	1
 20373              		.global	FLASH_IRQHandler
 20374              		.thumb
 20375              		.thumb_func
 20377              	FLASH_IRQHandler:
 20378              	.LFB43:
 182:stm32f10x_it.c **** 
 183:stm32f10x_it.c **** /*******************************************************************************
 184:stm32f10x_it.c **** * Function Name  : FLASH_IRQHandler
 185:stm32f10x_it.c **** * Description    : This function handles Flash interrupt request.
 186:stm32f10x_it.c **** * Input          : None
 187:stm32f10x_it.c **** * Output         : None
 188:stm32f10x_it.c **** * Return         : None
 189:stm32f10x_it.c **** *******************************************************************************/
 190:stm32f10x_it.c **** void FLASH_IRQHandler(void)
 191:stm32f10x_it.c **** {}
 20379              		.loc 1 191 0
 20380              		.cfi_startproc
 20381              		@ args = 0, pretend = 0, frame = 0
 20382              		@ frame_needed = 0, uses_anonymous_args = 0
 20383              		@ link register save eliminated.
 20384              		.loc 1 191 0
 20385 0000 7047     		bx	lr
 20386              		.cfi_endproc
 20387              	.LFE43:
 20389              		.section	.text.RCC_IRQHandler,"ax",%progbits
 20390              		.align	1
 20391              		.global	RCC_IRQHandler
 20392              		.thumb
 20393              		.thumb_func
 20395              	RCC_IRQHandler:
 20396              	.LFB44:
 192:stm32f10x_it.c **** 
 193:stm32f10x_it.c **** /*******************************************************************************
 194:stm32f10x_it.c **** * Function Name  : RCC_IRQHandler
 195:stm32f10x_it.c **** * Description    : This function handles RCC interrupt request.
 196:stm32f10x_it.c **** * Input          : None
 197:stm32f10x_it.c **** * Output         : None
 198:stm32f10x_it.c **** * Return         : None
 199:stm32f10x_it.c **** *******************************************************************************/
 200:stm32f10x_it.c **** void RCC_IRQHandler(void)
 201:stm32f10x_it.c **** {}
 20397              		.loc 1 201 0
 20398              		.cfi_startproc
 20399              		@ args = 0, pretend = 0, frame = 0
 20400              		@ frame_needed = 0, uses_anonymous_args = 0
 20401              		@ link register save eliminated.
 20402              		.loc 1 201 0
 20403 0000 7047     		bx	lr
 20404              		.cfi_endproc
 20405              	.LFE44:
 20407              		.section	.text.EXTI0_IRQHandler,"ax",%progbits
 20408              		.align	1
 20409              		.global	EXTI0_IRQHandler
 20410              		.thumb
 20411              		.thumb_func
 20413              	EXTI0_IRQHandler:
 20414              	.LFB45:
 202:stm32f10x_it.c **** 
 203:stm32f10x_it.c **** /*******************************************************************************
 204:stm32f10x_it.c **** * Function Name  : EXTI0_IRQHandler
 205:stm32f10x_it.c **** * Description    : This function handles External interrupt Line 0 request.
 206:stm32f10x_it.c **** * Input          : None
 207:stm32f10x_it.c **** * Output         : None
 208:stm32f10x_it.c **** * Return         : None
 209:stm32f10x_it.c **** *******************************************************************************/
 210:stm32f10x_it.c **** void EXTI0_IRQHandler(void)
 211:stm32f10x_it.c **** {}
 20415              		.loc 1 211 0
 20416              		.cfi_startproc
 20417              		@ args = 0, pretend = 0, frame = 0
 20418              		@ frame_needed = 0, uses_anonymous_args = 0
 20419              		@ link register save eliminated.
 20420              		.loc 1 211 0
 20421 0000 7047     		bx	lr
 20422              		.cfi_endproc
 20423              	.LFE45:
 20425              		.section	.text.EXTI1_IRQHandler,"ax",%progbits
 20426              		.align	1
 20427              		.global	EXTI1_IRQHandler
 20428              		.thumb
 20429              		.thumb_func
 20431              	EXTI1_IRQHandler:
 20432              	.LFB46:
 212:stm32f10x_it.c **** 
 213:stm32f10x_it.c **** /*******************************************************************************
 214:stm32f10x_it.c **** * Function Name  : EXTI1_IRQHandler
 215:stm32f10x_it.c **** * Description    : This function handles External interrupt Line 1 request.
 216:stm32f10x_it.c **** * Input          : None
 217:stm32f10x_it.c **** * Output         : None
 218:stm32f10x_it.c **** * Return         : None
 219:stm32f10x_it.c **** *******************************************************************************/
 220:stm32f10x_it.c **** void EXTI1_IRQHandler(void)
 221:stm32f10x_it.c **** {}
 20433              		.loc 1 221 0
 20434              		.cfi_startproc
 20435              		@ args = 0, pretend = 0, frame = 0
 20436              		@ frame_needed = 0, uses_anonymous_args = 0
 20437              		@ link register save eliminated.
 20438              		.loc 1 221 0
 20439 0000 7047     		bx	lr
 20440              		.cfi_endproc
 20441              	.LFE46:
 20443              		.section	.text.EXTI2_IRQHandler,"ax",%progbits
 20444              		.align	1
 20445              		.global	EXTI2_IRQHandler
 20446              		.thumb
 20447              		.thumb_func
 20449              	EXTI2_IRQHandler:
 20450              	.LFB47:
 222:stm32f10x_it.c **** 
 223:stm32f10x_it.c **** /*******************************************************************************
 224:stm32f10x_it.c **** * Function Name  : EXTI2_IRQHandler
 225:stm32f10x_it.c **** * Description    : This function handles External interrupt Line 2 request.
 226:stm32f10x_it.c **** * Input          : None
 227:stm32f10x_it.c **** * Output         : None
 228:stm32f10x_it.c **** * Return         : None
 229:stm32f10x_it.c **** *******************************************************************************/
 230:stm32f10x_it.c **** void EXTI2_IRQHandler(void)
 231:stm32f10x_it.c **** {}
 20451              		.loc 1 231 0
 20452              		.cfi_startproc
 20453              		@ args = 0, pretend = 0, frame = 0
 20454              		@ frame_needed = 0, uses_anonymous_args = 0
 20455              		@ link register save eliminated.
 20456              		.loc 1 231 0
 20457 0000 7047     		bx	lr
 20458              		.cfi_endproc
 20459              	.LFE47:
 20461              		.section	.text.EXTI3_IRQHandler,"ax",%progbits
 20462              		.align	1
 20463              		.global	EXTI3_IRQHandler
 20464              		.thumb
 20465              		.thumb_func
 20467              	EXTI3_IRQHandler:
 20468              	.LFB48:
 232:stm32f10x_it.c **** 
 233:stm32f10x_it.c **** /*******************************************************************************
 234:stm32f10x_it.c **** * Function Name  : EXTI3_IRQHandler
 235:stm32f10x_it.c **** * Description    : This function handles External interrupt Line 3 request.
 236:stm32f10x_it.c **** * Input          : None
 237:stm32f10x_it.c **** * Output         : None
 238:stm32f10x_it.c **** * Return         : None
 239:stm32f10x_it.c **** *******************************************************************************/
 240:stm32f10x_it.c **** void EXTI3_IRQHandler(void)
 241:stm32f10x_it.c **** {}
 20469              		.loc 1 241 0
 20470              		.cfi_startproc
 20471              		@ args = 0, pretend = 0, frame = 0
 20472              		@ frame_needed = 0, uses_anonymous_args = 0
 20473              		@ link register save eliminated.
 20474              		.loc 1 241 0
 20475 0000 7047     		bx	lr
 20476              		.cfi_endproc
 20477              	.LFE48:
 20479              		.section	.text.EXTI4_IRQHandler,"ax",%progbits
 20480              		.align	1
 20481              		.global	EXTI4_IRQHandler
 20482              		.thumb
 20483              		.thumb_func
 20485              	EXTI4_IRQHandler:
 20486              	.LFB49:
 242:stm32f10x_it.c **** 
 243:stm32f10x_it.c **** /*******************************************************************************
 244:stm32f10x_it.c **** * Function Name  : EXTI4_IRQHandler
 245:stm32f10x_it.c **** * Description    : This function handles External interrupt Line 4 request.
 246:stm32f10x_it.c **** * Input          : None
 247:stm32f10x_it.c **** * Output         : None
 248:stm32f10x_it.c **** * Return         : None
 249:stm32f10x_it.c **** *******************************************************************************/
 250:stm32f10x_it.c **** void EXTI4_IRQHandler(void)
 251:stm32f10x_it.c **** {}
 20487              		.loc 1 251 0
 20488              		.cfi_startproc
 20489              		@ args = 0, pretend = 0, frame = 0
 20490              		@ frame_needed = 0, uses_anonymous_args = 0
 20491              		@ link register save eliminated.
 20492              		.loc 1 251 0
 20493 0000 7047     		bx	lr
 20494              		.cfi_endproc
 20495              	.LFE49:
 20497              		.section	.text.DMA1_Channel1_IRQHandler,"ax",%progbits
 20498              		.align	1
 20499              		.global	DMA1_Channel1_IRQHandler
 20500              		.thumb
 20501              		.thumb_func
 20503              	DMA1_Channel1_IRQHandler:
 20504              	.LFB50:
 252:stm32f10x_it.c **** 
 253:stm32f10x_it.c **** /*******************************************************************************
 254:stm32f10x_it.c **** * Function Name  : DMA1_Channel1_IRQHandler
 255:stm32f10x_it.c **** * Description    : This function handles DMA1 Channel 1 interrupt request.
 256:stm32f10x_it.c **** * Input          : None
 257:stm32f10x_it.c **** * Output         : None
 258:stm32f10x_it.c **** * Return         : None
 259:stm32f10x_it.c **** *******************************************************************************/
 260:stm32f10x_it.c **** void DMA1_Channel1_IRQHandler(void)
 261:stm32f10x_it.c **** {}
 20505              		.loc 1 261 0
 20506              		.cfi_startproc
 20507              		@ args = 0, pretend = 0, frame = 0
 20508              		@ frame_needed = 0, uses_anonymous_args = 0
 20509              		@ link register save eliminated.
 20510              		.loc 1 261 0
 20511 0000 7047     		bx	lr
 20512              		.cfi_endproc
 20513              	.LFE50:
 20515              		.section	.text.DMA1_Channel2_IRQHandler,"ax",%progbits
 20516              		.align	1
 20517              		.global	DMA1_Channel2_IRQHandler
 20518              		.thumb
 20519              		.thumb_func
 20521              	DMA1_Channel2_IRQHandler:
 20522              	.LFB51:
 262:stm32f10x_it.c **** 
 263:stm32f10x_it.c **** /*******************************************************************************
 264:stm32f10x_it.c **** * Function Name  : DMA1_Channel2_IRQHandler
 265:stm32f10x_it.c **** * Description    : This function handles DMA1 Channel 2 interrupt request.
 266:stm32f10x_it.c **** * Input          : None
 267:stm32f10x_it.c **** * Output         : None
 268:stm32f10x_it.c **** * Return         : None
 269:stm32f10x_it.c **** *******************************************************************************/
 270:stm32f10x_it.c **** void DMA1_Channel2_IRQHandler(void)
 271:stm32f10x_it.c **** {}
 20523              		.loc 1 271 0
 20524              		.cfi_startproc
 20525              		@ args = 0, pretend = 0, frame = 0
 20526              		@ frame_needed = 0, uses_anonymous_args = 0
 20527              		@ link register save eliminated.
 20528              		.loc 1 271 0
 20529 0000 7047     		bx	lr
 20530              		.cfi_endproc
 20531              	.LFE51:
 20533              		.section	.text.DMA1_Channel3_IRQHandler,"ax",%progbits
 20534              		.align	1
 20535              		.global	DMA1_Channel3_IRQHandler
 20536              		.thumb
 20537              		.thumb_func
 20539              	DMA1_Channel3_IRQHandler:
 20540              	.LFB52:
 272:stm32f10x_it.c **** 
 273:stm32f10x_it.c **** /*******************************************************************************
 274:stm32f10x_it.c **** * Function Name  : DMA1_Channel3_IRQHandler
 275:stm32f10x_it.c **** * Description    : This function handles DMA1 Channel 3 interrupt request.
 276:stm32f10x_it.c **** * Input          : None
 277:stm32f10x_it.c **** * Output         : None
 278:stm32f10x_it.c **** * Return         : None
 279:stm32f10x_it.c **** *******************************************************************************/
 280:stm32f10x_it.c **** void DMA1_Channel3_IRQHandler(void)
 281:stm32f10x_it.c **** {}
 20541              		.loc 1 281 0
 20542              		.cfi_startproc
 20543              		@ args = 0, pretend = 0, frame = 0
 20544              		@ frame_needed = 0, uses_anonymous_args = 0
 20545              		@ link register save eliminated.
 20546              		.loc 1 281 0
 20547 0000 7047     		bx	lr
 20548              		.cfi_endproc
 20549              	.LFE52:
 20551              		.section	.text.DMA1_Channel4_IRQHandler,"ax",%progbits
 20552              		.align	1
 20553              		.global	DMA1_Channel4_IRQHandler
 20554              		.thumb
 20555              		.thumb_func
 20557              	DMA1_Channel4_IRQHandler:
 20558              	.LFB53:
 282:stm32f10x_it.c **** 
 283:stm32f10x_it.c **** /*******************************************************************************
 284:stm32f10x_it.c **** * Function Name  : DMA1_Channel4_IRQHandler
 285:stm32f10x_it.c **** * Description    : This function handles DMA1 Channel 4 interrupt request.
 286:stm32f10x_it.c **** * Input          : None
 287:stm32f10x_it.c **** * Output         : None
 288:stm32f10x_it.c **** * Return         : None
 289:stm32f10x_it.c **** *******************************************************************************/
 290:stm32f10x_it.c **** void DMA1_Channel4_IRQHandler(void)
 291:stm32f10x_it.c **** {}
 20559              		.loc 1 291 0
 20560              		.cfi_startproc
 20561              		@ args = 0, pretend = 0, frame = 0
 20562              		@ frame_needed = 0, uses_anonymous_args = 0
 20563              		@ link register save eliminated.
 20564              		.loc 1 291 0
 20565 0000 7047     		bx	lr
 20566              		.cfi_endproc
 20567              	.LFE53:
 20569              		.section	.text.DMA1_Channel5_IRQHandler,"ax",%progbits
 20570              		.align	1
 20571              		.global	DMA1_Channel5_IRQHandler
 20572              		.thumb
 20573              		.thumb_func
 20575              	DMA1_Channel5_IRQHandler:
 20576              	.LFB54:
 292:stm32f10x_it.c **** 
 293:stm32f10x_it.c **** /*******************************************************************************
 294:stm32f10x_it.c **** * Function Name  : DMA1_Channel5_IRQHandler
 295:stm32f10x_it.c **** * Description    : This function handles DMA1 Channel 5 interrupt request.
 296:stm32f10x_it.c **** * Input          : None
 297:stm32f10x_it.c **** * Output         : None
 298:stm32f10x_it.c **** * Return         : None
 299:stm32f10x_it.c **** *******************************************************************************/
 300:stm32f10x_it.c **** void DMA1_Channel5_IRQHandler(void)
 301:stm32f10x_it.c **** {}
 20577              		.loc 1 301 0
 20578              		.cfi_startproc
 20579              		@ args = 0, pretend = 0, frame = 0
 20580              		@ frame_needed = 0, uses_anonymous_args = 0
 20581              		@ link register save eliminated.
 20582              		.loc 1 301 0
 20583 0000 7047     		bx	lr
 20584              		.cfi_endproc
 20585              	.LFE54:
 20587              		.section	.text.DMA1_Channel6_IRQHandler,"ax",%progbits
 20588              		.align	1
 20589              		.global	DMA1_Channel6_IRQHandler
 20590              		.thumb
 20591              		.thumb_func
 20593              	DMA1_Channel6_IRQHandler:
 20594              	.LFB55:
 302:stm32f10x_it.c **** 
 303:stm32f10x_it.c **** /*******************************************************************************
 304:stm32f10x_it.c **** * Function Name  : DMA1_Channel6_IRQHandler
 305:stm32f10x_it.c **** * Description    : This function handles DMA1 Channel 6 interrupt request.
 306:stm32f10x_it.c **** * Input          : None
 307:stm32f10x_it.c **** * Output         : None
 308:stm32f10x_it.c **** * Return         : None
 309:stm32f10x_it.c **** *******************************************************************************/
 310:stm32f10x_it.c **** void DMA1_Channel6_IRQHandler(void)
 311:stm32f10x_it.c **** {}
 20595              		.loc 1 311 0
 20596              		.cfi_startproc
 20597              		@ args = 0, pretend = 0, frame = 0
 20598              		@ frame_needed = 0, uses_anonymous_args = 0
 20599              		@ link register save eliminated.
 20600              		.loc 1 311 0
 20601 0000 7047     		bx	lr
 20602              		.cfi_endproc
 20603              	.LFE55:
 20605              		.section	.text.DMA1_Channel7_IRQHandler,"ax",%progbits
 20606              		.align	1
 20607              		.global	DMA1_Channel7_IRQHandler
 20608              		.thumb
 20609              		.thumb_func
 20611              	DMA1_Channel7_IRQHandler:
 20612              	.LFB56:
 312:stm32f10x_it.c **** 
 313:stm32f10x_it.c **** /*******************************************************************************
 314:stm32f10x_it.c **** * Function Name  : DMA1_Channel7_IRQHandler
 315:stm32f10x_it.c **** * Description    : This function handles DMA1 Channel 7 interrupt request.
 316:stm32f10x_it.c **** * Input          : None
 317:stm32f10x_it.c **** * Output         : None
 318:stm32f10x_it.c **** * Return         : None
 319:stm32f10x_it.c **** *******************************************************************************/
 320:stm32f10x_it.c **** void DMA1_Channel7_IRQHandler(void)
 321:stm32f10x_it.c **** {}
 20613              		.loc 1 321 0
 20614              		.cfi_startproc
 20615              		@ args = 0, pretend = 0, frame = 0
 20616              		@ frame_needed = 0, uses_anonymous_args = 0
 20617              		@ link register save eliminated.
 20618              		.loc 1 321 0
 20619 0000 7047     		bx	lr
 20620              		.cfi_endproc
 20621              	.LFE56:
 20623              		.section	.text.ADC1_2_IRQHandler,"ax",%progbits
 20624              		.align	1
 20625              		.global	ADC1_2_IRQHandler
 20626              		.thumb
 20627              		.thumb_func
 20629              	ADC1_2_IRQHandler:
 20630              	.LFB57:
 322:stm32f10x_it.c **** 
 323:stm32f10x_it.c **** /*******************************************************************************
 324:stm32f10x_it.c **** * Function Name  : ADC1_2_IRQHandler
 325:stm32f10x_it.c **** * Description    : This function handles ADC1 and ADC2 global interrupts requests.
 326:stm32f10x_it.c **** * Input          : None
 327:stm32f10x_it.c **** * Output         : None
 328:stm32f10x_it.c **** * Return         : None
 329:stm32f10x_it.c **** *******************************************************************************/
 330:stm32f10x_it.c **** void ADC1_2_IRQHandler(void)
 331:stm32f10x_it.c **** {}
 20631              		.loc 1 331 0
 20632              		.cfi_startproc
 20633              		@ args = 0, pretend = 0, frame = 0
 20634              		@ frame_needed = 0, uses_anonymous_args = 0
 20635              		@ link register save eliminated.
 20636              		.loc 1 331 0
 20637 0000 7047     		bx	lr
 20638              		.cfi_endproc
 20639              	.LFE57:
 20641              		.section	.text.USB_HP_CAN_TX_IRQHandler,"ax",%progbits
 20642              		.align	1
 20643              		.global	USB_HP_CAN_TX_IRQHandler
 20644              		.thumb
 20645              		.thumb_func
 20647              	USB_HP_CAN_TX_IRQHandler:
 20648              	.LFB58:
 332:stm32f10x_it.c **** 
 333:stm32f10x_it.c **** /*******************************************************************************
 334:stm32f10x_it.c **** * Function Name  : USB_HP_CAN_TX_IRQHandler
 335:stm32f10x_it.c **** * Description    : This function handles USB High Priority or CAN TX interrupts
 336:stm32f10x_it.c **** *                  requests.
 337:stm32f10x_it.c **** * Input          : None
 338:stm32f10x_it.c **** * Output         : None
 339:stm32f10x_it.c **** * Return         : None
 340:stm32f10x_it.c **** *******************************************************************************/
 341:stm32f10x_it.c **** void USB_HP_CAN_TX_IRQHandler(void)
 342:stm32f10x_it.c **** {}
 20649              		.loc 1 342 0
 20650              		.cfi_startproc
 20651              		@ args = 0, pretend = 0, frame = 0
 20652              		@ frame_needed = 0, uses_anonymous_args = 0
 20653              		@ link register save eliminated.
 20654              		.loc 1 342 0
 20655 0000 7047     		bx	lr
 20656              		.cfi_endproc
 20657              	.LFE58:
 20659              		.section	.text.USB_LP_CAN_RX0_IRQHandler,"ax",%progbits
 20660              		.align	1
 20661              		.global	USB_LP_CAN_RX0_IRQHandler
 20662              		.thumb
 20663              		.thumb_func
 20665              	USB_LP_CAN_RX0_IRQHandler:
 20666              	.LFB59:
 343:stm32f10x_it.c **** 
 344:stm32f10x_it.c **** /*******************************************************************************
 345:stm32f10x_it.c **** * Function Name  : USB_LP_CAN_RX0_IRQHandler
 346:stm32f10x_it.c **** * Description    : This function handles USB Low Priority or CAN RX0 interrupts
 347:stm32f10x_it.c **** *                  requests.
 348:stm32f10x_it.c **** * Input          : None
 349:stm32f10x_it.c **** * Output         : None
 350:stm32f10x_it.c **** * Return         : None
 351:stm32f10x_it.c **** *******************************************************************************/
 352:stm32f10x_it.c **** void USB_LP_CAN_RX0_IRQHandler(void)
 353:stm32f10x_it.c **** {
 20667              		.loc 1 353 0
 20668              		.cfi_startproc
 20669              		@ args = 0, pretend = 0, frame = 40
 20670              		@ frame_needed = 0, uses_anonymous_args = 0
 20671 0000 00B5     		push	{lr}
 20672              	.LCFI0:
 20673              		.cfi_def_cfa_offset 4
 20674              		.cfi_offset 14, -4
 354:stm32f10x_it.c ****   // обработчик раздео€етс€ обоими модул€ми CAN1 и USB
 355:stm32f10x_it.c ****   if ( usb_can_mode == ucmUsb )
 20675              		.loc 1 355 0
 20676 0002 1D48     		ldr	r0, .L40
 353:stm32f10x_it.c **** {
 20677              		.loc 1 353 0
 20678 0004 8BB0     		sub	sp, sp, #44
 20679              	.LCFI1:
 20680              		.cfi_def_cfa_offset 48
 20681              		.loc 1 355 0
 20682 0006 0378     		ldrb	r3, [r0, #0]	@ zero_extendqisi2
 20683 0008 012B     		cmp	r3, #1
 20684 000a 02D1     		bne	.L35
 356:stm32f10x_it.c ****     // обработка прерываний в режима USB
 357:stm32f10x_it.c ****     USB_Istr();
 20685              		.loc 1 357 0
 20686 000c 1B49     		ldr	r1, .L40+4
 20687 000e 8847     		blx	r1
 20688 0010 30E0     		b	.L34
 20689              	.L35:
 20690              	.LBB2:
 358:stm32f10x_it.c ****   else
 359:stm32f10x_it.c ****     {
 360:stm32f10x_it.c ****       // обработка прерываний в режиме CAN1
 361:stm32f10x_it.c **** 
 362:stm32f10x_it.c ****       // чтение пакета из FIFO
 363:stm32f10x_it.c ****       CanRxMsg RxMessage;
 364:stm32f10x_it.c ****       CAN_Receive(CAN1, CAN_FIFO0, &RxMessage);
 20691              		.loc 1 364 0
 20692 0012 0021     		movs	r1, #0
 20693 0014 6A46     		mov	r2, sp
 20694 0016 1A48     		ldr	r0, .L40+8
 20695 0018 1A4B     		ldr	r3, .L40+12
 20696 001a 9847     		blx	r3
 365:stm32f10x_it.c ****       // валидаци€ прин€того пакета
 366:stm32f10x_it.c ****       if ((RxMessage.StdId == 0x321)&&(RxMessage.IDE == CAN_ID_STD)&&(RxMessage.DLC == 1))
 20697              		.loc 1 366 0
 20698 001c 0099     		ldr	r1, [sp, #0]
 20699 001e 40F22132 		movw	r2, #801
 20700 0022 9142     		cmp	r1, r2
 20701 0024 26D1     		bne	.L34
 20702              		.loc 1 366 0 is_stmt 0 discriminator 1
 20703 0026 0298     		ldr	r0, [sp, #8]
 20704 0028 00F0FF1C 		and	ip, r0, #16711935
 20705 002c BCF5803F 		cmp	ip, #65536
 20706 0030 20D1     		bne	.L34
 20707              	.LBB3:
 367:stm32f10x_it.c ****        {
 368:stm32f10x_it.c ****     	 extern  volatile TCANGateType can_gate_type ;
 369:stm32f10x_it.c ****     	 if ( can_gate_type == cgtServer )   // если узел сервер - отправко эхо пакета
 20708              		.loc 1 369 0 is_stmt 1
 20709 0032 154A     		ldr	r2, .L40+16
 20710 0034 1278     		ldrb	r2, [r2, #0]	@ zero_extendqisi2
 20711 0036 012A     		cmp	r2, #1
 20712 0038 12D1     		bne	.L37
 20713              	.LBB4:
 370:stm32f10x_it.c ****           {
 371:stm32f10x_it.c ****             // установка флага приема пакета в FIFO #0 (индицируетс€ еще одним светодиодом)
 372:stm32f10x_it.c ****             can_activity = TRUE ;
 20714              		.loc 1 372 0
 20715 003a 1448     		ldr	r0, .L40+20
 373:stm32f10x_it.c **** 
 374:stm32f10x_it.c ****         	CanTxMsg TxMessage;
 375:stm32f10x_it.c ****             TxMessage.StdId = 0x321;
 20716              		.loc 1 375 0
 20717 003c 0591     		str	r1, [sp, #20]
 372:stm32f10x_it.c ****             can_activity = TRUE ;
 20718              		.loc 1 372 0
 20719 003e 0260     		str	r2, [r0, #0]
 376:stm32f10x_it.c ****             TxMessage.ExtId = 0x01;
 377:stm32f10x_it.c ****             TxMessage.RTR = CAN_RTR_DATA;
 378:stm32f10x_it.c ****             TxMessage.IDE = CAN_ID_STD;
 379:stm32f10x_it.c ****             TxMessage.DLC = 1;
 380:stm32f10x_it.c ****             TxMessage.Data[0] = 0x55 ;
 20720              		.loc 1 380 0
 20721 0040 5521     		movs	r1, #85
 377:stm32f10x_it.c ****             TxMessage.RTR = CAN_RTR_DATA;
 20722              		.loc 1 377 0
 20723 0042 0020     		movs	r0, #0
 20724 0044 8DF81D00 		strb	r0, [sp, #29]
 378:stm32f10x_it.c ****             TxMessage.IDE = CAN_ID_STD;
 20725              		.loc 1 378 0
 20726 0048 8DF81C00 		strb	r0, [sp, #28]
 20727              		.loc 1 380 0
 20728 004c 8DF81F10 		strb	r1, [sp, #31]
 376:stm32f10x_it.c ****             TxMessage.ExtId = 0x01;
 20729              		.loc 1 376 0
 20730 0050 0692     		str	r2, [sp, #24]
 379:stm32f10x_it.c ****             TxMessage.DLC = 1;
 20731              		.loc 1 379 0
 20732 0052 8DF81E20 		strb	r2, [sp, #30]
 381:stm32f10x_it.c ****             CAN_Transmit(CAN1, &TxMessage);
 20733              		.loc 1 381 0
 20734 0056 05A9     		add	r1, sp, #20
 20735 0058 0D4B     		ldr	r3, .L40+24
 20736 005a 0948     		ldr	r0, .L40+8
 20737 005c 9847     		blx	r3
 20738 005e 09E0     		b	.L34
 20739              	.L37:
 20740              	.LBE4:
 20741              	.LBB5:
 382:stm32f10x_it.c ****           }
 383:stm32f10x_it.c ****         else   // узел клеент - проверка по критерию, выставление флага результата теста
 384:stm32f10x_it.c ****           {
 385:stm32f10x_it.c ****             // валидаци€ данных в пакете и выставление флага результата теста
 386:stm32f10x_it.c ****         	extern volatile TestStatus can_test_result ;
 387:stm32f10x_it.c ****         	if (RxMessage.Data[0] == 0x55)
 20742              		.loc 1 387 0
 20743 0060 9DF80BE0 		ldrb	lr, [sp, #11]	@ zero_extendqisi2
 20744 0064 0B4B     		ldr	r3, .L40+28
 20745 0066 BEF1550F 		cmp	lr, #85
 20746 006a 01D1     		bne	.L38
 388:stm32f10x_it.c ****                 can_test_result = PASSED ;
 20747              		.loc 1 388 0
 20748 006c 0122     		movs	r2, #1
 20749 006e 00E0     		b	.L39
 20750              	.L38:
 389:stm32f10x_it.c ****             else
 390:stm32f10x_it.c ****                 can_test_result = FAILED ;
 20751              		.loc 1 390 0
 20752 0070 0022     		movs	r2, #0
 20753              	.L39:
 20754 0072 1A70     		strb	r2, [r3, #0]
 20755              	.L34:
 20756              	.LBE5:
 20757              	.LBE3:
 20758              	.LBE2:
 391:stm32f10x_it.c ****           }
 392:stm32f10x_it.c ****        }
 393:stm32f10x_it.c ****     }
 394:stm32f10x_it.c **** }
 20759              		.loc 1 394 0
 20760 0074 0BB0     		add	sp, sp, #44
 20761 0076 00BD     		pop	{pc}
 20762              	.L41:
 20763              		.align	2
 20764              	.L40:
 20765 0078 00000000 		.word	usb_can_mode
 20766 007c 00000000 		.word	USB_Istr
 20767 0080 00640040 		.word	1073767424
 20768 0084 00000000 		.word	CAN_Receive
 20769 0088 00000000 		.word	can_gate_type
 20770 008c 00000000 		.word	can_activity
 20771 0090 00000000 		.word	CAN_Transmit
 20772 0094 00000000 		.word	can_test_result
 20773              		.cfi_endproc
 20774              	.LFE59:
 20776              		.section	.text.CAN_RX1_IRQHandler,"ax",%progbits
 20777              		.align	1
 20778              		.global	CAN_RX1_IRQHandler
 20779              		.thumb
 20780              		.thumb_func
 20782              	CAN_RX1_IRQHandler:
 20783              	.LFB60:
 395:stm32f10x_it.c **** 
 396:stm32f10x_it.c **** /*******************************************************************************
 397:stm32f10x_it.c **** * Function Name  : CAN_RX1_IRQHandler
 398:stm32f10x_it.c **** * Description    : This function handles CAN RX1 interrupt request.
 399:stm32f10x_it.c **** * Input          : None
 400:stm32f10x_it.c **** * Output         : None
 401:stm32f10x_it.c **** * Return         : None
 402:stm32f10x_it.c **** *******************************************************************************/
 403:stm32f10x_it.c **** void CAN_RX1_IRQHandler(void)
 404:stm32f10x_it.c **** {
 20784              		.loc 1 404 0
 20785              		.cfi_startproc
 20786              		@ args = 0, pretend = 0, frame = 0
 20787              		@ frame_needed = 0, uses_anonymous_args = 0
 20788              		@ link register save eliminated.
 405:stm32f10x_it.c ****   NOP();
 20789              		.loc 1 405 0
 20790              	@ 405 "stm32f10x_it.c" 1
 20791 0000 00BF     		nop
 20792              	@ 0 "" 2
 406:stm32f10x_it.c **** }
 20793              		.loc 1 406 0
 20794              		.thumb
 20795 0002 7047     		bx	lr
 20796              		.cfi_endproc
 20797              	.LFE60:
 20799              		.section	.text.CAN_SCE_IRQHandler,"ax",%progbits
 20800              		.align	1
 20801              		.global	CAN_SCE_IRQHandler
 20802              		.thumb
 20803              		.thumb_func
 20805              	CAN_SCE_IRQHandler:
 20806              	.LFB61:
 407:stm32f10x_it.c **** 
 408:stm32f10x_it.c **** /*******************************************************************************
 409:stm32f10x_it.c **** * Function Name  : CAN_SCE_IRQHandler
 410:stm32f10x_it.c **** * Description    : This function handles CAN SCE interrupt request.
 411:stm32f10x_it.c **** * Input          : None
 412:stm32f10x_it.c **** * Output         : None
 413:stm32f10x_it.c **** * Return         : None
 414:stm32f10x_it.c **** *******************************************************************************/
 415:stm32f10x_it.c **** void CAN_SCE_IRQHandler(void)
 416:stm32f10x_it.c **** {}
 20807              		.loc 1 416 0
 20808              		.cfi_startproc
 20809              		@ args = 0, pretend = 0, frame = 0
 20810              		@ frame_needed = 0, uses_anonymous_args = 0
 20811              		@ link register save eliminated.
 20812              		.loc 1 416 0
 20813 0000 7047     		bx	lr
 20814              		.cfi_endproc
 20815              	.LFE61:
 20817              		.section	.text.EXTI9_5_IRQHandler,"ax",%progbits
 20818              		.align	1
 20819              		.global	EXTI9_5_IRQHandler
 20820              		.thumb
 20821              		.thumb_func
 20823              	EXTI9_5_IRQHandler:
 20824              	.LFB62:
 417:stm32f10x_it.c **** 
 418:stm32f10x_it.c **** /*******************************************************************************
 419:stm32f10x_it.c **** * Function Name  : EXTI9_5_IRQHandler
 420:stm32f10x_it.c **** * Description    : This function handles External lines 9 to 5 interrupt request.
 421:stm32f10x_it.c **** * Input          : None
 422:stm32f10x_it.c **** * Output         : None
 423:stm32f10x_it.c **** * Return         : None
 424:stm32f10x_it.c **** *******************************************************************************/
 425:stm32f10x_it.c **** void EXTI9_5_IRQHandler(void)
 426:stm32f10x_it.c **** {
 20825              		.loc 1 426 0
 20826              		.cfi_startproc
 20827              		@ args = 0, pretend = 0, frame = 0
 20828              		@ frame_needed = 0, uses_anonymous_args = 0
 20829 0000 08B5     		push	{r3, lr}
 20830              	.LCFI2:
 20831              		.cfi_def_cfa_offset 8
 20832              		.cfi_offset 14, -4
 20833              		.cfi_offset 3, -8
 427:stm32f10x_it.c ****   asm volatile  ("nop");
 20834              		.loc 1 427 0
 20835              	@ 427 "stm32f10x_it.c" 1
 20836 0002 00BF     		nop
 20837              	@ 0 "" 2
 428:stm32f10x_it.c **** 
 429:stm32f10x_it.c ****   if(EXTI_GetITStatus(EXTI_Line9) != RESET)
 20838              		.loc 1 429 0
 20839              		.thumb
 20840 0004 4FF40070 		mov	r0, #512
 20841 0008 034B     		ldr	r3, .L46
 20842 000a 9847     		blx	r3
 20843 000c 18B1     		cbz	r0, .L44
 430:stm32f10x_it.c ****    {
 431:stm32f10x_it.c ****      /* Clear the Key Button EXTI line pending bit */
 432:stm32f10x_it.c ****      EXTI_ClearITPendingBit(EXTI_Line9);
 20844              		.loc 1 432 0
 20845 000e 4FF40070 		mov	r0, #512
 20846 0012 0249     		ldr	r1, .L46+4
 20847 0014 8847     		blx	r1
 20848              	.L44:
 20849 0016 08BD     		pop	{r3, pc}
 20850              	.L47:
 20851              		.align	2
 20852              	.L46:
 20853 0018 00000000 		.word	EXTI_GetITStatus
 20854 001c 00000000 		.word	EXTI_ClearITPendingBit
 20855              		.cfi_endproc
 20856              	.LFE62:
 20858              		.section	.text.TIM1_BRK_IRQHandler,"ax",%progbits
 20859              		.align	1
 20860              		.global	TIM1_BRK_IRQHandler
 20861              		.thumb
 20862              		.thumb_func
 20864              	TIM1_BRK_IRQHandler:
 20865              	.LFB63:
 433:stm32f10x_it.c ****    }
 434:stm32f10x_it.c **** }
 435:stm32f10x_it.c **** 
 436:stm32f10x_it.c **** /*******************************************************************************
 437:stm32f10x_it.c **** * Function Name  : TIM1_BRK_IRQHandler
 438:stm32f10x_it.c **** * Description    : This function handles TIM1 Break interrupt request.
 439:stm32f10x_it.c **** * Input          : None
 440:stm32f10x_it.c **** * Output         : None
 441:stm32f10x_it.c **** * Return         : None
 442:stm32f10x_it.c **** *******************************************************************************/
 443:stm32f10x_it.c **** void TIM1_BRK_IRQHandler(void)
 444:stm32f10x_it.c **** {}
 20866              		.loc 1 444 0
 20867              		.cfi_startproc
 20868              		@ args = 0, pretend = 0, frame = 0
 20869              		@ frame_needed = 0, uses_anonymous_args = 0
 20870              		@ link register save eliminated.
 20871              		.loc 1 444 0
 20872 0000 7047     		bx	lr
 20873              		.cfi_endproc
 20874              	.LFE63:
 20876              		.section	.text.TIM1_UP_IRQHandler,"ax",%progbits
 20877              		.align	1
 20878              		.global	TIM1_UP_IRQHandler
 20879              		.thumb
 20880              		.thumb_func
 20882              	TIM1_UP_IRQHandler:
 20883              	.LFB64:
 445:stm32f10x_it.c **** 
 446:stm32f10x_it.c **** /*******************************************************************************
 447:stm32f10x_it.c **** * Function Name  : TIM1_UP_IRQHandler
 448:stm32f10x_it.c **** * Description    : This function handles TIM1 overflow and update interrupt
 449:stm32f10x_it.c **** *                  request.
 450:stm32f10x_it.c **** * Input          : None
 451:stm32f10x_it.c **** * Output         : None
 452:stm32f10x_it.c **** * Return         : None
 453:stm32f10x_it.c **** *******************************************************************************/
 454:stm32f10x_it.c **** void TIM1_UP_IRQHandler(void)
 455:stm32f10x_it.c **** {}
 20884              		.loc 1 455 0
 20885              		.cfi_startproc
 20886              		@ args = 0, pretend = 0, frame = 0
 20887              		@ frame_needed = 0, uses_anonymous_args = 0
 20888              		@ link register save eliminated.
 20889              		.loc 1 455 0
 20890 0000 7047     		bx	lr
 20891              		.cfi_endproc
 20892              	.LFE64:
 20894              		.section	.text.TIM1_TRG_COM_IRQHandler,"ax",%progbits
 20895              		.align	1
 20896              		.global	TIM1_TRG_COM_IRQHandler
 20897              		.thumb
 20898              		.thumb_func
 20900              	TIM1_TRG_COM_IRQHandler:
 20901              	.LFB65:
 456:stm32f10x_it.c **** 
 457:stm32f10x_it.c **** /*******************************************************************************
 458:stm32f10x_it.c **** * Function Name  : TIM1_TRG_COM_IRQHandler
 459:stm32f10x_it.c **** * Description    : This function handles TIM1 Trigger and commutation interrupts
 460:stm32f10x_it.c **** *                  requests.
 461:stm32f10x_it.c **** * Input          : None
 462:stm32f10x_it.c **** * Output         : None
 463:stm32f10x_it.c **** * Return         : None
 464:stm32f10x_it.c **** *******************************************************************************/
 465:stm32f10x_it.c **** void TIM1_TRG_COM_IRQHandler(void)
 466:stm32f10x_it.c **** {}
 20902              		.loc 1 466 0
 20903              		.cfi_startproc
 20904              		@ args = 0, pretend = 0, frame = 0
 20905              		@ frame_needed = 0, uses_anonymous_args = 0
 20906              		@ link register save eliminated.
 20907              		.loc 1 466 0
 20908 0000 7047     		bx	lr
 20909              		.cfi_endproc
 20910              	.LFE65:
 20912              		.section	.text.TIM1_CC_IRQHandler,"ax",%progbits
 20913              		.align	1
 20914              		.global	TIM1_CC_IRQHandler
 20915              		.thumb
 20916              		.thumb_func
 20918              	TIM1_CC_IRQHandler:
 20919              	.LFB66:
 467:stm32f10x_it.c **** 
 468:stm32f10x_it.c **** /*******************************************************************************
 469:stm32f10x_it.c **** * Function Name  : TIM1_CC_IRQHandler
 470:stm32f10x_it.c **** * Description    : This function handles TIM1 capture compare interrupt request.
 471:stm32f10x_it.c **** * Input          : None
 472:stm32f10x_it.c **** * Output         : None
 473:stm32f10x_it.c **** * Return         : None
 474:stm32f10x_it.c **** *******************************************************************************/
 475:stm32f10x_it.c **** void TIM1_CC_IRQHandler(void)
 476:stm32f10x_it.c **** {}
 20920              		.loc 1 476 0
 20921              		.cfi_startproc
 20922              		@ args = 0, pretend = 0, frame = 0
 20923              		@ frame_needed = 0, uses_anonymous_args = 0
 20924              		@ link register save eliminated.
 20925              		.loc 1 476 0
 20926 0000 7047     		bx	lr
 20927              		.cfi_endproc
 20928              	.LFE66:
 20930              		.section	.text.TIM2_IRQHandler,"ax",%progbits
 20931              		.align	1
 20932              		.global	TIM2_IRQHandler
 20933              		.thumb
 20934              		.thumb_func
 20936              	TIM2_IRQHandler:
 20937              	.LFB67:
 477:stm32f10x_it.c **** 
 478:stm32f10x_it.c **** /*******************************************************************************
 479:stm32f10x_it.c **** * Function Name  : TIM2_IRQHandler
 480:stm32f10x_it.c **** * Description    : This function handles TIM2 global interrupt request.
 481:stm32f10x_it.c **** * Input          : None
 482:stm32f10x_it.c **** * Output         : None
 483:stm32f10x_it.c **** * Return         : None
 484:stm32f10x_it.c **** *******************************************************************************/
 485:stm32f10x_it.c **** void TIM2_IRQHandler(void)
 486:stm32f10x_it.c **** {
 20938              		.loc 1 486 0
 20939              		.cfi_startproc
 20940              		@ args = 0, pretend = 0, frame = 0
 20941              		@ frame_needed = 0, uses_anonymous_args = 0
 20942              		@ link register save eliminated.
 487:stm32f10x_it.c **** }
 20943              		.loc 1 487 0
 20944 0000 7047     		bx	lr
 20945              		.cfi_endproc
 20946              	.LFE67:
 20948              		.section	.text.TIM3_IRQHandler,"ax",%progbits
 20949              		.align	1
 20950              		.global	TIM3_IRQHandler
 20951              		.thumb
 20952              		.thumb_func
 20954              	TIM3_IRQHandler:
 20955              	.LFB68:
 488:stm32f10x_it.c **** 
 489:stm32f10x_it.c **** /*******************************************************************************
 490:stm32f10x_it.c **** * Function Name  : TIM3_IRQHandler
 491:stm32f10x_it.c **** * Description    : This function handles TIM3 global interrupt request.
 492:stm32f10x_it.c **** * Input          : None
 493:stm32f10x_it.c **** * Output         : None
 494:stm32f10x_it.c **** * Return         : None
 495:stm32f10x_it.c **** *******************************************************************************/
 496:stm32f10x_it.c **** void TIM3_IRQHandler(void)
 497:stm32f10x_it.c **** {}
 20956              		.loc 1 497 0
 20957              		.cfi_startproc
 20958              		@ args = 0, pretend = 0, frame = 0
 20959              		@ frame_needed = 0, uses_anonymous_args = 0
 20960              		@ link register save eliminated.
 20961              		.loc 1 497 0
 20962 0000 7047     		bx	lr
 20963              		.cfi_endproc
 20964              	.LFE68:
 20966              		.section	.text.TIM4_IRQHandler,"ax",%progbits
 20967              		.align	1
 20968              		.global	TIM4_IRQHandler
 20969              		.thumb
 20970              		.thumb_func
 20972              	TIM4_IRQHandler:
 20973              	.LFB69:
 498:stm32f10x_it.c **** /*******************************************************************************
 499:stm32f10x_it.c **** * Function Name  : TIM4_IRQHandler
 500:stm32f10x_it.c **** * Description    : This function handles TIM4 global interrupt request.
 501:stm32f10x_it.c **** * Input          : None
 502:stm32f10x_it.c **** * Output         : None
 503:stm32f10x_it.c **** * Return         : None
 504:stm32f10x_it.c **** *******************************************************************************/
 505:stm32f10x_it.c **** void TIM4_IRQHandler(void)
 506:stm32f10x_it.c **** {}
 20974              		.loc 1 506 0
 20975              		.cfi_startproc
 20976              		@ args = 0, pretend = 0, frame = 0
 20977              		@ frame_needed = 0, uses_anonymous_args = 0
 20978              		@ link register save eliminated.
 20979              		.loc 1 506 0
 20980 0000 7047     		bx	lr
 20981              		.cfi_endproc
 20982              	.LFE69:
 20984              		.section	.text.I2C1_EV_IRQHandler,"ax",%progbits
 20985              		.align	1
 20986              		.global	I2C1_EV_IRQHandler
 20987              		.thumb
 20988              		.thumb_func
 20990              	I2C1_EV_IRQHandler:
 20991              	.LFB70:
 507:stm32f10x_it.c **** 
 508:stm32f10x_it.c **** /*******************************************************************************
 509:stm32f10x_it.c **** * Function Name  : I2C1_EV_IRQHandler
 510:stm32f10x_it.c **** * Description    : This function handles I2C1 Event interrupt request.
 511:stm32f10x_it.c **** * Input          : None
 512:stm32f10x_it.c **** * Output         : None
 513:stm32f10x_it.c **** * Return         : None
 514:stm32f10x_it.c **** *******************************************************************************/
 515:stm32f10x_it.c **** void I2C1_EV_IRQHandler(void)
 516:stm32f10x_it.c **** {}
 20992              		.loc 1 516 0
 20993              		.cfi_startproc
 20994              		@ args = 0, pretend = 0, frame = 0
 20995              		@ frame_needed = 0, uses_anonymous_args = 0
 20996              		@ link register save eliminated.
 20997              		.loc 1 516 0
 20998 0000 7047     		bx	lr
 20999              		.cfi_endproc
 21000              	.LFE70:
 21002              		.section	.text.I2C1_ER_IRQHandler,"ax",%progbits
 21003              		.align	1
 21004              		.global	I2C1_ER_IRQHandler
 21005              		.thumb
 21006              		.thumb_func
 21008              	I2C1_ER_IRQHandler:
 21009              	.LFB71:
 517:stm32f10x_it.c **** 
 518:stm32f10x_it.c **** /*******************************************************************************
 519:stm32f10x_it.c **** * Function Name  : I2C1_ER_IRQHandler
 520:stm32f10x_it.c **** * Description    : This function handles I2C1 Error interrupt request.
 521:stm32f10x_it.c **** * Input          : None
 522:stm32f10x_it.c **** * Output         : None
 523:stm32f10x_it.c **** * Return         : None
 524:stm32f10x_it.c **** *******************************************************************************/
 525:stm32f10x_it.c **** void I2C1_ER_IRQHandler(void)
 526:stm32f10x_it.c **** {}
 21010              		.loc 1 526 0
 21011              		.cfi_startproc
 21012              		@ args = 0, pretend = 0, frame = 0
 21013              		@ frame_needed = 0, uses_anonymous_args = 0
 21014              		@ link register save eliminated.
 21015              		.loc 1 526 0
 21016 0000 7047     		bx	lr
 21017              		.cfi_endproc
 21018              	.LFE71:
 21020              		.section	.text.I2C2_EV_IRQHandler,"ax",%progbits
 21021              		.align	1
 21022              		.global	I2C2_EV_IRQHandler
 21023              		.thumb
 21024              		.thumb_func
 21026              	I2C2_EV_IRQHandler:
 21027              	.LFB72:
 527:stm32f10x_it.c **** 
 528:stm32f10x_it.c **** /*******************************************************************************
 529:stm32f10x_it.c **** * Function Name  : I2C2_EV_IRQHandler
 530:stm32f10x_it.c **** * Description    : This function handles I2C2 Event interrupt request.
 531:stm32f10x_it.c **** * Input          : None
 532:stm32f10x_it.c **** * Output         : None
 533:stm32f10x_it.c **** * Return         : None
 534:stm32f10x_it.c **** *******************************************************************************/
 535:stm32f10x_it.c **** void I2C2_EV_IRQHandler(void)
 536:stm32f10x_it.c **** {}
 21028              		.loc 1 536 0
 21029              		.cfi_startproc
 21030              		@ args = 0, pretend = 0, frame = 0
 21031              		@ frame_needed = 0, uses_anonymous_args = 0
 21032              		@ link register save eliminated.
 21033              		.loc 1 536 0
 21034 0000 7047     		bx	lr
 21035              		.cfi_endproc
 21036              	.LFE72:
 21038              		.section	.text.I2C2_ER_IRQHandler,"ax",%progbits
 21039              		.align	1
 21040              		.global	I2C2_ER_IRQHandler
 21041              		.thumb
 21042              		.thumb_func
 21044              	I2C2_ER_IRQHandler:
 21045              	.LFB73:
 537:stm32f10x_it.c **** 
 538:stm32f10x_it.c **** /*******************************************************************************
 539:stm32f10x_it.c **** * Function Name  : I2C2_ER_IRQHandler
 540:stm32f10x_it.c **** * Description    : This function handles I2C2 Error interrupt request.
 541:stm32f10x_it.c **** * Input          : None
 542:stm32f10x_it.c **** * Output         : None
 543:stm32f10x_it.c **** * Return         : None
 544:stm32f10x_it.c **** *******************************************************************************/
 545:stm32f10x_it.c **** void I2C2_ER_IRQHandler(void)
 546:stm32f10x_it.c **** {}
 21046              		.loc 1 546 0
 21047              		.cfi_startproc
 21048              		@ args = 0, pretend = 0, frame = 0
 21049              		@ frame_needed = 0, uses_anonymous_args = 0
 21050              		@ link register save eliminated.
 21051              		.loc 1 546 0
 21052 0000 7047     		bx	lr
 21053              		.cfi_endproc
 21054              	.LFE73:
 21056              		.section	.text.SPI1_IRQHandler,"ax",%progbits
 21057              		.align	1
 21058              		.global	SPI1_IRQHandler
 21059              		.thumb
 21060              		.thumb_func
 21062              	SPI1_IRQHandler:
 21063              	.LFB74:
 547:stm32f10x_it.c **** 
 548:stm32f10x_it.c **** /*******************************************************************************
 549:stm32f10x_it.c **** * Function Name  : SPI1_IRQHandler
 550:stm32f10x_it.c **** * Description    : This function handles SPI1 global interrupt request.
 551:stm32f10x_it.c **** * Input          : None
 552:stm32f10x_it.c **** * Output         : None
 553:stm32f10x_it.c **** * Return         : None
 554:stm32f10x_it.c **** *******************************************************************************/
 555:stm32f10x_it.c **** void SPI1_IRQHandler(void)
 556:stm32f10x_it.c **** {}
 21064              		.loc 1 556 0
 21065              		.cfi_startproc
 21066              		@ args = 0, pretend = 0, frame = 0
 21067              		@ frame_needed = 0, uses_anonymous_args = 0
 21068              		@ link register save eliminated.
 21069              		.loc 1 556 0
 21070 0000 7047     		bx	lr
 21071              		.cfi_endproc
 21072              	.LFE74:
 21074              		.section	.text.SPI2_IRQHandler,"ax",%progbits
 21075              		.align	1
 21076              		.global	SPI2_IRQHandler
 21077              		.thumb
 21078              		.thumb_func
 21080              	SPI2_IRQHandler:
 21081              	.LFB75:
 557:stm32f10x_it.c **** 
 558:stm32f10x_it.c **** /*******************************************************************************
 559:stm32f10x_it.c **** * Function Name  : SPI2_IRQHandler
 560:stm32f10x_it.c **** * Description    : This function handles SPI2 global interrupt request.
 561:stm32f10x_it.c **** * Input          : None
 562:stm32f10x_it.c **** * Output         : None
 563:stm32f10x_it.c **** * Return         : None
 564:stm32f10x_it.c **** *******************************************************************************/
 565:stm32f10x_it.c **** void SPI2_IRQHandler(void)
 566:stm32f10x_it.c **** {}
 21082              		.loc 1 566 0
 21083              		.cfi_startproc
 21084              		@ args = 0, pretend = 0, frame = 0
 21085              		@ frame_needed = 0, uses_anonymous_args = 0
 21086              		@ link register save eliminated.
 21087              		.loc 1 566 0
 21088 0000 7047     		bx	lr
 21089              		.cfi_endproc
 21090              	.LFE75:
 21092              		.section	.text.USART1_IRQHandler,"ax",%progbits
 21093              		.align	1
 21094              		.global	USART1_IRQHandler
 21095              		.thumb
 21096              		.thumb_func
 21098              	USART1_IRQHandler:
 21099              	.LFB76:
 567:stm32f10x_it.c **** 
 568:stm32f10x_it.c **** /*******************************************************************************
 569:stm32f10x_it.c **** * Function Name  : USART1_IRQHandler
 570:stm32f10x_it.c **** * Description    : This function handles USART1 global interrupt request.
 571:stm32f10x_it.c **** * Input          : None
 572:stm32f10x_it.c **** * Output         : None
 573:stm32f10x_it.c **** * Return         : None
 574:stm32f10x_it.c **** *******************************************************************************/
 575:stm32f10x_it.c **** void USART1_IRQHandler(void)
 576:stm32f10x_it.c **** {}
 21100              		.loc 1 576 0
 21101              		.cfi_startproc
 21102              		@ args = 0, pretend = 0, frame = 0
 21103              		@ frame_needed = 0, uses_anonymous_args = 0
 21104              		@ link register save eliminated.
 21105              		.loc 1 576 0
 21106 0000 7047     		bx	lr
 21107              		.cfi_endproc
 21108              	.LFE76:
 21110              		.section	.text.USART2_IRQHandler,"ax",%progbits
 21111              		.align	1
 21112              		.global	USART2_IRQHandler
 21113              		.thumb
 21114              		.thumb_func
 21116              	USART2_IRQHandler:
 21117              	.LFB77:
 577:stm32f10x_it.c **** 
 578:stm32f10x_it.c **** /*******************************************************************************
 579:stm32f10x_it.c **** * Function Name  : USART2_IRQHandler
 580:stm32f10x_it.c **** * Description    : This function handles USART2 global interrupt request.
 581:stm32f10x_it.c **** * Input          : None
 582:stm32f10x_it.c **** * Output         : None
 583:stm32f10x_it.c **** * Return         : None
 584:stm32f10x_it.c **** *******************************************************************************/
 585:stm32f10x_it.c **** void USART2_IRQHandler(void)
 586:stm32f10x_it.c **** {}
 21118              		.loc 1 586 0
 21119              		.cfi_startproc
 21120              		@ args = 0, pretend = 0, frame = 0
 21121              		@ frame_needed = 0, uses_anonymous_args = 0
 21122              		@ link register save eliminated.
 21123              		.loc 1 586 0
 21124 0000 7047     		bx	lr
 21125              		.cfi_endproc
 21126              	.LFE77:
 21128              		.section	.text.USART3_IRQHandler,"ax",%progbits
 21129              		.align	1
 21130              		.global	USART3_IRQHandler
 21131              		.thumb
 21132              		.thumb_func
 21134              	USART3_IRQHandler:
 21135              	.LFB78:
 587:stm32f10x_it.c **** 
 588:stm32f10x_it.c **** /*******************************************************************************
 589:stm32f10x_it.c **** * Function Name  : USART3_IRQHandler
 590:stm32f10x_it.c **** * Description    : This function handles USART3 global interrupt request.
 591:stm32f10x_it.c **** * Input          : None
 592:stm32f10x_it.c **** * Output         : None
 593:stm32f10x_it.c **** * Return         : None
 594:stm32f10x_it.c **** *******************************************************************************/
 595:stm32f10x_it.c **** void USART3_IRQHandler(void)
 596:stm32f10x_it.c **** {}
 21136              		.loc 1 596 0
 21137              		.cfi_startproc
 21138              		@ args = 0, pretend = 0, frame = 0
 21139              		@ frame_needed = 0, uses_anonymous_args = 0
 21140              		@ link register save eliminated.
 21141              		.loc 1 596 0
 21142 0000 7047     		bx	lr
 21143              		.cfi_endproc
 21144              	.LFE78:
 21146              		.section	.text.EXTI15_10_IRQHandler,"ax",%progbits
 21147              		.align	1
 21148              		.global	EXTI15_10_IRQHandler
 21149              		.thumb
 21150              		.thumb_func
 21152              	EXTI15_10_IRQHandler:
 21153              	.LFB79:
 597:stm32f10x_it.c **** 
 598:stm32f10x_it.c **** /*******************************************************************************
 599:stm32f10x_it.c **** * Function Name  : EXTI15_10_IRQHandler
 600:stm32f10x_it.c **** * Description    : This function handles External lines 15 to 10 interrupt request.
 601:stm32f10x_it.c **** * Input          : None
 602:stm32f10x_it.c **** * Output         : None
 603:stm32f10x_it.c **** * Return         : None
 604:stm32f10x_it.c **** *******************************************************************************/
 605:stm32f10x_it.c **** void EXTI15_10_IRQHandler(void)
 606:stm32f10x_it.c **** {}
 21154              		.loc 1 606 0
 21155              		.cfi_startproc
 21156              		@ args = 0, pretend = 0, frame = 0
 21157              		@ frame_needed = 0, uses_anonymous_args = 0
 21158              		@ link register save eliminated.
 21159              		.loc 1 606 0
 21160 0000 7047     		bx	lr
 21161              		.cfi_endproc
 21162              	.LFE79:
 21164              		.section	.text.RTCAlarm_IRQHandler,"ax",%progbits
 21165              		.align	1
 21166              		.global	RTCAlarm_IRQHandler
 21167              		.thumb
 21168              		.thumb_func
 21170              	RTCAlarm_IRQHandler:
 21171              	.LFB80:
 607:stm32f10x_it.c **** 
 608:stm32f10x_it.c **** /*******************************************************************************
 609:stm32f10x_it.c **** * Function Name  : RTCAlarm_IRQHandler
 610:stm32f10x_it.c **** * Description    : This function handles RTC Alarm interrupt request.
 611:stm32f10x_it.c **** * Input          : None
 612:stm32f10x_it.c **** * Output         : None
 613:stm32f10x_it.c **** * Return         : None
 614:stm32f10x_it.c **** *******************************************************************************/
 615:stm32f10x_it.c **** void RTCAlarm_IRQHandler(void)
 616:stm32f10x_it.c **** {}
 21172              		.loc 1 616 0
 21173              		.cfi_startproc
 21174              		@ args = 0, pretend = 0, frame = 0
 21175              		@ frame_needed = 0, uses_anonymous_args = 0
 21176              		@ link register save eliminated.
 21177              		.loc 1 616 0
 21178 0000 7047     		bx	lr
 21179              		.cfi_endproc
 21180              	.LFE80:
 21182              		.section	.text.USBWakeUp_IRQHandler,"ax",%progbits
 21183              		.align	1
 21184              		.global	USBWakeUp_IRQHandler
 21185              		.thumb
 21186              		.thumb_func
 21188              	USBWakeUp_IRQHandler:
 21189              	.LFB81:
 617:stm32f10x_it.c **** 
 618:stm32f10x_it.c **** /*******************************************************************************
 619:stm32f10x_it.c **** * Function Name  : USBWakeUp_IRQHandler
 620:stm32f10x_it.c **** * Description    : This function handles USB WakeUp interrupt request.
 621:stm32f10x_it.c **** * Input          : None
 622:stm32f10x_it.c **** * Output         : None
 623:stm32f10x_it.c **** * Return         : None
 624:stm32f10x_it.c **** *******************************************************************************/
 625:stm32f10x_it.c **** void USBWakeUp_IRQHandler(void)
 626:stm32f10x_it.c **** {}
 21190              		.loc 1 626 0
 21191              		.cfi_startproc
 21192              		@ args = 0, pretend = 0, frame = 0
 21193              		@ frame_needed = 0, uses_anonymous_args = 0
 21194              		@ link register save eliminated.
 21195              		.loc 1 626 0
 21196 0000 7047     		bx	lr
 21197              		.cfi_endproc
 21198              	.LFE81:
 21200              		.section	.text.TIM8_BRK_IRQHandler,"ax",%progbits
 21201              		.align	1
 21202              		.global	TIM8_BRK_IRQHandler
 21203              		.thumb
 21204              		.thumb_func
 21206              	TIM8_BRK_IRQHandler:
 21207              	.LFB82:
 627:stm32f10x_it.c **** /*******************************************************************************
 628:stm32f10x_it.c **** * Function Name  : TIM8_BRK_IRQHandler
 629:stm32f10x_it.c **** * Description    : This function handles TIM8 Break interrupt request.
 630:stm32f10x_it.c **** * Input          : None
 631:stm32f10x_it.c **** * Output         : None
 632:stm32f10x_it.c **** * Return         : None
 633:stm32f10x_it.c **** *******************************************************************************/
 634:stm32f10x_it.c **** void TIM8_BRK_IRQHandler(void)
 635:stm32f10x_it.c **** {}
 21208              		.loc 1 635 0
 21209              		.cfi_startproc
 21210              		@ args = 0, pretend = 0, frame = 0
 21211              		@ frame_needed = 0, uses_anonymous_args = 0
 21212              		@ link register save eliminated.
 21213              		.loc 1 635 0
 21214 0000 7047     		bx	lr
 21215              		.cfi_endproc
 21216              	.LFE82:
 21218              		.section	.text.TIM8_UP_IRQHandler,"ax",%progbits
 21219              		.align	1
 21220              		.global	TIM8_UP_IRQHandler
 21221              		.thumb
 21222              		.thumb_func
 21224              	TIM8_UP_IRQHandler:
 21225              	.LFB83:
 636:stm32f10x_it.c **** 
 637:stm32f10x_it.c **** /*******************************************************************************
 638:stm32f10x_it.c **** * Function Name  : TIM8_UP_IRQHandler
 639:stm32f10x_it.c **** * Description    : This function handles TIM8 overflow and update interrupt
 640:stm32f10x_it.c **** *                  request.
 641:stm32f10x_it.c **** * Input          : None
 642:stm32f10x_it.c **** * Output         : None
 643:stm32f10x_it.c **** * Return         : None
 644:stm32f10x_it.c **** *******************************************************************************/
 645:stm32f10x_it.c **** void TIM8_UP_IRQHandler(void)
 646:stm32f10x_it.c **** {}
 21226              		.loc 1 646 0
 21227              		.cfi_startproc
 21228              		@ args = 0, pretend = 0, frame = 0
 21229              		@ frame_needed = 0, uses_anonymous_args = 0
 21230              		@ link register save eliminated.
 21231              		.loc 1 646 0
 21232 0000 7047     		bx	lr
 21233              		.cfi_endproc
 21234              	.LFE83:
 21236              		.section	.text.TIM8_TRG_COM_IRQHandler,"ax",%progbits
 21237              		.align	1
 21238              		.global	TIM8_TRG_COM_IRQHandler
 21239              		.thumb
 21240              		.thumb_func
 21242              	TIM8_TRG_COM_IRQHandler:
 21243              	.LFB84:
 647:stm32f10x_it.c **** 
 648:stm32f10x_it.c **** /*******************************************************************************
 649:stm32f10x_it.c **** * Function Name  : TIM8_TRG_COM_IRQHandler
 650:stm32f10x_it.c **** * Description    : This function handles TIM8 Trigger and commutation interrupts
 651:stm32f10x_it.c **** *                  requests.
 652:stm32f10x_it.c **** * Input          : None
 653:stm32f10x_it.c **** * Output         : None
 654:stm32f10x_it.c **** * Return         : None
 655:stm32f10x_it.c **** *******************************************************************************/
 656:stm32f10x_it.c **** void TIM8_TRG_COM_IRQHandler(void)
 657:stm32f10x_it.c **** {}
 21244              		.loc 1 657 0
 21245              		.cfi_startproc
 21246              		@ args = 0, pretend = 0, frame = 0
 21247              		@ frame_needed = 0, uses_anonymous_args = 0
 21248              		@ link register save eliminated.
 21249              		.loc 1 657 0
 21250 0000 7047     		bx	lr
 21251              		.cfi_endproc
 21252              	.LFE84:
 21254              		.section	.text.TIM8_CC_IRQHandler,"ax",%progbits
 21255              		.align	1
 21256              		.global	TIM8_CC_IRQHandler
 21257              		.thumb
 21258              		.thumb_func
 21260              	TIM8_CC_IRQHandler:
 21261              	.LFB85:
 658:stm32f10x_it.c **** 
 659:stm32f10x_it.c **** /*******************************************************************************
 660:stm32f10x_it.c **** * Function Name  : TIM8_CC_IRQHandler
 661:stm32f10x_it.c **** * Description    : This function handles TIM8 capture compare interrupt request.
 662:stm32f10x_it.c **** * Input          : None
 663:stm32f10x_it.c **** * Output         : None
 664:stm32f10x_it.c **** * Return         : None
 665:stm32f10x_it.c **** *******************************************************************************/
 666:stm32f10x_it.c **** void TIM8_CC_IRQHandler(void)
 667:stm32f10x_it.c **** {}
 21262              		.loc 1 667 0
 21263              		.cfi_startproc
 21264              		@ args = 0, pretend = 0, frame = 0
 21265              		@ frame_needed = 0, uses_anonymous_args = 0
 21266              		@ link register save eliminated.
 21267              		.loc 1 667 0
 21268 0000 7047     		bx	lr
 21269              		.cfi_endproc
 21270              	.LFE85:
 21272              		.section	.text.ADC3_IRQHandler,"ax",%progbits
 21273              		.align	1
 21274              		.global	ADC3_IRQHandler
 21275              		.thumb
 21276              		.thumb_func
 21278              	ADC3_IRQHandler:
 21279              	.LFB86:
 668:stm32f10x_it.c **** 
 669:stm32f10x_it.c **** /*******************************************************************************
 670:stm32f10x_it.c **** * Function Name  : ADC3_IRQHandler
 671:stm32f10x_it.c **** * Description    : This function handles ADC3 global interrupt request.
 672:stm32f10x_it.c **** * Input          : None
 673:stm32f10x_it.c **** * Output         : None
 674:stm32f10x_it.c **** * Return         : None
 675:stm32f10x_it.c **** *******************************************************************************/
 676:stm32f10x_it.c **** void ADC3_IRQHandler(void)
 677:stm32f10x_it.c **** {}
 21280              		.loc 1 677 0
 21281              		.cfi_startproc
 21282              		@ args = 0, pretend = 0, frame = 0
 21283              		@ frame_needed = 0, uses_anonymous_args = 0
 21284              		@ link register save eliminated.
 21285              		.loc 1 677 0
 21286 0000 7047     		bx	lr
 21287              		.cfi_endproc
 21288              	.LFE86:
 21290              		.section	.text.FSMC_IRQHandler,"ax",%progbits
 21291              		.align	1
 21292              		.global	FSMC_IRQHandler
 21293              		.thumb
 21294              		.thumb_func
 21296              	FSMC_IRQHandler:
 21297              	.LFB87:
 678:stm32f10x_it.c **** 
 679:stm32f10x_it.c **** /*******************************************************************************
 680:stm32f10x_it.c **** * Function Name  : FSMC_IRQHandler
 681:stm32f10x_it.c **** * Description    : This function handles FSMC global interrupt request.
 682:stm32f10x_it.c **** * Input          : None
 683:stm32f10x_it.c **** * Output         : None
 684:stm32f10x_it.c **** * Return         : None
 685:stm32f10x_it.c **** *******************************************************************************/
 686:stm32f10x_it.c **** void FSMC_IRQHandler(void)
 687:stm32f10x_it.c **** {}
 21298              		.loc 1 687 0
 21299              		.cfi_startproc
 21300              		@ args = 0, pretend = 0, frame = 0
 21301              		@ frame_needed = 0, uses_anonymous_args = 0
 21302              		@ link register save eliminated.
 21303              		.loc 1 687 0
 21304 0000 7047     		bx	lr
 21305              		.cfi_endproc
 21306              	.LFE87:
 21308              		.section	.text.SDIO_IRQHandler,"ax",%progbits
 21309              		.align	1
 21310              		.global	SDIO_IRQHandler
 21311              		.thumb
 21312              		.thumb_func
 21314              	SDIO_IRQHandler:
 21315              	.LFB88:
 688:stm32f10x_it.c **** 
 689:stm32f10x_it.c **** /*******************************************************************************
 690:stm32f10x_it.c **** * Function Name  : SDIO_IRQHandler
 691:stm32f10x_it.c **** * Description    : This function handles SDIO global interrupt request.
 692:stm32f10x_it.c **** * Input          : None
 693:stm32f10x_it.c **** * Output         : None
 694:stm32f10x_it.c **** * Return         : None
 695:stm32f10x_it.c **** *******************************************************************************/
 696:stm32f10x_it.c **** // перенесена в модуль sdio.cpp
 697:stm32f10x_it.c **** 
 698:stm32f10x_it.c **** void SDIO_IRQHandler(void)
 699:stm32f10x_it.c **** {
 21316              		.loc 1 699 0
 21317              		.cfi_startproc
 21318              		@ args = 0, pretend = 0, frame = 0
 21319              		@ frame_needed = 0, uses_anonymous_args = 0
 21320 0000 08B5     		push	{r3, lr}
 21321              	.LCFI3:
 21322              		.cfi_def_cfa_offset 8
 21323              		.cfi_offset 14, -4
 21324              		.cfi_offset 3, -8
 700:stm32f10x_it.c ****   SD_ProcessIRQSrc();
 21325              		.loc 1 700 0
 21326 0002 014B     		ldr	r3, .L74
 21327 0004 9847     		blx	r3
 701:stm32f10x_it.c **** }
 21328              		.loc 1 701 0
 21329 0006 08BD     		pop	{r3, pc}
 21330              	.L75:
 21331              		.align	2
 21332              	.L74:
 21333 0008 00000000 		.word	SD_ProcessIRQSrc
 21334              		.cfi_endproc
 21335              	.LFE88:
 21337              		.section	.text.TIM5_IRQHandler,"ax",%progbits
 21338              		.align	1
 21339              		.global	TIM5_IRQHandler
 21340              		.thumb
 21341              		.thumb_func
 21343              	TIM5_IRQHandler:
 21344              	.LFB89:
 702:stm32f10x_it.c **** /*******************************************************************************
 703:stm32f10x_it.c **** * Function Name  : TIM5_IRQHandler
 704:stm32f10x_it.c **** * Description    : This function handles TIM5 global interrupt request.
 705:stm32f10x_it.c **** * Input          : None
 706:stm32f10x_it.c **** * Output         : None
 707:stm32f10x_it.c **** * Return         : None
 708:stm32f10x_it.c **** *******************************************************************************/
 709:stm32f10x_it.c **** void TIM5_IRQHandler(void)
 710:stm32f10x_it.c **** {}
 21345              		.loc 1 710 0
 21346              		.cfi_startproc
 21347              		@ args = 0, pretend = 0, frame = 0
 21348              		@ frame_needed = 0, uses_anonymous_args = 0
 21349              		@ link register save eliminated.
 21350              		.loc 1 710 0
 21351 0000 7047     		bx	lr
 21352              		.cfi_endproc
 21353              	.LFE89:
 21355              		.section	.text.SPI3_IRQHandler,"ax",%progbits
 21356              		.align	1
 21357              		.global	SPI3_IRQHandler
 21358              		.thumb
 21359              		.thumb_func
 21361              	SPI3_IRQHandler:
 21362              	.LFB90:
 711:stm32f10x_it.c **** 
 712:stm32f10x_it.c **** /*******************************************************************************
 713:stm32f10x_it.c **** * Function Name  : SPI3_IRQHandler
 714:stm32f10x_it.c **** * Description    : This function handles SPI3 global interrupt request.
 715:stm32f10x_it.c **** * Input          : None
 716:stm32f10x_it.c **** * Output         : None
 717:stm32f10x_it.c **** * Return         : None
 718:stm32f10x_it.c **** *******************************************************************************/
 719:stm32f10x_it.c **** void SPI3_IRQHandler(void)
 720:stm32f10x_it.c **** {}
 21363              		.loc 1 720 0
 21364              		.cfi_startproc
 21365              		@ args = 0, pretend = 0, frame = 0
 21366              		@ frame_needed = 0, uses_anonymous_args = 0
 21367              		@ link register save eliminated.
 21368              		.loc 1 720 0
 21369 0000 7047     		bx	lr
 21370              		.cfi_endproc
 21371              	.LFE90:
 21373              		.section	.text.UART4_IRQHandler,"ax",%progbits
 21374              		.align	1
 21375              		.global	UART4_IRQHandler
 21376              		.thumb
 21377              		.thumb_func
 21379              	UART4_IRQHandler:
 21380              	.LFB91:
 721:stm32f10x_it.c **** 
 722:stm32f10x_it.c **** /*******************************************************************************
 723:stm32f10x_it.c **** * Function Name  : UART4_IRQHandler
 724:stm32f10x_it.c **** * Description    : This function handles UART4 global interrupt request.
 725:stm32f10x_it.c **** * Input          : None
 726:stm32f10x_it.c **** * Output         : None
 727:stm32f10x_it.c **** * Return         : None
 728:stm32f10x_it.c **** *******************************************************************************/
 729:stm32f10x_it.c **** void UART4_IRQHandler(void)
 730:stm32f10x_it.c **** {}
 21381              		.loc 1 730 0
 21382              		.cfi_startproc
 21383              		@ args = 0, pretend = 0, frame = 0
 21384              		@ frame_needed = 0, uses_anonymous_args = 0
 21385              		@ link register save eliminated.
 21386              		.loc 1 730 0
 21387 0000 7047     		bx	lr
 21388              		.cfi_endproc
 21389              	.LFE91:
 21391              		.section	.text.UART5_IRQHandler,"ax",%progbits
 21392              		.align	1
 21393              		.global	UART5_IRQHandler
 21394              		.thumb
 21395              		.thumb_func
 21397              	UART5_IRQHandler:
 21398              	.LFB92:
 731:stm32f10x_it.c **** 
 732:stm32f10x_it.c **** /*******************************************************************************
 733:stm32f10x_it.c **** * Function Name  : UART5_IRQHandler
 734:stm32f10x_it.c **** * Description    : This function handles UART5 global interrupt request.
 735:stm32f10x_it.c **** * Input          : None
 736:stm32f10x_it.c **** * Output         : None
 737:stm32f10x_it.c **** * Return         : None
 738:stm32f10x_it.c **** *******************************************************************************/
 739:stm32f10x_it.c **** void UART5_IRQHandler(void)
 740:stm32f10x_it.c **** {}
 21399              		.loc 1 740 0
 21400              		.cfi_startproc
 21401              		@ args = 0, pretend = 0, frame = 0
 21402              		@ frame_needed = 0, uses_anonymous_args = 0
 21403              		@ link register save eliminated.
 21404              		.loc 1 740 0
 21405 0000 7047     		bx	lr
 21406              		.cfi_endproc
 21407              	.LFE92:
 21409              		.section	.text.TIM6_IRQHandler,"ax",%progbits
 21410              		.align	1
 21411              		.global	TIM6_IRQHandler
 21412              		.thumb
 21413              		.thumb_func
 21415              	TIM6_IRQHandler:
 21416              	.LFB93:
 741:stm32f10x_it.c **** 
 742:stm32f10x_it.c **** /*******************************************************************************
 743:stm32f10x_it.c **** * Function Name  : TIM6_IRQHandler
 744:stm32f10x_it.c **** * Description    : This function handles TIM6 global interrupt request.
 745:stm32f10x_it.c **** * Input          : None
 746:stm32f10x_it.c **** * Output         : None
 747:stm32f10x_it.c **** * Return         : None
 748:stm32f10x_it.c **** *******************************************************************************/
 749:stm32f10x_it.c **** void TIM6_IRQHandler(void)
 750:stm32f10x_it.c **** {}
 21417              		.loc 1 750 0
 21418              		.cfi_startproc
 21419              		@ args = 0, pretend = 0, frame = 0
 21420              		@ frame_needed = 0, uses_anonymous_args = 0
 21421              		@ link register save eliminated.
 21422              		.loc 1 750 0
 21423 0000 7047     		bx	lr
 21424              		.cfi_endproc
 21425              	.LFE93:
 21427              		.section	.text.TIM7_IRQHandler,"ax",%progbits
 21428              		.align	1
 21429              		.global	TIM7_IRQHandler
 21430              		.thumb
 21431              		.thumb_func
 21433              	TIM7_IRQHandler:
 21434              	.LFB94:
 751:stm32f10x_it.c **** 
 752:stm32f10x_it.c **** /*******************************************************************************
 753:stm32f10x_it.c **** * Function Name  : TIM7_IRQHandler
 754:stm32f10x_it.c **** * Description    : This function handles TIM7 global interrupt request.
 755:stm32f10x_it.c **** * Input          : None
 756:stm32f10x_it.c **** * Output         : None
 757:stm32f10x_it.c **** * Return         : None
 758:stm32f10x_it.c **** *******************************************************************************/
 759:stm32f10x_it.c **** void TIM7_IRQHandler(void)
 760:stm32f10x_it.c **** {}
 21435              		.loc 1 760 0
 21436              		.cfi_startproc
 21437              		@ args = 0, pretend = 0, frame = 0
 21438              		@ frame_needed = 0, uses_anonymous_args = 0
 21439              		@ link register save eliminated.
 21440              		.loc 1 760 0
 21441 0000 7047     		bx	lr
 21442              		.cfi_endproc
 21443              	.LFE94:
 21445              		.section	.text.DMA2_Channel1_IRQHandler,"ax",%progbits
 21446              		.align	1
 21447              		.global	DMA2_Channel1_IRQHandler
 21448              		.thumb
 21449              		.thumb_func
 21451              	DMA2_Channel1_IRQHandler:
 21452              	.LFB95:
 761:stm32f10x_it.c **** 
 762:stm32f10x_it.c **** /*******************************************************************************
 763:stm32f10x_it.c **** * Function Name  : DMA2_Channel1_IRQHandler
 764:stm32f10x_it.c **** * Description    : This function handles DMA2 Channel 1 interrupt request.
 765:stm32f10x_it.c **** * Input          : None
 766:stm32f10x_it.c **** * Output         : None
 767:stm32f10x_it.c **** * Return         : None
 768:stm32f10x_it.c **** *******************************************************************************/
 769:stm32f10x_it.c **** void DMA2_Channel1_IRQHandler(void)
 770:stm32f10x_it.c **** {}
 21453              		.loc 1 770 0
 21454              		.cfi_startproc
 21455              		@ args = 0, pretend = 0, frame = 0
 21456              		@ frame_needed = 0, uses_anonymous_args = 0
 21457              		@ link register save eliminated.
 21458              		.loc 1 770 0
 21459 0000 7047     		bx	lr
 21460              		.cfi_endproc
 21461              	.LFE95:
 21463              		.section	.text.DMA2_Channel2_IRQHandler,"ax",%progbits
 21464              		.align	1
 21465              		.global	DMA2_Channel2_IRQHandler
 21466              		.thumb
 21467              		.thumb_func
 21469              	DMA2_Channel2_IRQHandler:
 21470              	.LFB96:
 771:stm32f10x_it.c **** 
 772:stm32f10x_it.c **** /*******************************************************************************
 773:stm32f10x_it.c **** * Function Name  : DMA2_Channel2_IRQHandler
 774:stm32f10x_it.c **** * Description    : This function handles DMA2 Channel 2 interrupt request.
 775:stm32f10x_it.c **** * Input          : None
 776:stm32f10x_it.c **** * Output         : None
 777:stm32f10x_it.c **** * Return         : None
 778:stm32f10x_it.c **** *******************************************************************************/
 779:stm32f10x_it.c **** void DMA2_Channel2_IRQHandler(void)
 780:stm32f10x_it.c **** {}
 21471              		.loc 1 780 0
 21472              		.cfi_startproc
 21473              		@ args = 0, pretend = 0, frame = 0
 21474              		@ frame_needed = 0, uses_anonymous_args = 0
 21475              		@ link register save eliminated.
 21476              		.loc 1 780 0
 21477 0000 7047     		bx	lr
 21478              		.cfi_endproc
 21479              	.LFE96:
 21481              		.section	.text.DMA2_Channel3_IRQHandler,"ax",%progbits
 21482              		.align	1
 21483              		.global	DMA2_Channel3_IRQHandler
 21484              		.thumb
 21485              		.thumb_func
 21487              	DMA2_Channel3_IRQHandler:
 21488              	.LFB97:
 781:stm32f10x_it.c **** 
 782:stm32f10x_it.c **** /*******************************************************************************
 783:stm32f10x_it.c **** * Function Name  : DMA2_Channel3_IRQHandler
 784:stm32f10x_it.c **** * Description    : This function handles DMA2 Channel 3 interrupt request.
 785:stm32f10x_it.c **** * Input          : None
 786:stm32f10x_it.c **** * Output         : None
 787:stm32f10x_it.c **** * Return         : None
 788:stm32f10x_it.c **** *******************************************************************************/
 789:stm32f10x_it.c **** void DMA2_Channel3_IRQHandler(void)
 790:stm32f10x_it.c **** {}
 21489              		.loc 1 790 0
 21490              		.cfi_startproc
 21491              		@ args = 0, pretend = 0, frame = 0
 21492              		@ frame_needed = 0, uses_anonymous_args = 0
 21493              		@ link register save eliminated.
 21494              		.loc 1 790 0
 21495 0000 7047     		bx	lr
 21496              		.cfi_endproc
 21497              	.LFE97:
 21499              		.section	.text.DMA2_Channel4_5_IRQHandler,"ax",%progbits
 21500              		.align	1
 21501              		.global	DMA2_Channel4_5_IRQHandler
 21502              		.thumb
 21503              		.thumb_func
 21505              	DMA2_Channel4_5_IRQHandler:
 21506              	.LFB98:
 791:stm32f10x_it.c **** 
 792:stm32f10x_it.c **** /*******************************************************************************
 793:stm32f10x_it.c **** * Function Name  : DMA2_Channel4_5_IRQHandler
 794:stm32f10x_it.c **** * Description    : This function handles DMA2 Channel 4 and DMA2 Channel 5
 795:stm32f10x_it.c **** *                  interrupt request.
 796:stm32f10x_it.c **** * Input          : None
 797:stm32f10x_it.c **** * Output         : None
 798:stm32f10x_it.c **** * Return         : None
 799:stm32f10x_it.c **** *******************************************************************************/
 800:stm32f10x_it.c **** void DMA2_Channel4_5_IRQHandler(void)
 801:stm32f10x_it.c **** {}
 21507              		.loc 1 801 0
 21508              		.cfi_startproc
 21509              		@ args = 0, pretend = 0, frame = 0
 21510              		@ frame_needed = 0, uses_anonymous_args = 0
 21511              		@ link register save eliminated.
 21512              		.loc 1 801 0
 21513 0000 7047     		bx	lr
 21514              		.cfi_endproc
 21515              	.LFE98:
 21517              		.text
 21518              	.Letext0: