   1              		.syntax unified
   2              		.cpu cortex-m3
   3              		.fpu softvfp
   4              		.eabi_attribute 20, 1
   5              		.eabi_attribute 21, 1
   6              		.eabi_attribute 23, 3
   7              		.eabi_attribute 24, 1
   8              		.eabi_attribute 25, 1
   9              		.eabi_attribute 26, 1
  10              		.eabi_attribute 30, 4
  11              		.eabi_attribute 18, 4
  12              		.thumb
  13              		.file	"syscalls.c"
  23              	.Ltext0:
 1705              		.align	1
 1706              		.global	_read_r
 1707              		.thumb
 1708              		.thumb_func
 1710              	_read_r:
 1711              	.LFB0:
   1:syscalls.c    **** /* Don't need anything here. */
   2:syscalls.c    **** 
   3:syscalls.c    **** #include <stdlib.h>
   4:syscalls.c    **** #include <sys/stat.h>
   5:syscalls.c    **** 
   6:syscalls.c    **** int _read_r (struct _reent *r, int file, char * ptr, int len)
   7:syscalls.c    **** {
 1712              		.loc 1 7 0
 1713              		.cfi_startproc
 1714              		@ args = 0, pretend = 0, frame = 0
 1715              		@ frame_needed = 0, uses_anonymous_args = 0
 1716              		@ link register save eliminated.
 1717              	.LVL0:
   8:syscalls.c    **** 	( void ) r;
   9:syscalls.c    **** 	( void ) file;
  10:syscalls.c    **** 	( void ) ptr;
  11:syscalls.c    **** 	( void ) len;
  12:syscalls.c    **** 	return -1;
  13:syscalls.c    **** }
 1718              		.loc 1 13 0
 1719 0000 4FF0FF30 		mov	r0, #-1
 1720              	.LVL1:
 1721 0004 7047     		bx	lr
 1722              		.cfi_endproc
 1723              	.LFE0:
 1725              		.section	.text._lseek_r,"ax",%progbits
 1726              		.align	1
 1727              		.global	_lseek_r
 1728              		.thumb
 1729              		.thumb_func
 1731              	_lseek_r:
 1732              	.LFB1:
  14:syscalls.c    **** 
  15:syscalls.c    **** /***************************************************************************/
  16:syscalls.c    **** 
  17:syscalls.c    **** int _lseek_r (struct _reent *r, int file, int ptr, int dir)
  18:syscalls.c    **** {
 1733              		.loc 1 18 0
 1734              		.cfi_startproc
 1735              		@ args = 0, pretend = 0, frame = 0
 1736              		@ frame_needed = 0, uses_anonymous_args = 0
 1737              		@ link register save eliminated.
 1738              	.LVL2:
  19:syscalls.c    **** 	( void ) r;
  20:syscalls.c    **** 	( void ) file;
  21:syscalls.c    **** 	( void ) ptr;
  22:syscalls.c    **** 	( void ) dir;
  23:syscalls.c    **** 	
  24:syscalls.c    **** 	return 0;
  25:syscalls.c    **** }
 1739              		.loc 1 25 0
 1740 0000 0020     		movs	r0, #0
 1741              	.LVL3:
 1742 0002 7047     		bx	lr
 1743              		.cfi_endproc
 1744              	.LFE1:
 1746              		.section	.text._write_r,"ax",%progbits
 1747              		.align	1
 1748              		.global	_write_r
 1749              		.thumb
 1750              		.thumb_func
 1752              	_write_r:
 1753              	.LFB2:
  26:syscalls.c    **** 
  27:syscalls.c    **** /***************************************************************************/
  28:syscalls.c    **** 
  29:syscalls.c    **** int _write_r (struct _reent *r, int file, char * ptr, int len)
  30:syscalls.c    **** {  
 1754              		.loc 1 30 0
 1755              		.cfi_startproc
 1756              		@ args = 0, pretend = 0, frame = 0
 1757              		@ frame_needed = 0, uses_anonymous_args = 0
 1758              		@ link register save eliminated.
 1759              	.LVL4:
  31:syscalls.c    **** 	( void ) r;
  32:syscalls.c    **** 	( void ) file;
  33:syscalls.c    **** 	( void ) ptr;
  34:syscalls.c    **** 	( void ) len;
  35:syscalls.c    **** 	
  36:syscalls.c    **** 	return 0;
  37:syscalls.c    **** }
 1760              		.loc 1 37 0
 1761 0000 0020     		movs	r0, #0
 1762              	.LVL5:
 1763 0002 7047     		bx	lr
 1764              		.cfi_endproc
 1765              	.LFE2:
 1767              		.section	.text._close_r,"ax",%progbits
 1768              		.align	1
 1769              		.global	_close_r
 1770              		.thumb
 1771              		.thumb_func
 1773              	_close_r:
 1774              	.LFB3:
  38:syscalls.c    **** 
  39:syscalls.c    **** /***************************************************************************/
  40:syscalls.c    **** 
  41:syscalls.c    **** int _close_r (struct _reent *r, int file)
  42:syscalls.c    **** {
 1775              		.loc 1 42 0
 1776              		.cfi_startproc
 1777              		@ args = 0, pretend = 0, frame = 0
 1778              		@ frame_needed = 0, uses_anonymous_args = 0
 1779              		@ link register save eliminated.
 1780              	.LVL6:
  43:syscalls.c    **** 	( void ) r;
  44:syscalls.c    **** 	( void ) file;
  45:syscalls.c    **** 
  46:syscalls.c    **** 	return 0;
  47:syscalls.c    **** }
 1781              		.loc 1 47 0
 1782 0000 0020     		movs	r0, #0
 1783              	.LVL7:
 1784 0002 7047     		bx	lr
 1785              		.cfi_endproc
 1786              	.LFE3:
 1788              		.section	.text._sbrk_r,"ax",%progbits
 1789              		.align	1
 1790              		.global	_sbrk_r
 1791              		.thumb
 1792              		.thumb_func
 1794              	_sbrk_r:
 1795              	.LFB4:
  48:syscalls.c    **** 
  49:syscalls.c    **** /***************************************************************************/
  50:syscalls.c    **** 
  51:syscalls.c    **** caddr_t _sbrk_r (struct _reent *r, int incr)
  52:syscalls.c    **** {
 1796              		.loc 1 52 0
 1797              		.cfi_startproc
 1798              		@ args = 0, pretend = 0, frame = 0
 1799              		@ frame_needed = 0, uses_anonymous_args = 0
 1800              		@ link register save eliminated.
 1801              	.LVL8:
  53:syscalls.c    **** 	( void ) r;
  54:syscalls.c    **** 	( void ) incr;
  55:syscalls.c    **** 	
  56:syscalls.c    **** 	return 0;
  57:syscalls.c    **** }
 1802              		.loc 1 57 0
 1803 0000 0020     		movs	r0, #0
 1804              	.LVL9:
 1805 0002 7047     		bx	lr
 1806              		.cfi_endproc
 1807              	.LFE4:
 1809              		.section	.text._fstat_r,"ax",%progbits
 1810              		.align	1
 1811              		.global	_fstat_r
 1812              		.thumb
 1813              		.thumb_func
 1815              	_fstat_r:
 1816              	.LFB5:
  58:syscalls.c    **** 
  59:syscalls.c    **** /***************************************************************************/
  60:syscalls.c    **** 
  61:syscalls.c    **** int _fstat_r (struct _reent *r, int file, struct stat * st)
  62:syscalls.c    **** {
 1817              		.loc 1 62 0
 1818              		.cfi_startproc
 1819              		@ args = 0, pretend = 0, frame = 0
 1820              		@ frame_needed = 0, uses_anonymous_args = 0
 1821              		@ link register save eliminated.
 1822              	.LVL10:
  63:syscalls.c    **** 	( void ) r;
  64:syscalls.c    **** 	( void ) file;
  65:syscalls.c    **** 	( void ) st;
  66:syscalls.c    **** 	
  67:syscalls.c    **** 	return 0;
  68:syscalls.c    **** }
 1823              		.loc 1 68 0
 1824 0000 0020     		movs	r0, #0
 1825              	.LVL11:
 1826 0002 7047     		bx	lr
 1827              		.cfi_endproc
 1828              	.LFE5:
 1830              		.section	.text._isatty_r,"ax",%progbits
 1831              		.align	1
 1832              		.global	_isatty_r
 1833              		.thumb
 1834              		.thumb_func
 1836              	_isatty_r:
 1837              	.LFB6:
  69:syscalls.c    **** 
  70:syscalls.c    **** /***************************************************************************/
  71:syscalls.c    **** 
  72:syscalls.c    **** int _isatty_r(struct _reent *r, int fd)
  73:syscalls.c    **** {
 1838              		.loc 1 73 0
 1839              		.cfi_startproc
 1840              		@ args = 0, pretend = 0, frame = 0
 1841              		@ frame_needed = 0, uses_anonymous_args = 0
 1842              		@ link register save eliminated.
 1843              	.LVL12:
  74:syscalls.c    **** 	( void ) r;
  75:syscalls.c    **** 	( void ) fd;
  76:syscalls.c    **** 	
  77:syscalls.c    **** 	return 0;
  78:syscalls.c    **** }
 1844              		.loc 1 78 0
 1845 0000 0020     		movs	r0, #0
 1846              	.LVL13:
 1847 0002 7047     		bx	lr
 1848              		.cfi_endproc
 1849              	.LFE6:
 1851              		.text
 1852              	.Letext0: